
soc_dma.axf:     file format elf32-littlearm


Disassembly of section .text:

00100040 <__cs3_interrupt_vector>:
  100040:	18 f0 9f e5 18 f0 9f e5 18 f0 9f e5 18 f0 9f e5     ................
  100050:	18 f0 9f e5 18 f0 9f e5 18 f0 9f e5 18 f0 9f e5     ................
  100060:	80 00 10 00 b0 bf 10 00 b4 bf 10 00 b8 bf 10 00     ................
  100070:	bc bf 10 00 ac bf 10 00 c0 bf 10 00 c4 bf 10 00     ................

00100080 <__cs3_reset>:
  100080:	ea000022 	b	100110 <_start>

00100084 <__cs3_start_c>:
  100084:	e3008002 	movw	r8, #2
  100088:	e92d4080 	push	{r7, lr}
  10008c:	e3408000 	movt	r8, #0
  100090:	e3580000 	cmp	r8, #0
  100094:	0a00001c 	beq	10010c <__cs3_start_c+0x88>
  100098:	e30ceb1c 	movw	lr, #51996	; 0xcb1c
  10009c:	e2488001 	sub	r8, r8, #1
  1000a0:	e3a04000 	mov	r4, #0
  1000a4:	e3a05000 	mov	r5, #0
  1000a8:	e340e010 	movt	lr, #16
  1000ac:	e99e1005 	ldmib	lr, {r0, r2, ip}
  1000b0:	e1500002 	cmp	r0, r2
  1000b4:	0082200c 	addeq	r2, r2, ip
  1000b8:	0a000007 	beq	1000dc <__cs3_start_c+0x58>
  1000bc:	e35c0000 	cmp	ip, #0
  1000c0:	0a000005 	beq	1000dc <__cs3_start_c+0x58>
  1000c4:	e1a03000 	mov	r3, r0
  1000c8:	e0c360d8 	ldrd	r6, [r3], #8
  1000cc:	e0431000 	sub	r1, r3, r0
  1000d0:	e0c260f8 	strd	r6, [r2], #8
  1000d4:	e151000c 	cmp	r1, ip
  1000d8:	1afffffa 	bne	1000c8 <__cs3_start_c+0x44>
  1000dc:	e59e0010 	ldr	r0, [lr, #16]
  1000e0:	e3500000 	cmp	r0, #0
  1000e4:	11a03002 	movne	r3, r2
  1000e8:	0a000003 	beq	1000fc <__cs3_start_c+0x78>
  1000ec:	e0c340f8 	strd	r4, [r3], #8
  1000f0:	e0431002 	sub	r1, r3, r2
  1000f4:	e1500001 	cmp	r0, r1
  1000f8:	1afffffb 	bne	1000ec <__cs3_start_c+0x68>
  1000fc:	e2488001 	sub	r8, r8, #1
  100100:	e28ee014 	add	lr, lr, #20
  100104:	e3780001 	cmn	r8, #1
  100108:	1affffe7 	bne	1000ac <__cs3_start_c+0x28>
  10010c:	eb002f59 	bl	10be78 <__cs3_premain>

00100110 <_start>:
  100110:	e51fd000 	ldr	sp, [pc, #-0]	; 100118 <_start+0x8>
  100114:	eaffffda 	b	100084 <__cs3_start_c>
  100118:	01100040 	.word	0x01100040

0010011c <deregister_tm_clones>:
  10011c:	e59f3024 	ldr	r3, [pc, #36]	; 100148 <deregister_tm_clones+0x2c>
  100120:	e30809b8 	movw	r0, #35256	; 0x89b8
  100124:	e3400011 	movt	r0, #17
  100128:	e0433000 	sub	r3, r3, r0
  10012c:	e3530006 	cmp	r3, #6
  100130:	912fff1e 	bxls	lr
  100134:	e3003000 	movw	r3, #0
  100138:	e3403000 	movt	r3, #0
  10013c:	e3530000 	cmp	r3, #0
  100140:	012fff1e 	bxeq	lr
  100144:	e12fff13 	bx	r3
  100148:	001189bb 	.word	0x001189bb

0010014c <register_tm_clones>:
  10014c:	e30839b8 	movw	r3, #35256	; 0x89b8
  100150:	e30809b8 	movw	r0, #35256	; 0x89b8
  100154:	e3403011 	movt	r3, #17
  100158:	e3400011 	movt	r0, #17
  10015c:	e0431000 	sub	r1, r3, r0
  100160:	e1a01141 	asr	r1, r1, #2
  100164:	e0811fa1 	add	r1, r1, r1, lsr #31
  100168:	e1b010c1 	asrs	r1, r1, #1
  10016c:	012fff1e 	bxeq	lr
  100170:	e3003000 	movw	r3, #0
  100174:	e3403000 	movt	r3, #0
  100178:	e3530000 	cmp	r3, #0
  10017c:	012fff1e 	bxeq	lr
  100180:	e12fff13 	bx	r3

00100184 <__do_global_dtors_aux>:
  100184:	e92d4010 	push	{r4, lr}
  100188:	e30849b8 	movw	r4, #35256	; 0x89b8
  10018c:	e3404011 	movt	r4, #17
  100190:	e5d43000 	ldrb	r3, [r4]
  100194:	e3530000 	cmp	r3, #0
  100198:	18bd8010 	popne	{r4, pc}
  10019c:	ebffffde 	bl	10011c <deregister_tm_clones>
  1001a0:	e3003000 	movw	r3, #0
  1001a4:	e3403000 	movt	r3, #0
  1001a8:	e3530000 	cmp	r3, #0
  1001ac:	0a000002 	beq	1001bc <__do_global_dtors_aux+0x38>
  1001b0:	e30c004c 	movw	r0, #49228	; 0xc04c
  1001b4:	e3400010 	movt	r0, #16
  1001b8:	e320f000 	nop	{0}
  1001bc:	e3a03001 	mov	r3, #1
  1001c0:	e5c43000 	strb	r3, [r4]
  1001c4:	e8bd8010 	pop	{r4, pc}

001001c8 <frame_dummy>:
  1001c8:	e3003000 	movw	r3, #0
  1001cc:	e92d4010 	push	{r4, lr}
  1001d0:	e3403000 	movt	r3, #0
  1001d4:	e3530000 	cmp	r3, #0
  1001d8:	0a000004 	beq	1001f0 <frame_dummy+0x28>
  1001dc:	e30819bc 	movw	r1, #35260	; 0x89bc
  1001e0:	e30c004c 	movw	r0, #49228	; 0xc04c
  1001e4:	e3401011 	movt	r1, #17
  1001e8:	e3400010 	movt	r0, #16
  1001ec:	e320f000 	nop	{0}
  1001f0:	e3000000 	movw	r0, #0
  1001f4:	e3400011 	movt	r0, #17
  1001f8:	e5903000 	ldr	r3, [r0]
  1001fc:	e3530000 	cmp	r3, #0
  100200:	1a000001 	bne	10020c <frame_dummy+0x44>
  100204:	e8bd4010 	pop	{r4, lr}
  100208:	eaffffcf 	b	10014c <register_tm_clones>
  10020c:	e3003000 	movw	r3, #0
  100210:	e3403000 	movt	r3, #0
  100214:	e3530000 	cmp	r3, #0
  100218:	0afffff9 	beq	100204 <frame_dummy+0x3c>
  10021c:	e12fff33 	blx	r3
  100220:	eafffff7 	b	100204 <frame_dummy+0x3c>

00100224 <main>:
  100224:	e92d4810 	push	{r4, fp, lr}
  100228:	e28db008 	add	fp, sp, #8
  10022c:	e24dd044 	sub	sp, sp, #68	; 0x44
  100230:	e30c0058 	movw	r0, #49240	; 0xc058
  100234:	e3400010 	movt	r0, #16
  100238:	eb000ccd 	bl	103574 <printf>
  10023c:	e30c0094 	movw	r0, #49300	; 0xc094
  100240:	e3400010 	movt	r0, #16
  100244:	eb000cca 	bl	103574 <printf>
  100248:	e30c00d0 	movw	r0, #49360	; 0xc0d0
  10024c:	e3400010 	movt	r0, #16
  100250:	eb000cc7 	bl	103574 <printf>
  100254:	e30c010c 	movw	r0, #49420	; 0xc10c
  100258:	e3400010 	movt	r0, #16
  10025c:	eb000cc4 	bl	103574 <printf>
  100260:	e30c0148 	movw	r0, #49480	; 0xc148
  100264:	e3400010 	movt	r0, #16
  100268:	eb000cc1 	bl	103574 <printf>
  10026c:	e30c0180 	movw	r0, #49536	; 0xc180
  100270:	e3400010 	movt	r0, #16
  100274:	eb000cbe 	bl	103574 <printf>
  100278:	e30c01bc 	movw	r0, #49596	; 0xc1bc
  10027c:	e3400010 	movt	r0, #16
  100280:	eb000cbb 	bl	103574 <printf>
  100284:	e30c01f4 	movw	r0, #49652	; 0xc1f4
  100288:	e3400010 	movt	r0, #16
  10028c:	eb000d0f 	bl	1036d0 <puts>
  100290:	e30c0204 	movw	r0, #49668	; 0xc204
  100294:	e3400010 	movt	r0, #16
  100298:	eb000cb5 	bl	103574 <printf>
  10029c:	e3a03000 	mov	r3, #0
  1002a0:	e50b3010 	str	r3, [fp, #-16]
  1002a4:	e3a03000 	mov	r3, #0
  1002a8:	e34c3002 	movt	r3, #49154	; 0xc002
  1002ac:	e50b3020 	str	r3, [fp, #-32]	; 0xffffffe0
  1002b0:	e3a00009 	mov	r0, #9
  1002b4:	eb0001c7 	bl	1009d8 <cache_configuration>
  1002b8:	e3a0301f 	mov	r3, #31
  1002bc:	e50b3024 	str	r3, [fp, #-36]	; 0xffffffdc
  1002c0:	e3a0301f 	mov	r3, #31
  1002c4:	e50b3028 	str	r3, [fp, #-40]	; 0xffffffd8
  1002c8:	e51b3010 	ldr	r3, [fp, #-16]
  1002cc:	e3530000 	cmp	r3, #0
  1002d0:	1a00000d 	bne	10030c <main+0xe8>
  1002d4:	e3a00003 	mov	r0, #3
  1002d8:	eb0005d0 	bl	101a20 <alt_acp_id_map_dynamic_read_set>
  1002dc:	e50b0010 	str	r0, [fp, #-16]
  1002e0:	e3a00004 	mov	r0, #4
  1002e4:	eb000632 	bl	101bb4 <alt_acp_id_map_dynamic_write_set>
  1002e8:	e50b0010 	str	r0, [fp, #-16]
  1002ec:	e51b1024 	ldr	r1, [fp, #-36]	; 0xffffffdc
  1002f0:	e3a00000 	mov	r0, #0
  1002f4:	eb000693 	bl	101d48 <alt_acp_id_map_dynamic_read_options_set>
  1002f8:	e50b0010 	str	r0, [fp, #-16]
  1002fc:	e51b1028 	ldr	r1, [fp, #-40]	; 0xffffffd8
  100300:	e3a00000 	mov	r0, #0
  100304:	eb0006a4 	bl	101d9c <alt_acp_id_map_dynamic_write_options_set>
  100308:	e50b0010 	str	r0, [fp, #-16]
  10030c:	e51b3010 	ldr	r3, [fp, #-16]
  100310:	e3530000 	cmp	r3, #0
  100314:	1a000047 	bne	100438 <main+0x214>
  100318:	e30c023c 	movw	r0, #49724	; 0xc23c
  10031c:	e3400010 	movt	r0, #16
  100320:	eb000c93 	bl	103574 <printf>
  100324:	e30c0274 	movw	r0, #49780	; 0xc274
  100328:	e3400010 	movt	r0, #16
  10032c:	eb000c90 	bl	103574 <printf>
  100330:	e3a01d22 	mov	r1, #2176	; 0x880
  100334:	e3a00000 	mov	r0, #0
  100338:	e34c0001 	movt	r0, #49153	; 0xc001
  10033c:	eb0008ad 	bl	1025f8 <fpga_dma_init>
  100340:	e30c0288 	movw	r0, #49800	; 0xc288
  100344:	e3400010 	movt	r0, #16
  100348:	eb000c89 	bl	103574 <printf>
  10034c:	e30c02a0 	movw	r0, #49824	; 0xc2a0
  100350:	e3400010 	movt	r0, #16
  100354:	eb000c86 	bl	103574 <printf>
  100358:	e3a01001 	mov	r1, #1
  10035c:	e3a00e32 	mov	r0, #800	; 0x320
  100360:	eb00092b 	bl	102814 <pmu_init_ns>
  100364:	eb000958 	bl	1028cc <pmu_counter_enable>
  100368:	eb00094e 	bl	1028a8 <pmu_getres_ns>
  10036c:	e50b002c 	str	r0, [fp, #-44]	; 0xffffffd4
  100370:	e30c02c0 	movw	r0, #49856	; 0xc2c0
  100374:	e3400010 	movt	r0, #16
  100378:	eb000c7d 	bl	103574 <printf>
  10037c:	ed5b7a0b 	vldr	s15, [fp, #-44]	; 0xffffffd4
  100380:	eef70ae7 	vcvt.f64.f32	d16, s15
  100384:	ec532b30 	vmov	r2, r3, d16
  100388:	e30c02ec 	movw	r0, #49900	; 0xc2ec
  10038c:	e3400010 	movt	r0, #16
  100390:	eb000c77 	bl	103574 <printf>
  100394:	e30c032c 	movw	r0, #49964	; 0xc32c
  100398:	e3400010 	movt	r0, #16
  10039c:	eb000c74 	bl	103574 <printf>
  1003a0:	e30839d4 	movw	r3, #35284	; 0x89d4
  1003a4:	e3403011 	movt	r3, #17
  1003a8:	e3a02b01 	mov	r2, #1024	; 0x400
  1003ac:	e5832000 	str	r2, [r3]
  1003b0:	e30839d4 	movw	r3, #35284	; 0x89d4
  1003b4:	e3403011 	movt	r3, #17
  1003b8:	e5933000 	ldr	r3, [r3]
  1003bc:	e1a01003 	mov	r1, r3
  1003c0:	e30c035c 	movw	r0, #50012	; 0xc35c
  1003c4:	e3400010 	movt	r0, #16
  1003c8:	eb000c69 	bl	103574 <printf>
  1003cc:	e30839d4 	movw	r3, #35284	; 0x89d4
  1003d0:	e3403011 	movt	r3, #17
  1003d4:	e5933000 	ldr	r3, [r3]
  1003d8:	e1a02003 	mov	r2, r3
  1003dc:	e24b3048 	sub	r3, fp, #72	; 0x48
  1003e0:	e1a01003 	mov	r1, r3
  1003e4:	e1a00002 	mov	r0, r2
  1003e8:	eb0008d6 	bl	102748 <align_malloc>
  1003ec:	e50b0030 	str	r0, [fp, #-48]	; 0xffffffd0
  1003f0:	e3a03087 	mov	r3, #135	; 0x87
  1003f4:	e3403087 	movt	r3, #135	; 0x87
  1003f8:	e50b3034 	str	r3, [fp, #-52]	; 0xffffffcc
  1003fc:	e51b3034 	ldr	r3, [fp, #-52]	; 0xffffffcc
  100400:	e1a01003 	mov	r1, r3
  100404:	e30c0364 	movw	r0, #50020	; 0xc364
  100408:	e3400010 	movt	r0, #16
  10040c:	eb000c58 	bl	103574 <printf>
  100410:	e51b3034 	ldr	r3, [fp, #-52]	; 0xffffffcc
  100414:	e6ef2073 	uxtb	r2, r3
  100418:	e51b3020 	ldr	r3, [fp, #-32]	; 0xffffffe0
  10041c:	e5c32000 	strb	r2, [r3]
  100420:	e30c0378 	movw	r0, #50040	; 0xc378
  100424:	e3400010 	movt	r0, #16
  100428:	eb000c51 	bl	103574 <printf>
  10042c:	e3a03000 	mov	r3, #0
  100430:	e50b3014 	str	r3, [fp, #-20]	; 0xffffffec
  100434:	ea0000a6 	b	1006d4 <main+0x4b0>
  100438:	e30c025c 	movw	r0, #49756	; 0xc25c
  10043c:	e3400010 	movt	r0, #16
  100440:	eb000c4b 	bl	103574 <printf>
  100444:	e3a03001 	mov	r3, #1
  100448:	ea00015f 	b	1009cc <main+0x7a8>
  10044c:	e3a03000 	mov	r3, #0
  100450:	e50b3018 	str	r3, [fp, #-24]	; 0xffffffe8
  100454:	ea000098 	b	1006bc <main+0x498>
  100458:	e51b3014 	ldr	r3, [fp, #-20]	; 0xffffffec
  10045c:	e3530000 	cmp	r3, #0
  100460:	ca000028 	bgt	100508 <main+0x2e4>
  100464:	e51b3018 	ldr	r3, [fp, #-24]	; 0xffffffe8
  100468:	e3530003 	cmp	r3, #3
  10046c:	1a000012 	bne	1004bc <main+0x298>
  100470:	e51b3014 	ldr	r3, [fp, #-20]	; 0xffffffec
  100474:	e1a02103 	lsl	r2, r3, #2
  100478:	e51b3018 	ldr	r3, [fp, #-24]	; 0xffffffe8
  10047c:	e0823003 	add	r3, r2, r3
  100480:	e1a02003 	mov	r2, r3
  100484:	e51b3030 	ldr	r3, [fp, #-48]	; 0xffffffd0
  100488:	e0833002 	add	r3, r3, r2
  10048c:	e3a0200c 	mov	r2, #12
  100490:	e5c32000 	strb	r2, [r3]
  100494:	e51b3014 	ldr	r3, [fp, #-20]	; 0xffffffec
  100498:	e1a02103 	lsl	r2, r3, #2
  10049c:	e51b3018 	ldr	r3, [fp, #-24]	; 0xffffffe8
  1004a0:	e0823003 	add	r3, r2, r3
  1004a4:	e2834103 	add	r4, r3, #-1073741824	; 0xc0000000
  1004a8:	eb000c95 	bl	103704 <rand>
  1004ac:	e1a03000 	mov	r3, r0
  1004b0:	e6ef3073 	uxtb	r3, r3
  1004b4:	e5c43000 	strb	r3, [r4]
  1004b8:	ea00007c 	b	1006b0 <main+0x48c>
  1004bc:	e51b3014 	ldr	r3, [fp, #-20]	; 0xffffffec
  1004c0:	e1a02103 	lsl	r2, r3, #2
  1004c4:	e51b3018 	ldr	r3, [fp, #-24]	; 0xffffffe8
  1004c8:	e0823003 	add	r3, r2, r3
  1004cc:	e1a02003 	mov	r2, r3
  1004d0:	e51b3030 	ldr	r3, [fp, #-48]	; 0xffffffd0
  1004d4:	e0833002 	add	r3, r3, r2
  1004d8:	e3a0200c 	mov	r2, #12
  1004dc:	e5c32000 	strb	r2, [r3]
  1004e0:	e51b3014 	ldr	r3, [fp, #-20]	; 0xffffffec
  1004e4:	e1a02103 	lsl	r2, r3, #2
  1004e8:	e51b3018 	ldr	r3, [fp, #-24]	; 0xffffffe8
  1004ec:	e0823003 	add	r3, r2, r3
  1004f0:	e2834103 	add	r4, r3, #-1073741824	; 0xc0000000
  1004f4:	eb000c82 	bl	103704 <rand>
  1004f8:	e1a03000 	mov	r3, r0
  1004fc:	e6ef3073 	uxtb	r3, r3
  100500:	e5c43000 	strb	r3, [r4]
  100504:	ea000069 	b	1006b0 <main+0x48c>
  100508:	e51b3014 	ldr	r3, [fp, #-20]	; 0xffffffec
  10050c:	e3530020 	cmp	r3, #32
  100510:	ca000028 	bgt	1005b8 <main+0x394>
  100514:	e51b3018 	ldr	r3, [fp, #-24]	; 0xffffffe8
  100518:	e3530003 	cmp	r3, #3
  10051c:	1a000012 	bne	10056c <main+0x348>
  100520:	e51b3014 	ldr	r3, [fp, #-20]	; 0xffffffec
  100524:	e1a02103 	lsl	r2, r3, #2
  100528:	e51b3018 	ldr	r3, [fp, #-24]	; 0xffffffe8
  10052c:	e0823003 	add	r3, r2, r3
  100530:	e1a02003 	mov	r2, r3
  100534:	e51b3030 	ldr	r3, [fp, #-48]	; 0xffffffd0
  100538:	e0833002 	add	r3, r3, r2
  10053c:	e3a02040 	mov	r2, #64	; 0x40
  100540:	e5c32000 	strb	r2, [r3]
  100544:	e51b3014 	ldr	r3, [fp, #-20]	; 0xffffffec
  100548:	e1a02103 	lsl	r2, r3, #2
  10054c:	e51b3018 	ldr	r3, [fp, #-24]	; 0xffffffe8
  100550:	e0823003 	add	r3, r2, r3
  100554:	e2834103 	add	r4, r3, #-1073741824	; 0xc0000000
  100558:	eb000c69 	bl	103704 <rand>
  10055c:	e1a03000 	mov	r3, r0
  100560:	e6ef3073 	uxtb	r3, r3
  100564:	e5c43000 	strb	r3, [r4]
  100568:	ea000050 	b	1006b0 <main+0x48c>
  10056c:	e51b3014 	ldr	r3, [fp, #-20]	; 0xffffffec
  100570:	e1a02103 	lsl	r2, r3, #2
  100574:	e51b3018 	ldr	r3, [fp, #-24]	; 0xffffffe8
  100578:	e0823003 	add	r3, r2, r3
  10057c:	e1a02003 	mov	r2, r3
  100580:	e51b3030 	ldr	r3, [fp, #-48]	; 0xffffffd0
  100584:	e0833002 	add	r3, r3, r2
  100588:	e3a02000 	mov	r2, #0
  10058c:	e5c32000 	strb	r2, [r3]
  100590:	e51b3014 	ldr	r3, [fp, #-20]	; 0xffffffec
  100594:	e1a02103 	lsl	r2, r3, #2
  100598:	e51b3018 	ldr	r3, [fp, #-24]	; 0xffffffe8
  10059c:	e0823003 	add	r3, r2, r3
  1005a0:	e2834103 	add	r4, r3, #-1073741824	; 0xc0000000
  1005a4:	eb000c56 	bl	103704 <rand>
  1005a8:	e1a03000 	mov	r3, r0
  1005ac:	e6ef3073 	uxtb	r3, r3
  1005b0:	e5c43000 	strb	r3, [r4]
  1005b4:	ea00003d 	b	1006b0 <main+0x48c>
  1005b8:	e51b3018 	ldr	r3, [fp, #-24]	; 0xffffffe8
  1005bc:	e3530003 	cmp	r3, #3
  1005c0:	1a000012 	bne	100610 <main+0x3ec>
  1005c4:	e51b3014 	ldr	r3, [fp, #-20]	; 0xffffffec
  1005c8:	e1a02103 	lsl	r2, r3, #2
  1005cc:	e51b3018 	ldr	r3, [fp, #-24]	; 0xffffffe8
  1005d0:	e0823003 	add	r3, r2, r3
  1005d4:	e1a02003 	mov	r2, r3
  1005d8:	e51b3030 	ldr	r3, [fp, #-48]	; 0xffffffd0
  1005dc:	e0833002 	add	r3, r3, r2
  1005e0:	e3a0203f 	mov	r2, #63	; 0x3f
  1005e4:	e5c32000 	strb	r2, [r3]
  1005e8:	e51b3014 	ldr	r3, [fp, #-20]	; 0xffffffec
  1005ec:	e1a02103 	lsl	r2, r3, #2
  1005f0:	e51b3018 	ldr	r3, [fp, #-24]	; 0xffffffe8
  1005f4:	e0823003 	add	r3, r2, r3
  1005f8:	e2834103 	add	r4, r3, #-1073741824	; 0xc0000000
  1005fc:	eb000c40 	bl	103704 <rand>
  100600:	e1a03000 	mov	r3, r0
  100604:	e6ef3073 	uxtb	r3, r3
  100608:	e5c43000 	strb	r3, [r4]
  10060c:	ea000027 	b	1006b0 <main+0x48c>
  100610:	e51b3018 	ldr	r3, [fp, #-24]	; 0xffffffe8
  100614:	e3530002 	cmp	r3, #2
  100618:	1a000012 	bne	100668 <main+0x444>
  10061c:	e51b3014 	ldr	r3, [fp, #-20]	; 0xffffffec
  100620:	e1a02103 	lsl	r2, r3, #2
  100624:	e51b3018 	ldr	r3, [fp, #-24]	; 0xffffffe8
  100628:	e0823003 	add	r3, r2, r3
  10062c:	e1a02003 	mov	r2, r3
  100630:	e51b3030 	ldr	r3, [fp, #-48]	; 0xffffffd0
  100634:	e0833002 	add	r3, r3, r2
  100638:	e3e0207f 	mvn	r2, #127	; 0x7f
  10063c:	e5c32000 	strb	r2, [r3]
  100640:	e51b3014 	ldr	r3, [fp, #-20]	; 0xffffffec
  100644:	e1a02103 	lsl	r2, r3, #2
  100648:	e51b3018 	ldr	r3, [fp, #-24]	; 0xffffffe8
  10064c:	e0823003 	add	r3, r2, r3
  100650:	e2834103 	add	r4, r3, #-1073741824	; 0xc0000000
  100654:	eb000c2a 	bl	103704 <rand>
  100658:	e1a03000 	mov	r3, r0
  10065c:	e6ef3073 	uxtb	r3, r3
  100660:	e5c43000 	strb	r3, [r4]
  100664:	ea000011 	b	1006b0 <main+0x48c>
  100668:	e51b3014 	ldr	r3, [fp, #-20]	; 0xffffffec
  10066c:	e1a02103 	lsl	r2, r3, #2
  100670:	e51b3018 	ldr	r3, [fp, #-24]	; 0xffffffe8
  100674:	e0823003 	add	r3, r2, r3
  100678:	e1a02003 	mov	r2, r3
  10067c:	e51b3030 	ldr	r3, [fp, #-48]	; 0xffffffd0
  100680:	e0833002 	add	r3, r3, r2
  100684:	e3a02000 	mov	r2, #0
  100688:	e5c32000 	strb	r2, [r3]
  10068c:	e51b3014 	ldr	r3, [fp, #-20]	; 0xffffffec
  100690:	e1a02103 	lsl	r2, r3, #2
  100694:	e51b3018 	ldr	r3, [fp, #-24]	; 0xffffffe8
  100698:	e0823003 	add	r3, r2, r3
  10069c:	e2834103 	add	r4, r3, #-1073741824	; 0xc0000000
  1006a0:	eb000c17 	bl	103704 <rand>
  1006a4:	e1a03000 	mov	r3, r0
  1006a8:	e6ef3073 	uxtb	r3, r3
  1006ac:	e5c43000 	strb	r3, [r4]
  1006b0:	e51b3018 	ldr	r3, [fp, #-24]	; 0xffffffe8
  1006b4:	e2833001 	add	r3, r3, #1
  1006b8:	e50b3018 	str	r3, [fp, #-24]	; 0xffffffe8
  1006bc:	e51b3018 	ldr	r3, [fp, #-24]	; 0xffffffe8
  1006c0:	e3530003 	cmp	r3, #3
  1006c4:	daffff63 	ble	100458 <main+0x234>
  1006c8:	e51b3014 	ldr	r3, [fp, #-20]	; 0xffffffec
  1006cc:	e2833001 	add	r3, r3, #1
  1006d0:	e50b3014 	str	r3, [fp, #-20]	; 0xffffffec
  1006d4:	e30839d4 	movw	r3, #35284	; 0x89d4
  1006d8:	e3403011 	movt	r3, #17
  1006dc:	e5933000 	ldr	r3, [r3]
  1006e0:	e2832003 	add	r2, r3, #3
  1006e4:	e3530000 	cmp	r3, #0
  1006e8:	b1a03002 	movlt	r3, r2
  1006ec:	a1a03003 	movge	r3, r3
  1006f0:	e1a03143 	asr	r3, r3, #2
  1006f4:	e1a02003 	mov	r2, r3
  1006f8:	e51b3014 	ldr	r3, [fp, #-20]	; 0xffffffec
  1006fc:	e1520003 	cmp	r2, r3
  100700:	caffff51 	bgt	10044c <main+0x228>
  100704:	e30c0398 	movw	r0, #50072	; 0xc398
  100708:	e3400010 	movt	r0, #16
  10070c:	eb000b98 	bl	103574 <printf>
  100710:	e30839d4 	movw	r3, #35284	; 0x89d4
  100714:	e3403011 	movt	r3, #17
  100718:	e5933000 	ldr	r3, [r3]
  10071c:	e1a02003 	mov	r2, r3
  100720:	e3a01103 	mov	r1, #-1073741824	; 0xc0000000
  100724:	e51b0030 	ldr	r0, [fp, #-48]	; 0xffffffd0
  100728:	eb00015b 	bl	100c9c <print_src_dst>
  10072c:	e51b1030 	ldr	r1, [fp, #-48]	; 0xffffffd0
  100730:	e30839d4 	movw	r3, #35284	; 0x89d4
  100734:	e3403011 	movt	r3, #17
  100738:	e5933000 	ldr	r3, [r3]
  10073c:	e3a02103 	mov	r2, #-1073741824	; 0xc0000000
  100740:	e30c03a4 	movw	r0, #50084	; 0xc3a4
  100744:	e3400010 	movt	r0, #16
  100748:	eb000b89 	bl	103574 <printf>
  10074c:	e51b3030 	ldr	r3, [fp, #-48]	; 0xffffffd0
  100750:	e2833102 	add	r3, r3, #-2147483648	; 0x80000000
  100754:	e1a01003 	mov	r1, r3
  100758:	e30839d4 	movw	r3, #35284	; 0x89d4
  10075c:	e3403011 	movt	r3, #17
  100760:	e5933000 	ldr	r3, [r3]
  100764:	e3a02000 	mov	r2, #0
  100768:	e30c03e0 	movw	r0, #50144	; 0xc3e0
  10076c:	e3400010 	movt	r0, #16
  100770:	eb000b7f 	bl	103574 <printf>
  100774:	e51b3030 	ldr	r3, [fp, #-48]	; 0xffffffd0
  100778:	e2831102 	add	r1, r3, #-2147483648	; 0x80000000
  10077c:	e30839d4 	movw	r3, #35284	; 0x89d4
  100780:	e3403011 	movt	r3, #17
  100784:	e5933000 	ldr	r3, [r3]
  100788:	e3a02000 	mov	r2, #0
  10078c:	e3a00000 	mov	r0, #0
  100790:	e34c0001 	movt	r0, #49153	; 0xc001
  100794:	eb0007a3 	bl	102628 <fpga_dma_config_transfer>
  100798:	eb00085e 	bl	102918 <pmu_counter_reset>
  10079c:	e3a00000 	mov	r0, #0
  1007a0:	e34c0001 	movt	r0, #49153	; 0xc001
  1007a4:	eb0007cf 	bl	1026e8 <fpga_dma_start_transfer>
  1007a8:	e320f000 	nop	{0}
  1007ac:	e3a00103 	mov	r0, #-1073741824	; 0xc0000000
  1007b0:	eb00018e 	bl	100df0 <ukf_transfer_done>
  1007b4:	e1a02000 	mov	r2, r0
  1007b8:	e30a3d11 	movw	r3, #44305	; 0xad11
  1007bc:	e34030de 	movt	r3, #222	; 0xde
  1007c0:	e1520003 	cmp	r2, r3
  1007c4:	1afffff8 	bne	1007ac <main+0x588>
  1007c8:	e24b3044 	sub	r3, fp, #68	; 0x44
  1007cc:	e1a00003 	mov	r0, r3
  1007d0:	eb00087c 	bl	1029c8 <pmu_counter_read_ns>
  1007d4:	e3a00103 	mov	r0, #-1073741824	; 0xc0000000
  1007d8:	eb000184 	bl	100df0 <ukf_transfer_done>
  1007dc:	e50b0038 	str	r0, [fp, #-56]	; 0xffffffc8
  1007e0:	e14b24d4 	ldrd	r2, [fp, #-68]	; 0xffffffbc
  1007e4:	e30c041c 	movw	r0, #50204	; 0xc41c
  1007e8:	e3400010 	movt	r0, #16
  1007ec:	eb000b60 	bl	103574 <printf>
  1007f0:	e30c0448 	movw	r0, #50248	; 0xc448
  1007f4:	e3400010 	movt	r0, #16
  1007f8:	eb000b5d 	bl	103574 <printf>
  1007fc:	e3a03000 	mov	r3, #0
  100800:	e50b301c 	str	r3, [fp, #-28]	; 0xffffffe4
  100804:	ea000002 	b	100814 <main+0x5f0>
  100808:	e51b301c 	ldr	r3, [fp, #-28]	; 0xffffffe4
  10080c:	e2833001 	add	r3, r3, #1
  100810:	e50b301c 	str	r3, [fp, #-28]	; 0xffffffe4
  100814:	e51b201c 	ldr	r2, [fp, #-28]	; 0xffffffe4
  100818:	e309367f 	movw	r3, #38527	; 0x967f
  10081c:	e3403098 	movt	r3, #152	; 0x98
  100820:	e1520003 	cmp	r2, r3
  100824:	dafffff7 	ble	100808 <main+0x5e4>
  100828:	e51b1038 	ldr	r1, [fp, #-56]	; 0xffffffc8
  10082c:	e30c0450 	movw	r0, #50256	; 0xc450
  100830:	e3400010 	movt	r0, #16
  100834:	eb000b4e 	bl	103574 <printf>
  100838:	e3a00103 	mov	r0, #-1073741824	; 0xc0000000
  10083c:	eb00016b 	bl	100df0 <ukf_transfer_done>
  100840:	e50b0038 	str	r0, [fp, #-56]	; 0xffffffc8
  100844:	e51b1038 	ldr	r1, [fp, #-56]	; 0xffffffc8
  100848:	e30c0450 	movw	r0, #50256	; 0xc450
  10084c:	e3400010 	movt	r0, #16
  100850:	eb000b47 	bl	103574 <printf>
  100854:	e3a00113 	mov	r0, #-1073741820	; 0xc0000004
  100858:	eb000164 	bl	100df0 <ukf_transfer_done>
  10085c:	e50b0038 	str	r0, [fp, #-56]	; 0xffffffc8
  100860:	e51b1038 	ldr	r1, [fp, #-56]	; 0xffffffc8
  100864:	e30c0450 	movw	r0, #50256	; 0xc450
  100868:	e3400010 	movt	r0, #16
  10086c:	eb000b40 	bl	103574 <printf>
  100870:	e3a00123 	mov	r0, #-1073741816	; 0xc0000008
  100874:	eb00015d 	bl	100df0 <ukf_transfer_done>
  100878:	e50b0038 	str	r0, [fp, #-56]	; 0xffffffc8
  10087c:	e51b1038 	ldr	r1, [fp, #-56]	; 0xffffffc8
  100880:	e30c0450 	movw	r0, #50256	; 0xc450
  100884:	e3400010 	movt	r0, #16
  100888:	eb000b39 	bl	103574 <printf>
  10088c:	e3a00133 	mov	r0, #-1073741812	; 0xc000000c
  100890:	eb000156 	bl	100df0 <ukf_transfer_done>
  100894:	e50b0038 	str	r0, [fp, #-56]	; 0xffffffc8
  100898:	e51b1038 	ldr	r1, [fp, #-56]	; 0xffffffc8
  10089c:	e30c0450 	movw	r0, #50256	; 0xc450
  1008a0:	e3400010 	movt	r0, #16
  1008a4:	eb000b32 	bl	103574 <printf>
  1008a8:	e3a00143 	mov	r0, #-1073741808	; 0xc0000010
  1008ac:	eb00014f 	bl	100df0 <ukf_transfer_done>
  1008b0:	e50b0038 	str	r0, [fp, #-56]	; 0xffffffc8
  1008b4:	e51b1038 	ldr	r1, [fp, #-56]	; 0xffffffc8
  1008b8:	e30c0450 	movw	r0, #50256	; 0xc450
  1008bc:	e3400010 	movt	r0, #16
  1008c0:	eb000b2b 	bl	103574 <printf>
  1008c4:	e3a00153 	mov	r0, #-1073741804	; 0xc0000014
  1008c8:	eb000148 	bl	100df0 <ukf_transfer_done>
  1008cc:	e50b0038 	str	r0, [fp, #-56]	; 0xffffffc8
  1008d0:	e51b1038 	ldr	r1, [fp, #-56]	; 0xffffffc8
  1008d4:	e30c0450 	movw	r0, #50256	; 0xc450
  1008d8:	e3400010 	movt	r0, #16
  1008dc:	eb000b24 	bl	103574 <printf>
  1008e0:	e3a00163 	mov	r0, #-1073741800	; 0xc0000018
  1008e4:	eb000141 	bl	100df0 <ukf_transfer_done>
  1008e8:	e50b0038 	str	r0, [fp, #-56]	; 0xffffffc8
  1008ec:	e51b1038 	ldr	r1, [fp, #-56]	; 0xffffffc8
  1008f0:	e30c0450 	movw	r0, #50256	; 0xc450
  1008f4:	e3400010 	movt	r0, #16
  1008f8:	eb000b1d 	bl	103574 <printf>
  1008fc:	e3a00173 	mov	r0, #-1073741796	; 0xc000001c
  100900:	eb00013a 	bl	100df0 <ukf_transfer_done>
  100904:	e50b0038 	str	r0, [fp, #-56]	; 0xffffffc8
  100908:	e51b1038 	ldr	r1, [fp, #-56]	; 0xffffffc8
  10090c:	e30c0450 	movw	r0, #50256	; 0xc450
  100910:	e3400010 	movt	r0, #16
  100914:	eb000b16 	bl	103574 <printf>
  100918:	e3a00183 	mov	r0, #-1073741792	; 0xc0000020
  10091c:	eb000133 	bl	100df0 <ukf_transfer_done>
  100920:	e50b0038 	str	r0, [fp, #-56]	; 0xffffffc8
  100924:	e51b1038 	ldr	r1, [fp, #-56]	; 0xffffffc8
  100928:	e30c0450 	movw	r0, #50256	; 0xc450
  10092c:	e3400010 	movt	r0, #16
  100930:	eb000b0f 	bl	103574 <printf>
  100934:	e3a00193 	mov	r0, #-1073741788	; 0xc0000024
  100938:	eb00012c 	bl	100df0 <ukf_transfer_done>
  10093c:	e50b0038 	str	r0, [fp, #-56]	; 0xffffffc8
  100940:	e51b1038 	ldr	r1, [fp, #-56]	; 0xffffffc8
  100944:	e30c0450 	movw	r0, #50256	; 0xc450
  100948:	e3400010 	movt	r0, #16
  10094c:	eb000b08 	bl	103574 <printf>
  100950:	e30c0460 	movw	r0, #50272	; 0xc460
  100954:	e3400010 	movt	r0, #16
  100958:	eb000b05 	bl	103574 <printf>
  10095c:	e30839d4 	movw	r3, #35284	; 0x89d4
  100960:	e3403011 	movt	r3, #17
  100964:	e5933000 	ldr	r3, [r3]
  100968:	e1a02003 	mov	r2, r3
  10096c:	e3a01103 	mov	r1, #-1073741824	; 0xc0000000
  100970:	e51b0030 	ldr	r0, [fp, #-48]	; 0xffffffd0
  100974:	eb0000c8 	bl	100c9c <print_src_dst>
  100978:	e30839d4 	movw	r3, #35284	; 0x89d4
  10097c:	e3403011 	movt	r3, #17
  100980:	e5933000 	ldr	r3, [r3]
  100984:	e1a02003 	mov	r2, r3
  100988:	e3a01103 	mov	r1, #-1073741824	; 0xc0000000
  10098c:	e51b0030 	ldr	r0, [fp, #-48]	; 0xffffffd0
  100990:	eb000aa7 	bl	103434 <memcmp>
  100994:	e1a03000 	mov	r3, r0
  100998:	e3530000 	cmp	r3, #0
  10099c:	1a000003 	bne	1009b0 <main+0x78c>
  1009a0:	e30c0484 	movw	r0, #50308	; 0xc484
  1009a4:	e3400010 	movt	r0, #16
  1009a8:	eb000af1 	bl	103574 <printf>
  1009ac:	ea000002 	b	1009bc <main+0x798>
  1009b0:	e30c04a8 	movw	r0, #50344	; 0xc4a8
  1009b4:	e3400010 	movt	r0, #16
  1009b8:	eb000aed 	bl	103574 <printf>
  1009bc:	e51b3048 	ldr	r3, [fp, #-72]	; 0xffffffb8
  1009c0:	e1a00003 	mov	r0, r3
  1009c4:	eb0008b9 	bl	102cb0 <free>
  1009c8:	e3a03000 	mov	r3, #0
  1009cc:	e1a00003 	mov	r0, r3
  1009d0:	e24bd008 	sub	sp, fp, #8
  1009d4:	e8bd8810 	pop	{r4, fp, pc}

001009d8 <cache_configuration>:
  1009d8:	e92d4800 	push	{fp, lr}
  1009dc:	e28db004 	add	fp, sp, #4
  1009e0:	e24dd008 	sub	sp, sp, #8
  1009e4:	e50b0008 	str	r0, [fp, #-8]
  1009e8:	e51b3008 	ldr	r3, [fp, #-8]
  1009ec:	e3530000 	cmp	r3, #0
  1009f0:	ca000003 	bgt	100a04 <cache_configuration+0x2c>
  1009f4:	e30c04c0 	movw	r0, #50368	; 0xc4c0
  1009f8:	e3400010 	movt	r0, #16
  1009fc:	eb000adc 	bl	103574 <printf>
  100a00:	ea0000a2 	b	100c90 <cache_configuration+0x2b8>
  100a04:	e51b3008 	ldr	r3, [fp, #-8]
  100a08:	e3530001 	cmp	r3, #1
  100a0c:	ca000004 	bgt	100a24 <cache_configuration+0x4c>
  100a10:	e30c04dc 	movw	r0, #50396	; 0xc4dc
  100a14:	e3400010 	movt	r0, #16
  100a18:	eb000ad5 	bl	103574 <printf>
  100a1c:	eb00017f 	bl	101020 <enable_MMU>
  100a20:	ea00009a 	b	100c90 <cache_configuration+0x2b8>
  100a24:	e51b3008 	ldr	r3, [fp, #-8]
  100a28:	e3530002 	cmp	r3, #2
  100a2c:	ca000005 	bgt	100a48 <cache_configuration+0x70>
  100a30:	e30c04fc 	movw	r0, #50428	; 0xc4fc
  100a34:	e3400010 	movt	r0, #16
  100a38:	eb000acd 	bl	103574 <printf>
  100a3c:	eb000177 	bl	101020 <enable_MMU>
  100a40:	eb0001c2 	bl	101150 <initialize_L2C>
  100a44:	ea000091 	b	100c90 <cache_configuration+0x2b8>
  100a48:	e51b3008 	ldr	r3, [fp, #-8]
  100a4c:	e3530003 	cmp	r3, #3
  100a50:	ca000006 	bgt	100a70 <cache_configuration+0x98>
  100a54:	e30c0528 	movw	r0, #50472	; 0xc528
  100a58:	e3400010 	movt	r0, #16
  100a5c:	eb000ac4 	bl	103574 <printf>
  100a60:	eb00016e 	bl	101020 <enable_MMU>
  100a64:	eb0001b9 	bl	101150 <initialize_L2C>
  100a68:	eb00021c 	bl	1012e0 <enable_SCU>
  100a6c:	ea000087 	b	100c90 <cache_configuration+0x2b8>
  100a70:	e51b3008 	ldr	r3, [fp, #-8]
  100a74:	e3530004 	cmp	r3, #4
  100a78:	ca000007 	bgt	100a9c <cache_configuration+0xc4>
  100a7c:	e30c055c 	movw	r0, #50524	; 0xc55c
  100a80:	e3400010 	movt	r0, #16
  100a84:	eb000aba 	bl	103574 <printf>
  100a88:	eb000164 	bl	101020 <enable_MMU>
  100a8c:	eb0001af 	bl	101150 <initialize_L2C>
  100a90:	eb000212 	bl	1012e0 <enable_SCU>
  100a94:	eb0001d3 	bl	1011e8 <enable_L1_I>
  100a98:	ea00007c 	b	100c90 <cache_configuration+0x2b8>
  100a9c:	e51b3008 	ldr	r3, [fp, #-8]
  100aa0:	e3530005 	cmp	r3, #5
  100aa4:	ca000008 	bgt	100acc <cache_configuration+0xf4>
  100aa8:	e30c0574 	movw	r0, #50548	; 0xc574
  100aac:	e3400010 	movt	r0, #16
  100ab0:	eb000aaf 	bl	103574 <printf>
  100ab4:	eb000159 	bl	101020 <enable_MMU>
  100ab8:	eb0001a4 	bl	101150 <initialize_L2C>
  100abc:	eb000207 	bl	1012e0 <enable_SCU>
  100ac0:	eb0001c8 	bl	1011e8 <enable_L1_I>
  100ac4:	eb0001cb 	bl	1011f8 <enable_branch_prediction>
  100ac8:	ea000070 	b	100c90 <cache_configuration+0x2b8>
  100acc:	e51b3008 	ldr	r3, [fp, #-8]
  100ad0:	e3530006 	cmp	r3, #6
  100ad4:	ca000009 	bgt	100b00 <cache_configuration+0x128>
  100ad8:	e30c05a4 	movw	r0, #50596	; 0xc5a4
  100adc:	e3400010 	movt	r0, #16
  100ae0:	eb000aa3 	bl	103574 <printf>
  100ae4:	eb00014d 	bl	101020 <enable_MMU>
  100ae8:	eb000198 	bl	101150 <initialize_L2C>
  100aec:	eb0001fb 	bl	1012e0 <enable_SCU>
  100af0:	eb0001b8 	bl	1011d8 <enable_L1_D>
  100af4:	eb0001bb 	bl	1011e8 <enable_L1_I>
  100af8:	eb0001be 	bl	1011f8 <enable_branch_prediction>
  100afc:	ea000063 	b	100c90 <cache_configuration+0x2b8>
  100b00:	e51b3008 	ldr	r3, [fp, #-8]
  100b04:	e3530007 	cmp	r3, #7
  100b08:	ca00000a 	bgt	100b38 <cache_configuration+0x160>
  100b0c:	e30c05d8 	movw	r0, #50648	; 0xc5d8
  100b10:	e3400010 	movt	r0, #16
  100b14:	eb000a96 	bl	103574 <printf>
  100b18:	eb000140 	bl	101020 <enable_MMU>
  100b1c:	eb00018b 	bl	101150 <initialize_L2C>
  100b20:	eb0001da 	bl	101290 <enable_L1_D_side_prefetch>
  100b24:	eb0001ed 	bl	1012e0 <enable_SCU>
  100b28:	eb0001aa 	bl	1011d8 <enable_L1_D>
  100b2c:	eb0001ad 	bl	1011e8 <enable_L1_I>
  100b30:	eb0001b0 	bl	1011f8 <enable_branch_prediction>
  100b34:	ea000055 	b	100c90 <cache_configuration+0x2b8>
  100b38:	e51b3008 	ldr	r3, [fp, #-8]
  100b3c:	e3530008 	cmp	r3, #8
  100b40:	ca000008 	bgt	100b68 <cache_configuration+0x190>
  100b44:	e30c0624 	movw	r0, #50724	; 0xc624
  100b48:	e3400010 	movt	r0, #16
  100b4c:	eb000a88 	bl	103574 <printf>
  100b50:	eb000132 	bl	101020 <enable_MMU>
  100b54:	eb00017d 	bl	101150 <initialize_L2C>
  100b58:	eb0001cc 	bl	101290 <enable_L1_D_side_prefetch>
  100b5c:	eb0001df 	bl	1012e0 <enable_SCU>
  100b60:	eb000193 	bl	1011b4 <enable_caches>
  100b64:	ea000049 	b	100c90 <cache_configuration+0x2b8>
  100b68:	e51b3008 	ldr	r3, [fp, #-8]
  100b6c:	e3530009 	cmp	r3, #9
  100b70:	ca000009 	bgt	100b9c <cache_configuration+0x1c4>
  100b74:	e30c0670 	movw	r0, #50800	; 0xc670
  100b78:	e3400010 	movt	r0, #16
  100b7c:	eb000a7c 	bl	103574 <printf>
  100b80:	eb000126 	bl	101020 <enable_MMU>
  100b84:	eb000171 	bl	101150 <initialize_L2C>
  100b88:	eb0001c0 	bl	101290 <enable_L1_D_side_prefetch>
  100b8c:	eb0001c3 	bl	1012a0 <enable_L2_prefetch_hint>
  100b90:	eb0001d2 	bl	1012e0 <enable_SCU>
  100b94:	eb000186 	bl	1011b4 <enable_caches>
  100b98:	ea00003c 	b	100c90 <cache_configuration+0x2b8>
  100b9c:	e51b3008 	ldr	r3, [fp, #-8]
  100ba0:	e353000a 	cmp	r3, #10
  100ba4:	ca00000a 	bgt	100bd4 <cache_configuration+0x1fc>
  100ba8:	e30c06a4 	movw	r0, #50852	; 0xc6a4
  100bac:	e3400010 	movt	r0, #16
  100bb0:	eb000a6f 	bl	103574 <printf>
  100bb4:	eb000119 	bl	101020 <enable_MMU>
  100bb8:	eb000164 	bl	101150 <initialize_L2C>
  100bbc:	eb0001b3 	bl	101290 <enable_L1_D_side_prefetch>
  100bc0:	eb0001b6 	bl	1012a0 <enable_L2_prefetch_hint>
  100bc4:	eb0001c5 	bl	1012e0 <enable_SCU>
  100bc8:	eb0001a4 	bl	101260 <enable_write_full_line_zeros>
  100bcc:	eb000178 	bl	1011b4 <enable_caches>
  100bd0:	ea00002e 	b	100c90 <cache_configuration+0x2b8>
  100bd4:	e51b3008 	ldr	r3, [fp, #-8]
  100bd8:	e353000b 	cmp	r3, #11
  100bdc:	ca00000b 	bgt	100c10 <cache_configuration+0x238>
  100be0:	e30c06e0 	movw	r0, #50912	; 0xc6e0
  100be4:	e3400010 	movt	r0, #16
  100be8:	eb000a61 	bl	103574 <printf>
  100bec:	eb00010b 	bl	101020 <enable_MMU>
  100bf0:	eb000156 	bl	101150 <initialize_L2C>
  100bf4:	eb0001a5 	bl	101290 <enable_L1_D_side_prefetch>
  100bf8:	eb0001a8 	bl	1012a0 <enable_L2_prefetch_hint>
  100bfc:	eb0001b7 	bl	1012e0 <enable_SCU>
  100c00:	eb0001bb 	bl	1012f4 <enable_L2_speculative_linefill>
  100c04:	eb000195 	bl	101260 <enable_write_full_line_zeros>
  100c08:	eb000169 	bl	1011b4 <enable_caches>
  100c0c:	ea00001f 	b	100c90 <cache_configuration+0x2b8>
  100c10:	e51b3008 	ldr	r3, [fp, #-8]
  100c14:	e353000c 	cmp	r3, #12
  100c18:	ca00000c 	bgt	100c50 <cache_configuration+0x278>
  100c1c:	e30c072c 	movw	r0, #50988	; 0xc72c
  100c20:	e3400010 	movt	r0, #16
  100c24:	eb000a52 	bl	103574 <printf>
  100c28:	eb0000fc 	bl	101020 <enable_MMU>
  100c2c:	eb000147 	bl	101150 <initialize_L2C>
  100c30:	eb000196 	bl	101290 <enable_L1_D_side_prefetch>
  100c34:	eb000199 	bl	1012a0 <enable_L2_prefetch_hint>
  100c38:	eb0001a8 	bl	1012e0 <enable_SCU>
  100c3c:	eb0001ac 	bl	1012f4 <enable_L2_speculative_linefill>
  100c40:	eb000186 	bl	101260 <enable_write_full_line_zeros>
  100c44:	eb00017c 	bl	10123c <enable_early_BRESP>
  100c48:	eb000159 	bl	1011b4 <enable_caches>
  100c4c:	ea00000f 	b	100c90 <cache_configuration+0x2b8>
  100c50:	e51b3008 	ldr	r3, [fp, #-8]
  100c54:	e353000d 	cmp	r3, #13
  100c58:	ca00000c 	bgt	100c90 <cache_configuration+0x2b8>
  100c5c:	e30c076c 	movw	r0, #51052	; 0xc76c
  100c60:	e3400010 	movt	r0, #16
  100c64:	eb000a42 	bl	103574 <printf>
  100c68:	eb0000ec 	bl	101020 <enable_MMU>
  100c6c:	eb000137 	bl	101150 <initialize_L2C>
  100c70:	eb000186 	bl	101290 <enable_L1_D_side_prefetch>
  100c74:	eb000189 	bl	1012a0 <enable_L2_prefetch_hint>
  100c78:	eb000198 	bl	1012e0 <enable_SCU>
  100c7c:	eb00019c 	bl	1012f4 <enable_L2_speculative_linefill>
  100c80:	eb000176 	bl	101260 <enable_write_full_line_zeros>
  100c84:	eb00016c 	bl	10123c <enable_early_BRESP>
  100c88:	eb000162 	bl	101218 <enable_store_buffer_device_limitation>
  100c8c:	eb000148 	bl	1011b4 <enable_caches>
  100c90:	e320f000 	nop	{0}
  100c94:	e24bd004 	sub	sp, fp, #4
  100c98:	e8bd8800 	pop	{fp, pc}

00100c9c <print_src_dst>:
  100c9c:	e92d4800 	push	{fp, lr}
  100ca0:	e28db004 	add	fp, sp, #4
  100ca4:	e24dd018 	sub	sp, sp, #24
  100ca8:	e50b0010 	str	r0, [fp, #-16]
  100cac:	e50b1014 	str	r1, [fp, #-20]	; 0xffffffec
  100cb0:	e50b2018 	str	r2, [fp, #-24]	; 0xffffffe8
  100cb4:	e30c07c8 	movw	r0, #51144	; 0xc7c8
  100cb8:	e3400010 	movt	r0, #16
  100cbc:	eb000a2c 	bl	103574 <printf>
  100cc0:	e3a03000 	mov	r3, #0
  100cc4:	e50b3008 	str	r3, [fp, #-8]
  100cc8:	ea000018 	b	100d30 <print_src_dst+0x94>
  100ccc:	e51b3008 	ldr	r3, [fp, #-8]
  100cd0:	e1a03103 	lsl	r3, r3, #2
  100cd4:	e1a02003 	mov	r2, r3
  100cd8:	e51b3010 	ldr	r3, [fp, #-16]
  100cdc:	e0833002 	add	r3, r3, r2
  100ce0:	e5933000 	ldr	r3, [r3]
  100ce4:	e1a01003 	mov	r1, r3
  100ce8:	e30c07d4 	movw	r0, #51156	; 0xc7d4
  100cec:	e3400010 	movt	r0, #16
  100cf0:	eb000a1f 	bl	103574 <printf>
  100cf4:	e51b3018 	ldr	r3, [fp, #-24]	; 0xffffffe8
  100cf8:	e2832003 	add	r2, r3, #3
  100cfc:	e3530000 	cmp	r3, #0
  100d00:	b1a03002 	movlt	r3, r2
  100d04:	a1a03003 	movge	r3, r3
  100d08:	e1a03143 	asr	r3, r3, #2
  100d0c:	e2432001 	sub	r2, r3, #1
  100d10:	e51b3008 	ldr	r3, [fp, #-8]
  100d14:	e1520003 	cmp	r2, r3
  100d18:	da000001 	ble	100d24 <print_src_dst+0x88>
  100d1c:	e3a0002c 	mov	r0, #44	; 0x2c
  100d20:	eb000a23 	bl	1035b4 <putchar>
  100d24:	e51b3008 	ldr	r3, [fp, #-8]
  100d28:	e2833001 	add	r3, r3, #1
  100d2c:	e50b3008 	str	r3, [fp, #-8]
  100d30:	e51b3018 	ldr	r3, [fp, #-24]	; 0xffffffe8
  100d34:	e2832003 	add	r2, r3, #3
  100d38:	e3530000 	cmp	r3, #0
  100d3c:	b1a03002 	movlt	r3, r2
  100d40:	a1a03003 	movge	r3, r3
  100d44:	e1a03143 	asr	r3, r3, #2
  100d48:	e1a02003 	mov	r2, r3
  100d4c:	e51b3008 	ldr	r3, [fp, #-8]
  100d50:	e1520003 	cmp	r2, r3
  100d54:	caffffdc 	bgt	100ccc <print_src_dst+0x30>
  100d58:	e30c07dc 	movw	r0, #51164	; 0xc7dc
  100d5c:	e3400010 	movt	r0, #16
  100d60:	eb000a03 	bl	103574 <printf>
  100d64:	e30c07e0 	movw	r0, #51168	; 0xc7e0
  100d68:	e3400010 	movt	r0, #16
  100d6c:	eb000a00 	bl	103574 <printf>
  100d70:	e3a03000 	mov	r3, #0
  100d74:	e50b3008 	str	r3, [fp, #-8]
  100d78:	ea00000c 	b	100db0 <print_src_dst+0x114>
  100d7c:	e51b3008 	ldr	r3, [fp, #-8]
  100d80:	e1a03103 	lsl	r3, r3, #2
  100d84:	e1a02003 	mov	r2, r3
  100d88:	e51b3014 	ldr	r3, [fp, #-20]	; 0xffffffec
  100d8c:	e0833002 	add	r3, r3, r2
  100d90:	e5933000 	ldr	r3, [r3]
  100d94:	e1a01003 	mov	r1, r3
  100d98:	e30c07ec 	movw	r0, #51180	; 0xc7ec
  100d9c:	e3400010 	movt	r0, #16
  100da0:	eb0009f3 	bl	103574 <printf>
  100da4:	e51b3008 	ldr	r3, [fp, #-8]
  100da8:	e2833001 	add	r3, r3, #1
  100dac:	e50b3008 	str	r3, [fp, #-8]
  100db0:	e51b3018 	ldr	r3, [fp, #-24]	; 0xffffffe8
  100db4:	e2832003 	add	r2, r3, #3
  100db8:	e3530000 	cmp	r3, #0
  100dbc:	b1a03002 	movlt	r3, r2
  100dc0:	a1a03003 	movge	r3, r3
  100dc4:	e1a03143 	asr	r3, r3, #2
  100dc8:	e1a02003 	mov	r2, r3
  100dcc:	e51b3008 	ldr	r3, [fp, #-8]
  100dd0:	e1520003 	cmp	r2, r3
  100dd4:	caffffe8 	bgt	100d7c <print_src_dst+0xe0>
  100dd8:	e30c07dc 	movw	r0, #51164	; 0xc7dc
  100ddc:	e3400010 	movt	r0, #16
  100de0:	eb0009e3 	bl	103574 <printf>
  100de4:	e320f000 	nop	{0}
  100de8:	e24bd004 	sub	sp, fp, #4
  100dec:	e8bd8800 	pop	{fp, pc}

00100df0 <ukf_transfer_done>:
  100df0:	e92d4800 	push	{fp, lr}
  100df4:	e28db004 	add	fp, sp, #4
  100df8:	e24dd008 	sub	sp, sp, #8
  100dfc:	e50b0008 	str	r0, [fp, #-8]
  100e00:	e51b0008 	ldr	r0, [fp, #-8]
  100e04:	eb000003 	bl	100e18 <ukf_read_reg>
  100e08:	e1a03000 	mov	r3, r0
  100e0c:	e1a00003 	mov	r0, r3
  100e10:	e24bd004 	sub	sp, fp, #4
  100e14:	e8bd8800 	pop	{fp, pc}

00100e18 <ukf_read_reg>:
  100e18:	e52db004 	push	{fp}		; (str fp, [sp, #-4]!)
  100e1c:	e28db000 	add	fp, sp, #0
  100e20:	e24dd00c 	sub	sp, sp, #12
  100e24:	e50b0008 	str	r0, [fp, #-8]
  100e28:	e51b3008 	ldr	r3, [fp, #-8]
  100e2c:	e5933000 	ldr	r3, [r3]
  100e30:	e1a00003 	mov	r0, r3
  100e34:	e24bd000 	sub	sp, fp, #0
  100e38:	e49db004 	pop	{fp}		; (ldr fp, [sp], #4)
  100e3c:	e12fff1e 	bx	lr

00100e40 <_close>:
  100e40:	e52db004 	push	{fp}		; (str fp, [sp, #-4]!)
  100e44:	e28db000 	add	fp, sp, #0
  100e48:	e24dd00c 	sub	sp, sp, #12
  100e4c:	e50b0008 	str	r0, [fp, #-8]
  100e50:	e51b3008 	ldr	r3, [fp, #-8]
  100e54:	e3530001 	cmp	r3, #1
  100e58:	1a000001 	bne	100e64 <_close+0x24>
  100e5c:	e3a03000 	mov	r3, #0
  100e60:	ea000000 	b	100e68 <_close+0x28>
  100e64:	e3e03000 	mvn	r3, #0
  100e68:	e1a00003 	mov	r0, r3
  100e6c:	e24bd000 	sub	sp, fp, #0
  100e70:	e49db004 	pop	{fp}		; (ldr fp, [sp], #4)
  100e74:	e12fff1e 	bx	lr

00100e78 <_fstat>:
  100e78:	e52db004 	push	{fp}		; (str fp, [sp, #-4]!)
  100e7c:	e28db000 	add	fp, sp, #0
  100e80:	e24dd00c 	sub	sp, sp, #12
  100e84:	e50b0008 	str	r0, [fp, #-8]
  100e88:	e50b100c 	str	r1, [fp, #-12]
  100e8c:	e51b3008 	ldr	r3, [fp, #-8]
  100e90:	e3530001 	cmp	r3, #1
  100e94:	1a000001 	bne	100ea0 <_fstat+0x28>
  100e98:	e3a03000 	mov	r3, #0
  100e9c:	ea000000 	b	100ea4 <_fstat+0x2c>
  100ea0:	e3e03000 	mvn	r3, #0
  100ea4:	e1a00003 	mov	r0, r3
  100ea8:	e24bd000 	sub	sp, fp, #0
  100eac:	e49db004 	pop	{fp}		; (ldr fp, [sp], #4)
  100eb0:	e12fff1e 	bx	lr

00100eb4 <_isatty>:
  100eb4:	e52db004 	push	{fp}		; (str fp, [sp, #-4]!)
  100eb8:	e28db000 	add	fp, sp, #0
  100ebc:	e24dd00c 	sub	sp, sp, #12
  100ec0:	e50b0008 	str	r0, [fp, #-8]
  100ec4:	e51b3008 	ldr	r3, [fp, #-8]
  100ec8:	e3530001 	cmp	r3, #1
  100ecc:	1a000001 	bne	100ed8 <_isatty+0x24>
  100ed0:	e3a03001 	mov	r3, #1
  100ed4:	ea000000 	b	100edc <_isatty+0x28>
  100ed8:	e3e03000 	mvn	r3, #0
  100edc:	e1a00003 	mov	r0, r3
  100ee0:	e24bd000 	sub	sp, fp, #0
  100ee4:	e49db004 	pop	{fp}		; (ldr fp, [sp], #4)
  100ee8:	e12fff1e 	bx	lr

00100eec <_lseek>:
  100eec:	e52db004 	push	{fp}		; (str fp, [sp, #-4]!)
  100ef0:	e28db000 	add	fp, sp, #0
  100ef4:	e24dd014 	sub	sp, sp, #20
  100ef8:	e50b0008 	str	r0, [fp, #-8]
  100efc:	e50b100c 	str	r1, [fp, #-12]
  100f00:	e50b2010 	str	r2, [fp, #-16]
  100f04:	e51b3008 	ldr	r3, [fp, #-8]
  100f08:	e3530001 	cmp	r3, #1
  100f0c:	1a000001 	bne	100f18 <_lseek+0x2c>
  100f10:	e3a03000 	mov	r3, #0
  100f14:	ea000000 	b	100f1c <_lseek+0x30>
  100f18:	e3e03000 	mvn	r3, #0
  100f1c:	e1a00003 	mov	r0, r3
  100f20:	e24bd000 	sub	sp, fp, #0
  100f24:	e49db004 	pop	{fp}		; (ldr fp, [sp], #4)
  100f28:	e12fff1e 	bx	lr

00100f2c <_read>:
  100f2c:	e52db004 	push	{fp}		; (str fp, [sp, #-4]!)
  100f30:	e28db000 	add	fp, sp, #0
  100f34:	e24dd014 	sub	sp, sp, #20
  100f38:	e50b0008 	str	r0, [fp, #-8]
  100f3c:	e50b100c 	str	r1, [fp, #-12]
  100f40:	e50b2010 	str	r2, [fp, #-16]
  100f44:	e3e03000 	mvn	r3, #0
  100f48:	e1a00003 	mov	r0, r3
  100f4c:	e24bd000 	sub	sp, fp, #0
  100f50:	e49db004 	pop	{fp}		; (ldr fp, [sp], #4)
  100f54:	e12fff1e 	bx	lr

00100f58 <_write>:
  100f58:	e52db004 	push	{fp}		; (str fp, [sp, #-4]!)
  100f5c:	e28db000 	add	fp, sp, #0
  100f60:	e24dd01c 	sub	sp, sp, #28
  100f64:	e50b0010 	str	r0, [fp, #-16]
  100f68:	e50b1014 	str	r1, [fp, #-20]	; 0xffffffec
  100f6c:	e50b2018 	str	r2, [fp, #-24]	; 0xffffffe8
  100f70:	e50b301c 	str	r3, [fp, #-28]	; 0xffffffe4
  100f74:	e51b3010 	ldr	r3, [fp, #-16]
  100f78:	e3530001 	cmp	r3, #1
  100f7c:	0a000001 	beq	100f88 <_write+0x30>
  100f80:	e3e03000 	mvn	r3, #0
  100f84:	ea000019 	b	100ff0 <_write+0x98>
  100f88:	e3a03000 	mov	r3, #0
  100f8c:	e50b3008 	str	r3, [fp, #-8]
  100f90:	ea000011 	b	100fdc <_write+0x84>
  100f94:	e320f000 	nop	{0}
  100f98:	e3023014 	movw	r3, #8212	; 0x2014
  100f9c:	e34f3fc0 	movt	r3, #65472	; 0xffc0
  100fa0:	e5933000 	ldr	r3, [r3]
  100fa4:	e1a032a3 	lsr	r3, r3, #5
  100fa8:	e2033001 	and	r3, r3, #1
  100fac:	e3530001 	cmp	r3, #1
  100fb0:	1afffff8 	bne	100f98 <_write+0x40>
  100fb4:	e3a03a02 	mov	r3, #8192	; 0x2000
  100fb8:	e34f3fc0 	movt	r3, #65472	; 0xffc0
  100fbc:	e51b2008 	ldr	r2, [fp, #-8]
  100fc0:	e51b1014 	ldr	r1, [fp, #-20]	; 0xffffffec
  100fc4:	e0812002 	add	r2, r1, r2
  100fc8:	e5d22000 	ldrb	r2, [r2]
  100fcc:	e5832000 	str	r2, [r3]
  100fd0:	e51b3008 	ldr	r3, [fp, #-8]
  100fd4:	e2833001 	add	r3, r3, #1
  100fd8:	e50b3008 	str	r3, [fp, #-8]
  100fdc:	e51b2008 	ldr	r2, [fp, #-8]
  100fe0:	e51b3018 	ldr	r3, [fp, #-24]	; 0xffffffe8
  100fe4:	e1520003 	cmp	r2, r3
  100fe8:	3affffe9 	bcc	100f94 <_write+0x3c>
  100fec:	e51b3018 	ldr	r3, [fp, #-24]	; 0xffffffe8
  100ff0:	e1a00003 	mov	r0, r3
  100ff4:	e24bd000 	sub	sp, fp, #0
  100ff8:	e49db004 	pop	{fp}		; (ldr fp, [sp], #4)
  100ffc:	e12fff1e 	bx	lr

00101000 <enable_all_caches>:
  101000:	e52de004 	push	{lr}		; (str lr, [sp, #-4]!)
  101004:	eb000005 	bl	101020 <enable_MMU>
  101008:	eb000050 	bl	101150 <initialize_L2C>
  10100c:	eb00009f 	bl	101290 <enable_L1_D_side_prefetch>
  101010:	eb0000a2 	bl	1012a0 <enable_L2_prefetch_hint>
  101014:	eb0000b1 	bl	1012e0 <enable_SCU>
  101018:	eb000065 	bl	1011b4 <enable_caches>
  10101c:	e49df004 	pop	{pc}		; (ldr pc, [sp], #4)

00101020 <enable_MMU>:
  101020:	e92d4eb0 	push	{r4, r5, r7, r9, sl, fp, lr}
  101024:	e59f0378 	ldr	r0, [pc, #888]	; 1013a4 <invalidate_and_flush+0x9c>
  101028:	e3a01000 	mov	r1, #0
  10102c:	e5801100 	str	r1, [r0, #256]	; 0x100
  101030:	ee110f10 	mrc	15, 0, r0, cr1, cr0, {0}
  101034:	e3c00a01 	bic	r0, r0, #4096	; 0x1000
  101038:	e3c00004 	bic	r0, r0, #4
  10103c:	e3c00001 	bic	r0, r0, #1
  101040:	e3c00b02 	bic	r0, r0, #2048	; 0x800
  101044:	ee010f10 	mcr	15, 0, r0, cr1, cr0, {0}
  101048:	e3a00000 	mov	r0, #0
  10104c:	ee080f17 	mcr	15, 0, r0, cr8, cr7, {0}
  101050:	ee070fd5 	mcr	15, 0, r0, cr7, cr5, {6}
  101054:	ee300f30 	mrc	15, 1, r0, cr0, cr0, {1}
  101058:	e3100003 	tst	r0, #3
  10105c:	e3a00000 	mov	r0, #0
  101060:	1e070f15 	mcrne	15, 0, r0, cr7, cr5, {0}
  101064:	ee300f30 	mrc	15, 1, r0, cr0, cr0, {1}
  101068:	e2103407 	ands	r3, r0, #117440512	; 0x7000000
  10106c:	e1a03ba3 	lsr	r3, r3, #23
  101070:	0a00001a 	beq	1010e0 <Finished>
  101074:	e3a0a000 	mov	sl, #0

00101078 <Loop1>:
  101078:	e08a20aa 	add	r2, sl, sl, lsr #1
  10107c:	e1a01230 	lsr	r1, r0, r2
  101080:	e2011007 	and	r1, r1, #7
  101084:	e3510002 	cmp	r1, #2
  101088:	ba000011 	blt	1010d4 <Skip>
  10108c:	ee40af10 	mcr	15, 2, sl, cr0, cr0, {0}
  101090:	f57ff06f 	isb	sy
  101094:	ee301f10 	mrc	15, 1, r1, cr0, cr0, {0}
  101098:	e2012007 	and	r2, r1, #7
  10109c:	e2822004 	add	r2, r2, #4
  1010a0:	e59f4300 	ldr	r4, [pc, #768]	; 1013a8 <invalidate_and_flush+0xa0>
  1010a4:	e01441a1 	ands	r4, r4, r1, lsr #3
  1010a8:	e16f5f14 	clz	r5, r4
  1010ac:	e59f72f8 	ldr	r7, [pc, #760]	; 1013ac <invalidate_and_flush+0xa4>
  1010b0:	e01776a1 	ands	r7, r7, r1, lsr #13

001010b4 <Loop2>:
  1010b4:	e1a09004 	mov	r9, r4

001010b8 <Loop3>:
  1010b8:	e18ab519 	orr	fp, sl, r9, lsl r5
  1010bc:	e18bb217 	orr	fp, fp, r7, lsl r2
  1010c0:	ee07bf56 	mcr	15, 0, fp, cr7, cr6, {2}
  1010c4:	e2599001 	subs	r9, r9, #1
  1010c8:	aafffffa 	bge	1010b8 <Loop3>
  1010cc:	e2577001 	subs	r7, r7, #1
  1010d0:	aafffff7 	bge	1010b4 <Loop2>

001010d4 <Skip>:
  1010d4:	e28aa002 	add	sl, sl, #2
  1010d8:	e153000a 	cmp	r3, sl
  1010dc:	caffffe5 	bgt	101078 <Loop1>

001010e0 <Finished>:
  1010e0:	e3a00000 	mov	r0, #0
  1010e4:	ee070fd5 	mcr	15, 0, r0, cr7, cr5, {6}
  1010e8:	e3a00000 	mov	r0, #0
  1010ec:	ee020f50 	mcr	15, 0, r0, cr2, cr0, {2}
  1010f0:	e59f02b8 	ldr	r0, [pc, #696]	; 1013b0 <invalidate_and_flush+0xa8>
  1010f4:	e3a01008 	mov	r1, #8
  1010f8:	e3811040 	orr	r1, r1, #64	; 0x40
  1010fc:	e1800001 	orr	r0, r0, r1
  101100:	ee020f10 	mcr	15, 0, r0, cr2, cr0, {0}
  101104:	e59f02a4 	ldr	r0, [pc, #676]	; 1013b0 <invalidate_and_flush+0xa8>
  101108:	e59f12a4 	ldr	r1, [pc, #676]	; 1013b4 <invalidate_and_flush+0xac>

0010110c <init_ttb_1>:
  10110c:	e3510b02 	cmp	r1, #2048	; 0x800
  101110:	459f22a0 	ldrmi	r2, [pc, #672]	; 1013b8 <invalidate_and_flush+0xb0>
  101114:	559f22a0 	ldrpl	r2, [pc, #672]	; 1013bc <invalidate_and_flush+0xb4>
  101118:	e1823a01 	orr	r3, r2, r1, lsl #20
  10111c:	e7803101 	str	r3, [r0, r1, lsl #2]
  101120:	e2511001 	subs	r1, r1, #1
  101124:	5afffff8 	bpl	10110c <init_ttb_1>
  101128:	ee130f10 	mrc	15, 0, r0, cr3, cr0, {0}
  10112c:	e3e00000 	mvn	r0, #0
  101130:	ee030f10 	mcr	15, 0, r0, cr3, cr0, {0}
  101134:	ee110f10 	mrc	15, 0, r0, cr1, cr0, {0}
  101138:	e3c00a01 	bic	r0, r0, #4096	; 0x1000
  10113c:	e3c00004 	bic	r0, r0, #4
  101140:	e3c00002 	bic	r0, r0, #2
  101144:	e3800001 	orr	r0, r0, #1
  101148:	ee010f10 	mcr	15, 0, r0, cr1, cr0, {0}
  10114c:	e8bd8eb0 	pop	{r4, r5, r7, r9, sl, fp, pc}

00101150 <initialize_L2C>:
  101150:	e59f024c 	ldr	r0, [pc, #588]	; 1013a4 <invalidate_and_flush+0x9c>
  101154:	e3a01000 	mov	r1, #0
  101158:	e5801100 	str	r1, [r0, #256]	; 0x100
  10115c:	e3a01806 	mov	r1, #393216	; 0x60000
  101160:	e3811202 	orr	r1, r1, #536870912	; 0x20000000
  101164:	e3811201 	orr	r1, r1, #268435456	; 0x10000000
  101168:	e5801104 	str	r1, [r0, #260]	; 0x104
  10116c:	e3a01000 	mov	r1, #0
  101170:	e5801108 	str	r1, [r0, #264]	; 0x108
  101174:	e3a01000 	mov	r1, #0
  101178:	e580110c 	str	r1, [r0, #268]	; 0x10c
  10117c:	e3a010ff 	mov	r1, #255	; 0xff
  101180:	e580177c 	str	r1, [r0, #1916]	; 0x77c

00101184 <poll_invalidate>:
  101184:	e590177c 	ldr	r1, [r0, #1916]	; 0x77c
  101188:	e3110001 	tst	r1, #1
  10118c:	1afffffc 	bne	101184 <poll_invalidate>
  101190:	e3a01007 	mov	r1, #7
  101194:	e5801200 	str	r1, [r0, #512]	; 0x200
  101198:	e3a01008 	mov	r1, #8
  10119c:	e5801204 	str	r1, [r0, #516]	; 0x204
  1011a0:	e3a0100c 	mov	r1, #12
  1011a4:	e5801208 	str	r1, [r0, #520]	; 0x208
  1011a8:	e3a01000 	mov	r1, #0
  1011ac:	e5801100 	str	r1, [r0, #256]	; 0x100
  1011b0:	e12fff1e 	bx	lr

001011b4 <enable_caches>:
  1011b4:	ee110f10 	mrc	15, 0, r0, cr1, cr0, {0}
  1011b8:	e3800a01 	orr	r0, r0, #4096	; 0x1000
  1011bc:	e3800004 	orr	r0, r0, #4
  1011c0:	e3800b02 	orr	r0, r0, #2048	; 0x800
  1011c4:	ee010f10 	mcr	15, 0, r0, cr1, cr0, {0}
  1011c8:	e59f01d4 	ldr	r0, [pc, #468]	; 1013a4 <invalidate_and_flush+0x9c>
  1011cc:	e3a01001 	mov	r1, #1
  1011d0:	e5801100 	str	r1, [r0, #256]	; 0x100
  1011d4:	e12fff1e 	bx	lr

001011d8 <enable_L1_D>:
  1011d8:	ee110f10 	mrc	15, 0, r0, cr1, cr0, {0}
  1011dc:	e3800004 	orr	r0, r0, #4
  1011e0:	ee010f10 	mcr	15, 0, r0, cr1, cr0, {0}
  1011e4:	e12fff1e 	bx	lr

001011e8 <enable_L1_I>:
  1011e8:	ee110f10 	mrc	15, 0, r0, cr1, cr0, {0}
  1011ec:	e3800a01 	orr	r0, r0, #4096	; 0x1000
  1011f0:	ee010f10 	mcr	15, 0, r0, cr1, cr0, {0}
  1011f4:	e12fff1e 	bx	lr

001011f8 <enable_branch_prediction>:
  1011f8:	ee110f10 	mrc	15, 0, r0, cr1, cr0, {0}
  1011fc:	e3800b02 	orr	r0, r0, #2048	; 0x800
  101200:	ee010f10 	mcr	15, 0, r0, cr1, cr0, {0}
  101204:	e12fff1e 	bx	lr

00101208 <enable_L2>:
  101208:	e59f0194 	ldr	r0, [pc, #404]	; 1013a4 <invalidate_and_flush+0x9c>
  10120c:	e3a01001 	mov	r1, #1
  101210:	e5801100 	str	r1, [r0, #256]	; 0x100
  101214:	e12fff1e 	bx	lr

00101218 <enable_store_buffer_device_limitation>:
  101218:	e59f0184 	ldr	r0, [pc, #388]	; 1013a4 <invalidate_and_flush+0x9c>
  10121c:	e3a01000 	mov	r1, #0
  101220:	e5801100 	str	r1, [r0, #256]	; 0x100
  101224:	e5901104 	ldr	r1, [r0, #260]	; 0x104
  101228:	e3811b02 	orr	r1, r1, #2048	; 0x800
  10122c:	e5801104 	str	r1, [r0, #260]	; 0x104
  101230:	e3a01001 	mov	r1, #1
  101234:	e5801100 	str	r1, [r0, #256]	; 0x100
  101238:	e12fff1e 	bx	lr

0010123c <enable_early_BRESP>:
  10123c:	e59f0160 	ldr	r0, [pc, #352]	; 1013a4 <invalidate_and_flush+0x9c>
  101240:	e3a01000 	mov	r1, #0
  101244:	e5801100 	str	r1, [r0, #256]	; 0x100
  101248:	e5901104 	ldr	r1, [r0, #260]	; 0x104
  10124c:	e3811101 	orr	r1, r1, #1073741824	; 0x40000000
  101250:	e5801104 	str	r1, [r0, #260]	; 0x104
  101254:	e3a01001 	mov	r1, #1
  101258:	e5801100 	str	r1, [r0, #256]	; 0x100
  10125c:	e12fff1e 	bx	lr

00101260 <enable_write_full_line_zeros>:
  101260:	e59f013c 	ldr	r0, [pc, #316]	; 1013a4 <invalidate_and_flush+0x9c>
  101264:	e3a01000 	mov	r1, #0
  101268:	e5801100 	str	r1, [r0, #256]	; 0x100
  10126c:	e5901104 	ldr	r1, [r0, #260]	; 0x104
  101270:	e3811101 	orr	r1, r1, #1073741824	; 0x40000000
  101274:	e5801104 	str	r1, [r0, #260]	; 0x104
  101278:	e3a01001 	mov	r1, #1
  10127c:	e5801100 	str	r1, [r0, #256]	; 0x100
  101280:	ee110f30 	mrc	15, 0, r0, cr1, cr0, {1}
  101284:	e3800008 	orr	r0, r0, #8
  101288:	ee010f30 	mcr	15, 0, r0, cr1, cr0, {1}
  10128c:	e12fff1e 	bx	lr

00101290 <enable_L1_D_side_prefetch>:
  101290:	ee110f30 	mrc	15, 0, r0, cr1, cr0, {1}
  101294:	e3800004 	orr	r0, r0, #4
  101298:	ee010f30 	mcr	15, 0, r0, cr1, cr0, {1}
  10129c:	e12fff1e 	bx	lr

001012a0 <enable_L2_prefetch_hint>:
  1012a0:	ee110f30 	mrc	15, 0, r0, cr1, cr0, {1}
  1012a4:	e3800002 	orr	r0, r0, #2
  1012a8:	ee010f30 	mcr	15, 0, r0, cr1, cr0, {1}
  1012ac:	e12fff1e 	bx	lr

001012b0 <enable_exclusive_caching>:
  1012b0:	e59f00ec 	ldr	r0, [pc, #236]	; 1013a4 <invalidate_and_flush+0x9c>
  1012b4:	e3a01000 	mov	r1, #0
  1012b8:	e5801100 	str	r1, [r0, #256]	; 0x100
  1012bc:	e5901104 	ldr	r1, [r0, #260]	; 0x104
  1012c0:	e3811a01 	orr	r1, r1, #4096	; 0x1000
  1012c4:	e5801104 	str	r1, [r0, #260]	; 0x104
  1012c8:	e3a01001 	mov	r1, #1
  1012cc:	e5801100 	str	r1, [r0, #256]	; 0x100
  1012d0:	ee110f30 	mrc	15, 0, r0, cr1, cr0, {1}
  1012d4:	e3800080 	orr	r0, r0, #128	; 0x80
  1012d8:	ee010f30 	mcr	15, 0, r0, cr1, cr0, {1}
  1012dc:	e12fff1e 	bx	lr

001012e0 <enable_SCU>:
  1012e0:	ee9f0f10 	mrc	15, 4, r0, cr15, cr0, {0}
  1012e4:	e5901000 	ldr	r1, [r0]
  1012e8:	e3811001 	orr	r1, r1, #1
  1012ec:	e5801000 	str	r1, [r0]
  1012f0:	e12fff1e 	bx	lr

001012f4 <enable_L2_speculative_linefill>:
  1012f4:	ee9f0f10 	mrc	15, 4, r0, cr15, cr0, {0}
  1012f8:	e5901000 	ldr	r1, [r0]
  1012fc:	e3811008 	orr	r1, r1, #8
  101300:	e5801000 	str	r1, [r0]
  101304:	e12fff1e 	bx	lr

00101308 <invalidate_and_flush>:
  101308:	e92d4eb0 	push	{r4, r5, r7, r9, sl, fp, lr}
  10130c:	e3a00000 	mov	r0, #0
  101310:	ee070fd5 	mcr	15, 0, r0, cr7, cr5, {6}
  101314:	ee300f30 	mrc	15, 1, r0, cr0, cr0, {1}
  101318:	e3a00000 	mov	r0, #0
  10131c:	ee070f15 	mcr	15, 0, r0, cr7, cr5, {0}
  101320:	ee300f30 	mrc	15, 1, r0, cr0, cr0, {1}
  101324:	e2103407 	ands	r3, r0, #117440512	; 0x7000000
  101328:	e1a03ba3 	lsr	r3, r3, #23
  10132c:	0a00001a 	beq	10139c <invalidate_and_flush+0x94>
  101330:	e3a0a000 	mov	sl, #0
  101334:	e08a20aa 	add	r2, sl, sl, lsr #1
  101338:	e1a01230 	lsr	r1, r0, r2
  10133c:	e2011007 	and	r1, r1, #7
  101340:	e3510002 	cmp	r1, #2
  101344:	ba000011 	blt	101390 <invalidate_and_flush+0x88>
  101348:	ee40af10 	mcr	15, 2, sl, cr0, cr0, {0}
  10134c:	f57ff06f 	isb	sy
  101350:	ee301f10 	mrc	15, 1, r1, cr0, cr0, {0}
  101354:	e2012007 	and	r2, r1, #7
  101358:	e2822004 	add	r2, r2, #4
  10135c:	e59f4044 	ldr	r4, [pc, #68]	; 1013a8 <invalidate_and_flush+0xa0>
  101360:	e01441a1 	ands	r4, r4, r1, lsr #3
  101364:	e16f5f14 	clz	r5, r4
  101368:	e59f703c 	ldr	r7, [pc, #60]	; 1013ac <invalidate_and_flush+0xa4>
  10136c:	e01776a1 	ands	r7, r7, r1, lsr #13
  101370:	e1a09004 	mov	r9, r4
  101374:	e18ab519 	orr	fp, sl, r9, lsl r5
  101378:	e18bb217 	orr	fp, fp, r7, lsl r2
  10137c:	ee07bf56 	mcr	15, 0, fp, cr7, cr6, {2}
  101380:	e2599001 	subs	r9, r9, #1
  101384:	aafffffa 	bge	101374 <invalidate_and_flush+0x6c>
  101388:	e2577001 	subs	r7, r7, #1
  10138c:	aafffff7 	bge	101370 <invalidate_and_flush+0x68>
  101390:	e28aa002 	add	sl, sl, #2
  101394:	e153000a 	cmp	r3, sl
  101398:	caffffe5 	bgt	101334 <invalidate_and_flush+0x2c>
  10139c:	f57ff04f 	dsb	sy
  1013a0:	e8bd8eb0 	pop	{r4, r5, r7, r9, sl, fp, pc}
  1013a4:	fffef000 	.word	0xfffef000
  1013a8:	000003ff 	.word	0x000003ff
  1013ac:	00007fff 	.word	0x00007fff
  1013b0:	00114000 	.word	0x00114000
  1013b4:	00000fff 	.word	0x00000fff
  1013b8:	00017c0e 	.word	0x00017c0e
  1013bc:	00002c02 	.word	0x00002c02

001013c0 <alt_addr_space_remap>:
  1013c0:	e52db004 	push	{fp}		; (str fp, [sp, #-4]!)
  1013c4:	e28db000 	add	fp, sp, #0
  1013c8:	e24dd014 	sub	sp, sp, #20
  1013cc:	e1a0c000 	mov	ip, r0
  1013d0:	e1a00001 	mov	r0, r1
  1013d4:	e1a01002 	mov	r1, r2
  1013d8:	e1a02003 	mov	r2, r3
  1013dc:	e1a0300c 	mov	r3, ip
  1013e0:	e54b300d 	strb	r3, [fp, #-13]
  1013e4:	e1a03000 	mov	r3, r0
  1013e8:	e54b300e 	strb	r3, [fp, #-14]
  1013ec:	e1a03001 	mov	r3, r1
  1013f0:	e54b300f 	strb	r3, [fp, #-15]
  1013f4:	e1a03002 	mov	r3, r2
  1013f8:	e54b3010 	strb	r3, [fp, #-16]
  1013fc:	e3a03000 	mov	r3, #0
  101400:	e50b3008 	str	r3, [fp, #-8]
  101404:	e55b300d 	ldrb	r3, [fp, #-13]
  101408:	e3530000 	cmp	r3, #0
  10140c:	0a000008 	beq	101434 <alt_addr_space_remap+0x74>
  101410:	e55b300d 	ldrb	r3, [fp, #-13]
  101414:	e3530001 	cmp	r3, #1
  101418:	1a000003 	bne	10142c <alt_addr_space_remap+0x6c>
  10141c:	e51b3008 	ldr	r3, [fp, #-8]
  101420:	e3833001 	orr	r3, r3, #1
  101424:	e50b3008 	str	r3, [fp, #-8]
  101428:	ea000001 	b	101434 <alt_addr_space_remap+0x74>
  10142c:	e3e0300a 	mvn	r3, #10
  101430:	ea000028 	b	1014d8 <alt_addr_space_remap+0x118>
  101434:	e55b300e 	ldrb	r3, [fp, #-14]
  101438:	e3530000 	cmp	r3, #0
  10143c:	0a000008 	beq	101464 <alt_addr_space_remap+0xa4>
  101440:	e55b300e 	ldrb	r3, [fp, #-14]
  101444:	e3530001 	cmp	r3, #1
  101448:	1a000003 	bne	10145c <alt_addr_space_remap+0x9c>
  10144c:	e51b3008 	ldr	r3, [fp, #-8]
  101450:	e3833002 	orr	r3, r3, #2
  101454:	e50b3008 	str	r3, [fp, #-8]
  101458:	ea000001 	b	101464 <alt_addr_space_remap+0xa4>
  10145c:	e3e0300a 	mvn	r3, #10
  101460:	ea00001c 	b	1014d8 <alt_addr_space_remap+0x118>
  101464:	e55b300f 	ldrb	r3, [fp, #-15]
  101468:	e3530000 	cmp	r3, #0
  10146c:	0a000008 	beq	101494 <alt_addr_space_remap+0xd4>
  101470:	e55b300f 	ldrb	r3, [fp, #-15]
  101474:	e3530001 	cmp	r3, #1
  101478:	1a000003 	bne	10148c <alt_addr_space_remap+0xcc>
  10147c:	e51b3008 	ldr	r3, [fp, #-8]
  101480:	e3833008 	orr	r3, r3, #8
  101484:	e50b3008 	str	r3, [fp, #-8]
  101488:	ea000001 	b	101494 <alt_addr_space_remap+0xd4>
  10148c:	e3e0300a 	mvn	r3, #10
  101490:	ea000010 	b	1014d8 <alt_addr_space_remap+0x118>
  101494:	e55b3010 	ldrb	r3, [fp, #-16]
  101498:	e3530000 	cmp	r3, #0
  10149c:	0a000008 	beq	1014c4 <alt_addr_space_remap+0x104>
  1014a0:	e55b3010 	ldrb	r3, [fp, #-16]
  1014a4:	e3530001 	cmp	r3, #1
  1014a8:	1a000003 	bne	1014bc <alt_addr_space_remap+0xfc>
  1014ac:	e51b3008 	ldr	r3, [fp, #-8]
  1014b0:	e3833010 	orr	r3, r3, #16
  1014b4:	e50b3008 	str	r3, [fp, #-8]
  1014b8:	ea000001 	b	1014c4 <alt_addr_space_remap+0x104>
  1014bc:	e3e0300a 	mvn	r3, #10
  1014c0:	ea000004 	b	1014d8 <alt_addr_space_remap+0x118>
  1014c4:	e3a03000 	mov	r3, #0
  1014c8:	e34f3f80 	movt	r3, #65408	; 0xff80
  1014cc:	e51b2008 	ldr	r2, [fp, #-8]
  1014d0:	e5832000 	str	r2, [r3]
  1014d4:	e3a03000 	mov	r3, #0
  1014d8:	e1a00003 	mov	r0, r3
  1014dc:	e24bd000 	sub	sp, fp, #0
  1014e0:	e49db004 	pop	{fp}		; (ldr fp, [sp], #4)
  1014e4:	e12fff1e 	bx	lr

001014e8 <alt_mpu_addr_space_remap_0_to_sdram>:
  1014e8:	e92d4800 	push	{fp, lr}
  1014ec:	e28db004 	add	fp, sp, #4
  1014f0:	e24dd008 	sub	sp, sp, #8
  1014f4:	e30f3c04 	movw	r3, #64516	; 0xfc04
  1014f8:	e34f3ffe 	movt	r3, #65534	; 0xfffe
  1014fc:	e5933000 	ldr	r3, [r3]
  101500:	e1a03a23 	lsr	r3, r3, #20
  101504:	e1a03a03 	lsl	r3, r3, #20
  101508:	e50b3008 	str	r3, [fp, #-8]
  10150c:	e51b1008 	ldr	r1, [fp, #-8]
  101510:	e3a00000 	mov	r0, #0
  101514:	eb000027 	bl	1015b8 <alt_l2_addr_filter_cfg_set>
  101518:	e1a03000 	mov	r3, r0
  10151c:	e1a00003 	mov	r0, r3
  101520:	e24bd004 	sub	sp, fp, #4
  101524:	e8bd8800 	pop	{fp, pc}

00101528 <alt_l2_addr_filter_cfg_get>:
  101528:	e52db004 	push	{fp}		; (str fp, [sp, #-4]!)
  10152c:	e28db000 	add	fp, sp, #0
  101530:	e24dd014 	sub	sp, sp, #20
  101534:	e50b0010 	str	r0, [fp, #-16]
  101538:	e50b1014 	str	r1, [fp, #-20]	; 0xffffffec
  10153c:	e3a03b3f 	mov	r3, #64512	; 0xfc00
  101540:	e34f3ffe 	movt	r3, #65534	; 0xfffe
  101544:	e5933000 	ldr	r3, [r3]
  101548:	e50b3008 	str	r3, [fp, #-8]
  10154c:	e30f3c04 	movw	r3, #64516	; 0xfc04
  101550:	e34f3ffe 	movt	r3, #65534	; 0xfffe
  101554:	e5933000 	ldr	r3, [r3]
  101558:	e50b300c 	str	r3, [fp, #-12]
  10155c:	e51b3010 	ldr	r3, [fp, #-16]
  101560:	e3530000 	cmp	r3, #0
  101564:	0a000002 	beq	101574 <alt_l2_addr_filter_cfg_get+0x4c>
  101568:	e51b3014 	ldr	r3, [fp, #-20]	; 0xffffffec
  10156c:	e3530000 	cmp	r3, #0
  101570:	1a000001 	bne	10157c <alt_l2_addr_filter_cfg_get+0x54>
  101574:	e3e03008 	mvn	r3, #8
  101578:	ea00000a 	b	1015a8 <alt_l2_addr_filter_cfg_get+0x80>
  10157c:	e51b3008 	ldr	r3, [fp, #-8]
  101580:	e1a03a23 	lsr	r3, r3, #20
  101584:	e1a03a03 	lsl	r3, r3, #20
  101588:	e51b2010 	ldr	r2, [fp, #-16]
  10158c:	e5823000 	str	r3, [r2]
  101590:	e51b300c 	ldr	r3, [fp, #-12]
  101594:	e1a03a23 	lsr	r3, r3, #20
  101598:	e1a03a03 	lsl	r3, r3, #20
  10159c:	e51b2014 	ldr	r2, [fp, #-20]	; 0xffffffec
  1015a0:	e5823000 	str	r3, [r2]
  1015a4:	e3a03000 	mov	r3, #0
  1015a8:	e1a00003 	mov	r0, r3
  1015ac:	e24bd000 	sub	sp, fp, #0
  1015b0:	e49db004 	pop	{fp}		; (ldr fp, [sp], #4)
  1015b4:	e12fff1e 	bx	lr

001015b8 <alt_l2_addr_filter_cfg_set>:
  1015b8:	e52db004 	push	{fp}		; (str fp, [sp, #-4]!)
  1015bc:	e28db000 	add	fp, sp, #0
  1015c0:	e24dd00c 	sub	sp, sp, #12
  1015c4:	e50b0008 	str	r0, [fp, #-8]
  1015c8:	e50b100c 	str	r1, [fp, #-12]
  1015cc:	e51b3008 	ldr	r3, [fp, #-8]
  1015d0:	e7f33053 	ubfx	r3, r3, #0, #20
  1015d4:	e3530000 	cmp	r3, #0
  1015d8:	1a000003 	bne	1015ec <alt_l2_addr_filter_cfg_set+0x34>
  1015dc:	e51b300c 	ldr	r3, [fp, #-12]
  1015e0:	e7f33053 	ubfx	r3, r3, #0, #20
  1015e4:	e3530000 	cmp	r3, #0
  1015e8:	0a000001 	beq	1015f4 <alt_l2_addr_filter_cfg_set+0x3c>
  1015ec:	e3e03007 	mvn	r3, #7
  1015f0:	ea000010 	b	101638 <alt_l2_addr_filter_cfg_set+0x80>
  1015f4:	e51b300c 	ldr	r3, [fp, #-12]
  1015f8:	e3530103 	cmp	r3, #-1073741824	; 0xc0000000
  1015fc:	9a000001 	bls	101608 <alt_l2_addr_filter_cfg_set+0x50>
  101600:	e3e03007 	mvn	r3, #7
  101604:	ea00000b 	b	101638 <alt_l2_addr_filter_cfg_set+0x80>
  101608:	e30f3c04 	movw	r3, #64516	; 0xfc04
  10160c:	e34f3ffe 	movt	r3, #65534	; 0xfffe
  101610:	e51b200c 	ldr	r2, [fp, #-12]
  101614:	e5832000 	str	r2, [r3]
  101618:	e51b3008 	ldr	r3, [fp, #-8]
  10161c:	e3833001 	orr	r3, r3, #1
  101620:	e50b3008 	str	r3, [fp, #-8]
  101624:	e3a03b3f 	mov	r3, #64512	; 0xfc00
  101628:	e34f3ffe 	movt	r3, #65534	; 0xfffe
  10162c:	e51b2008 	ldr	r2, [fp, #-8]
  101630:	e5832000 	str	r2, [r3]
  101634:	e3a03000 	mov	r3, #0
  101638:	e1a00003 	mov	r0, r3
  10163c:	e24bd000 	sub	sp, fp, #0
  101640:	e49db004 	pop	{fp}		; (ldr fp, [sp], #4)
  101644:	e12fff1e 	bx	lr

00101648 <alt_acp_id_map_fixed_read_set>:
  101648:	e52db004 	push	{fp}		; (str fp, [sp, #-4]!)
  10164c:	e28db000 	add	fp, sp, #0
  101650:	e24dd014 	sub	sp, sp, #20
  101654:	e50b0008 	str	r0, [fp, #-8]
  101658:	e50b100c 	str	r1, [fp, #-12]
  10165c:	e50b3014 	str	r3, [fp, #-20]	; 0xffffffec
  101660:	e1a03002 	mov	r3, r2
  101664:	e54b300d 	strb	r3, [fp, #-13]
  101668:	e51b3008 	ldr	r3, [fp, #-8]
  10166c:	e3530a01 	cmp	r3, #4096	; 0x1000
  101670:	2a000002 	bcs	101680 <alt_acp_id_map_fixed_read_set+0x38>
  101674:	e51b300c 	ldr	r3, [fp, #-12]
  101678:	e3530007 	cmp	r3, #7
  10167c:	9a000001 	bls	101688 <alt_acp_id_map_fixed_read_set+0x40>
  101680:	e3e03008 	mvn	r3, #8
  101684:	ea000066 	b	101824 <alt_acp_id_map_fixed_read_set+0x1dc>
  101688:	e51b300c 	ldr	r3, [fp, #-12]
  10168c:	e2433002 	sub	r3, r3, #2
  101690:	e3530004 	cmp	r3, #4
  101694:	979ff103 	ldrls	pc, [pc, r3, lsl #2]
  101698:	ea00005e 	b	101818 <alt_acp_id_map_fixed_read_set+0x1d0>
  10169c:	001016b0 	.word	0x001016b0
  1016a0:	001016f8 	.word	0x001016f8
  1016a4:	00101740 	.word	0x00101740
  1016a8:	00101788 	.word	0x00101788
  1016ac:	001017d0 	.word	0x001017d0
  1016b0:	e3a02a07 	mov	r2, #28672	; 0x7000
  1016b4:	e34f2f70 	movt	r2, #65392	; 0xff70
  1016b8:	e51b3008 	ldr	r3, [fp, #-8]
  1016bc:	e1a01803 	lsl	r1, r3, #16
  1016c0:	e3a03000 	mov	r3, #0
  1016c4:	e3403fff 	movt	r3, #4095	; 0xfff
  1016c8:	e0033001 	and	r3, r3, r1
  1016cc:	e55b100d 	ldrb	r1, [fp, #-13]
  1016d0:	e1a01601 	lsl	r1, r1, #12
  1016d4:	e2011a03 	and	r1, r1, #12288	; 0x3000
  1016d8:	e1831001 	orr	r1, r3, r1
  1016dc:	e51b3014 	ldr	r3, [fp, #-20]	; 0xffffffec
  1016e0:	e1a03203 	lsl	r3, r3, #4
  1016e4:	e2033e1f 	and	r3, r3, #496	; 0x1f0
  1016e8:	e1813003 	orr	r3, r1, r3
  1016ec:	e3833102 	orr	r3, r3, #-2147483648	; 0x80000000
  1016f0:	e5823000 	str	r3, [r2]
  1016f4:	ea000049 	b	101820 <alt_acp_id_map_fixed_read_set+0x1d8>
  1016f8:	e3072008 	movw	r2, #28680	; 0x7008
  1016fc:	e34f2f70 	movt	r2, #65392	; 0xff70
  101700:	e51b3008 	ldr	r3, [fp, #-8]
  101704:	e1a01803 	lsl	r1, r3, #16
  101708:	e3a03000 	mov	r3, #0
  10170c:	e3403fff 	movt	r3, #4095	; 0xfff
  101710:	e0033001 	and	r3, r3, r1
  101714:	e55b100d 	ldrb	r1, [fp, #-13]
  101718:	e1a01601 	lsl	r1, r1, #12
  10171c:	e2011a03 	and	r1, r1, #12288	; 0x3000
  101720:	e1831001 	orr	r1, r3, r1
  101724:	e51b3014 	ldr	r3, [fp, #-20]	; 0xffffffec
  101728:	e1a03203 	lsl	r3, r3, #4
  10172c:	e2033e1f 	and	r3, r3, #496	; 0x1f0
  101730:	e1813003 	orr	r3, r1, r3
  101734:	e3833102 	orr	r3, r3, #-2147483648	; 0x80000000
  101738:	e5823000 	str	r3, [r2]
  10173c:	ea000037 	b	101820 <alt_acp_id_map_fixed_read_set+0x1d8>
  101740:	e3072010 	movw	r2, #28688	; 0x7010
  101744:	e34f2f70 	movt	r2, #65392	; 0xff70
  101748:	e51b3008 	ldr	r3, [fp, #-8]
  10174c:	e1a01803 	lsl	r1, r3, #16
  101750:	e3a03000 	mov	r3, #0
  101754:	e3403fff 	movt	r3, #4095	; 0xfff
  101758:	e0033001 	and	r3, r3, r1
  10175c:	e55b100d 	ldrb	r1, [fp, #-13]
  101760:	e1a01601 	lsl	r1, r1, #12
  101764:	e2011a03 	and	r1, r1, #12288	; 0x3000
  101768:	e1831001 	orr	r1, r3, r1
  10176c:	e51b3014 	ldr	r3, [fp, #-20]	; 0xffffffec
  101770:	e1a03203 	lsl	r3, r3, #4
  101774:	e2033e1f 	and	r3, r3, #496	; 0x1f0
  101778:	e1813003 	orr	r3, r1, r3
  10177c:	e3833102 	orr	r3, r3, #-2147483648	; 0x80000000
  101780:	e5823000 	str	r3, [r2]
  101784:	ea000025 	b	101820 <alt_acp_id_map_fixed_read_set+0x1d8>
  101788:	e3072018 	movw	r2, #28696	; 0x7018
  10178c:	e34f2f70 	movt	r2, #65392	; 0xff70
  101790:	e51b3008 	ldr	r3, [fp, #-8]
  101794:	e1a01803 	lsl	r1, r3, #16
  101798:	e3a03000 	mov	r3, #0
  10179c:	e3403fff 	movt	r3, #4095	; 0xfff
  1017a0:	e0033001 	and	r3, r3, r1
  1017a4:	e55b100d 	ldrb	r1, [fp, #-13]
  1017a8:	e1a01601 	lsl	r1, r1, #12
  1017ac:	e2011a03 	and	r1, r1, #12288	; 0x3000
  1017b0:	e1831001 	orr	r1, r3, r1
  1017b4:	e51b3014 	ldr	r3, [fp, #-20]	; 0xffffffec
  1017b8:	e1a03203 	lsl	r3, r3, #4
  1017bc:	e2033e1f 	and	r3, r3, #496	; 0x1f0
  1017c0:	e1813003 	orr	r3, r1, r3
  1017c4:	e3833102 	orr	r3, r3, #-2147483648	; 0x80000000
  1017c8:	e5823000 	str	r3, [r2]
  1017cc:	ea000013 	b	101820 <alt_acp_id_map_fixed_read_set+0x1d8>
  1017d0:	e3072020 	movw	r2, #28704	; 0x7020
  1017d4:	e34f2f70 	movt	r2, #65392	; 0xff70
  1017d8:	e51b3008 	ldr	r3, [fp, #-8]
  1017dc:	e1a01803 	lsl	r1, r3, #16
  1017e0:	e3a03000 	mov	r3, #0
  1017e4:	e3403fff 	movt	r3, #4095	; 0xfff
  1017e8:	e0033001 	and	r3, r3, r1
  1017ec:	e55b100d 	ldrb	r1, [fp, #-13]
  1017f0:	e1a01601 	lsl	r1, r1, #12
  1017f4:	e2011a03 	and	r1, r1, #12288	; 0x3000
  1017f8:	e1831001 	orr	r1, r3, r1
  1017fc:	e51b3014 	ldr	r3, [fp, #-20]	; 0xffffffec
  101800:	e1a03203 	lsl	r3, r3, #4
  101804:	e2033e1f 	and	r3, r3, #496	; 0x1f0
  101808:	e1813003 	orr	r3, r1, r3
  10180c:	e3833102 	orr	r3, r3, #-2147483648	; 0x80000000
  101810:	e5823000 	str	r3, [r2]
  101814:	ea000001 	b	101820 <alt_acp_id_map_fixed_read_set+0x1d8>
  101818:	e3e03008 	mvn	r3, #8
  10181c:	ea000000 	b	101824 <alt_acp_id_map_fixed_read_set+0x1dc>
  101820:	e3a03000 	mov	r3, #0
  101824:	e1a00003 	mov	r0, r3
  101828:	e24bd000 	sub	sp, fp, #0
  10182c:	e49db004 	pop	{fp}		; (ldr fp, [sp], #4)
  101830:	e12fff1e 	bx	lr

00101834 <alt_acp_id_map_fixed_write_set>:
  101834:	e52db004 	push	{fp}		; (str fp, [sp, #-4]!)
  101838:	e28db000 	add	fp, sp, #0
  10183c:	e24dd014 	sub	sp, sp, #20
  101840:	e50b0008 	str	r0, [fp, #-8]
  101844:	e50b100c 	str	r1, [fp, #-12]
  101848:	e50b3014 	str	r3, [fp, #-20]	; 0xffffffec
  10184c:	e1a03002 	mov	r3, r2
  101850:	e54b300d 	strb	r3, [fp, #-13]
  101854:	e51b3008 	ldr	r3, [fp, #-8]
  101858:	e3530a01 	cmp	r3, #4096	; 0x1000
  10185c:	2a000002 	bcs	10186c <alt_acp_id_map_fixed_write_set+0x38>
  101860:	e51b300c 	ldr	r3, [fp, #-12]
  101864:	e3530007 	cmp	r3, #7
  101868:	9a000001 	bls	101874 <alt_acp_id_map_fixed_write_set+0x40>
  10186c:	e3e03008 	mvn	r3, #8
  101870:	ea000066 	b	101a10 <alt_acp_id_map_fixed_write_set+0x1dc>
  101874:	e51b300c 	ldr	r3, [fp, #-12]
  101878:	e2433002 	sub	r3, r3, #2
  10187c:	e3530004 	cmp	r3, #4
  101880:	979ff103 	ldrls	pc, [pc, r3, lsl #2]
  101884:	ea00005e 	b	101a04 <alt_acp_id_map_fixed_write_set+0x1d0>
  101888:	0010189c 	.word	0x0010189c
  10188c:	001018e4 	.word	0x001018e4
  101890:	0010192c 	.word	0x0010192c
  101894:	00101974 	.word	0x00101974
  101898:	001019bc 	.word	0x001019bc
  10189c:	e3072004 	movw	r2, #28676	; 0x7004
  1018a0:	e34f2f70 	movt	r2, #65392	; 0xff70
  1018a4:	e51b3008 	ldr	r3, [fp, #-8]
  1018a8:	e1a01803 	lsl	r1, r3, #16
  1018ac:	e3a03000 	mov	r3, #0
  1018b0:	e3403fff 	movt	r3, #4095	; 0xfff
  1018b4:	e0033001 	and	r3, r3, r1
  1018b8:	e55b100d 	ldrb	r1, [fp, #-13]
  1018bc:	e1a01601 	lsl	r1, r1, #12
  1018c0:	e2011a03 	and	r1, r1, #12288	; 0x3000
  1018c4:	e1831001 	orr	r1, r3, r1
  1018c8:	e51b3014 	ldr	r3, [fp, #-20]	; 0xffffffec
  1018cc:	e1a03203 	lsl	r3, r3, #4
  1018d0:	e2033e1f 	and	r3, r3, #496	; 0x1f0
  1018d4:	e1813003 	orr	r3, r1, r3
  1018d8:	e3833102 	orr	r3, r3, #-2147483648	; 0x80000000
  1018dc:	e5823000 	str	r3, [r2]
  1018e0:	ea000049 	b	101a0c <alt_acp_id_map_fixed_write_set+0x1d8>
  1018e4:	e307200c 	movw	r2, #28684	; 0x700c
  1018e8:	e34f2f70 	movt	r2, #65392	; 0xff70
  1018ec:	e51b3008 	ldr	r3, [fp, #-8]
  1018f0:	e1a01803 	lsl	r1, r3, #16
  1018f4:	e3a03000 	mov	r3, #0
  1018f8:	e3403fff 	movt	r3, #4095	; 0xfff
  1018fc:	e0033001 	and	r3, r3, r1
  101900:	e55b100d 	ldrb	r1, [fp, #-13]
  101904:	e1a01601 	lsl	r1, r1, #12
  101908:	e2011a03 	and	r1, r1, #12288	; 0x3000
  10190c:	e1831001 	orr	r1, r3, r1
  101910:	e51b3014 	ldr	r3, [fp, #-20]	; 0xffffffec
  101914:	e1a03203 	lsl	r3, r3, #4
  101918:	e2033e1f 	and	r3, r3, #496	; 0x1f0
  10191c:	e1813003 	orr	r3, r1, r3
  101920:	e3833102 	orr	r3, r3, #-2147483648	; 0x80000000
  101924:	e5823000 	str	r3, [r2]
  101928:	ea000037 	b	101a0c <alt_acp_id_map_fixed_write_set+0x1d8>
  10192c:	e3072014 	movw	r2, #28692	; 0x7014
  101930:	e34f2f70 	movt	r2, #65392	; 0xff70
  101934:	e51b3008 	ldr	r3, [fp, #-8]
  101938:	e1a01803 	lsl	r1, r3, #16
  10193c:	e3a03000 	mov	r3, #0
  101940:	e3403fff 	movt	r3, #4095	; 0xfff
  101944:	e0033001 	and	r3, r3, r1
  101948:	e55b100d 	ldrb	r1, [fp, #-13]
  10194c:	e1a01601 	lsl	r1, r1, #12
  101950:	e2011a03 	and	r1, r1, #12288	; 0x3000
  101954:	e1831001 	orr	r1, r3, r1
  101958:	e51b3014 	ldr	r3, [fp, #-20]	; 0xffffffec
  10195c:	e1a03203 	lsl	r3, r3, #4
  101960:	e2033e1f 	and	r3, r3, #496	; 0x1f0
  101964:	e1813003 	orr	r3, r1, r3
  101968:	e3833102 	orr	r3, r3, #-2147483648	; 0x80000000
  10196c:	e5823000 	str	r3, [r2]
  101970:	ea000025 	b	101a0c <alt_acp_id_map_fixed_write_set+0x1d8>
  101974:	e307201c 	movw	r2, #28700	; 0x701c
  101978:	e34f2f70 	movt	r2, #65392	; 0xff70
  10197c:	e51b3008 	ldr	r3, [fp, #-8]
  101980:	e1a01803 	lsl	r1, r3, #16
  101984:	e3a03000 	mov	r3, #0
  101988:	e3403fff 	movt	r3, #4095	; 0xfff
  10198c:	e0033001 	and	r3, r3, r1
  101990:	e55b100d 	ldrb	r1, [fp, #-13]
  101994:	e1a01601 	lsl	r1, r1, #12
  101998:	e2011a03 	and	r1, r1, #12288	; 0x3000
  10199c:	e1831001 	orr	r1, r3, r1
  1019a0:	e51b3014 	ldr	r3, [fp, #-20]	; 0xffffffec
  1019a4:	e1a03203 	lsl	r3, r3, #4
  1019a8:	e2033e1f 	and	r3, r3, #496	; 0x1f0
  1019ac:	e1813003 	orr	r3, r1, r3
  1019b0:	e3833102 	orr	r3, r3, #-2147483648	; 0x80000000
  1019b4:	e5823000 	str	r3, [r2]
  1019b8:	ea000013 	b	101a0c <alt_acp_id_map_fixed_write_set+0x1d8>
  1019bc:	e3072024 	movw	r2, #28708	; 0x7024
  1019c0:	e34f2f70 	movt	r2, #65392	; 0xff70
  1019c4:	e51b3008 	ldr	r3, [fp, #-8]
  1019c8:	e1a01803 	lsl	r1, r3, #16
  1019cc:	e3a03000 	mov	r3, #0
  1019d0:	e3403fff 	movt	r3, #4095	; 0xfff
  1019d4:	e0033001 	and	r3, r3, r1
  1019d8:	e55b100d 	ldrb	r1, [fp, #-13]
  1019dc:	e1a01601 	lsl	r1, r1, #12
  1019e0:	e2011a03 	and	r1, r1, #12288	; 0x3000
  1019e4:	e1831001 	orr	r1, r3, r1
  1019e8:	e51b3014 	ldr	r3, [fp, #-20]	; 0xffffffec
  1019ec:	e1a03203 	lsl	r3, r3, #4
  1019f0:	e2033e1f 	and	r3, r3, #496	; 0x1f0
  1019f4:	e1813003 	orr	r3, r1, r3
  1019f8:	e3833102 	orr	r3, r3, #-2147483648	; 0x80000000
  1019fc:	e5823000 	str	r3, [r2]
  101a00:	ea000001 	b	101a0c <alt_acp_id_map_fixed_write_set+0x1d8>
  101a04:	e3e03008 	mvn	r3, #8
  101a08:	ea000000 	b	101a10 <alt_acp_id_map_fixed_write_set+0x1dc>
  101a0c:	e3a03000 	mov	r3, #0
  101a10:	e1a00003 	mov	r0, r3
  101a14:	e24bd000 	sub	sp, fp, #0
  101a18:	e49db004 	pop	{fp}		; (ldr fp, [sp], #4)
  101a1c:	e12fff1e 	bx	lr

00101a20 <alt_acp_id_map_dynamic_read_set>:
  101a20:	e52db004 	push	{fp}		; (str fp, [sp, #-4]!)
  101a24:	e28db000 	add	fp, sp, #0
  101a28:	e24dd014 	sub	sp, sp, #20
  101a2c:	e50b0010 	str	r0, [fp, #-16]
  101a30:	e51b3010 	ldr	r3, [fp, #-16]
  101a34:	e3530007 	cmp	r3, #7
  101a38:	9a000001 	bls	101a44 <alt_acp_id_map_dynamic_read_set+0x24>
  101a3c:	e3e03008 	mvn	r3, #8
  101a40:	ea000057 	b	101ba4 <alt_acp_id_map_dynamic_read_set+0x184>
  101a44:	e51b3010 	ldr	r3, [fp, #-16]
  101a48:	e2433002 	sub	r3, r3, #2
  101a4c:	e3530004 	cmp	r3, #4
  101a50:	979ff103 	ldrls	pc, [pc, r3, lsl #2]
  101a54:	ea000045 	b	101b70 <alt_acp_id_map_dynamic_read_set+0x150>
  101a58:	00101a6c 	.word	0x00101a6c
  101a5c:	00101aa0 	.word	0x00101aa0
  101a60:	00101ad4 	.word	0x00101ad4
  101a64:	00101b08 	.word	0x00101b08
  101a68:	00101b3c 	.word	0x00101b3c
  101a6c:	e3a03a07 	mov	r3, #28672	; 0x7000
  101a70:	e34f3f70 	movt	r3, #65392	; 0xff70
  101a74:	e5933000 	ldr	r3, [r3]
  101a78:	e1a03223 	lsr	r3, r3, #4
  101a7c:	e203301f 	and	r3, r3, #31
  101a80:	e50b3008 	str	r3, [fp, #-8]
  101a84:	e3a03a07 	mov	r3, #28672	; 0x7000
  101a88:	e34f3f70 	movt	r3, #65392	; 0xff70
  101a8c:	e5933000 	ldr	r3, [r3]
  101a90:	e1a03623 	lsr	r3, r3, #12
  101a94:	e2033003 	and	r3, r3, #3
  101a98:	e50b300c 	str	r3, [fp, #-12]
  101a9c:	ea000035 	b	101b78 <alt_acp_id_map_dynamic_read_set+0x158>
  101aa0:	e3073008 	movw	r3, #28680	; 0x7008
  101aa4:	e34f3f70 	movt	r3, #65392	; 0xff70
  101aa8:	e5933000 	ldr	r3, [r3]
  101aac:	e1a03223 	lsr	r3, r3, #4
  101ab0:	e203301f 	and	r3, r3, #31
  101ab4:	e50b3008 	str	r3, [fp, #-8]
  101ab8:	e3073008 	movw	r3, #28680	; 0x7008
  101abc:	e34f3f70 	movt	r3, #65392	; 0xff70
  101ac0:	e5933000 	ldr	r3, [r3]
  101ac4:	e1a03623 	lsr	r3, r3, #12
  101ac8:	e2033003 	and	r3, r3, #3
  101acc:	e50b300c 	str	r3, [fp, #-12]
  101ad0:	ea000028 	b	101b78 <alt_acp_id_map_dynamic_read_set+0x158>
  101ad4:	e3073010 	movw	r3, #28688	; 0x7010
  101ad8:	e34f3f70 	movt	r3, #65392	; 0xff70
  101adc:	e5933000 	ldr	r3, [r3]
  101ae0:	e1a03223 	lsr	r3, r3, #4
  101ae4:	e203301f 	and	r3, r3, #31
  101ae8:	e50b3008 	str	r3, [fp, #-8]
  101aec:	e3073010 	movw	r3, #28688	; 0x7010
  101af0:	e34f3f70 	movt	r3, #65392	; 0xff70
  101af4:	e5933000 	ldr	r3, [r3]
  101af8:	e1a03623 	lsr	r3, r3, #12
  101afc:	e2033003 	and	r3, r3, #3
  101b00:	e50b300c 	str	r3, [fp, #-12]
  101b04:	ea00001b 	b	101b78 <alt_acp_id_map_dynamic_read_set+0x158>
  101b08:	e3073018 	movw	r3, #28696	; 0x7018
  101b0c:	e34f3f70 	movt	r3, #65392	; 0xff70
  101b10:	e5933000 	ldr	r3, [r3]
  101b14:	e1a03223 	lsr	r3, r3, #4
  101b18:	e203301f 	and	r3, r3, #31
  101b1c:	e50b3008 	str	r3, [fp, #-8]
  101b20:	e3073018 	movw	r3, #28696	; 0x7018
  101b24:	e34f3f70 	movt	r3, #65392	; 0xff70
  101b28:	e5933000 	ldr	r3, [r3]
  101b2c:	e1a03623 	lsr	r3, r3, #12
  101b30:	e2033003 	and	r3, r3, #3
  101b34:	e50b300c 	str	r3, [fp, #-12]
  101b38:	ea00000e 	b	101b78 <alt_acp_id_map_dynamic_read_set+0x158>
  101b3c:	e3073020 	movw	r3, #28704	; 0x7020
  101b40:	e34f3f70 	movt	r3, #65392	; 0xff70
  101b44:	e5933000 	ldr	r3, [r3]
  101b48:	e1a03223 	lsr	r3, r3, #4
  101b4c:	e203301f 	and	r3, r3, #31
  101b50:	e50b3008 	str	r3, [fp, #-8]
  101b54:	e3073020 	movw	r3, #28704	; 0x7020
  101b58:	e34f3f70 	movt	r3, #65392	; 0xff70
  101b5c:	e5933000 	ldr	r3, [r3]
  101b60:	e1a03623 	lsr	r3, r3, #12
  101b64:	e2033003 	and	r3, r3, #3
  101b68:	e50b300c 	str	r3, [fp, #-12]
  101b6c:	ea000001 	b	101b78 <alt_acp_id_map_dynamic_read_set+0x158>
  101b70:	e3e03008 	mvn	r3, #8
  101b74:	ea00000a 	b	101ba4 <alt_acp_id_map_dynamic_read_set+0x184>
  101b78:	e3073028 	movw	r3, #28712	; 0x7028
  101b7c:	e34f3f70 	movt	r3, #65392	; 0xff70
  101b80:	e51b200c 	ldr	r2, [fp, #-12]
  101b84:	e1a02602 	lsl	r2, r2, #12
  101b88:	e2021a03 	and	r1, r2, #12288	; 0x3000
  101b8c:	e51b2008 	ldr	r2, [fp, #-8]
  101b90:	e1a02202 	lsl	r2, r2, #4
  101b94:	e2022e1f 	and	r2, r2, #496	; 0x1f0
  101b98:	e1812002 	orr	r2, r1, r2
  101b9c:	e5832000 	str	r2, [r3]
  101ba0:	e3a03000 	mov	r3, #0
  101ba4:	e1a00003 	mov	r0, r3
  101ba8:	e24bd000 	sub	sp, fp, #0
  101bac:	e49db004 	pop	{fp}		; (ldr fp, [sp], #4)
  101bb0:	e12fff1e 	bx	lr

00101bb4 <alt_acp_id_map_dynamic_write_set>:
  101bb4:	e52db004 	push	{fp}		; (str fp, [sp, #-4]!)
  101bb8:	e28db000 	add	fp, sp, #0
  101bbc:	e24dd014 	sub	sp, sp, #20
  101bc0:	e50b0010 	str	r0, [fp, #-16]
  101bc4:	e51b3010 	ldr	r3, [fp, #-16]
  101bc8:	e3530007 	cmp	r3, #7
  101bcc:	9a000001 	bls	101bd8 <alt_acp_id_map_dynamic_write_set+0x24>
  101bd0:	e3e03008 	mvn	r3, #8
  101bd4:	ea000057 	b	101d38 <alt_acp_id_map_dynamic_write_set+0x184>
  101bd8:	e51b3010 	ldr	r3, [fp, #-16]
  101bdc:	e2433002 	sub	r3, r3, #2
  101be0:	e3530004 	cmp	r3, #4
  101be4:	979ff103 	ldrls	pc, [pc, r3, lsl #2]
  101be8:	ea000045 	b	101d04 <alt_acp_id_map_dynamic_write_set+0x150>
  101bec:	00101c00 	.word	0x00101c00
  101bf0:	00101c34 	.word	0x00101c34
  101bf4:	00101c68 	.word	0x00101c68
  101bf8:	00101c9c 	.word	0x00101c9c
  101bfc:	00101cd0 	.word	0x00101cd0
  101c00:	e3073004 	movw	r3, #28676	; 0x7004
  101c04:	e34f3f70 	movt	r3, #65392	; 0xff70
  101c08:	e5933000 	ldr	r3, [r3]
  101c0c:	e1a03223 	lsr	r3, r3, #4
  101c10:	e203301f 	and	r3, r3, #31
  101c14:	e50b3008 	str	r3, [fp, #-8]
  101c18:	e3073004 	movw	r3, #28676	; 0x7004
  101c1c:	e34f3f70 	movt	r3, #65392	; 0xff70
  101c20:	e5933000 	ldr	r3, [r3]
  101c24:	e1a03623 	lsr	r3, r3, #12
  101c28:	e2033003 	and	r3, r3, #3
  101c2c:	e50b300c 	str	r3, [fp, #-12]
  101c30:	ea000035 	b	101d0c <alt_acp_id_map_dynamic_write_set+0x158>
  101c34:	e307300c 	movw	r3, #28684	; 0x700c
  101c38:	e34f3f70 	movt	r3, #65392	; 0xff70
  101c3c:	e5933000 	ldr	r3, [r3]
  101c40:	e1a03223 	lsr	r3, r3, #4
  101c44:	e203301f 	and	r3, r3, #31
  101c48:	e50b3008 	str	r3, [fp, #-8]
  101c4c:	e307300c 	movw	r3, #28684	; 0x700c
  101c50:	e34f3f70 	movt	r3, #65392	; 0xff70
  101c54:	e5933000 	ldr	r3, [r3]
  101c58:	e1a03623 	lsr	r3, r3, #12
  101c5c:	e2033003 	and	r3, r3, #3
  101c60:	e50b300c 	str	r3, [fp, #-12]
  101c64:	ea000028 	b	101d0c <alt_acp_id_map_dynamic_write_set+0x158>
  101c68:	e3073014 	movw	r3, #28692	; 0x7014
  101c6c:	e34f3f70 	movt	r3, #65392	; 0xff70
  101c70:	e5933000 	ldr	r3, [r3]
  101c74:	e1a03223 	lsr	r3, r3, #4
  101c78:	e203301f 	and	r3, r3, #31
  101c7c:	e50b3008 	str	r3, [fp, #-8]
  101c80:	e3073014 	movw	r3, #28692	; 0x7014
  101c84:	e34f3f70 	movt	r3, #65392	; 0xff70
  101c88:	e5933000 	ldr	r3, [r3]
  101c8c:	e1a03623 	lsr	r3, r3, #12
  101c90:	e2033003 	and	r3, r3, #3
  101c94:	e50b300c 	str	r3, [fp, #-12]
  101c98:	ea00001b 	b	101d0c <alt_acp_id_map_dynamic_write_set+0x158>
  101c9c:	e307301c 	movw	r3, #28700	; 0x701c
  101ca0:	e34f3f70 	movt	r3, #65392	; 0xff70
  101ca4:	e5933000 	ldr	r3, [r3]
  101ca8:	e1a03223 	lsr	r3, r3, #4
  101cac:	e203301f 	and	r3, r3, #31
  101cb0:	e50b3008 	str	r3, [fp, #-8]
  101cb4:	e307301c 	movw	r3, #28700	; 0x701c
  101cb8:	e34f3f70 	movt	r3, #65392	; 0xff70
  101cbc:	e5933000 	ldr	r3, [r3]
  101cc0:	e1a03623 	lsr	r3, r3, #12
  101cc4:	e2033003 	and	r3, r3, #3
  101cc8:	e50b300c 	str	r3, [fp, #-12]
  101ccc:	ea00000e 	b	101d0c <alt_acp_id_map_dynamic_write_set+0x158>
  101cd0:	e3073024 	movw	r3, #28708	; 0x7024
  101cd4:	e34f3f70 	movt	r3, #65392	; 0xff70
  101cd8:	e5933000 	ldr	r3, [r3]
  101cdc:	e1a03223 	lsr	r3, r3, #4
  101ce0:	e203301f 	and	r3, r3, #31
  101ce4:	e50b3008 	str	r3, [fp, #-8]
  101ce8:	e3073024 	movw	r3, #28708	; 0x7024
  101cec:	e34f3f70 	movt	r3, #65392	; 0xff70
  101cf0:	e5933000 	ldr	r3, [r3]
  101cf4:	e1a03623 	lsr	r3, r3, #12
  101cf8:	e2033003 	and	r3, r3, #3
  101cfc:	e50b300c 	str	r3, [fp, #-12]
  101d00:	ea000001 	b	101d0c <alt_acp_id_map_dynamic_write_set+0x158>
  101d04:	e3e03008 	mvn	r3, #8
  101d08:	ea00000a 	b	101d38 <alt_acp_id_map_dynamic_write_set+0x184>
  101d0c:	e307302c 	movw	r3, #28716	; 0x702c
  101d10:	e34f3f70 	movt	r3, #65392	; 0xff70
  101d14:	e51b200c 	ldr	r2, [fp, #-12]
  101d18:	e1a02602 	lsl	r2, r2, #12
  101d1c:	e2021a03 	and	r1, r2, #12288	; 0x3000
  101d20:	e51b2008 	ldr	r2, [fp, #-8]
  101d24:	e1a02202 	lsl	r2, r2, #4
  101d28:	e2022e1f 	and	r2, r2, #496	; 0x1f0
  101d2c:	e1812002 	orr	r2, r1, r2
  101d30:	e5832000 	str	r2, [r3]
  101d34:	e3a03000 	mov	r3, #0
  101d38:	e1a00003 	mov	r0, r3
  101d3c:	e24bd000 	sub	sp, fp, #0
  101d40:	e49db004 	pop	{fp}		; (ldr fp, [sp], #4)
  101d44:	e12fff1e 	bx	lr

00101d48 <alt_acp_id_map_dynamic_read_options_set>:
  101d48:	e52db004 	push	{fp}		; (str fp, [sp, #-4]!)
  101d4c:	e28db000 	add	fp, sp, #0
  101d50:	e24dd00c 	sub	sp, sp, #12
  101d54:	e1a03000 	mov	r3, r0
  101d58:	e50b100c 	str	r1, [fp, #-12]
  101d5c:	e54b3005 	strb	r3, [fp, #-5]
  101d60:	e3073028 	movw	r3, #28712	; 0x7028
  101d64:	e34f3f70 	movt	r3, #65392	; 0xff70
  101d68:	e55b2005 	ldrb	r2, [fp, #-5]
  101d6c:	e1a02602 	lsl	r2, r2, #12
  101d70:	e2021a03 	and	r1, r2, #12288	; 0x3000
  101d74:	e51b200c 	ldr	r2, [fp, #-12]
  101d78:	e1a02202 	lsl	r2, r2, #4
  101d7c:	e2022e1f 	and	r2, r2, #496	; 0x1f0
  101d80:	e1812002 	orr	r2, r1, r2
  101d84:	e5832000 	str	r2, [r3]
  101d88:	e3a03000 	mov	r3, #0
  101d8c:	e1a00003 	mov	r0, r3
  101d90:	e24bd000 	sub	sp, fp, #0
  101d94:	e49db004 	pop	{fp}		; (ldr fp, [sp], #4)
  101d98:	e12fff1e 	bx	lr

00101d9c <alt_acp_id_map_dynamic_write_options_set>:
  101d9c:	e52db004 	push	{fp}		; (str fp, [sp, #-4]!)
  101da0:	e28db000 	add	fp, sp, #0
  101da4:	e24dd00c 	sub	sp, sp, #12
  101da8:	e1a03000 	mov	r3, r0
  101dac:	e50b100c 	str	r1, [fp, #-12]
  101db0:	e54b3005 	strb	r3, [fp, #-5]
  101db4:	e307302c 	movw	r3, #28716	; 0x702c
  101db8:	e34f3f70 	movt	r3, #65392	; 0xff70
  101dbc:	e55b2005 	ldrb	r2, [fp, #-5]
  101dc0:	e1a02602 	lsl	r2, r2, #12
  101dc4:	e2021a03 	and	r1, r2, #12288	; 0x3000
  101dc8:	e51b200c 	ldr	r2, [fp, #-12]
  101dcc:	e1a02202 	lsl	r2, r2, #4
  101dd0:	e2022e1f 	and	r2, r2, #496	; 0x1f0
  101dd4:	e1812002 	orr	r2, r1, r2
  101dd8:	e5832000 	str	r2, [r3]
  101ddc:	e3a03000 	mov	r3, #0
  101de0:	e1a00003 	mov	r0, r3
  101de4:	e24bd000 	sub	sp, fp, #0
  101de8:	e49db004 	pop	{fp}		; (ldr fp, [sp], #4)
  101dec:	e12fff1e 	bx	lr

00101df0 <alt_acp_id_map_read_options_get>:
  101df0:	e52db004 	push	{fp}		; (str fp, [sp, #-4]!)
  101df4:	e28db000 	add	fp, sp, #0
  101df8:	e24dd014 	sub	sp, sp, #20
  101dfc:	e50b0008 	str	r0, [fp, #-8]
  101e00:	e50b100c 	str	r1, [fp, #-12]
  101e04:	e50b2010 	str	r2, [fp, #-16]
  101e08:	e50b3014 	str	r3, [fp, #-20]	; 0xffffffec
  101e0c:	e51b3008 	ldr	r3, [fp, #-8]
  101e10:	e3530007 	cmp	r3, #7
  101e14:	9a000001 	bls	101e20 <alt_acp_id_map_read_options_get+0x30>
  101e18:	e3e03008 	mvn	r3, #8
  101e1c:	ea0000c7 	b	102140 <alt_acp_id_map_read_options_get+0x350>
  101e20:	e51b3008 	ldr	r3, [fp, #-8]
  101e24:	e2433002 	sub	r3, r3, #2
  101e28:	e3530005 	cmp	r3, #5
  101e2c:	979ff103 	ldrls	pc, [pc, r3, lsl #2]
  101e30:	ea0000bf 	b	102134 <alt_acp_id_map_read_options_get+0x344>
  101e34:	00101e4c 	.word	0x00101e4c
  101e38:	00101ed4 	.word	0x00101ed4
  101e3c:	00101f5c 	.word	0x00101f5c
  101e40:	00101fe4 	.word	0x00101fe4
  101e44:	0010206c 	.word	0x0010206c
  101e48:	001020f4 	.word	0x001020f4
  101e4c:	e3073030 	movw	r3, #28720	; 0x7030
  101e50:	e34f3f70 	movt	r3, #65392	; 0xff70
  101e54:	e5933000 	ldr	r3, [r3]
  101e58:	e1a03223 	lsr	r3, r3, #4
  101e5c:	e203201f 	and	r2, r3, #31
  101e60:	e59b3004 	ldr	r3, [fp, #4]
  101e64:	e5832000 	str	r2, [r3]
  101e68:	e3073030 	movw	r3, #28720	; 0x7030
  101e6c:	e34f3f70 	movt	r3, #65392	; 0xff70
  101e70:	e5933000 	ldr	r3, [r3]
  101e74:	e1a03623 	lsr	r3, r3, #12
  101e78:	e2033003 	and	r3, r3, #3
  101e7c:	e6ef2073 	uxtb	r2, r3
  101e80:	e51b3014 	ldr	r3, [fp, #-20]	; 0xffffffec
  101e84:	e5c32000 	strb	r2, [r3]
  101e88:	e3073030 	movw	r3, #28720	; 0x7030
  101e8c:	e34f3f70 	movt	r3, #65392	; 0xff70
  101e90:	e5933000 	ldr	r3, [r3]
  101e94:	e1a03823 	lsr	r3, r3, #16
  101e98:	e7eb2053 	ubfx	r2, r3, #0, #12
  101e9c:	e51b3010 	ldr	r3, [fp, #-16]
  101ea0:	e5832000 	str	r2, [r3]
  101ea4:	e3073030 	movw	r3, #28720	; 0x7030
  101ea8:	e34f3f70 	movt	r3, #65392	; 0xff70
  101eac:	e5933000 	ldr	r3, [r3]
  101eb0:	e1a03fa3 	lsr	r3, r3, #31
  101eb4:	e2033001 	and	r3, r3, #1
  101eb8:	e3530000 	cmp	r3, #0
  101ebc:	13a03001 	movne	r3, #1
  101ec0:	03a03000 	moveq	r3, #0
  101ec4:	e6ef2073 	uxtb	r2, r3
  101ec8:	e51b300c 	ldr	r3, [fp, #-12]
  101ecc:	e5c32000 	strb	r2, [r3]
  101ed0:	ea000099 	b	10213c <alt_acp_id_map_read_options_get+0x34c>
  101ed4:	e3073038 	movw	r3, #28728	; 0x7038
  101ed8:	e34f3f70 	movt	r3, #65392	; 0xff70
  101edc:	e5933000 	ldr	r3, [r3]
  101ee0:	e1a03223 	lsr	r3, r3, #4
  101ee4:	e203201f 	and	r2, r3, #31
  101ee8:	e59b3004 	ldr	r3, [fp, #4]
  101eec:	e5832000 	str	r2, [r3]
  101ef0:	e3073038 	movw	r3, #28728	; 0x7038
  101ef4:	e34f3f70 	movt	r3, #65392	; 0xff70
  101ef8:	e5933000 	ldr	r3, [r3]
  101efc:	e1a03623 	lsr	r3, r3, #12
  101f00:	e2033003 	and	r3, r3, #3
  101f04:	e6ef2073 	uxtb	r2, r3
  101f08:	e51b3014 	ldr	r3, [fp, #-20]	; 0xffffffec
  101f0c:	e5c32000 	strb	r2, [r3]
  101f10:	e3073038 	movw	r3, #28728	; 0x7038
  101f14:	e34f3f70 	movt	r3, #65392	; 0xff70
  101f18:	e5933000 	ldr	r3, [r3]
  101f1c:	e1a03823 	lsr	r3, r3, #16
  101f20:	e7eb2053 	ubfx	r2, r3, #0, #12
  101f24:	e51b3010 	ldr	r3, [fp, #-16]
  101f28:	e5832000 	str	r2, [r3]
  101f2c:	e3073038 	movw	r3, #28728	; 0x7038
  101f30:	e34f3f70 	movt	r3, #65392	; 0xff70
  101f34:	e5933000 	ldr	r3, [r3]
  101f38:	e1a03fa3 	lsr	r3, r3, #31
  101f3c:	e2033001 	and	r3, r3, #1
  101f40:	e3530000 	cmp	r3, #0
  101f44:	13a03001 	movne	r3, #1
  101f48:	03a03000 	moveq	r3, #0
  101f4c:	e6ef2073 	uxtb	r2, r3
  101f50:	e51b300c 	ldr	r3, [fp, #-12]
  101f54:	e5c32000 	strb	r2, [r3]
  101f58:	ea000077 	b	10213c <alt_acp_id_map_read_options_get+0x34c>
  101f5c:	e3073040 	movw	r3, #28736	; 0x7040
  101f60:	e34f3f70 	movt	r3, #65392	; 0xff70
  101f64:	e5933000 	ldr	r3, [r3]
  101f68:	e1a03223 	lsr	r3, r3, #4
  101f6c:	e203201f 	and	r2, r3, #31
  101f70:	e59b3004 	ldr	r3, [fp, #4]
  101f74:	e5832000 	str	r2, [r3]
  101f78:	e3073040 	movw	r3, #28736	; 0x7040
  101f7c:	e34f3f70 	movt	r3, #65392	; 0xff70
  101f80:	e5933000 	ldr	r3, [r3]
  101f84:	e1a03623 	lsr	r3, r3, #12
  101f88:	e2033003 	and	r3, r3, #3
  101f8c:	e6ef2073 	uxtb	r2, r3
  101f90:	e51b3014 	ldr	r3, [fp, #-20]	; 0xffffffec
  101f94:	e5c32000 	strb	r2, [r3]
  101f98:	e3073040 	movw	r3, #28736	; 0x7040
  101f9c:	e34f3f70 	movt	r3, #65392	; 0xff70
  101fa0:	e5933000 	ldr	r3, [r3]
  101fa4:	e1a03823 	lsr	r3, r3, #16
  101fa8:	e7eb2053 	ubfx	r2, r3, #0, #12
  101fac:	e51b3010 	ldr	r3, [fp, #-16]
  101fb0:	e5832000 	str	r2, [r3]
  101fb4:	e3073040 	movw	r3, #28736	; 0x7040
  101fb8:	e34f3f70 	movt	r3, #65392	; 0xff70
  101fbc:	e5933000 	ldr	r3, [r3]
  101fc0:	e1a03fa3 	lsr	r3, r3, #31
  101fc4:	e2033001 	and	r3, r3, #1
  101fc8:	e3530000 	cmp	r3, #0
  101fcc:	13a03001 	movne	r3, #1
  101fd0:	03a03000 	moveq	r3, #0
  101fd4:	e6ef2073 	uxtb	r2, r3
  101fd8:	e51b300c 	ldr	r3, [fp, #-12]
  101fdc:	e5c32000 	strb	r2, [r3]
  101fe0:	ea000055 	b	10213c <alt_acp_id_map_read_options_get+0x34c>
  101fe4:	e3073048 	movw	r3, #28744	; 0x7048
  101fe8:	e34f3f70 	movt	r3, #65392	; 0xff70
  101fec:	e5933000 	ldr	r3, [r3]
  101ff0:	e1a03223 	lsr	r3, r3, #4
  101ff4:	e203201f 	and	r2, r3, #31
  101ff8:	e59b3004 	ldr	r3, [fp, #4]
  101ffc:	e5832000 	str	r2, [r3]
  102000:	e3073048 	movw	r3, #28744	; 0x7048
  102004:	e34f3f70 	movt	r3, #65392	; 0xff70
  102008:	e5933000 	ldr	r3, [r3]
  10200c:	e1a03623 	lsr	r3, r3, #12
  102010:	e2033003 	and	r3, r3, #3
  102014:	e6ef2073 	uxtb	r2, r3
  102018:	e51b3014 	ldr	r3, [fp, #-20]	; 0xffffffec
  10201c:	e5c32000 	strb	r2, [r3]
  102020:	e3073048 	movw	r3, #28744	; 0x7048
  102024:	e34f3f70 	movt	r3, #65392	; 0xff70
  102028:	e5933000 	ldr	r3, [r3]
  10202c:	e1a03823 	lsr	r3, r3, #16
  102030:	e7eb2053 	ubfx	r2, r3, #0, #12
  102034:	e51b3010 	ldr	r3, [fp, #-16]
  102038:	e5832000 	str	r2, [r3]
  10203c:	e3073048 	movw	r3, #28744	; 0x7048
  102040:	e34f3f70 	movt	r3, #65392	; 0xff70
  102044:	e5933000 	ldr	r3, [r3]
  102048:	e1a03fa3 	lsr	r3, r3, #31
  10204c:	e2033001 	and	r3, r3, #1
  102050:	e3530000 	cmp	r3, #0
  102054:	13a03001 	movne	r3, #1
  102058:	03a03000 	moveq	r3, #0
  10205c:	e6ef2073 	uxtb	r2, r3
  102060:	e51b300c 	ldr	r3, [fp, #-12]
  102064:	e5c32000 	strb	r2, [r3]
  102068:	ea000033 	b	10213c <alt_acp_id_map_read_options_get+0x34c>
  10206c:	e3073050 	movw	r3, #28752	; 0x7050
  102070:	e34f3f70 	movt	r3, #65392	; 0xff70
  102074:	e5933000 	ldr	r3, [r3]
  102078:	e1a03223 	lsr	r3, r3, #4
  10207c:	e203201f 	and	r2, r3, #31
  102080:	e59b3004 	ldr	r3, [fp, #4]
  102084:	e5832000 	str	r2, [r3]
  102088:	e3073050 	movw	r3, #28752	; 0x7050
  10208c:	e34f3f70 	movt	r3, #65392	; 0xff70
  102090:	e5933000 	ldr	r3, [r3]
  102094:	e1a03623 	lsr	r3, r3, #12
  102098:	e2033003 	and	r3, r3, #3
  10209c:	e6ef2073 	uxtb	r2, r3
  1020a0:	e51b3014 	ldr	r3, [fp, #-20]	; 0xffffffec
  1020a4:	e5c32000 	strb	r2, [r3]
  1020a8:	e3073050 	movw	r3, #28752	; 0x7050
  1020ac:	e34f3f70 	movt	r3, #65392	; 0xff70
  1020b0:	e5933000 	ldr	r3, [r3]
  1020b4:	e1a03823 	lsr	r3, r3, #16
  1020b8:	e7eb2053 	ubfx	r2, r3, #0, #12
  1020bc:	e51b3010 	ldr	r3, [fp, #-16]
  1020c0:	e5832000 	str	r2, [r3]
  1020c4:	e3073050 	movw	r3, #28752	; 0x7050
  1020c8:	e34f3f70 	movt	r3, #65392	; 0xff70
  1020cc:	e5933000 	ldr	r3, [r3]
  1020d0:	e1a03fa3 	lsr	r3, r3, #31
  1020d4:	e2033001 	and	r3, r3, #1
  1020d8:	e3530000 	cmp	r3, #0
  1020dc:	13a03001 	movne	r3, #1
  1020e0:	03a03000 	moveq	r3, #0
  1020e4:	e6ef2073 	uxtb	r2, r3
  1020e8:	e51b300c 	ldr	r3, [fp, #-12]
  1020ec:	e5c32000 	strb	r2, [r3]
  1020f0:	ea000011 	b	10213c <alt_acp_id_map_read_options_get+0x34c>
  1020f4:	e3073058 	movw	r3, #28760	; 0x7058
  1020f8:	e34f3f70 	movt	r3, #65392	; 0xff70
  1020fc:	e5933000 	ldr	r3, [r3]
  102100:	e1a03223 	lsr	r3, r3, #4
  102104:	e203201f 	and	r2, r3, #31
  102108:	e59b3004 	ldr	r3, [fp, #4]
  10210c:	e5832000 	str	r2, [r3]
  102110:	e3073058 	movw	r3, #28760	; 0x7058
  102114:	e34f3f70 	movt	r3, #65392	; 0xff70
  102118:	e5933000 	ldr	r3, [r3]
  10211c:	e1a03623 	lsr	r3, r3, #12
  102120:	e2033003 	and	r3, r3, #3
  102124:	e6ef2073 	uxtb	r2, r3
  102128:	e51b3014 	ldr	r3, [fp, #-20]	; 0xffffffec
  10212c:	e5c32000 	strb	r2, [r3]
  102130:	ea000001 	b	10213c <alt_acp_id_map_read_options_get+0x34c>
  102134:	e3e03008 	mvn	r3, #8
  102138:	ea000000 	b	102140 <alt_acp_id_map_read_options_get+0x350>
  10213c:	e3a03000 	mov	r3, #0
  102140:	e1a00003 	mov	r0, r3
  102144:	e24bd000 	sub	sp, fp, #0
  102148:	e49db004 	pop	{fp}		; (ldr fp, [sp], #4)
  10214c:	e12fff1e 	bx	lr

00102150 <alt_acp_id_map_write_options_get>:
  102150:	e52db004 	push	{fp}		; (str fp, [sp, #-4]!)
  102154:	e28db000 	add	fp, sp, #0
  102158:	e24dd014 	sub	sp, sp, #20
  10215c:	e50b0008 	str	r0, [fp, #-8]
  102160:	e50b100c 	str	r1, [fp, #-12]
  102164:	e50b2010 	str	r2, [fp, #-16]
  102168:	e50b3014 	str	r3, [fp, #-20]	; 0xffffffec
  10216c:	e51b3008 	ldr	r3, [fp, #-8]
  102170:	e3530007 	cmp	r3, #7
  102174:	9a000001 	bls	102180 <alt_acp_id_map_write_options_get+0x30>
  102178:	e3e03008 	mvn	r3, #8
  10217c:	ea0000c7 	b	1024a0 <alt_acp_id_map_write_options_get+0x350>
  102180:	e51b3008 	ldr	r3, [fp, #-8]
  102184:	e2433002 	sub	r3, r3, #2
  102188:	e3530005 	cmp	r3, #5
  10218c:	979ff103 	ldrls	pc, [pc, r3, lsl #2]
  102190:	ea0000bf 	b	102494 <alt_acp_id_map_write_options_get+0x344>
  102194:	001021ac 	.word	0x001021ac
  102198:	00102234 	.word	0x00102234
  10219c:	001022bc 	.word	0x001022bc
  1021a0:	00102344 	.word	0x00102344
  1021a4:	001023cc 	.word	0x001023cc
  1021a8:	00102454 	.word	0x00102454
  1021ac:	e3073034 	movw	r3, #28724	; 0x7034
  1021b0:	e34f3f70 	movt	r3, #65392	; 0xff70
  1021b4:	e5933000 	ldr	r3, [r3]
  1021b8:	e1a03223 	lsr	r3, r3, #4
  1021bc:	e203201f 	and	r2, r3, #31
  1021c0:	e59b3004 	ldr	r3, [fp, #4]
  1021c4:	e5832000 	str	r2, [r3]
  1021c8:	e3073034 	movw	r3, #28724	; 0x7034
  1021cc:	e34f3f70 	movt	r3, #65392	; 0xff70
  1021d0:	e5933000 	ldr	r3, [r3]
  1021d4:	e1a03623 	lsr	r3, r3, #12
  1021d8:	e2033003 	and	r3, r3, #3
  1021dc:	e6ef2073 	uxtb	r2, r3
  1021e0:	e51b3014 	ldr	r3, [fp, #-20]	; 0xffffffec
  1021e4:	e5c32000 	strb	r2, [r3]
  1021e8:	e3073034 	movw	r3, #28724	; 0x7034
  1021ec:	e34f3f70 	movt	r3, #65392	; 0xff70
  1021f0:	e5933000 	ldr	r3, [r3]
  1021f4:	e1a03823 	lsr	r3, r3, #16
  1021f8:	e7eb2053 	ubfx	r2, r3, #0, #12
  1021fc:	e51b3010 	ldr	r3, [fp, #-16]
  102200:	e5832000 	str	r2, [r3]
  102204:	e3073034 	movw	r3, #28724	; 0x7034
  102208:	e34f3f70 	movt	r3, #65392	; 0xff70
  10220c:	e5933000 	ldr	r3, [r3]
  102210:	e1a03fa3 	lsr	r3, r3, #31
  102214:	e2033001 	and	r3, r3, #1
  102218:	e3530000 	cmp	r3, #0
  10221c:	13a03001 	movne	r3, #1
  102220:	03a03000 	moveq	r3, #0
  102224:	e6ef2073 	uxtb	r2, r3
  102228:	e51b300c 	ldr	r3, [fp, #-12]
  10222c:	e5c32000 	strb	r2, [r3]
  102230:	ea000099 	b	10249c <alt_acp_id_map_write_options_get+0x34c>
  102234:	e307303c 	movw	r3, #28732	; 0x703c
  102238:	e34f3f70 	movt	r3, #65392	; 0xff70
  10223c:	e5933000 	ldr	r3, [r3]
  102240:	e1a03223 	lsr	r3, r3, #4
  102244:	e203201f 	and	r2, r3, #31
  102248:	e59b3004 	ldr	r3, [fp, #4]
  10224c:	e5832000 	str	r2, [r3]
  102250:	e307303c 	movw	r3, #28732	; 0x703c
  102254:	e34f3f70 	movt	r3, #65392	; 0xff70
  102258:	e5933000 	ldr	r3, [r3]
  10225c:	e1a03623 	lsr	r3, r3, #12
  102260:	e2033003 	and	r3, r3, #3
  102264:	e6ef2073 	uxtb	r2, r3
  102268:	e51b3014 	ldr	r3, [fp, #-20]	; 0xffffffec
  10226c:	e5c32000 	strb	r2, [r3]
  102270:	e307303c 	movw	r3, #28732	; 0x703c
  102274:	e34f3f70 	movt	r3, #65392	; 0xff70
  102278:	e5933000 	ldr	r3, [r3]
  10227c:	e1a03823 	lsr	r3, r3, #16
  102280:	e7eb2053 	ubfx	r2, r3, #0, #12
  102284:	e51b3010 	ldr	r3, [fp, #-16]
  102288:	e5832000 	str	r2, [r3]
  10228c:	e307303c 	movw	r3, #28732	; 0x703c
  102290:	e34f3f70 	movt	r3, #65392	; 0xff70
  102294:	e5933000 	ldr	r3, [r3]
  102298:	e1a03fa3 	lsr	r3, r3, #31
  10229c:	e2033001 	and	r3, r3, #1
  1022a0:	e3530000 	cmp	r3, #0
  1022a4:	13a03001 	movne	r3, #1
  1022a8:	03a03000 	moveq	r3, #0
  1022ac:	e6ef2073 	uxtb	r2, r3
  1022b0:	e51b300c 	ldr	r3, [fp, #-12]
  1022b4:	e5c32000 	strb	r2, [r3]
  1022b8:	ea000077 	b	10249c <alt_acp_id_map_write_options_get+0x34c>
  1022bc:	e3073044 	movw	r3, #28740	; 0x7044
  1022c0:	e34f3f70 	movt	r3, #65392	; 0xff70
  1022c4:	e5933000 	ldr	r3, [r3]
  1022c8:	e1a03223 	lsr	r3, r3, #4
  1022cc:	e203201f 	and	r2, r3, #31
  1022d0:	e59b3004 	ldr	r3, [fp, #4]
  1022d4:	e5832000 	str	r2, [r3]
  1022d8:	e3073044 	movw	r3, #28740	; 0x7044
  1022dc:	e34f3f70 	movt	r3, #65392	; 0xff70
  1022e0:	e5933000 	ldr	r3, [r3]
  1022e4:	e1a03623 	lsr	r3, r3, #12
  1022e8:	e2033003 	and	r3, r3, #3
  1022ec:	e6ef2073 	uxtb	r2, r3
  1022f0:	e51b3014 	ldr	r3, [fp, #-20]	; 0xffffffec
  1022f4:	e5c32000 	strb	r2, [r3]
  1022f8:	e3073044 	movw	r3, #28740	; 0x7044
  1022fc:	e34f3f70 	movt	r3, #65392	; 0xff70
  102300:	e5933000 	ldr	r3, [r3]
  102304:	e1a03823 	lsr	r3, r3, #16
  102308:	e7eb2053 	ubfx	r2, r3, #0, #12
  10230c:	e51b3010 	ldr	r3, [fp, #-16]
  102310:	e5832000 	str	r2, [r3]
  102314:	e3073044 	movw	r3, #28740	; 0x7044
  102318:	e34f3f70 	movt	r3, #65392	; 0xff70
  10231c:	e5933000 	ldr	r3, [r3]
  102320:	e1a03fa3 	lsr	r3, r3, #31
  102324:	e2033001 	and	r3, r3, #1
  102328:	e3530000 	cmp	r3, #0
  10232c:	13a03001 	movne	r3, #1
  102330:	03a03000 	moveq	r3, #0
  102334:	e6ef2073 	uxtb	r2, r3
  102338:	e51b300c 	ldr	r3, [fp, #-12]
  10233c:	e5c32000 	strb	r2, [r3]
  102340:	ea000055 	b	10249c <alt_acp_id_map_write_options_get+0x34c>
  102344:	e307304c 	movw	r3, #28748	; 0x704c
  102348:	e34f3f70 	movt	r3, #65392	; 0xff70
  10234c:	e5933000 	ldr	r3, [r3]
  102350:	e1a03223 	lsr	r3, r3, #4
  102354:	e203201f 	and	r2, r3, #31
  102358:	e59b3004 	ldr	r3, [fp, #4]
  10235c:	e5832000 	str	r2, [r3]
  102360:	e307304c 	movw	r3, #28748	; 0x704c
  102364:	e34f3f70 	movt	r3, #65392	; 0xff70
  102368:	e5933000 	ldr	r3, [r3]
  10236c:	e1a03623 	lsr	r3, r3, #12
  102370:	e2033003 	and	r3, r3, #3
  102374:	e6ef2073 	uxtb	r2, r3
  102378:	e51b3014 	ldr	r3, [fp, #-20]	; 0xffffffec
  10237c:	e5c32000 	strb	r2, [r3]
  102380:	e307304c 	movw	r3, #28748	; 0x704c
  102384:	e34f3f70 	movt	r3, #65392	; 0xff70
  102388:	e5933000 	ldr	r3, [r3]
  10238c:	e1a03823 	lsr	r3, r3, #16
  102390:	e7eb2053 	ubfx	r2, r3, #0, #12
  102394:	e51b3010 	ldr	r3, [fp, #-16]
  102398:	e5832000 	str	r2, [r3]
  10239c:	e307304c 	movw	r3, #28748	; 0x704c
  1023a0:	e34f3f70 	movt	r3, #65392	; 0xff70
  1023a4:	e5933000 	ldr	r3, [r3]
  1023a8:	e1a03fa3 	lsr	r3, r3, #31
  1023ac:	e2033001 	and	r3, r3, #1
  1023b0:	e3530000 	cmp	r3, #0
  1023b4:	13a03001 	movne	r3, #1
  1023b8:	03a03000 	moveq	r3, #0
  1023bc:	e6ef2073 	uxtb	r2, r3
  1023c0:	e51b300c 	ldr	r3, [fp, #-12]
  1023c4:	e5c32000 	strb	r2, [r3]
  1023c8:	ea000033 	b	10249c <alt_acp_id_map_write_options_get+0x34c>
  1023cc:	e3073054 	movw	r3, #28756	; 0x7054
  1023d0:	e34f3f70 	movt	r3, #65392	; 0xff70
  1023d4:	e5933000 	ldr	r3, [r3]
  1023d8:	e1a03223 	lsr	r3, r3, #4
  1023dc:	e203201f 	and	r2, r3, #31
  1023e0:	e59b3004 	ldr	r3, [fp, #4]
  1023e4:	e5832000 	str	r2, [r3]
  1023e8:	e3073054 	movw	r3, #28756	; 0x7054
  1023ec:	e34f3f70 	movt	r3, #65392	; 0xff70
  1023f0:	e5933000 	ldr	r3, [r3]
  1023f4:	e1a03623 	lsr	r3, r3, #12
  1023f8:	e2033003 	and	r3, r3, #3
  1023fc:	e6ef2073 	uxtb	r2, r3
  102400:	e51b3014 	ldr	r3, [fp, #-20]	; 0xffffffec
  102404:	e5c32000 	strb	r2, [r3]
  102408:	e3073054 	movw	r3, #28756	; 0x7054
  10240c:	e34f3f70 	movt	r3, #65392	; 0xff70
  102410:	e5933000 	ldr	r3, [r3]
  102414:	e1a03823 	lsr	r3, r3, #16
  102418:	e7eb2053 	ubfx	r2, r3, #0, #12
  10241c:	e51b3010 	ldr	r3, [fp, #-16]
  102420:	e5832000 	str	r2, [r3]
  102424:	e3073054 	movw	r3, #28756	; 0x7054
  102428:	e34f3f70 	movt	r3, #65392	; 0xff70
  10242c:	e5933000 	ldr	r3, [r3]
  102430:	e1a03fa3 	lsr	r3, r3, #31
  102434:	e2033001 	and	r3, r3, #1
  102438:	e3530000 	cmp	r3, #0
  10243c:	13a03001 	movne	r3, #1
  102440:	03a03000 	moveq	r3, #0
  102444:	e6ef2073 	uxtb	r2, r3
  102448:	e51b300c 	ldr	r3, [fp, #-12]
  10244c:	e5c32000 	strb	r2, [r3]
  102450:	ea000011 	b	10249c <alt_acp_id_map_write_options_get+0x34c>
  102454:	e307305c 	movw	r3, #28764	; 0x705c
  102458:	e34f3f70 	movt	r3, #65392	; 0xff70
  10245c:	e5933000 	ldr	r3, [r3]
  102460:	e1a03223 	lsr	r3, r3, #4
  102464:	e203201f 	and	r2, r3, #31
  102468:	e59b3004 	ldr	r3, [fp, #4]
  10246c:	e5832000 	str	r2, [r3]
  102470:	e307305c 	movw	r3, #28764	; 0x705c
  102474:	e34f3f70 	movt	r3, #65392	; 0xff70
  102478:	e5933000 	ldr	r3, [r3]
  10247c:	e1a03623 	lsr	r3, r3, #12
  102480:	e2033003 	and	r3, r3, #3
  102484:	e6ef2073 	uxtb	r2, r3
  102488:	e51b3014 	ldr	r3, [fp, #-20]	; 0xffffffec
  10248c:	e5c32000 	strb	r2, [r3]
  102490:	ea000001 	b	10249c <alt_acp_id_map_write_options_get+0x34c>
  102494:	e3e03008 	mvn	r3, #8
  102498:	ea000000 	b	1024a0 <alt_acp_id_map_write_options_get+0x350>
  10249c:	e3a03000 	mov	r3, #0
  1024a0:	e1a00003 	mov	r0, r3
  1024a4:	e24bd000 	sub	sp, fp, #0
  1024a8:	e49db004 	pop	{fp}		; (ldr fp, [sp], #4)
  1024ac:	e12fff1e 	bx	lr

001024b0 <fpga_dma_read_reg>:
  1024b0:	e52db004 	push	{fp}		; (str fp, [sp, #-4]!)
  1024b4:	e28db000 	add	fp, sp, #0
  1024b8:	e24dd00c 	sub	sp, sp, #12
  1024bc:	e50b0008 	str	r0, [fp, #-8]
  1024c0:	e50b100c 	str	r1, [fp, #-12]
  1024c4:	e51b300c 	ldr	r3, [fp, #-12]
  1024c8:	e1a03103 	lsl	r3, r3, #2
  1024cc:	e51b2008 	ldr	r2, [fp, #-8]
  1024d0:	e0823003 	add	r3, r2, r3
  1024d4:	e5933000 	ldr	r3, [r3]
  1024d8:	e1a00003 	mov	r0, r3
  1024dc:	e24bd000 	sub	sp, fp, #0
  1024e0:	e49db004 	pop	{fp}		; (ldr fp, [sp], #4)
  1024e4:	e12fff1e 	bx	lr

001024e8 <fpga_dma_write_reg>:
  1024e8:	e52db004 	push	{fp}		; (str fp, [sp, #-4]!)
  1024ec:	e28db000 	add	fp, sp, #0
  1024f0:	e24dd014 	sub	sp, sp, #20
  1024f4:	e50b0008 	str	r0, [fp, #-8]
  1024f8:	e50b100c 	str	r1, [fp, #-12]
  1024fc:	e50b2010 	str	r2, [fp, #-16]
  102500:	e51b300c 	ldr	r3, [fp, #-12]
  102504:	e1a03103 	lsl	r3, r3, #2
  102508:	e51b2008 	ldr	r2, [fp, #-8]
  10250c:	e0823003 	add	r3, r2, r3
  102510:	e51b2010 	ldr	r2, [fp, #-16]
  102514:	e5832000 	str	r2, [r3]
  102518:	e320f000 	nop	{0}
  10251c:	e24bd000 	sub	sp, fp, #0
  102520:	e49db004 	pop	{fp}		; (ldr fp, [sp], #4)
  102524:	e12fff1e 	bx	lr

00102528 <fpga_dma_read_bit>:
  102528:	e92d4800 	push	{fp, lr}
  10252c:	e28db004 	add	fp, sp, #4
  102530:	e24dd010 	sub	sp, sp, #16
  102534:	e50b0008 	str	r0, [fp, #-8]
  102538:	e50b100c 	str	r1, [fp, #-12]
  10253c:	e50b2010 	str	r2, [fp, #-16]
  102540:	e51b100c 	ldr	r1, [fp, #-12]
  102544:	e51b0008 	ldr	r0, [fp, #-8]
  102548:	ebffffd8 	bl	1024b0 <fpga_dma_read_reg>
  10254c:	e1a02000 	mov	r2, r0
  102550:	e51b3010 	ldr	r3, [fp, #-16]
  102554:	e0033002 	and	r3, r3, r2
  102558:	e1a00003 	mov	r0, r3
  10255c:	e24bd004 	sub	sp, fp, #4
  102560:	e8bd8800 	pop	{fp, pc}

00102564 <fpga_dma_write_bit>:
  102564:	e92d4800 	push	{fp, lr}
  102568:	e28db004 	add	fp, sp, #4
  10256c:	e24dd018 	sub	sp, sp, #24
  102570:	e50b0010 	str	r0, [fp, #-16]
  102574:	e50b1014 	str	r1, [fp, #-20]	; 0xffffffec
  102578:	e50b2018 	str	r2, [fp, #-24]	; 0xffffffe8
  10257c:	e50b301c 	str	r3, [fp, #-28]	; 0xffffffe4
  102580:	e51b1014 	ldr	r1, [fp, #-20]	; 0xffffffec
  102584:	e51b0010 	ldr	r0, [fp, #-16]
  102588:	ebffffc8 	bl	1024b0 <fpga_dma_read_reg>
  10258c:	e50b0008 	str	r0, [fp, #-8]
  102590:	e51b301c 	ldr	r3, [fp, #-28]	; 0xffffffe4
  102594:	e3530000 	cmp	r3, #0
  102598:	1a000008 	bne	1025c0 <fpga_dma_write_bit+0x5c>
  10259c:	e51b3018 	ldr	r3, [fp, #-24]	; 0xffffffe8
  1025a0:	e1e02003 	mvn	r2, r3
  1025a4:	e51b3008 	ldr	r3, [fp, #-8]
  1025a8:	e0033002 	and	r3, r3, r2
  1025ac:	e1a02003 	mov	r2, r3
  1025b0:	e51b1014 	ldr	r1, [fp, #-20]	; 0xffffffec
  1025b4:	e51b0010 	ldr	r0, [fp, #-16]
  1025b8:	ebffffca 	bl	1024e8 <fpga_dma_write_reg>
  1025bc:	ea00000a 	b	1025ec <fpga_dma_write_bit+0x88>
  1025c0:	e51b301c 	ldr	r3, [fp, #-28]	; 0xffffffe4
  1025c4:	e3530001 	cmp	r3, #1
  1025c8:	1a000007 	bne	1025ec <fpga_dma_write_bit+0x88>
  1025cc:	e51b2008 	ldr	r2, [fp, #-8]
  1025d0:	e51b3018 	ldr	r3, [fp, #-24]	; 0xffffffe8
  1025d4:	e1823003 	orr	r3, r2, r3
  1025d8:	e1a02003 	mov	r2, r3
  1025dc:	e51b1014 	ldr	r1, [fp, #-20]	; 0xffffffec
  1025e0:	e51b0010 	ldr	r0, [fp, #-16]
  1025e4:	ebffffbf 	bl	1024e8 <fpga_dma_write_reg>
  1025e8:	e320f000 	nop	{0}
  1025ec:	e320f000 	nop	{0}
  1025f0:	e24bd004 	sub	sp, fp, #4
  1025f4:	e8bd8800 	pop	{fp, pc}

001025f8 <fpga_dma_init>:
  1025f8:	e92d4800 	push	{fp, lr}
  1025fc:	e28db004 	add	fp, sp, #4
  102600:	e24dd008 	sub	sp, sp, #8
  102604:	e50b0008 	str	r0, [fp, #-8]
  102608:	e50b100c 	str	r1, [fp, #-12]
  10260c:	e51b200c 	ldr	r2, [fp, #-12]
  102610:	e3a01006 	mov	r1, #6
  102614:	e51b0008 	ldr	r0, [fp, #-8]
  102618:	ebffffb2 	bl	1024e8 <fpga_dma_write_reg>
  10261c:	e320f000 	nop	{0}
  102620:	e24bd004 	sub	sp, fp, #4
  102624:	e8bd8800 	pop	{fp, pc}

00102628 <fpga_dma_config_transfer>:
  102628:	e92d4800 	push	{fp, lr}
  10262c:	e28db004 	add	fp, sp, #4
  102630:	e24dd018 	sub	sp, sp, #24
  102634:	e50b0010 	str	r0, [fp, #-16]
  102638:	e50b1014 	str	r1, [fp, #-20]	; 0xffffffec
  10263c:	e50b2018 	str	r2, [fp, #-24]	; 0xffffffe8
  102640:	e50b301c 	str	r3, [fp, #-28]	; 0xffffffe4
  102644:	e3a03000 	mov	r3, #0
  102648:	e3a02008 	mov	r2, #8
  10264c:	e3a01006 	mov	r1, #6
  102650:	e51b0010 	ldr	r0, [fp, #-16]
  102654:	ebffffc2 	bl	102564 <fpga_dma_write_bit>
  102658:	e3a03000 	mov	r3, #0
  10265c:	e3a02001 	mov	r2, #1
  102660:	e3a01000 	mov	r1, #0
  102664:	e51b0010 	ldr	r0, [fp, #-16]
  102668:	ebffffbd 	bl	102564 <fpga_dma_write_bit>
  10266c:	e51b3014 	ldr	r3, [fp, #-20]	; 0xffffffec
  102670:	e1a02003 	mov	r2, r3
  102674:	e3a01001 	mov	r1, #1
  102678:	e51b0010 	ldr	r0, [fp, #-16]
  10267c:	ebffff99 	bl	1024e8 <fpga_dma_write_reg>
  102680:	e51b3018 	ldr	r3, [fp, #-24]	; 0xffffffe8
  102684:	e1a02003 	mov	r2, r3
  102688:	e3a01002 	mov	r1, #2
  10268c:	e51b0010 	ldr	r0, [fp, #-16]
  102690:	ebffff94 	bl	1024e8 <fpga_dma_write_reg>
  102694:	e51b201c 	ldr	r2, [fp, #-28]	; 0xffffffe4
  102698:	e3a01003 	mov	r1, #3
  10269c:	e51b0010 	ldr	r0, [fp, #-16]
  1026a0:	ebffff90 	bl	1024e8 <fpga_dma_write_reg>
  1026a4:	e3a03000 	mov	r3, #0
  1026a8:	e50b3008 	str	r3, [fp, #-8]
  1026ac:	e3a03000 	mov	r3, #0
  1026b0:	e50b300c 	str	r3, [fp, #-12]
  1026b4:	ea000005 	b	1026d0 <fpga_dma_config_transfer+0xa8>
  1026b8:	e51b3008 	ldr	r3, [fp, #-8]
  1026bc:	e2833001 	add	r3, r3, #1
  1026c0:	e50b3008 	str	r3, [fp, #-8]
  1026c4:	e51b300c 	ldr	r3, [fp, #-12]
  1026c8:	e2833001 	add	r3, r3, #1
  1026cc:	e50b300c 	str	r3, [fp, #-12]
  1026d0:	e51b300c 	ldr	r3, [fp, #-12]
  1026d4:	e3530009 	cmp	r3, #9
  1026d8:	dafffff6 	ble	1026b8 <fpga_dma_config_transfer+0x90>
  1026dc:	e320f000 	nop	{0}
  1026e0:	e24bd004 	sub	sp, fp, #4
  1026e4:	e8bd8800 	pop	{fp, pc}

001026e8 <fpga_dma_start_transfer>:
  1026e8:	e92d4800 	push	{fp, lr}
  1026ec:	e28db004 	add	fp, sp, #4
  1026f0:	e24dd008 	sub	sp, sp, #8
  1026f4:	e50b0008 	str	r0, [fp, #-8]
  1026f8:	e3a03001 	mov	r3, #1
  1026fc:	e3a02008 	mov	r2, #8
  102700:	e3a01006 	mov	r1, #6
  102704:	e51b0008 	ldr	r0, [fp, #-8]
  102708:	ebffff95 	bl	102564 <fpga_dma_write_bit>
  10270c:	e320f000 	nop	{0}
  102710:	e24bd004 	sub	sp, fp, #4
  102714:	e8bd8800 	pop	{fp, pc}

00102718 <fpga_dma_transfer_done>:
  102718:	e92d4800 	push	{fp, lr}
  10271c:	e28db004 	add	fp, sp, #4
  102720:	e24dd008 	sub	sp, sp, #8
  102724:	e50b0008 	str	r0, [fp, #-8]
  102728:	e3a02001 	mov	r2, #1
  10272c:	e3a01000 	mov	r1, #0
  102730:	e51b0008 	ldr	r0, [fp, #-8]
  102734:	ebffff7b 	bl	102528 <fpga_dma_read_bit>
  102738:	e1a03000 	mov	r3, r0
  10273c:	e1a00003 	mov	r0, r3
  102740:	e24bd004 	sub	sp, fp, #4
  102744:	e8bd8800 	pop	{fp, pc}

00102748 <align_malloc>:
  102748:	e92d4800 	push	{fp, lr}
  10274c:	e28db004 	add	fp, sp, #4
  102750:	e24dd018 	sub	sp, sp, #24
  102754:	e50b0018 	str	r0, [fp, #-24]	; 0xffffffe8
  102758:	e50b101c 	str	r1, [fp, #-28]	; 0xffffffe4
  10275c:	e51b3018 	ldr	r3, [fp, #-24]	; 0xffffffe8
  102760:	e1a03083 	lsl	r3, r3, #1
  102764:	e1a00003 	mov	r0, r3
  102768:	eb00014a 	bl	102c98 <malloc>
  10276c:	e1a03000 	mov	r3, r0
  102770:	e50b3010 	str	r3, [fp, #-16]
  102774:	e51b301c 	ldr	r3, [fp, #-28]	; 0xffffffe4
  102778:	e51b2010 	ldr	r2, [fp, #-16]
  10277c:	e5832000 	str	r2, [r3]
  102780:	e51b3010 	ldr	r3, [fp, #-16]
  102784:	e50b3008 	str	r3, [fp, #-8]
  102788:	e3a03000 	mov	r3, #0
  10278c:	e50b300c 	str	r3, [fp, #-12]
  102790:	ea00000e 	b	1027d0 <align_malloc+0x88>
  102794:	e51b3008 	ldr	r3, [fp, #-8]
  102798:	e51b1018 	ldr	r1, [fp, #-24]	; 0xffffffe8
  10279c:	e1a00003 	mov	r0, r3
  1027a0:	eb00011c 	bl	102c18 <__aeabi_uidivmod>
  1027a4:	e1a03001 	mov	r3, r1
  1027a8:	e3530000 	cmp	r3, #0
  1027ac:	1a000001 	bne	1027b8 <align_malloc+0x70>
  1027b0:	e51b3008 	ldr	r3, [fp, #-8]
  1027b4:	ea00000a 	b	1027e4 <align_malloc+0x9c>
  1027b8:	e51b3008 	ldr	r3, [fp, #-8]
  1027bc:	e2833001 	add	r3, r3, #1
  1027c0:	e50b3008 	str	r3, [fp, #-8]
  1027c4:	e51b300c 	ldr	r3, [fp, #-12]
  1027c8:	e2833001 	add	r3, r3, #1
  1027cc:	e50b300c 	str	r3, [fp, #-12]
  1027d0:	e51b200c 	ldr	r2, [fp, #-12]
  1027d4:	e51b3018 	ldr	r3, [fp, #-24]	; 0xffffffe8
  1027d8:	e1520003 	cmp	r2, r3
  1027dc:	3affffec 	bcc	102794 <align_malloc+0x4c>
  1027e0:	e3a03000 	mov	r3, #0
  1027e4:	e1a00003 	mov	r0, r3
  1027e8:	e24bd004 	sub	sp, fp, #4
  1027ec:	e8bd8800 	pop	{fp, pc}

001027f0 <pmu_init>:
  1027f0:	e52db004 	push	{fp}		; (str fp, [sp, #-4]!)
  1027f4:	e28db000 	add	fp, sp, #0
  1027f8:	ee190f1c 	mrc	15, 0, r0, cr9, cr12, {0}
  1027fc:	e3800001 	orr	r0, r0, #1
  102800:	ee090f1c 	mcr	15, 0, r0, cr9, cr12, {0}
  102804:	e320f000 	nop	{0}
  102808:	e24bd000 	sub	sp, fp, #0
  10280c:	e49db004 	pop	{fp}		; (ldr fp, [sp], #4)
  102810:	e12fff1e 	bx	lr

00102814 <pmu_init_ns>:
  102814:	e92d4800 	push	{fp, lr}
  102818:	e28db004 	add	fp, sp, #4
  10281c:	e24dd008 	sub	sp, sp, #8
  102820:	e50b0008 	str	r0, [fp, #-8]
  102824:	e50b100c 	str	r1, [fp, #-12]
  102828:	ebfffff0 	bl	1027f0 <pmu_init>
  10282c:	ee190f1c 	mrc	15, 0, r0, cr9, cr12, {0}
  102830:	e51b300c 	ldr	r3, [fp, #-12]
  102834:	e3530001 	cmp	r3, #1
  102838:	1a000001 	bne	102844 <pmu_init_ns+0x30>
  10283c:	e3c00008 	bic	r0, r0, #8
  102840:	ea000003 	b	102854 <pmu_init_ns+0x40>
  102844:	e51b300c 	ldr	r3, [fp, #-12]
  102848:	e3530040 	cmp	r3, #64	; 0x40
  10284c:	1a000000 	bne	102854 <pmu_init_ns+0x40>
  102850:	e3800008 	orr	r0, r0, #8
  102854:	ee090f1c 	mcr	15, 0, r0, cr9, cr12, {0}
  102858:	e51b300c 	ldr	r3, [fp, #-12]
  10285c:	ee073a90 	vmov	s15, r3
  102860:	eef87ae7 	vcvt.f32.s32	s15, s15
  102864:	eef70ae7 	vcvt.f64.f32	d16, s15
  102868:	eddf1b0c 	vldr	d17, [pc, #48]	; 1028a0 <pmu_init_ns+0x8c>
  10286c:	ee602ba1 	vmul.f64	d18, d16, d17
  102870:	e51b3008 	ldr	r3, [fp, #-8]
  102874:	ee073a90 	vmov	s15, r3
  102878:	eef87ae7 	vcvt.f32.s32	s15, s15
  10287c:	eef71ae7 	vcvt.f64.f32	d17, s15
  102880:	eec20ba1 	vdiv.f64	d16, d18, d17
  102884:	eef77be0 	vcvt.f32.f64	s15, d16
  102888:	e30839d8 	movw	r3, #35288	; 0x89d8
  10288c:	e3403011 	movt	r3, #17
  102890:	edc37a00 	vstr	s15, [r3]
  102894:	e320f000 	nop	{0}
  102898:	e24bd004 	sub	sp, fp, #4
  10289c:	e8bd8800 	pop	{fp, pc}
  1028a0:	00000000 	.word	0x00000000
  1028a4:	408f4000 	.word	0x408f4000

001028a8 <pmu_getres_ns>:
  1028a8:	e52db004 	push	{fp}		; (str fp, [sp, #-4]!)
  1028ac:	e28db000 	add	fp, sp, #0
  1028b0:	e30839d8 	movw	r3, #35288	; 0x89d8
  1028b4:	e3403011 	movt	r3, #17
  1028b8:	e5933000 	ldr	r3, [r3]
  1028bc:	e1a00003 	mov	r0, r3
  1028c0:	e24bd000 	sub	sp, fp, #0
  1028c4:	e49db004 	pop	{fp}		; (ldr fp, [sp], #4)
  1028c8:	e12fff1e 	bx	lr

001028cc <pmu_counter_enable>:
  1028cc:	e52db004 	push	{fp}		; (str fp, [sp, #-4]!)
  1028d0:	e28db000 	add	fp, sp, #0
  1028d4:	ee190f3c 	mrc	15, 0, r0, cr9, cr12, {1}
  1028d8:	e3800102 	orr	r0, r0, #-2147483648	; 0x80000000
  1028dc:	ee090f3c 	mcr	15, 0, r0, cr9, cr12, {1}
  1028e0:	e320f000 	nop	{0}
  1028e4:	e24bd000 	sub	sp, fp, #0
  1028e8:	e49db004 	pop	{fp}		; (ldr fp, [sp], #4)
  1028ec:	e12fff1e 	bx	lr

001028f0 <pmu_counter_disable>:
  1028f0:	e52db004 	push	{fp}		; (str fp, [sp, #-4]!)
  1028f4:	e28db000 	add	fp, sp, #0
  1028f8:	ee190f3c 	mrc	15, 0, r0, cr9, cr12, {1}
  1028fc:	e3e01102 	mvn	r1, #-2147483648	; 0x80000000
  102900:	e0000001 	and	r0, r0, r1
  102904:	ee090f3c 	mcr	15, 0, r0, cr9, cr12, {1}
  102908:	e320f000 	nop	{0}
  10290c:	e24bd000 	sub	sp, fp, #0
  102910:	e49db004 	pop	{fp}		; (ldr fp, [sp], #4)
  102914:	e12fff1e 	bx	lr

00102918 <pmu_counter_reset>:
  102918:	e52db004 	push	{fp}		; (str fp, [sp, #-4]!)
  10291c:	e28db000 	add	fp, sp, #0
  102920:	ee190f1c 	mrc	15, 0, r0, cr9, cr12, {0}
  102924:	e3800004 	orr	r0, r0, #4
  102928:	ee090f1c 	mcr	15, 0, r0, cr9, cr12, {0}
  10292c:	ee190f7c 	mrc	15, 0, r0, cr9, cr12, {3}
  102930:	e3800102 	orr	r0, r0, #-2147483648	; 0x80000000
  102934:	ee090f7c 	mcr	15, 0, r0, cr9, cr12, {3}
  102938:	ee190f1c 	mrc	15, 0, r0, cr9, cr12, {0}
  10293c:	e3800004 	orr	r0, r0, #4
  102940:	ee090f1c 	mcr	15, 0, r0, cr9, cr12, {0}
  102944:	e320f000 	nop	{0}
  102948:	e24bd000 	sub	sp, fp, #0
  10294c:	e49db004 	pop	{fp}		; (ldr fp, [sp], #4)
  102950:	e12fff1e 	bx	lr

00102954 <pmu_counter_read>:
  102954:	e52db004 	push	{fp}		; (str fp, [sp, #-4]!)
  102958:	e28db000 	add	fp, sp, #0
  10295c:	e24dd014 	sub	sp, sp, #20
  102960:	e50b0010 	str	r0, [fp, #-16]
  102964:	e3a03000 	mov	r3, #0
  102968:	e50b3008 	str	r3, [fp, #-8]
  10296c:	e3a03000 	mov	r3, #0
  102970:	e50b300c 	str	r3, [fp, #-12]
  102974:	e51b3008 	ldr	r3, [fp, #-8]
  102978:	ee193f1d 	mrc	15, 0, r3, cr9, cr13, {0}
  10297c:	e50b3008 	str	r3, [fp, #-8]
  102980:	e51b2008 	ldr	r2, [fp, #-8]
  102984:	e51b3010 	ldr	r3, [fp, #-16]
  102988:	e5832000 	str	r2, [r3]
  10298c:	ee190f7c 	mrc	15, 0, r0, cr9, cr12, {3}
  102990:	e2000102 	and	r0, r0, #-2147483648	; 0x80000000
  102994:	e51b300c 	ldr	r3, [fp, #-12]
  102998:	e1a03000 	mov	r3, r0
  10299c:	e50b300c 	str	r3, [fp, #-12]
  1029a0:	e51b300c 	ldr	r3, [fp, #-12]
  1029a4:	e3530000 	cmp	r3, #0
  1029a8:	1a000001 	bne	1029b4 <pmu_counter_read+0x60>
  1029ac:	e3a03000 	mov	r3, #0
  1029b0:	ea000000 	b	1029b8 <pmu_counter_read+0x64>
  1029b4:	e3a03001 	mov	r3, #1
  1029b8:	e1a00003 	mov	r0, r3
  1029bc:	e24bd000 	sub	sp, fp, #0
  1029c0:	e49db004 	pop	{fp}		; (ldr fp, [sp], #4)
  1029c4:	e12fff1e 	bx	lr

001029c8 <pmu_counter_read_ns>:
  1029c8:	e92d4800 	push	{fp, lr}
  1029cc:	e28db004 	add	fp, sp, #4
  1029d0:	e24dd010 	sub	sp, sp, #16
  1029d4:	e50b0010 	str	r0, [fp, #-16]
  1029d8:	e24b300c 	sub	r3, fp, #12
  1029dc:	e1a00003 	mov	r0, r3
  1029e0:	ebffffdb 	bl	102954 <pmu_counter_read>
  1029e4:	e50b0008 	str	r0, [fp, #-8]
  1029e8:	e51b300c 	ldr	r3, [fp, #-12]
  1029ec:	ee073a90 	vmov	s15, r3
  1029f0:	eeb87a67 	vcvt.f32.u32	s14, s15
  1029f4:	e30839d8 	movw	r3, #35288	; 0x89d8
  1029f8:	e3403011 	movt	r3, #17
  1029fc:	edd37a00 	vldr	s15, [r3]
  102a00:	ee677a27 	vmul.f32	s15, s14, s15
  102a04:	ee170a90 	vmov	r0, s15
  102a08:	eb00008c 	bl	102c40 <__aeabi_f2ulz>
  102a0c:	e1a02000 	mov	r2, r0
  102a10:	e1a03001 	mov	r3, r1
  102a14:	e51b1010 	ldr	r1, [fp, #-16]
  102a18:	e1c120f0 	strd	r2, [r1]
  102a1c:	e51b3008 	ldr	r3, [fp, #-8]
  102a20:	e1a00003 	mov	r0, r3
  102a24:	e24bd004 	sub	sp, fp, #4
  102a28:	e8bd8800 	pop	{fp, pc}

00102a2c <__aeabi_uidiv>:
  102a2c:	e2512001 	subs	r2, r1, #1
  102a30:	012fff1e 	bxeq	lr
  102a34:	3a000074 	bcc	102c0c <__aeabi_uidiv+0x1e0>
  102a38:	e1500001 	cmp	r0, r1
  102a3c:	9a00006b 	bls	102bf0 <__aeabi_uidiv+0x1c4>
  102a40:	e1110002 	tst	r1, r2
  102a44:	0a00006c 	beq	102bfc <__aeabi_uidiv+0x1d0>
  102a48:	e16f3f10 	clz	r3, r0
  102a4c:	e16f2f11 	clz	r2, r1
  102a50:	e0423003 	sub	r3, r2, r3
  102a54:	e273301f 	rsbs	r3, r3, #31
  102a58:	10833083 	addne	r3, r3, r3, lsl #1
  102a5c:	e3a02000 	mov	r2, #0
  102a60:	108ff103 	addne	pc, pc, r3, lsl #2
  102a64:	e320f000 	nop	{0}
  102a68:	e1500f81 	cmp	r0, r1, lsl #31
  102a6c:	e0a22002 	adc	r2, r2, r2
  102a70:	20400f81 	subcs	r0, r0, r1, lsl #31
  102a74:	e1500f01 	cmp	r0, r1, lsl #30
  102a78:	e0a22002 	adc	r2, r2, r2
  102a7c:	20400f01 	subcs	r0, r0, r1, lsl #30
  102a80:	e1500e81 	cmp	r0, r1, lsl #29
  102a84:	e0a22002 	adc	r2, r2, r2
  102a88:	20400e81 	subcs	r0, r0, r1, lsl #29
  102a8c:	e1500e01 	cmp	r0, r1, lsl #28
  102a90:	e0a22002 	adc	r2, r2, r2
  102a94:	20400e01 	subcs	r0, r0, r1, lsl #28
  102a98:	e1500d81 	cmp	r0, r1, lsl #27
  102a9c:	e0a22002 	adc	r2, r2, r2
  102aa0:	20400d81 	subcs	r0, r0, r1, lsl #27
  102aa4:	e1500d01 	cmp	r0, r1, lsl #26
  102aa8:	e0a22002 	adc	r2, r2, r2
  102aac:	20400d01 	subcs	r0, r0, r1, lsl #26
  102ab0:	e1500c81 	cmp	r0, r1, lsl #25
  102ab4:	e0a22002 	adc	r2, r2, r2
  102ab8:	20400c81 	subcs	r0, r0, r1, lsl #25
  102abc:	e1500c01 	cmp	r0, r1, lsl #24
  102ac0:	e0a22002 	adc	r2, r2, r2
  102ac4:	20400c01 	subcs	r0, r0, r1, lsl #24
  102ac8:	e1500b81 	cmp	r0, r1, lsl #23
  102acc:	e0a22002 	adc	r2, r2, r2
  102ad0:	20400b81 	subcs	r0, r0, r1, lsl #23
  102ad4:	e1500b01 	cmp	r0, r1, lsl #22
  102ad8:	e0a22002 	adc	r2, r2, r2
  102adc:	20400b01 	subcs	r0, r0, r1, lsl #22
  102ae0:	e1500a81 	cmp	r0, r1, lsl #21
  102ae4:	e0a22002 	adc	r2, r2, r2
  102ae8:	20400a81 	subcs	r0, r0, r1, lsl #21
  102aec:	e1500a01 	cmp	r0, r1, lsl #20
  102af0:	e0a22002 	adc	r2, r2, r2
  102af4:	20400a01 	subcs	r0, r0, r1, lsl #20
  102af8:	e1500981 	cmp	r0, r1, lsl #19
  102afc:	e0a22002 	adc	r2, r2, r2
  102b00:	20400981 	subcs	r0, r0, r1, lsl #19
  102b04:	e1500901 	cmp	r0, r1, lsl #18
  102b08:	e0a22002 	adc	r2, r2, r2
  102b0c:	20400901 	subcs	r0, r0, r1, lsl #18
  102b10:	e1500881 	cmp	r0, r1, lsl #17
  102b14:	e0a22002 	adc	r2, r2, r2
  102b18:	20400881 	subcs	r0, r0, r1, lsl #17
  102b1c:	e1500801 	cmp	r0, r1, lsl #16
  102b20:	e0a22002 	adc	r2, r2, r2
  102b24:	20400801 	subcs	r0, r0, r1, lsl #16
  102b28:	e1500781 	cmp	r0, r1, lsl #15
  102b2c:	e0a22002 	adc	r2, r2, r2
  102b30:	20400781 	subcs	r0, r0, r1, lsl #15
  102b34:	e1500701 	cmp	r0, r1, lsl #14
  102b38:	e0a22002 	adc	r2, r2, r2
  102b3c:	20400701 	subcs	r0, r0, r1, lsl #14
  102b40:	e1500681 	cmp	r0, r1, lsl #13
  102b44:	e0a22002 	adc	r2, r2, r2
  102b48:	20400681 	subcs	r0, r0, r1, lsl #13
  102b4c:	e1500601 	cmp	r0, r1, lsl #12
  102b50:	e0a22002 	adc	r2, r2, r2
  102b54:	20400601 	subcs	r0, r0, r1, lsl #12
  102b58:	e1500581 	cmp	r0, r1, lsl #11
  102b5c:	e0a22002 	adc	r2, r2, r2
  102b60:	20400581 	subcs	r0, r0, r1, lsl #11
  102b64:	e1500501 	cmp	r0, r1, lsl #10
  102b68:	e0a22002 	adc	r2, r2, r2
  102b6c:	20400501 	subcs	r0, r0, r1, lsl #10
  102b70:	e1500481 	cmp	r0, r1, lsl #9
  102b74:	e0a22002 	adc	r2, r2, r2
  102b78:	20400481 	subcs	r0, r0, r1, lsl #9
  102b7c:	e1500401 	cmp	r0, r1, lsl #8
  102b80:	e0a22002 	adc	r2, r2, r2
  102b84:	20400401 	subcs	r0, r0, r1, lsl #8
  102b88:	e1500381 	cmp	r0, r1, lsl #7
  102b8c:	e0a22002 	adc	r2, r2, r2
  102b90:	20400381 	subcs	r0, r0, r1, lsl #7
  102b94:	e1500301 	cmp	r0, r1, lsl #6
  102b98:	e0a22002 	adc	r2, r2, r2
  102b9c:	20400301 	subcs	r0, r0, r1, lsl #6
  102ba0:	e1500281 	cmp	r0, r1, lsl #5
  102ba4:	e0a22002 	adc	r2, r2, r2
  102ba8:	20400281 	subcs	r0, r0, r1, lsl #5
  102bac:	e1500201 	cmp	r0, r1, lsl #4
  102bb0:	e0a22002 	adc	r2, r2, r2
  102bb4:	20400201 	subcs	r0, r0, r1, lsl #4
  102bb8:	e1500181 	cmp	r0, r1, lsl #3
  102bbc:	e0a22002 	adc	r2, r2, r2
  102bc0:	20400181 	subcs	r0, r0, r1, lsl #3
  102bc4:	e1500101 	cmp	r0, r1, lsl #2
  102bc8:	e0a22002 	adc	r2, r2, r2
  102bcc:	20400101 	subcs	r0, r0, r1, lsl #2
  102bd0:	e1500081 	cmp	r0, r1, lsl #1
  102bd4:	e0a22002 	adc	r2, r2, r2
  102bd8:	20400081 	subcs	r0, r0, r1, lsl #1
  102bdc:	e1500001 	cmp	r0, r1
  102be0:	e0a22002 	adc	r2, r2, r2
  102be4:	20400001 	subcs	r0, r0, r1
  102be8:	e1a00002 	mov	r0, r2
  102bec:	e12fff1e 	bx	lr
  102bf0:	03a00001 	moveq	r0, #1
  102bf4:	13a00000 	movne	r0, #0
  102bf8:	e12fff1e 	bx	lr
  102bfc:	e16f2f11 	clz	r2, r1
  102c00:	e262201f 	rsb	r2, r2, #31
  102c04:	e1a00230 	lsr	r0, r0, r2
  102c08:	e12fff1e 	bx	lr
  102c0c:	e3500000 	cmp	r0, #0
  102c10:	13e00000 	mvnne	r0, #0
  102c14:	ea000007 	b	102c38 <__aeabi_idiv0>

00102c18 <__aeabi_uidivmod>:
  102c18:	e3510000 	cmp	r1, #0
  102c1c:	0afffffa 	beq	102c0c <__aeabi_uidiv+0x1e0>
  102c20:	e92d4003 	push	{r0, r1, lr}
  102c24:	ebffff80 	bl	102a2c <__aeabi_uidiv>
  102c28:	e8bd4006 	pop	{r1, r2, lr}
  102c2c:	e0030092 	mul	r3, r2, r0
  102c30:	e0411003 	sub	r1, r1, r3
  102c34:	e12fff1e 	bx	lr

00102c38 <__aeabi_idiv0>:
  102c38:	e12fff1e 	bx	lr
  102c3c:	00000000 	andeq	r0, r0, r0

00102c40 <__aeabi_f2ulz>:
  102c40:	ee070a90 	vmov	s15, r0
  102c44:	e3a02000 	mov	r2, #0
  102c48:	eef70ae7 	vcvt.f64.f32	d16, s15
  102c4c:	eddf1b0d 	vldr	d17, [pc, #52]	; 102c88 <__aeabi_f2ulz+0x48>
  102c50:	ed9f7b0e 	vldr	d7, [pc, #56]	; 102c90 <__aeabi_f2ulz+0x50>
  102c54:	ee207b87 	vmul.f64	d7, d16, d7
  102c58:	eebc7bc7 	vcvt.u32.f64	s14, d7
  102c5c:	eef82b47 	vcvt.f64.u32	d18, s14
  102c60:	ee173a10 	vmov	r3, s14
  102c64:	ee420be1 	vmls.f64	d16, d18, d17
  102c68:	eeb07b60 	vmov.f64	d7, d16
  102c6c:	eefc7bc7 	vcvt.u32.f64	s15, d7
  102c70:	ee170a90 	vmov	r0, s15
  102c74:	e1822000 	orr	r2, r2, r0
  102c78:	e1a00002 	mov	r0, r2
  102c7c:	e1a01003 	mov	r1, r3
  102c80:	e12fff1e 	bx	lr
  102c84:	e320f000 	nop	{0}
  102c88:	00000000 	.word	0x00000000
  102c8c:	41f00000 	.word	0x41f00000
  102c90:	00000000 	.word	0x00000000
  102c94:	3df00000 	.word	0x3df00000

00102c98 <malloc>:
  102c98:	e92d4010 	push	{r4, lr}
  102c9c:	e1a04000 	mov	r4, r0
  102ca0:	eb001435 	bl	107d7c <__getreent>
  102ca4:	e1a01004 	mov	r1, r4
  102ca8:	e8bd4010 	pop	{r4, lr}
  102cac:	ea000005 	b	102cc8 <_malloc_r>

00102cb0 <free>:
  102cb0:	e92d4010 	push	{r4, lr}
  102cb4:	e1a04000 	mov	r4, r0
  102cb8:	eb00142f 	bl	107d7c <__getreent>
  102cbc:	e1a01004 	mov	r1, r4
  102cc0:	e8bd4010 	pop	{r4, lr}
  102cc4:	ea00120a 	b	1074f4 <_free_r>

00102cc8 <_malloc_r>:
  102cc8:	e92d4ff8 	push	{r3, r4, r5, r6, r7, r8, r9, sl, fp, lr}
  102ccc:	e281500b 	add	r5, r1, #11
  102cd0:	e3550016 	cmp	r5, #22
  102cd4:	e1a06000 	mov	r6, r0
  102cd8:	9a000073 	bls	102eac <_malloc_r+0x1e4>
  102cdc:	e3c55007 	bic	r5, r5, #7
  102ce0:	e1510005 	cmp	r1, r5
  102ce4:	93a01000 	movls	r1, #0
  102ce8:	83a01001 	movhi	r1, #1
  102cec:	e1913fa5 	orrs	r3, r1, r5, lsr #31
  102cf0:	1a000089 	bne	102f1c <_malloc_r+0x254>
  102cf4:	eb000208 	bl	10351c <__malloc_lock>
  102cf8:	e3550f7e 	cmp	r5, #504	; 0x1f8
  102cfc:	3a0001c8 	bcc	103424 <_malloc_r+0x75c>
  102d00:	e1b034a5 	lsrs	r3, r5, #9
  102d04:	0a000089 	beq	102f30 <_malloc_r+0x268>
  102d08:	e3530004 	cmp	r3, #4
  102d0c:	8a0000db 	bhi	103080 <_malloc_r+0x3b8>
  102d10:	e1a03325 	lsr	r3, r5, #6
  102d14:	e283c039 	add	ip, r3, #57	; 0x39
  102d18:	e283e038 	add	lr, r3, #56	; 0x38
  102d1c:	e1a0018c 	lsl	r0, ip, #3
  102d20:	e3087000 	movw	r7, #32768	; 0x8000
  102d24:	e3407011 	movt	r7, #17
  102d28:	e0870000 	add	r0, r7, r0
  102d2c:	e5903004 	ldr	r3, [r0, #4]
  102d30:	e2400008 	sub	r0, r0, #8
  102d34:	e1500003 	cmp	r0, r3
  102d38:	1a000005 	bne	102d54 <_malloc_r+0x8c>
  102d3c:	ea00000a 	b	102d6c <_malloc_r+0xa4>
  102d40:	e3510000 	cmp	r1, #0
  102d44:	aa00007d 	bge	102f40 <_malloc_r+0x278>
  102d48:	e593300c 	ldr	r3, [r3, #12]
  102d4c:	e1500003 	cmp	r0, r3
  102d50:	0a000005 	beq	102d6c <_malloc_r+0xa4>
  102d54:	e5932004 	ldr	r2, [r3, #4]
  102d58:	e3c22003 	bic	r2, r2, #3
  102d5c:	e0421005 	sub	r1, r2, r5
  102d60:	e351000f 	cmp	r1, #15
  102d64:	dafffff5 	ble	102d40 <_malloc_r+0x78>
  102d68:	e1a0c00e 	mov	ip, lr
  102d6c:	e5978010 	ldr	r8, [r7, #16]
  102d70:	e59fe6b8 	ldr	lr, [pc, #1720]	; 103430 <_malloc_r+0x768>
  102d74:	e158000e 	cmp	r8, lr
  102d78:	05973004 	ldreq	r3, [r7, #4]
  102d7c:	0a000018 	beq	102de4 <_malloc_r+0x11c>
  102d80:	e5983004 	ldr	r3, [r8, #4]
  102d84:	e3c33003 	bic	r3, r3, #3
  102d88:	e0432005 	sub	r2, r3, r5
  102d8c:	e352000f 	cmp	r2, #15
  102d90:	ca0000de 	bgt	103110 <_malloc_r+0x448>
  102d94:	e3520000 	cmp	r2, #0
  102d98:	e587e014 	str	lr, [r7, #20]
  102d9c:	e587e010 	str	lr, [r7, #16]
  102da0:	aa000073 	bge	102f74 <_malloc_r+0x2ac>
  102da4:	e3530c02 	cmp	r3, #512	; 0x200
  102da8:	2a0000bd 	bcs	1030a4 <_malloc_r+0x3dc>
  102dac:	e5972004 	ldr	r2, [r7, #4]
  102db0:	e1a031a3 	lsr	r3, r3, #3
  102db4:	e3a09001 	mov	r9, #1
  102db8:	e0831009 	add	r1, r3, r9
  102dbc:	e1a03143 	asr	r3, r3, #2
  102dc0:	e7974181 	ldr	r4, [r7, r1, lsl #3]
  102dc4:	e0870181 	add	r0, r7, r1, lsl #3
  102dc8:	e1823319 	orr	r3, r2, r9, lsl r3
  102dcc:	e2402008 	sub	r2, r0, #8
  102dd0:	e588200c 	str	r2, [r8, #12]
  102dd4:	e5884008 	str	r4, [r8, #8]
  102dd8:	e5873004 	str	r3, [r7, #4]
  102ddc:	e7878181 	str	r8, [r7, r1, lsl #3]
  102de0:	e584800c 	str	r8, [r4, #12]
  102de4:	e1a0214c 	asr	r2, ip, #2
  102de8:	e3a01001 	mov	r1, #1
  102dec:	e1a00211 	lsl	r0, r1, r2
  102df0:	e1500003 	cmp	r0, r3
  102df4:	8a000067 	bhi	102f98 <_malloc_r+0x2d0>
  102df8:	e1100003 	tst	r0, r3
  102dfc:	1a000008 	bne	102e24 <_malloc_r+0x15c>
  102e00:	e1a00110 	lsl	r0, r0, r1
  102e04:	e3ccc003 	bic	ip, ip, #3
  102e08:	e28cc004 	add	ip, ip, #4
  102e0c:	e1100003 	tst	r0, r3
  102e10:	1a000003 	bne	102e24 <_malloc_r+0x15c>
  102e14:	e1a00080 	lsl	r0, r0, #1
  102e18:	e28cc004 	add	ip, ip, #4
  102e1c:	e1100003 	tst	r0, r3
  102e20:	0afffffb 	beq	102e14 <_malloc_r+0x14c>
  102e24:	e087918c 	add	r9, r7, ip, lsl #3
  102e28:	e1a0400c 	mov	r4, ip
  102e2c:	e1a01009 	mov	r1, r9
  102e30:	e591300c 	ldr	r3, [r1, #12]
  102e34:	e1510003 	cmp	r1, r3
  102e38:	1a000005 	bne	102e54 <_malloc_r+0x18c>
  102e3c:	ea0000c0 	b	103144 <_malloc_r+0x47c>
  102e40:	e3580000 	cmp	r8, #0
  102e44:	aa0000c8 	bge	10316c <_malloc_r+0x4a4>
  102e48:	e593300c 	ldr	r3, [r3, #12]
  102e4c:	e1510003 	cmp	r1, r3
  102e50:	0a0000bb 	beq	103144 <_malloc_r+0x47c>
  102e54:	e5932004 	ldr	r2, [r3, #4]
  102e58:	e3c22003 	bic	r2, r2, #3
  102e5c:	e0428005 	sub	r8, r2, r5
  102e60:	e358000f 	cmp	r8, #15
  102e64:	dafffff5 	ble	102e40 <_malloc_r+0x178>
  102e68:	e593100c 	ldr	r1, [r3, #12]
  102e6c:	e3854001 	orr	r4, r5, #1
  102e70:	e593c008 	ldr	ip, [r3, #8]
  102e74:	e0835005 	add	r5, r3, r5
  102e78:	e1a00006 	mov	r0, r6
  102e7c:	e3886001 	orr	r6, r8, #1
  102e80:	e5834004 	str	r4, [r3, #4]
  102e84:	e2834008 	add	r4, r3, #8
  102e88:	e58c100c 	str	r1, [ip, #12]
  102e8c:	e581c008 	str	ip, [r1, #8]
  102e90:	e5875014 	str	r5, [r7, #20]
  102e94:	e5875010 	str	r5, [r7, #16]
  102e98:	e585e00c 	str	lr, [r5, #12]
  102e9c:	e9854040 	stmib	r5, {r6, lr}
  102ea0:	e7838002 	str	r8, [r3, r2]
  102ea4:	eb00019f 	bl	103528 <__malloc_unlock>
  102ea8:	ea000019 	b	102f14 <_malloc_r+0x24c>
  102eac:	e3510010 	cmp	r1, #16
  102eb0:	8a000019 	bhi	102f1c <_malloc_r+0x254>
  102eb4:	eb000198 	bl	10351c <__malloc_lock>
  102eb8:	e3a05010 	mov	r5, #16
  102ebc:	e3a02018 	mov	r2, #24
  102ec0:	e3a0c002 	mov	ip, #2
  102ec4:	e3087000 	movw	r7, #32768	; 0x8000
  102ec8:	e3407011 	movt	r7, #17
  102ecc:	e0872002 	add	r2, r7, r2
  102ed0:	e5923004 	ldr	r3, [r2, #4]
  102ed4:	e2421008 	sub	r1, r2, #8
  102ed8:	e1530001 	cmp	r3, r1
  102edc:	0a00009d 	beq	103158 <_malloc_r+0x490>
  102ee0:	e5932004 	ldr	r2, [r3, #4]
  102ee4:	e2834008 	add	r4, r3, #8
  102ee8:	e593100c 	ldr	r1, [r3, #12]
  102eec:	e1a00006 	mov	r0, r6
  102ef0:	e593c008 	ldr	ip, [r3, #8]
  102ef4:	e3c22003 	bic	r2, r2, #3
  102ef8:	e0833002 	add	r3, r3, r2
  102efc:	e5932004 	ldr	r2, [r3, #4]
  102f00:	e58c100c 	str	r1, [ip, #12]
  102f04:	e581c008 	str	ip, [r1, #8]
  102f08:	e3822001 	orr	r2, r2, #1
  102f0c:	e5832004 	str	r2, [r3, #4]
  102f10:	eb000184 	bl	103528 <__malloc_unlock>
  102f14:	e1a00004 	mov	r0, r4
  102f18:	e8bd8ff8 	pop	{r3, r4, r5, r6, r7, r8, r9, sl, fp, pc}
  102f1c:	e3a0300c 	mov	r3, #12
  102f20:	e3a04000 	mov	r4, #0
  102f24:	e5863000 	str	r3, [r6]
  102f28:	e1a00004 	mov	r0, r4
  102f2c:	e8bd8ff8 	pop	{r3, r4, r5, r6, r7, r8, r9, sl, fp, pc}
  102f30:	e3a00c02 	mov	r0, #512	; 0x200
  102f34:	e3a0c040 	mov	ip, #64	; 0x40
  102f38:	e3a0e03f 	mov	lr, #63	; 0x3f
  102f3c:	eaffff77 	b	102d20 <_malloc_r+0x58>
  102f40:	e0832002 	add	r2, r3, r2
  102f44:	e593c00c 	ldr	ip, [r3, #12]
  102f48:	e5921004 	ldr	r1, [r2, #4]
  102f4c:	e2834008 	add	r4, r3, #8
  102f50:	e593e008 	ldr	lr, [r3, #8]
  102f54:	e1a00006 	mov	r0, r6
  102f58:	e3813001 	orr	r3, r1, #1
  102f5c:	e58ec00c 	str	ip, [lr, #12]
  102f60:	e58ce008 	str	lr, [ip, #8]
  102f64:	e5823004 	str	r3, [r2, #4]
  102f68:	eb00016e 	bl	103528 <__malloc_unlock>
  102f6c:	e1a00004 	mov	r0, r4
  102f70:	e8bd8ff8 	pop	{r3, r4, r5, r6, r7, r8, r9, sl, fp, pc}
  102f74:	e0883003 	add	r3, r8, r3
  102f78:	e1a00006 	mov	r0, r6
  102f7c:	e5932004 	ldr	r2, [r3, #4]
  102f80:	e2884008 	add	r4, r8, #8
  102f84:	e3822001 	orr	r2, r2, #1
  102f88:	e5832004 	str	r2, [r3, #4]
  102f8c:	eb000165 	bl	103528 <__malloc_unlock>
  102f90:	e1a00004 	mov	r0, r4
  102f94:	e8bd8ff8 	pop	{r3, r4, r5, r6, r7, r8, r9, sl, fp, pc}
  102f98:	e5974008 	ldr	r4, [r7, #8]
  102f9c:	e5948004 	ldr	r8, [r4, #4]
  102fa0:	e3c88003 	bic	r8, r8, #3
  102fa4:	e0482005 	sub	r2, r8, r5
  102fa8:	e352000f 	cmp	r2, #15
  102fac:	c3a03000 	movgt	r3, #0
  102fb0:	d3a03001 	movle	r3, #1
  102fb4:	e1580005 	cmp	r8, r5
  102fb8:	33833001 	orrcc	r3, r3, #1
  102fbc:	e3530000 	cmp	r3, #0
  102fc0:	0a000023 	beq	103054 <_malloc_r+0x38c>
  102fc4:	e30899dc 	movw	r9, #35292	; 0x89dc
  102fc8:	e5973408 	ldr	r3, [r7, #1032]	; 0x408
  102fcc:	e3409011 	movt	r9, #17
  102fd0:	e1a00006 	mov	r0, r6
  102fd4:	e5992000 	ldr	r2, [r9]
  102fd8:	e3730001 	cmn	r3, #1
  102fdc:	e0852002 	add	r2, r5, r2
  102fe0:	12822a01 	addne	r2, r2, #4096	; 0x1000
  102fe4:	0282b010 	addeq	fp, r2, #16
  102fe8:	1282200f 	addne	r2, r2, #15
  102fec:	13c2beff 	bicne	fp, r2, #4080	; 0xff0
  102ff0:	13cbb00f 	bicne	fp, fp, #15
  102ff4:	e1a0100b 	mov	r1, fp
  102ff8:	eb0001d2 	bl	103748 <_sbrk_r>
  102ffc:	e3700001 	cmn	r0, #1
  103000:	e1a0a000 	mov	sl, r0
  103004:	0a000003 	beq	103018 <_malloc_r+0x350>
  103008:	e0843008 	add	r3, r4, r8
  10300c:	e1540007 	cmp	r4, r7
  103010:	11530000 	cmpne	r3, r0
  103014:	9a000082 	bls	103224 <_malloc_r+0x55c>
  103018:	e5974008 	ldr	r4, [r7, #8]
  10301c:	e5943004 	ldr	r3, [r4, #4]
  103020:	e3c33003 	bic	r3, r3, #3
  103024:	e1550003 	cmp	r5, r3
  103028:	e0432005 	sub	r2, r3, r5
  10302c:	93a03000 	movls	r3, #0
  103030:	83a03001 	movhi	r3, #1
  103034:	e352000f 	cmp	r2, #15
  103038:	d3833001 	orrle	r3, r3, #1
  10303c:	e3530000 	cmp	r3, #0
  103040:	0a000003 	beq	103054 <_malloc_r+0x38c>
  103044:	e1a00006 	mov	r0, r6
  103048:	e3a04000 	mov	r4, #0
  10304c:	eb000135 	bl	103528 <__malloc_unlock>
  103050:	eaffffaf 	b	102f14 <_malloc_r+0x24c>
  103054:	e3853001 	orr	r3, r5, #1
  103058:	e3822001 	orr	r2, r2, #1
  10305c:	e0845005 	add	r5, r4, r5
  103060:	e5843004 	str	r3, [r4, #4]
  103064:	e1a00006 	mov	r0, r6
  103068:	e5875008 	str	r5, [r7, #8]
  10306c:	e2844008 	add	r4, r4, #8
  103070:	e5852004 	str	r2, [r5, #4]
  103074:	eb00012b 	bl	103528 <__malloc_unlock>
  103078:	e1a00004 	mov	r0, r4
  10307c:	e8bd8ff8 	pop	{r3, r4, r5, r6, r7, r8, r9, sl, fp, pc}
  103080:	e3530014 	cmp	r3, #20
  103084:	9a000044 	bls	10319c <_malloc_r+0x4d4>
  103088:	e3530054 	cmp	r3, #84	; 0x54
  10308c:	8a0000a4 	bhi	103324 <_malloc_r+0x65c>
  103090:	e1a03625 	lsr	r3, r5, #12
  103094:	e283c06f 	add	ip, r3, #111	; 0x6f
  103098:	e283e06e 	add	lr, r3, #110	; 0x6e
  10309c:	e1a0018c 	lsl	r0, ip, #3
  1030a0:	eaffff1e 	b	102d20 <_malloc_r+0x58>
  1030a4:	e1a014a3 	lsr	r1, r3, #9
  1030a8:	e3510004 	cmp	r1, #4
  1030ac:	9a00003e 	bls	1031ac <_malloc_r+0x4e4>
  1030b0:	e3510014 	cmp	r1, #20
  1030b4:	8a0000b0 	bhi	10337c <_malloc_r+0x6b4>
  1030b8:	e281005c 	add	r0, r1, #92	; 0x5c
  1030bc:	e281105b 	add	r1, r1, #91	; 0x5b
  1030c0:	e1a00180 	lsl	r0, r0, #3
  1030c4:	e7972000 	ldr	r2, [r7, r0]
  1030c8:	e0870000 	add	r0, r7, r0
  1030cc:	e2400008 	sub	r0, r0, #8
  1030d0:	e1500002 	cmp	r0, r2
  1030d4:	0a000099 	beq	103340 <_malloc_r+0x678>
  1030d8:	e5921004 	ldr	r1, [r2, #4]
  1030dc:	e3c11003 	bic	r1, r1, #3
  1030e0:	e1530001 	cmp	r3, r1
  1030e4:	2a00008c 	bcs	10331c <_malloc_r+0x654>
  1030e8:	e5922008 	ldr	r2, [r2, #8]
  1030ec:	e1500002 	cmp	r0, r2
  1030f0:	1afffff8 	bne	1030d8 <_malloc_r+0x410>
  1030f4:	e590200c 	ldr	r2, [r0, #12]
  1030f8:	e5973004 	ldr	r3, [r7, #4]
  1030fc:	e588200c 	str	r2, [r8, #12]
  103100:	e5880008 	str	r0, [r8, #8]
  103104:	e5828008 	str	r8, [r2, #8]
  103108:	e580800c 	str	r8, [r0, #12]
  10310c:	eaffff34 	b	102de4 <_malloc_r+0x11c>
  103110:	e385c001 	orr	ip, r5, #1
  103114:	e3821001 	orr	r1, r2, #1
  103118:	e0885005 	add	r5, r8, r5
  10311c:	e588c004 	str	ip, [r8, #4]
  103120:	e1a00006 	mov	r0, r6
  103124:	e5875014 	str	r5, [r7, #20]
  103128:	e5875010 	str	r5, [r7, #16]
  10312c:	e2884008 	add	r4, r8, #8
  103130:	e585e00c 	str	lr, [r5, #12]
  103134:	e9854002 	stmib	r5, {r1, lr}
  103138:	e7882003 	str	r2, [r8, r3]
  10313c:	eb0000f9 	bl	103528 <__malloc_unlock>
  103140:	eaffff73 	b	102f14 <_malloc_r+0x24c>
  103144:	e2844001 	add	r4, r4, #1
  103148:	e2811008 	add	r1, r1, #8
  10314c:	e3140003 	tst	r4, #3
  103150:	1affff36 	bne	102e30 <_malloc_r+0x168>
  103154:	ea00001c 	b	1031cc <_malloc_r+0x504>
  103158:	e592300c 	ldr	r3, [r2, #12]
  10315c:	e1520003 	cmp	r2, r3
  103160:	028cc002 	addeq	ip, ip, #2
  103164:	0affff00 	beq	102d6c <_malloc_r+0xa4>
  103168:	eaffff5c 	b	102ee0 <_malloc_r+0x218>
  10316c:	e0832002 	add	r2, r3, r2
  103170:	e1a04003 	mov	r4, r3
  103174:	e5921004 	ldr	r1, [r2, #4]
  103178:	e1a00006 	mov	r0, r6
  10317c:	e593c00c 	ldr	ip, [r3, #12]
  103180:	e5b4e008 	ldr	lr, [r4, #8]!
  103184:	e3813001 	orr	r3, r1, #1
  103188:	e5823004 	str	r3, [r2, #4]
  10318c:	e58ec00c 	str	ip, [lr, #12]
  103190:	e58ce008 	str	lr, [ip, #8]
  103194:	eb0000e3 	bl	103528 <__malloc_unlock>
  103198:	eaffff5d 	b	102f14 <_malloc_r+0x24c>
  10319c:	e283c05c 	add	ip, r3, #92	; 0x5c
  1031a0:	e283e05b 	add	lr, r3, #91	; 0x5b
  1031a4:	e1a0018c 	lsl	r0, ip, #3
  1031a8:	eafffedc 	b	102d20 <_malloc_r+0x58>
  1031ac:	e1a01323 	lsr	r1, r3, #6
  1031b0:	e2810039 	add	r0, r1, #57	; 0x39
  1031b4:	e2811038 	add	r1, r1, #56	; 0x38
  1031b8:	e1a00180 	lsl	r0, r0, #3
  1031bc:	eaffffc0 	b	1030c4 <_malloc_r+0x3fc>
  1031c0:	e4193008 	ldr	r3, [r9], #-8
  1031c4:	e1590003 	cmp	r9, r3
  1031c8:	1a000093 	bne	10341c <_malloc_r+0x754>
  1031cc:	e31c0003 	tst	ip, #3
  1031d0:	e24cc001 	sub	ip, ip, #1
  1031d4:	1afffff9 	bne	1031c0 <_malloc_r+0x4f8>
  1031d8:	e5973004 	ldr	r3, [r7, #4]
  1031dc:	e1c33000 	bic	r3, r3, r0
  1031e0:	e5873004 	str	r3, [r7, #4]
  1031e4:	e1b00080 	lsls	r0, r0, #1
  1031e8:	13a02001 	movne	r2, #1
  1031ec:	03a02000 	moveq	r2, #0
  1031f0:	e1500003 	cmp	r0, r3
  1031f4:	83a02000 	movhi	r2, #0
  1031f8:	92022001 	andls	r2, r2, #1
  1031fc:	e3520000 	cmp	r2, #0
  103200:	0affff64 	beq	102f98 <_malloc_r+0x2d0>
  103204:	e1100003 	tst	r0, r3
  103208:	e1a0c004 	mov	ip, r4
  10320c:	1affff04 	bne	102e24 <_malloc_r+0x15c>
  103210:	e1a00080 	lsl	r0, r0, #1
  103214:	e28cc004 	add	ip, ip, #4
  103218:	e1100003 	tst	r0, r3
  10321c:	0afffffb 	beq	103210 <_malloc_r+0x548>
  103220:	eafffeff 	b	102e24 <_malloc_r+0x15c>
  103224:	e5991004 	ldr	r1, [r9, #4]
  103228:	e1530000 	cmp	r3, r0
  10322c:	e08b1001 	add	r1, fp, r1
  103230:	e5891004 	str	r1, [r9, #4]
  103234:	0a00005b 	beq	1033a8 <_malloc_r+0x6e0>
  103238:	e5972408 	ldr	r2, [r7, #1032]	; 0x408
  10323c:	e1a00006 	mov	r0, r6
  103240:	e3720001 	cmn	r2, #1
  103244:	104a3003 	subne	r3, sl, r3
  103248:	0587a408 	streq	sl, [r7, #1032]	; 0x408
  10324c:	10831001 	addne	r1, r3, r1
  103250:	15891004 	strne	r1, [r9, #4]
  103254:	e21a1007 	ands	r1, sl, #7
  103258:	12613008 	rsbne	r3, r1, #8
  10325c:	12611a01 	rsbne	r1, r1, #4096	; 0x1000
  103260:	108aa003 	addne	sl, sl, r3
  103264:	12811008 	addne	r1, r1, #8
  103268:	e08a300b 	add	r3, sl, fp
  10326c:	03a01a01 	moveq	r1, #4096	; 0x1000
  103270:	e7eb3053 	ubfx	r3, r3, #0, #12
  103274:	e041b003 	sub	fp, r1, r3
  103278:	e1a0100b 	mov	r1, fp
  10327c:	eb000131 	bl	103748 <_sbrk_r>
  103280:	e3700001 	cmn	r0, #1
  103284:	e5991004 	ldr	r1, [r9, #4]
  103288:	1040300a 	subne	r3, r0, sl
  10328c:	03a03001 	moveq	r3, #1
  103290:	1083300b 	addne	r3, r3, fp
  103294:	03a0b000 	moveq	fp, #0
  103298:	13833001 	orrne	r3, r3, #1
  10329c:	e1540007 	cmp	r4, r7
  1032a0:	e08b1001 	add	r1, fp, r1
  1032a4:	e587a008 	str	sl, [r7, #8]
  1032a8:	e5891004 	str	r1, [r9, #4]
  1032ac:	e58a3004 	str	r3, [sl, #4]
  1032b0:	0a00000f 	beq	1032f4 <_malloc_r+0x62c>
  1032b4:	e358000f 	cmp	r8, #15
  1032b8:	93a03001 	movls	r3, #1
  1032bc:	958a3004 	strls	r3, [sl, #4]
  1032c0:	9affff5f 	bls	103044 <_malloc_r+0x37c>
  1032c4:	e5942004 	ldr	r2, [r4, #4]
  1032c8:	e248300c 	sub	r3, r8, #12
  1032cc:	e3c33007 	bic	r3, r3, #7
  1032d0:	e3a0c005 	mov	ip, #5
  1032d4:	e353000f 	cmp	r3, #15
  1032d8:	e0840003 	add	r0, r4, r3
  1032dc:	e2022001 	and	r2, r2, #1
  1032e0:	e1823003 	orr	r3, r2, r3
  1032e4:	e5843004 	str	r3, [r4, #4]
  1032e8:	e580c004 	str	ip, [r0, #4]
  1032ec:	e580c008 	str	ip, [r0, #8]
  1032f0:	8a000034 	bhi	1033c8 <_malloc_r+0x700>
  1032f4:	e599302c 	ldr	r3, [r9, #44]	; 0x2c
  1032f8:	e5974008 	ldr	r4, [r7, #8]
  1032fc:	e1510003 	cmp	r1, r3
  103300:	e5993030 	ldr	r3, [r9, #48]	; 0x30
  103304:	8589102c 	strhi	r1, [r9, #44]	; 0x2c
  103308:	e1510003 	cmp	r1, r3
  10330c:	e5943004 	ldr	r3, [r4, #4]
  103310:	85891030 	strhi	r1, [r9, #48]	; 0x30
  103314:	e3c33003 	bic	r3, r3, #3
  103318:	eaffff41 	b	103024 <_malloc_r+0x35c>
  10331c:	e1a00002 	mov	r0, r2
  103320:	eaffff73 	b	1030f4 <_malloc_r+0x42c>
  103324:	e3530f55 	cmp	r3, #340	; 0x154
  103328:	8a00000b 	bhi	10335c <_malloc_r+0x694>
  10332c:	e1a037a5 	lsr	r3, r5, #15
  103330:	e283c078 	add	ip, r3, #120	; 0x78
  103334:	e283e077 	add	lr, r3, #119	; 0x77
  103338:	e1a0018c 	lsl	r0, ip, #3
  10333c:	eafffe77 	b	102d20 <_malloc_r+0x58>
  103340:	e5973004 	ldr	r3, [r7, #4]
  103344:	e1a01141 	asr	r1, r1, #2
  103348:	e3a04001 	mov	r4, #1
  10334c:	e1a02000 	mov	r2, r0
  103350:	e1833114 	orr	r3, r3, r4, lsl r1
  103354:	e5873004 	str	r3, [r7, #4]
  103358:	eaffff67 	b	1030fc <_malloc_r+0x434>
  10335c:	e3002554 	movw	r2, #1364	; 0x554
  103360:	e1530002 	cmp	r3, r2
  103364:	8a00000b 	bhi	103398 <_malloc_r+0x6d0>
  103368:	e1a03925 	lsr	r3, r5, #18
  10336c:	e283c07d 	add	ip, r3, #125	; 0x7d
  103370:	e283e07c 	add	lr, r3, #124	; 0x7c
  103374:	e1a0018c 	lsl	r0, ip, #3
  103378:	eafffe68 	b	102d20 <_malloc_r+0x58>
  10337c:	e3510054 	cmp	r1, #84	; 0x54
  103380:	8a000015 	bhi	1033dc <_malloc_r+0x714>
  103384:	e1a01623 	lsr	r1, r3, #12
  103388:	e281006f 	add	r0, r1, #111	; 0x6f
  10338c:	e281106e 	add	r1, r1, #110	; 0x6e
  103390:	e1a00180 	lsl	r0, r0, #3
  103394:	eaffff4a 	b	1030c4 <_malloc_r+0x3fc>
  103398:	e3a00ffe 	mov	r0, #1016	; 0x3f8
  10339c:	e3a0c07f 	mov	ip, #127	; 0x7f
  1033a0:	e3a0e07e 	mov	lr, #126	; 0x7e
  1033a4:	eafffe5d 	b	102d20 <_malloc_r+0x58>
  1033a8:	e7eb2053 	ubfx	r2, r3, #0, #12
  1033ac:	e3520000 	cmp	r2, #0
  1033b0:	1affffa0 	bne	103238 <_malloc_r+0x570>
  1033b4:	e5972008 	ldr	r2, [r7, #8]
  1033b8:	e088300b 	add	r3, r8, fp
  1033bc:	e3833001 	orr	r3, r3, #1
  1033c0:	e5823004 	str	r3, [r2, #4]
  1033c4:	eaffffca 	b	1032f4 <_malloc_r+0x62c>
  1033c8:	e2841008 	add	r1, r4, #8
  1033cc:	e1a00006 	mov	r0, r6
  1033d0:	eb001047 	bl	1074f4 <_free_r>
  1033d4:	e5991004 	ldr	r1, [r9, #4]
  1033d8:	eaffffc5 	b	1032f4 <_malloc_r+0x62c>
  1033dc:	e3510f55 	cmp	r1, #340	; 0x154
  1033e0:	8a000004 	bhi	1033f8 <_malloc_r+0x730>
  1033e4:	e1a017a3 	lsr	r1, r3, #15
  1033e8:	e2810078 	add	r0, r1, #120	; 0x78
  1033ec:	e2811077 	add	r1, r1, #119	; 0x77
  1033f0:	e1a00180 	lsl	r0, r0, #3
  1033f4:	eaffff32 	b	1030c4 <_malloc_r+0x3fc>
  1033f8:	e3002554 	movw	r2, #1364	; 0x554
  1033fc:	e1510002 	cmp	r1, r2
  103400:	91a01923 	lsrls	r1, r3, #18
  103404:	83a00ffe 	movhi	r0, #1016	; 0x3f8
  103408:	83a0107e 	movhi	r1, #126	; 0x7e
  10340c:	9281007d 	addls	r0, r1, #125	; 0x7d
  103410:	9281107c 	addls	r1, r1, #124	; 0x7c
  103414:	91a00180 	lslls	r0, r0, #3
  103418:	eaffff29 	b	1030c4 <_malloc_r+0x3fc>
  10341c:	e5973004 	ldr	r3, [r7, #4]
  103420:	eaffff6f 	b	1031e4 <_malloc_r+0x51c>
  103424:	e1a0c1a5 	lsr	ip, r5, #3
  103428:	e2852008 	add	r2, r5, #8
  10342c:	eafffea4 	b	102ec4 <_malloc_r+0x1fc>
  103430:	00118008 	.word	0x00118008

00103434 <memcmp>:
  103434:	e3520003 	cmp	r2, #3
  103438:	8a000010 	bhi	103480 <memcmp+0x4c>
  10343c:	e3520000 	cmp	r2, #0
  103440:	0a00000c 	beq	103478 <memcmp+0x44>
  103444:	e5d1c000 	ldrb	ip, [r1]
  103448:	e5d03000 	ldrb	r3, [r0]
  10344c:	e153000c 	cmp	r3, ip
  103450:	00812002 	addeq	r2, r1, r2
  103454:	02811001 	addeq	r1, r1, #1
  103458:	0a000004 	beq	103470 <memcmp+0x3c>
  10345c:	ea000027 	b	103500 <memcmp+0xcc>
  103460:	e5f03001 	ldrb	r3, [r0, #1]!
  103464:	e4d1c001 	ldrb	ip, [r1], #1
  103468:	e153000c 	cmp	r3, ip
  10346c:	1a000023 	bne	103500 <memcmp+0xcc>
  103470:	e1510002 	cmp	r1, r2
  103474:	1afffff9 	bne	103460 <memcmp+0x2c>
  103478:	e3a00000 	mov	r0, #0
  10347c:	e12fff1e 	bx	lr
  103480:	e1803001 	orr	r3, r0, r1
  103484:	e3130003 	tst	r3, #3
  103488:	1affffed 	bne	103444 <memcmp+0x10>
  10348c:	e92d4010 	push	{r4, lr}
  103490:	e591e000 	ldr	lr, [r1]
  103494:	e1a0c001 	mov	ip, r1
  103498:	e1a03000 	mov	r3, r0
  10349c:	e2811004 	add	r1, r1, #4
  1034a0:	e5904000 	ldr	r4, [r0]
  1034a4:	e2800004 	add	r0, r0, #4
  1034a8:	e154000e 	cmp	r4, lr
  1034ac:	1a000017 	bne	103510 <memcmp+0xdc>
  1034b0:	e2422004 	sub	r2, r2, #4
  1034b4:	e3520003 	cmp	r2, #3
  1034b8:	8afffff4 	bhi	103490 <memcmp+0x5c>
  1034bc:	e3520000 	cmp	r2, #0
  1034c0:	0a00000c 	beq	1034f8 <memcmp+0xc4>
  1034c4:	e5d1c000 	ldrb	ip, [r1]
  1034c8:	e5d03000 	ldrb	r3, [r0]
  1034cc:	e153000c 	cmp	r3, ip
  1034d0:	00812002 	addeq	r2, r1, r2
  1034d4:	02811001 	addeq	r1, r1, #1
  1034d8:	0a000004 	beq	1034f0 <memcmp+0xbc>
  1034dc:	ea000009 	b	103508 <memcmp+0xd4>
  1034e0:	e5f03001 	ldrb	r3, [r0, #1]!
  1034e4:	e4d1c001 	ldrb	ip, [r1], #1
  1034e8:	e153000c 	cmp	r3, ip
  1034ec:	1a000005 	bne	103508 <memcmp+0xd4>
  1034f0:	e1510002 	cmp	r1, r2
  1034f4:	1afffff9 	bne	1034e0 <memcmp+0xac>
  1034f8:	e3a00000 	mov	r0, #0
  1034fc:	e8bd8010 	pop	{r4, pc}
  103500:	e043000c 	sub	r0, r3, ip
  103504:	e12fff1e 	bx	lr
  103508:	e043000c 	sub	r0, r3, ip
  10350c:	e8bd8010 	pop	{r4, pc}
  103510:	e1a0100c 	mov	r1, ip
  103514:	e1a00003 	mov	r0, r3
  103518:	eaffffe9 	b	1034c4 <memcmp+0x90>

0010351c <__malloc_lock>:
  10351c:	e3080a10 	movw	r0, #35344	; 0x8a10
  103520:	e3400011 	movt	r0, #17
  103524:	ea00224e 	b	10be64 <__generic_gxx_recursive_mutex_lock>

00103528 <__malloc_unlock>:
  103528:	e3080a10 	movw	r0, #35344	; 0x8a10
  10352c:	e3400011 	movt	r0, #17
  103530:	ea002249 	b	10be5c <__generic_gxx_recursive_mutex_unlock>

00103534 <__init___malloc_lock_object>:
  103534:	e3080a10 	movw	r0, #35344	; 0x8a10
  103538:	e3400011 	movt	r0, #17
  10353c:	ea002242 	b	10be4c <__generic_gxx_recursive_mutex_init_function>

00103540 <_printf_r>:
  103540:	e92d000e 	push	{r1, r2, r3}
  103544:	e52de004 	push	{lr}		; (str lr, [sp, #-4]!)
  103548:	e24dd008 	sub	sp, sp, #8
  10354c:	e28dc010 	add	ip, sp, #16
  103550:	e1a0300c 	mov	r3, ip
  103554:	e59d200c 	ldr	r2, [sp, #12]
  103558:	e5901008 	ldr	r1, [r0, #8]
  10355c:	e58dc004 	str	ip, [sp, #4]
  103560:	eb0000be 	bl	103860 <_vfprintf_r>
  103564:	e28dd008 	add	sp, sp, #8
  103568:	e49de004 	pop	{lr}		; (ldr lr, [sp], #4)
  10356c:	e28dd00c 	add	sp, sp, #12
  103570:	e12fff1e 	bx	lr

00103574 <printf>:
  103574:	e92d000f 	push	{r0, r1, r2, r3}
  103578:	e52de004 	push	{lr}		; (str lr, [sp, #-4]!)
  10357c:	e24dd00c 	sub	sp, sp, #12
  103580:	eb0011fd 	bl	107d7c <__getreent>
  103584:	e28dc014 	add	ip, sp, #20
  103588:	e5901008 	ldr	r1, [r0, #8]
  10358c:	e59d2010 	ldr	r2, [sp, #16]
  103590:	e1a0300c 	mov	r3, ip
  103594:	e58dc004 	str	ip, [sp, #4]
  103598:	eb0000b0 	bl	103860 <_vfprintf_r>
  10359c:	e28dd00c 	add	sp, sp, #12
  1035a0:	e49de004 	pop	{lr}		; (ldr lr, [sp], #4)
  1035a4:	e28dd010 	add	sp, sp, #16
  1035a8:	e12fff1e 	bx	lr

001035ac <_putchar_r>:
  1035ac:	e5902008 	ldr	r2, [r0, #8]
  1035b0:	ea0016a8 	b	109058 <_putc_r>

001035b4 <putchar>:
  1035b4:	e92d4010 	push	{r4, lr}
  1035b8:	e1a04000 	mov	r4, r0
  1035bc:	eb0011ee 	bl	107d7c <__getreent>
  1035c0:	e1a01004 	mov	r1, r4
  1035c4:	e5902008 	ldr	r2, [r0, #8]
  1035c8:	e8bd4010 	pop	{r4, lr}
  1035cc:	ea0016a1 	b	109058 <_putc_r>

001035d0 <_puts_r>:
  1035d0:	e92d4030 	push	{r4, r5, lr}
  1035d4:	e1a05000 	mov	r5, r0
  1035d8:	e24dd024 	sub	sp, sp, #36	; 0x24
  1035dc:	e1a00001 	mov	r0, r1
  1035e0:	e1a04001 	mov	r4, r1
  1035e4:	fa000065 	blx	103780 <strlen>
  1035e8:	e5952038 	ldr	r2, [r5, #56]	; 0x38
  1035ec:	e30c37f8 	movw	r3, #51192	; 0xc7f8
  1035f0:	e280e001 	add	lr, r0, #1
  1035f4:	e3403010 	movt	r3, #16
  1035f8:	e3a0c001 	mov	ip, #1
  1035fc:	e28d1010 	add	r1, sp, #16
  103600:	e3520000 	cmp	r2, #0
  103604:	e3a02002 	mov	r2, #2
  103608:	e58d4010 	str	r4, [sp, #16]
  10360c:	e58d0014 	str	r0, [sp, #20]
  103610:	e58de00c 	str	lr, [sp, #12]
  103614:	e58d3018 	str	r3, [sp, #24]
  103618:	e5954008 	ldr	r4, [r5, #8]
  10361c:	e58dc01c 	str	ip, [sp, #28]
  103620:	e98d0006 	stmib	sp, {r1, r2}
  103624:	0a000021 	beq	1036b0 <_puts_r+0xe0>
  103628:	e5943064 	ldr	r3, [r4, #100]	; 0x64
  10362c:	e3130001 	tst	r3, #1
  103630:	e1d430fc 	ldrsh	r3, [r4, #12]
  103634:	e6ff2073 	uxth	r2, r3
  103638:	1a000001 	bne	103644 <_puts_r+0x74>
  10363c:	e3120c02 	tst	r2, #512	; 0x200
  103640:	0a00001d 	beq	1036bc <_puts_r+0xec>
  103644:	e3120a02 	tst	r2, #8192	; 0x2000
  103648:	e1a00005 	mov	r0, r5
  10364c:	05942064 	ldreq	r2, [r4, #100]	; 0x64
  103650:	03833a02 	orreq	r3, r3, #8192	; 0x2000
  103654:	01c430bc 	strheq	r3, [r4, #12]
  103658:	e1a01004 	mov	r1, r4
  10365c:	03c23a02 	biceq	r3, r2, #8192	; 0x2000
  103660:	e28d2004 	add	r2, sp, #4
  103664:	05843064 	streq	r3, [r4, #100]	; 0x64
  103668:	eb001059 	bl	1077d4 <__sfvwrite_r>
  10366c:	e5943064 	ldr	r3, [r4, #100]	; 0x64
  103670:	e3500000 	cmp	r0, #0
  103674:	03a0500a 	moveq	r5, #10
  103678:	13e05000 	mvnne	r5, #0
  10367c:	e3130001 	tst	r3, #1
  103680:	1a000002 	bne	103690 <_puts_r+0xc0>
  103684:	e1d430bc 	ldrh	r3, [r4, #12]
  103688:	e3130c02 	tst	r3, #512	; 0x200
  10368c:	0a000002 	beq	10369c <_puts_r+0xcc>
  103690:	e1a00005 	mov	r0, r5
  103694:	e28dd024 	add	sp, sp, #36	; 0x24
  103698:	e8bd8030 	pop	{r4, r5, pc}
  10369c:	e2840058 	add	r0, r4, #88	; 0x58
  1036a0:	eb0021ed 	bl	10be5c <__generic_gxx_recursive_mutex_unlock>
  1036a4:	e1a00005 	mov	r0, r5
  1036a8:	e28dd024 	add	sp, sp, #36	; 0x24
  1036ac:	e8bd8030 	pop	{r4, r5, pc}
  1036b0:	e1a00005 	mov	r0, r5
  1036b4:	eb000ec1 	bl	1071c0 <__sinit>
  1036b8:	eaffffda 	b	103628 <_puts_r+0x58>
  1036bc:	e2840058 	add	r0, r4, #88	; 0x58
  1036c0:	eb0021e7 	bl	10be64 <__generic_gxx_recursive_mutex_lock>
  1036c4:	e1d430fc 	ldrsh	r3, [r4, #12]
  1036c8:	e6ff2073 	uxth	r2, r3
  1036cc:	eaffffdc 	b	103644 <_puts_r+0x74>

001036d0 <puts>:
  1036d0:	e92d4010 	push	{r4, lr}
  1036d4:	e1a04000 	mov	r4, r0
  1036d8:	eb0011a7 	bl	107d7c <__getreent>
  1036dc:	e1a01004 	mov	r1, r4
  1036e0:	e8bd4010 	pop	{r4, lr}
  1036e4:	eaffffb9 	b	1035d0 <_puts_r>

001036e8 <srand>:
  1036e8:	e92d4010 	push	{r4, lr}
  1036ec:	e1a04000 	mov	r4, r0
  1036f0:	eb0011a1 	bl	107d7c <__getreent>
  1036f4:	e3a03000 	mov	r3, #0
  1036f8:	e58040a8 	str	r4, [r0, #168]	; 0xa8
  1036fc:	e58030ac 	str	r3, [r0, #172]	; 0xac
  103700:	e8bd8010 	pop	{r4, pc}

00103704 <rand>:
  103704:	e92d4010 	push	{r4, lr}
  103708:	eb00119b 	bl	107d7c <__getreent>
  10370c:	e30f342d 	movw	r3, #62509	; 0xf42d
  103710:	e307ef2d 	movw	lr, #32557	; 0x7f2d
  103714:	e59020a8 	ldr	r2, [r0, #168]	; 0xa8
  103718:	e3453851 	movt	r3, #22609	; 0x5851
  10371c:	e590c0ac 	ldr	ip, [r0, #172]	; 0xac
  103720:	e344ec95 	movt	lr, #19605	; 0x4c95
  103724:	e0010293 	mul	r1, r3, r2
  103728:	e0832e92 	umull	r2, r3, r2, lr
  10372c:	e0211c9e 	mla	r1, lr, ip, r1
  103730:	e2922001 	adds	r2, r2, #1
  103734:	e0813003 	add	r3, r1, r3
  103738:	e2a33000 	adc	r3, r3, #0
  10373c:	e1c02af8 	strd	r2, [r0, #168]	; 0xa8
  103740:	e3c30102 	bic	r0, r3, #-2147483648	; 0x80000000
  103744:	e8bd8010 	pop	{r4, pc}

00103748 <_sbrk_r>:
  103748:	e92d4070 	push	{r4, r5, r6, lr}
  10374c:	e3084a1c 	movw	r4, #35356	; 0x8a1c
  103750:	e3a03000 	mov	r3, #0
  103754:	e1a05000 	mov	r5, r0
  103758:	e3404011 	movt	r4, #17
  10375c:	e1a00001 	mov	r0, r1
  103760:	e5843000 	str	r3, [r4]
  103764:	eb0021f5 	bl	10bf40 <_sbrk>
  103768:	e3700001 	cmn	r0, #1
  10376c:	18bd8070 	popne	{r4, r5, r6, pc}
  103770:	e5943000 	ldr	r3, [r4]
  103774:	e3530000 	cmp	r3, #0
  103778:	15853000 	strne	r3, [r5]
  10377c:	e8bd8070 	pop	{r4, r5, r6, pc}

00103780 <strlen>:
  103780:	f890 f000 	pld	[r0]
  103784:	e96d 4502 	strd	r4, r5, [sp, #-8]!
  103788:	f020 0107 	bic.w	r1, r0, #7
  10378c:	f06f 0c00 	mvn.w	ip, #0
  103790:	f010 0407 	ands.w	r4, r0, #7
  103794:	f891 f020 	pld	[r1, #32]
  103798:	f040 8049 	bne.w	10382e <strlen+0xae>
  10379c:	f04f 0400 	mov.w	r4, #0
  1037a0:	f06f 0007 	mvn.w	r0, #7
  1037a4:	e9d1 2300 	ldrd	r2, r3, [r1]
  1037a8:	f891 f040 	pld	[r1, #64]	; 0x40
  1037ac:	f100 0008 	add.w	r0, r0, #8
  1037b0:	fa82 f24c 	uadd8	r2, r2, ip
  1037b4:	faa4 f28c 	sel	r2, r4, ip
  1037b8:	fa83 f34c 	uadd8	r3, r3, ip
  1037bc:	faa2 f38c 	sel	r3, r2, ip
  1037c0:	bb4b      	cbnz	r3, 103816 <strlen+0x96>
  1037c2:	e9d1 2302 	ldrd	r2, r3, [r1, #8]
  1037c6:	fa82 f24c 	uadd8	r2, r2, ip
  1037ca:	f100 0008 	add.w	r0, r0, #8
  1037ce:	faa4 f28c 	sel	r2, r4, ip
  1037d2:	fa83 f34c 	uadd8	r3, r3, ip
  1037d6:	faa2 f38c 	sel	r3, r2, ip
  1037da:	b9e3      	cbnz	r3, 103816 <strlen+0x96>
  1037dc:	e9d1 2304 	ldrd	r2, r3, [r1, #16]
  1037e0:	fa82 f24c 	uadd8	r2, r2, ip
  1037e4:	f100 0008 	add.w	r0, r0, #8
  1037e8:	faa4 f28c 	sel	r2, r4, ip
  1037ec:	fa83 f34c 	uadd8	r3, r3, ip
  1037f0:	faa2 f38c 	sel	r3, r2, ip
  1037f4:	b97b      	cbnz	r3, 103816 <strlen+0x96>
  1037f6:	e9d1 2306 	ldrd	r2, r3, [r1, #24]
  1037fa:	f101 0120 	add.w	r1, r1, #32
  1037fe:	fa82 f24c 	uadd8	r2, r2, ip
  103802:	f100 0008 	add.w	r0, r0, #8
  103806:	faa4 f28c 	sel	r2, r4, ip
  10380a:	fa83 f34c 	uadd8	r3, r3, ip
  10380e:	faa2 f38c 	sel	r3, r2, ip
  103812:	2b00      	cmp	r3, #0
  103814:	d0c6      	beq.n	1037a4 <strlen+0x24>
  103816:	2a00      	cmp	r2, #0
  103818:	bf04      	itt	eq
  10381a:	3004      	addeq	r0, #4
  10381c:	461a      	moveq	r2, r3
  10381e:	ba12      	rev	r2, r2
  103820:	fab2 f282 	clz	r2, r2
  103824:	e8fd 4502 	ldrd	r4, r5, [sp], #8
  103828:	eb00 00d2 	add.w	r0, r0, r2, lsr #3
  10382c:	4770      	bx	lr
  10382e:	e9d1 2300 	ldrd	r2, r3, [r1]
  103832:	f004 0503 	and.w	r5, r4, #3
  103836:	f1c4 0000 	rsb	r0, r4, #0
  10383a:	ea4f 05c5 	mov.w	r5, r5, lsl #3
  10383e:	f014 0f04 	tst.w	r4, #4
  103842:	f891 f040 	pld	[r1, #64]	; 0x40
  103846:	fa0c f505 	lsl.w	r5, ip, r5
  10384a:	ea62 0205 	orn	r2, r2, r5
  10384e:	bf1c      	itt	ne
  103850:	ea63 0305 	ornne	r3, r3, r5
  103854:	4662      	movne	r2, ip
  103856:	f04f 0400 	mov.w	r4, #0
  10385a:	e7a9      	b.n	1037b0 <strlen+0x30>
  10385c:	0000      	movs	r0, r0
	...

00103860 <_vfprintf_r>:
  103860:	e92d4ff0 	push	{r4, r5, r6, r7, r8, r9, sl, fp, lr}
  103864:	e1a05003 	mov	r5, r3
  103868:	ed2d8b06 	vpush	{d8-d10}
  10386c:	e24ddf41 	sub	sp, sp, #260	; 0x104
  103870:	e1a0a001 	mov	sl, r1
  103874:	e1a09002 	mov	r9, r2
  103878:	e1a04000 	mov	r4, r0
  10387c:	e58d001c 	str	r0, [sp, #28]
  103880:	eb001143 	bl	107d94 <_localeconv_r>
  103884:	e5903000 	ldr	r3, [r0]
  103888:	e58d5030 	str	r5, [sp, #48]	; 0x30
  10388c:	e1a00003 	mov	r0, r3
  103890:	e58d304c 	str	r3, [sp, #76]	; 0x4c
  103894:	faffffb9 	blx	103780 <strlen>
  103898:	e3540000 	cmp	r4, #0
  10389c:	e58d0048 	str	r0, [sp, #72]	; 0x48
  1038a0:	0a000002 	beq	1038b0 <_vfprintf_r+0x50>
  1038a4:	e5943038 	ldr	r3, [r4, #56]	; 0x38
  1038a8:	e3530000 	cmp	r3, #0
  1038ac:	0a00014e 	beq	103dec <_vfprintf_r+0x58c>
  1038b0:	e59a3064 	ldr	r3, [sl, #100]	; 0x64
  1038b4:	e3130001 	tst	r3, #1
  1038b8:	e1da30fc 	ldrsh	r3, [sl, #12]
  1038bc:	e6ff1073 	uxth	r1, r3
  1038c0:	1a000001 	bne	1038cc <_vfprintf_r+0x6c>
  1038c4:	e3110c02 	tst	r1, #512	; 0x200
  1038c8:	0a000156 	beq	103e28 <_vfprintf_r+0x5c8>
  1038cc:	e3110a02 	tst	r1, #8192	; 0x2000
  1038d0:	1a000005 	bne	1038ec <_vfprintf_r+0x8c>
  1038d4:	e59a2064 	ldr	r2, [sl, #100]	; 0x64
  1038d8:	e3833a02 	orr	r3, r3, #8192	; 0x2000
  1038dc:	e6ff1073 	uxth	r1, r3
  1038e0:	e1ca30bc 	strh	r3, [sl, #12]
  1038e4:	e3c23a02 	bic	r3, r2, #8192	; 0x2000
  1038e8:	e58a3064 	str	r3, [sl, #100]	; 0x64
  1038ec:	e3110008 	tst	r1, #8
  1038f0:	0a000118 	beq	103d58 <_vfprintf_r+0x4f8>
  1038f4:	e59a3010 	ldr	r3, [sl, #16]
  1038f8:	e3530000 	cmp	r3, #0
  1038fc:	0a000115 	beq	103d58 <_vfprintf_r+0x4f8>
  103900:	e201301a 	and	r3, r1, #26
  103904:	e353000a 	cmp	r3, #10
  103908:	0a00011b 	beq	103d7c <_vfprintf_r+0x51c>
  10390c:	ed9f8be7 	vldr	d8, [pc, #924]	; 103cb0 <_vfprintf_r+0x450>
  103910:	e30c17fc 	movw	r1, #51196	; 0xc7fc
  103914:	ed9f9be7 	vldr	d9, [pc, #924]	; 103cb8 <_vfprintf_r+0x458>
  103918:	e3060667 	movw	r0, #26215	; 0x6667
  10391c:	e3a03000 	mov	r3, #0
  103920:	e3401010 	movt	r1, #16
  103924:	e3460666 	movt	r0, #26214	; 0x6666
  103928:	e28d80c0 	add	r8, sp, #192	; 0xc0
  10392c:	e58d3044 	str	r3, [sp, #68]	; 0x44
  103930:	e58d3050 	str	r3, [sp, #80]	; 0x50
  103934:	e58d3060 	str	r3, [sp, #96]	; 0x60
  103938:	e58d3020 	str	r3, [sp, #32]
  10393c:	e58d103c 	str	r1, [sp, #60]	; 0x3c
  103940:	e58d0064 	str	r0, [sp, #100]	; 0x64
  103944:	e58d3094 	str	r3, [sp, #148]	; 0x94
  103948:	e58d3090 	str	r3, [sp, #144]	; 0x90
  10394c:	e58d808c 	str	r8, [sp, #140]	; 0x8c
  103950:	e58da024 	str	sl, [sp, #36]	; 0x24
  103954:	e5d93000 	ldrb	r3, [r9]
  103958:	e1a05009 	mov	r5, r9
  10395c:	e3530025 	cmp	r3, #37	; 0x25
  103960:	13530000 	cmpne	r3, #0
  103964:	0a000013 	beq	1039b8 <_vfprintf_r+0x158>
  103968:	e5f53001 	ldrb	r3, [r5, #1]!
  10396c:	e3530000 	cmp	r3, #0
  103970:	13530025 	cmpne	r3, #37	; 0x25
  103974:	1afffffb 	bne	103968 <_vfprintf_r+0x108>
  103978:	e0554009 	subs	r4, r5, r9
  10397c:	0a00000d 	beq	1039b8 <_vfprintf_r+0x158>
  103980:	e59d3090 	ldr	r3, [sp, #144]	; 0x90
  103984:	e59d2094 	ldr	r2, [sp, #148]	; 0x94
  103988:	e5889000 	str	r9, [r8]
  10398c:	e2833001 	add	r3, r3, #1
  103990:	e5884004 	str	r4, [r8, #4]
  103994:	e3530007 	cmp	r3, #7
  103998:	e0822004 	add	r2, r2, r4
  10399c:	e58d3090 	str	r3, [sp, #144]	; 0x90
  1039a0:	d2888008 	addle	r8, r8, #8
  1039a4:	e58d2094 	str	r2, [sp, #148]	; 0x94
  1039a8:	ca000107 	bgt	103dcc <_vfprintf_r+0x56c>
  1039ac:	e59d3020 	ldr	r3, [sp, #32]
  1039b0:	e0833004 	add	r3, r3, r4
  1039b4:	e58d3020 	str	r3, [sp, #32]
  1039b8:	e5d53000 	ldrb	r3, [r5]
  1039bc:	e3530000 	cmp	r3, #0
  1039c0:	0a0002f9 	beq	1045ac <_vfprintf_r+0xd4c>
  1039c4:	e2859001 	add	r9, r5, #1
  1039c8:	e5d55001 	ldrb	r5, [r5, #1]
  1039cc:	e3a03000 	mov	r3, #0
  1039d0:	e3e04000 	mvn	r4, #0
  1039d4:	e1a02003 	mov	r2, r3
  1039d8:	e1a01003 	mov	r1, r3
  1039dc:	e1a0a003 	mov	sl, r3
  1039e0:	e1a00004 	mov	r0, r4
  1039e4:	e5cd306f 	strb	r3, [sp, #111]	; 0x6f
  1039e8:	e58d3028 	str	r3, [sp, #40]	; 0x28
  1039ec:	e2899001 	add	r9, r9, #1
  1039f0:	e2453020 	sub	r3, r5, #32
  1039f4:	e3530058 	cmp	r3, #88	; 0x58
  1039f8:	979ff103 	ldrls	pc, [pc, r3, lsl #2]
  1039fc:	ea000221 	b	104288 <_vfprintf_r+0xa28>
  103a00:	0010408c 	.word	0x0010408c
  103a04:	00104288 	.word	0x00104288
  103a08:	00104288 	.word	0x00104288
  103a0c:	001041b8 	.word	0x001041b8
  103a10:	00104288 	.word	0x00104288
  103a14:	00104288 	.word	0x00104288
  103a18:	00104288 	.word	0x00104288
  103a1c:	00104288 	.word	0x00104288
  103a20:	00104288 	.word	0x00104288
  103a24:	00104288 	.word	0x00104288
  103a28:	0010415c 	.word	0x0010415c
  103a2c:	001040f8 	.word	0x001040f8
  103a30:	00104288 	.word	0x00104288
  103a34:	00103e4c 	.word	0x00103e4c
  103a38:	001040ac 	.word	0x001040ac
  103a3c:	00104288 	.word	0x00104288
  103a40:	001040ec 	.word	0x001040ec
  103a44:	00104180 	.word	0x00104180
  103a48:	00104180 	.word	0x00104180
  103a4c:	00104180 	.word	0x00104180
  103a50:	00104180 	.word	0x00104180
  103a54:	00104180 	.word	0x00104180
  103a58:	00104180 	.word	0x00104180
  103a5c:	00104180 	.word	0x00104180
  103a60:	00104180 	.word	0x00104180
  103a64:	00104180 	.word	0x00104180
  103a68:	00104288 	.word	0x00104288
  103a6c:	00104288 	.word	0x00104288
  103a70:	00104288 	.word	0x00104288
  103a74:	00104288 	.word	0x00104288
  103a78:	00104288 	.word	0x00104288
  103a7c:	00104288 	.word	0x00104288
  103a80:	00104288 	.word	0x00104288
  103a84:	00104288 	.word	0x00104288
  103a88:	00104288 	.word	0x00104288
  103a8c:	00104288 	.word	0x00104288
  103a90:	001041a8 	.word	0x001041a8
  103a94:	001041c4 	.word	0x001041c4
  103a98:	00104288 	.word	0x00104288
  103a9c:	001041c4 	.word	0x001041c4
  103aa0:	00104288 	.word	0x00104288
  103aa4:	00104288 	.word	0x00104288
  103aa8:	00104288 	.word	0x00104288
  103aac:	00104288 	.word	0x00104288
  103ab0:	001040a0 	.word	0x001040a0
  103ab4:	00104288 	.word	0x00104288
  103ab8:	00104288 	.word	0x00104288
  103abc:	00103b9c 	.word	0x00103b9c
  103ac0:	00104288 	.word	0x00104288
  103ac4:	00104288 	.word	0x00104288
  103ac8:	00104288 	.word	0x00104288
  103acc:	00104288 	.word	0x00104288
  103ad0:	00104288 	.word	0x00104288
  103ad4:	00103b64 	.word	0x00103b64
  103ad8:	00104288 	.word	0x00104288
  103adc:	00104288 	.word	0x00104288
  103ae0:	00104144 	.word	0x00104144
  103ae4:	00104288 	.word	0x00104288
  103ae8:	00104288 	.word	0x00104288
  103aec:	00104288 	.word	0x00104288
  103af0:	00104288 	.word	0x00104288
  103af4:	00104288 	.word	0x00104288
  103af8:	00104288 	.word	0x00104288
  103afc:	00104288 	.word	0x00104288
  103b00:	00104288 	.word	0x00104288
  103b04:	00104288 	.word	0x00104288
  103b08:	00104288 	.word	0x00104288
  103b0c:	00103e58 	.word	0x00103e58
  103b10:	00103e98 	.word	0x00103e98
  103b14:	001041c4 	.word	0x001041c4
  103b18:	001041c4 	.word	0x001041c4
  103b1c:	001041c4 	.word	0x001041c4
  103b20:	00103f44 	.word	0x00103f44
  103b24:	00103e98 	.word	0x00103e98
  103b28:	00104288 	.word	0x00104288
  103b2c:	00104288 	.word	0x00104288
  103b30:	00103f50 	.word	0x00103f50
  103b34:	00104288 	.word	0x00104288
  103b38:	00103f6c 	.word	0x00103f6c
  103b3c:	00103ba0 	.word	0x00103ba0
  103b40:	00104108 	.word	0x00104108
  103b44:	00103fa8 	.word	0x00103fa8
  103b48:	00104288 	.word	0x00104288
  103b4c:	00103fb4 	.word	0x00103fb4
  103b50:	00104288 	.word	0x00104288
  103b54:	00103b68 	.word	0x00103b68
  103b58:	00104288 	.word	0x00104288
  103b5c:	00104288 	.word	0x00104288
  103b60:	00104024 	.word	0x00104024
  103b64:	e38aa010 	orr	sl, sl, #16
  103b68:	e31a0020 	tst	sl, #32
  103b6c:	e59d3030 	ldr	r3, [sp, #48]	; 0x30
  103b70:	1a0001b5 	bne	10424c <_vfprintf_r+0x9ec>
  103b74:	e31a0010 	tst	sl, #16
  103b78:	1a000412 	bne	104bc8 <_vfprintf_r+0x1368>
  103b7c:	e31a0040 	tst	sl, #64	; 0x40
  103b80:	0a000410 	beq	104bc8 <_vfprintf_r+0x1368>
  103b84:	e1d360b0 	ldrh	r6, [r3]
  103b88:	e2833004 	add	r3, r3, #4
  103b8c:	e3a07000 	mov	r7, #0
  103b90:	e3a02001 	mov	r2, #1
  103b94:	e58d3030 	str	r3, [sp, #48]	; 0x30
  103b98:	ea00000c 	b	103bd0 <_vfprintf_r+0x370>
  103b9c:	e38aa010 	orr	sl, sl, #16
  103ba0:	e21a7020 	ands	r7, sl, #32
  103ba4:	1a0001af 	bne	104268 <_vfprintf_r+0xa08>
  103ba8:	e21a3010 	ands	r3, sl, #16
  103bac:	1a0003f2 	bne	104b7c <_vfprintf_r+0x131c>
  103bb0:	e21a7040 	ands	r7, sl, #64	; 0x40
  103bb4:	0a0003f0 	beq	104b7c <_vfprintf_r+0x131c>
  103bb8:	e1a02003 	mov	r2, r3
  103bbc:	e59d3030 	ldr	r3, [sp, #48]	; 0x30
  103bc0:	e3a07000 	mov	r7, #0
  103bc4:	e1d360b0 	ldrh	r6, [r3]
  103bc8:	e2833004 	add	r3, r3, #4
  103bcc:	e58d3030 	str	r3, [sp, #48]	; 0x30
  103bd0:	e3a03000 	mov	r3, #0
  103bd4:	e1a0b003 	mov	fp, r3
  103bd8:	e5cd306f 	strb	r3, [sp, #111]	; 0x6f
  103bdc:	e3740001 	cmn	r4, #1
  103be0:	0a0000c2 	beq	103ef0 <_vfprintf_r+0x690>
  103be4:	e1863007 	orr	r3, r6, r7
  103be8:	e3ca1080 	bic	r1, sl, #128	; 0x80
  103bec:	e3530000 	cmp	r3, #0
  103bf0:	03540000 	cmpeq	r4, #0
  103bf4:	e58d1018 	str	r1, [sp, #24]
  103bf8:	13a03001 	movne	r3, #1
  103bfc:	03a03000 	moveq	r3, #0
  103c00:	1a000361 	bne	10498c <_vfprintf_r+0x112c>
  103c04:	e3520000 	cmp	r2, #0
  103c08:	1a00035b 	bne	10497c <_vfprintf_r+0x111c>
  103c0c:	e21a3001 	ands	r3, sl, #1
  103c10:	e58d302c 	str	r3, [sp, #44]	; 0x2c
  103c14:	028d30c0 	addeq	r3, sp, #192	; 0xc0
  103c18:	058d3038 	streq	r3, [sp, #56]	; 0x38
  103c1c:	128d2c01 	addne	r2, sp, #256	; 0x100
  103c20:	13a03030 	movne	r3, #48	; 0x30
  103c24:	15623041 	strbne	r3, [r2, #-65]!	; 0xffffffbf
  103c28:	158d2038 	strne	r2, [sp, #56]	; 0x38
  103c2c:	e59d302c 	ldr	r3, [sp, #44]	; 0x2c
  103c30:	e3a02000 	mov	r2, #0
  103c34:	e58d2040 	str	r2, [sp, #64]	; 0x40
  103c38:	e1540003 	cmp	r4, r3
  103c3c:	a1a07004 	movge	r7, r4
  103c40:	b1a07003 	movlt	r7, r3
  103c44:	e35b0000 	cmp	fp, #0
  103c48:	0a000000 	beq	103c50 <_vfprintf_r+0x3f0>
  103c4c:	e2877001 	add	r7, r7, #1
  103c50:	e59d3018 	ldr	r3, [sp, #24]
  103c54:	e213a002 	ands	sl, r3, #2
  103c58:	e59d3018 	ldr	r3, [sp, #24]
  103c5c:	12877002 	addne	r7, r7, #2
  103c60:	e2133084 	ands	r3, r3, #132	; 0x84
  103c64:	e58d3034 	str	r3, [sp, #52]	; 0x34
  103c68:	1a0001a5 	bne	104304 <_vfprintf_r+0xaa4>
  103c6c:	e59d3028 	ldr	r3, [sp, #40]	; 0x28
  103c70:	e0436007 	sub	r6, r3, r7
  103c74:	e3560000 	cmp	r6, #0
  103c78:	da0001a1 	ble	104304 <_vfprintf_r+0xaa4>
  103c7c:	e3560010 	cmp	r6, #16
  103c80:	e59d2094 	ldr	r2, [sp, #148]	; 0x94
  103c84:	d59d1090 	ldrle	r1, [sp, #144]	; 0x90
  103c88:	da000027 	ble	103d2c <_vfprintf_r+0x4cc>
  103c8c:	e58d5054 	str	r5, [sp, #84]	; 0x54
  103c90:	e3a0b010 	mov	fp, #16
  103c94:	e58d4058 	str	r4, [sp, #88]	; 0x58
  103c98:	e58d705c 	str	r7, [sp, #92]	; 0x5c
  103c9c:	e59d1090 	ldr	r1, [sp, #144]	; 0x90
  103ca0:	e59d401c 	ldr	r4, [sp, #28]
  103ca4:	e59d5024 	ldr	r5, [sp, #36]	; 0x24
  103ca8:	e59d703c 	ldr	r7, [sp, #60]	; 0x3c
  103cac:	ea000007 	b	103cd0 <_vfprintf_r+0x470>
	...
  103cb8:	ffffffff 	.word	0xffffffff
  103cbc:	7fefffff 	.word	0x7fefffff
  103cc0:	0010c80c 	.word	0x0010c80c
  103cc4:	e2466010 	sub	r6, r6, #16
  103cc8:	e3560010 	cmp	r6, #16
  103ccc:	da000013 	ble	103d20 <_vfprintf_r+0x4c0>
  103cd0:	e2811001 	add	r1, r1, #1
  103cd4:	e2822010 	add	r2, r2, #16
  103cd8:	e3510007 	cmp	r1, #7
  103cdc:	e8880880 	stm	r8, {r7, fp}
  103ce0:	e58d1090 	str	r1, [sp, #144]	; 0x90
  103ce4:	d2888008 	addle	r8, r8, #8
  103ce8:	e58d2094 	str	r2, [sp, #148]	; 0x94
  103cec:	dafffff4 	ble	103cc4 <_vfprintf_r+0x464>
  103cf0:	e28d208c 	add	r2, sp, #140	; 0x8c
  103cf4:	e1a01005 	mov	r1, r5
  103cf8:	e1a00004 	mov	r0, r4
  103cfc:	e28d80c0 	add	r8, sp, #192	; 0xc0
  103d00:	eb00173b 	bl	1099f4 <__sprint_r>
  103d04:	e3500000 	cmp	r0, #0
  103d08:	1a00029a 	bne	104778 <_vfprintf_r+0xf18>
  103d0c:	e2466010 	sub	r6, r6, #16
  103d10:	e59d2094 	ldr	r2, [sp, #148]	; 0x94
  103d14:	e3560010 	cmp	r6, #16
  103d18:	e59d1090 	ldr	r1, [sp, #144]	; 0x90
  103d1c:	caffffeb 	bgt	103cd0 <_vfprintf_r+0x470>
  103d20:	e59d5054 	ldr	r5, [sp, #84]	; 0x54
  103d24:	e59d4058 	ldr	r4, [sp, #88]	; 0x58
  103d28:	e59d705c 	ldr	r7, [sp, #92]	; 0x5c
  103d2c:	e2811001 	add	r1, r1, #1
  103d30:	e59d303c 	ldr	r3, [sp, #60]	; 0x3c
  103d34:	e3510007 	cmp	r1, #7
  103d38:	e0862002 	add	r2, r6, r2
  103d3c:	e58d1090 	str	r1, [sp, #144]	; 0x90
  103d40:	e58d2094 	str	r2, [sp, #148]	; 0x94
  103d44:	e8880048 	stm	r8, {r3, r6}
  103d48:	ca000165 	bgt	1042e4 <_vfprintf_r+0xa84>
  103d4c:	e2888008 	add	r8, r8, #8
  103d50:	e5ddb06f 	ldrb	fp, [sp, #111]	; 0x6f
  103d54:	ea00016b 	b	104308 <_vfprintf_r+0xaa8>
  103d58:	e1a0100a 	mov	r1, sl
  103d5c:	e59d001c 	ldr	r0, [sp, #28]
  103d60:	eb0006c7 	bl	105884 <__swsetup_r>
  103d64:	e3500000 	cmp	r0, #0
  103d68:	1a000022 	bne	103df8 <_vfprintf_r+0x598>
  103d6c:	e1da10bc 	ldrh	r1, [sl, #12]
  103d70:	e201301a 	and	r3, r1, #26
  103d74:	e353000a 	cmp	r3, #10
  103d78:	1afffee3 	bne	10390c <_vfprintf_r+0xac>
  103d7c:	e1da30fe 	ldrsh	r3, [sl, #14]
  103d80:	e3530000 	cmp	r3, #0
  103d84:	bafffee0 	blt	10390c <_vfprintf_r+0xac>
  103d88:	e59a3064 	ldr	r3, [sl, #100]	; 0x64
  103d8c:	e3130001 	tst	r3, #1
  103d90:	1a000003 	bne	103da4 <_vfprintf_r+0x544>
  103d94:	e3110c02 	tst	r1, #512	; 0x200
  103d98:	1a000001 	bne	103da4 <_vfprintf_r+0x544>
  103d9c:	e28a0058 	add	r0, sl, #88	; 0x58
  103da0:	eb00202d 	bl	10be5c <__generic_gxx_recursive_mutex_unlock>
  103da4:	e1a03005 	mov	r3, r5
  103da8:	e1a02009 	mov	r2, r9
  103dac:	e1a0100a 	mov	r1, sl
  103db0:	e59d001c 	ldr	r0, [sp, #28]
  103db4:	eb00067f 	bl	1057b8 <__sbprintf>
  103db8:	e58d0020 	str	r0, [sp, #32]
  103dbc:	e59d0020 	ldr	r0, [sp, #32]
  103dc0:	e28ddf41 	add	sp, sp, #260	; 0x104
  103dc4:	ecbd8b06 	vpop	{d8-d10}
  103dc8:	e8bd8ff0 	pop	{r4, r5, r6, r7, r8, r9, sl, fp, pc}
  103dcc:	e28d208c 	add	r2, sp, #140	; 0x8c
  103dd0:	e59d1024 	ldr	r1, [sp, #36]	; 0x24
  103dd4:	e59d001c 	ldr	r0, [sp, #28]
  103dd8:	eb001705 	bl	1099f4 <__sprint_r>
  103ddc:	e3500000 	cmp	r0, #0
  103de0:	1a0002e3 	bne	104974 <_vfprintf_r+0x1114>
  103de4:	e28d80c0 	add	r8, sp, #192	; 0xc0
  103de8:	eafffeef 	b	1039ac <_vfprintf_r+0x14c>
  103dec:	e59d001c 	ldr	r0, [sp, #28]
  103df0:	eb000cf2 	bl	1071c0 <__sinit>
  103df4:	eafffead 	b	1038b0 <_vfprintf_r+0x50>
  103df8:	e59a3064 	ldr	r3, [sl, #100]	; 0x64
  103dfc:	e3130001 	tst	r3, #1
  103e00:	1a000002 	bne	103e10 <_vfprintf_r+0x5b0>
  103e04:	e1da30bc 	ldrh	r3, [sl, #12]
  103e08:	e3130c02 	tst	r3, #512	; 0x200
  103e0c:	0a0004cd 	beq	105148 <_vfprintf_r+0x18e8>
  103e10:	e3e03000 	mvn	r3, #0
  103e14:	e58d3020 	str	r3, [sp, #32]
  103e18:	e59d0020 	ldr	r0, [sp, #32]
  103e1c:	e28ddf41 	add	sp, sp, #260	; 0x104
  103e20:	ecbd8b06 	vpop	{d8-d10}
  103e24:	e8bd8ff0 	pop	{r4, r5, r6, r7, r8, r9, sl, fp, pc}
  103e28:	e28a0058 	add	r0, sl, #88	; 0x58
  103e2c:	eb00200c 	bl	10be64 <__generic_gxx_recursive_mutex_lock>
  103e30:	e1da30fc 	ldrsh	r3, [sl, #12]
  103e34:	e6ff1073 	uxth	r1, r3
  103e38:	eafffea3 	b	1038cc <_vfprintf_r+0x6c>
  103e3c:	e59dc028 	ldr	ip, [sp, #40]	; 0x28
  103e40:	e58d3030 	str	r3, [sp, #48]	; 0x30
  103e44:	e26cc000 	rsb	ip, ip, #0
  103e48:	e58dc028 	str	ip, [sp, #40]	; 0x28
  103e4c:	e38aa004 	orr	sl, sl, #4
  103e50:	e5d95000 	ldrb	r5, [r9]
  103e54:	eafffee4 	b	1039ec <_vfprintf_r+0x18c>
  103e58:	e59d1030 	ldr	r1, [sp, #48]	; 0x30
  103e5c:	e3a03000 	mov	r3, #0
  103e60:	e1a0b003 	mov	fp, r3
  103e64:	e5cd306f 	strb	r3, [sp, #111]	; 0x6f
  103e68:	e1a04003 	mov	r4, r3
  103e6c:	e58d3040 	str	r3, [sp, #64]	; 0x40
  103e70:	e5912000 	ldr	r2, [r1]
  103e74:	e2813004 	add	r3, r1, #4
  103e78:	e3a07001 	mov	r7, #1
  103e7c:	e58d3030 	str	r3, [sp, #48]	; 0x30
  103e80:	e28d3098 	add	r3, sp, #152	; 0x98
  103e84:	e58da018 	str	sl, [sp, #24]
  103e88:	e5cd2098 	strb	r2, [sp, #152]	; 0x98
  103e8c:	e58d702c 	str	r7, [sp, #44]	; 0x2c
  103e90:	e58d3038 	str	r3, [sp, #56]	; 0x38
  103e94:	eaffff6d 	b	103c50 <_vfprintf_r+0x3f0>
  103e98:	e3520000 	cmp	r2, #0
  103e9c:	15cd106f 	strbne	r1, [sp, #111]	; 0x6f
  103ea0:	e31a0020 	tst	sl, #32
  103ea4:	e59d3030 	ldr	r3, [sp, #48]	; 0x30
  103ea8:	1a0003d4 	bne	104e00 <_vfprintf_r+0x15a0>
  103eac:	e31a0010 	tst	sl, #16
  103eb0:	1a000338 	bne	104b98 <_vfprintf_r+0x1338>
  103eb4:	e31a0040 	tst	sl, #64	; 0x40
  103eb8:	0a000336 	beq	104b98 <_vfprintf_r+0x1338>
  103ebc:	e1d360f0 	ldrsh	r6, [r3]
  103ec0:	e2833004 	add	r3, r3, #4
  103ec4:	e58d3030 	str	r3, [sp, #48]	; 0x30
  103ec8:	e1a02006 	mov	r2, r6
  103ecc:	e1a07fc6 	asr	r7, r6, #31
  103ed0:	e1a03007 	mov	r3, r7
  103ed4:	e3520000 	cmp	r2, #0
  103ed8:	e2d33000 	sbcs	r3, r3, #0
  103edc:	ba000409 	blt	104f08 <_vfprintf_r+0x16a8>
  103ee0:	e3740001 	cmn	r4, #1
  103ee4:	e5ddb06f 	ldrb	fp, [sp, #111]	; 0x6f
  103ee8:	e3a02001 	mov	r2, #1
  103eec:	1affff3c 	bne	103be4 <_vfprintf_r+0x384>
  103ef0:	e3520001 	cmp	r2, #1
  103ef4:	0a0002a7 	beq	104998 <_vfprintf_r+0x1138>
  103ef8:	e3520002 	cmp	r2, #2
  103efc:	128d20c0 	addne	r2, sp, #192	; 0xc0
  103f00:	1a000204 	bne	104718 <_vfprintf_r+0xeb8>
  103f04:	e59d1050 	ldr	r1, [sp, #80]	; 0x50
  103f08:	e28d30c0 	add	r3, sp, #192	; 0xc0
  103f0c:	e206200f 	and	r2, r6, #15
  103f10:	e1a06226 	lsr	r6, r6, #4
  103f14:	e7d12002 	ldrb	r2, [r1, r2]
  103f18:	e1866e07 	orr	r6, r6, r7, lsl #28
  103f1c:	e1a07227 	lsr	r7, r7, #4
  103f20:	e1960007 	orrs	r0, r6, r7
  103f24:	e5632001 	strb	r2, [r3, #-1]!
  103f28:	1afffff7 	bne	103f0c <_vfprintf_r+0x6ac>
  103f2c:	e28d20c0 	add	r2, sp, #192	; 0xc0
  103f30:	e58d3038 	str	r3, [sp, #56]	; 0x38
  103f34:	e0423003 	sub	r3, r2, r3
  103f38:	e58da018 	str	sl, [sp, #24]
  103f3c:	e58d302c 	str	r3, [sp, #44]	; 0x2c
  103f40:	eaffff39 	b	103c2c <_vfprintf_r+0x3cc>
  103f44:	e38aa040 	orr	sl, sl, #64	; 0x40
  103f48:	e5d95000 	ldrb	r5, [r9]
  103f4c:	eafffea6 	b	1039ec <_vfprintf_r+0x18c>
  103f50:	e5d95000 	ldrb	r5, [r9]
  103f54:	e355006c 	cmp	r5, #108	; 0x6c
  103f58:	05d95001 	ldrbeq	r5, [r9, #1]
  103f5c:	038aa020 	orreq	sl, sl, #32
  103f60:	02899001 	addeq	r9, r9, #1
  103f64:	138aa010 	orrne	sl, sl, #16
  103f68:	eafffe9f 	b	1039ec <_vfprintf_r+0x18c>
  103f6c:	e3520000 	cmp	r2, #0
  103f70:	15cd106f 	strbne	r1, [sp, #111]	; 0x6f
  103f74:	e31a0020 	tst	sl, #32
  103f78:	1a0004f8 	bne	105360 <_vfprintf_r+0x1b00>
  103f7c:	e31a0010 	tst	sl, #16
  103f80:	1a0000d0 	bne	1042c8 <_vfprintf_r+0xa68>
  103f84:	e31a0040 	tst	sl, #64	; 0x40
  103f88:	0a0000ce 	beq	1042c8 <_vfprintf_r+0xa68>
  103f8c:	e59d2030 	ldr	r2, [sp, #48]	; 0x30
  103f90:	e5923000 	ldr	r3, [r2]
  103f94:	e2822004 	add	r2, r2, #4
  103f98:	e58d2030 	str	r2, [sp, #48]	; 0x30
  103f9c:	e1dd22b0 	ldrh	r2, [sp, #32]
  103fa0:	e1c320b0 	strh	r2, [r3]
  103fa4:	eafffe6a 	b	103954 <_vfprintf_r+0xf4>
  103fa8:	e38aa020 	orr	sl, sl, #32
  103fac:	e5d95000 	ldrb	r5, [r9]
  103fb0:	eafffe8d 	b	1039ec <_vfprintf_r+0x18c>
  103fb4:	e59d3030 	ldr	r3, [sp, #48]	; 0x30
  103fb8:	e3a06000 	mov	r6, #0
  103fbc:	e5cd606f 	strb	r6, [sp, #111]	; 0x6f
  103fc0:	e5932000 	ldr	r2, [r3]
  103fc4:	e2833004 	add	r3, r3, #4
  103fc8:	e1520006 	cmp	r2, r6
  103fcc:	e58d2038 	str	r2, [sp, #56]	; 0x38
  103fd0:	0a000540 	beq	1054d8 <_vfprintf_r+0x1c78>
  103fd4:	e3740001 	cmn	r4, #1
  103fd8:	e58d3018 	str	r3, [sp, #24]
  103fdc:	0a0004f1 	beq	1053a8 <_vfprintf_r+0x1b48>
  103fe0:	e1a02004 	mov	r2, r4
  103fe4:	e1a01006 	mov	r1, r6
  103fe8:	e59d0038 	ldr	r0, [sp, #56]	; 0x38
  103fec:	fa000fdb 	blx	107f60 <memchr>
  103ff0:	e3500000 	cmp	r0, #0
  103ff4:	e59d3018 	ldr	r3, [sp, #24]
  103ff8:	0a000569 	beq	1055a4 <_vfprintf_r+0x1d44>
  103ffc:	e59d2038 	ldr	r2, [sp, #56]	; 0x38
  104000:	e1a04006 	mov	r4, r6
  104004:	e58d3030 	str	r3, [sp, #48]	; 0x30
  104008:	e58da018 	str	sl, [sp, #24]
  10400c:	e0402002 	sub	r2, r0, r2
  104010:	e58d6040 	str	r6, [sp, #64]	; 0x40
  104014:	e58d202c 	str	r2, [sp, #44]	; 0x2c
  104018:	e1c27fc2 	bic	r7, r2, r2, asr #31
  10401c:	e5ddb06f 	ldrb	fp, [sp, #111]	; 0x6f
  104020:	eaffff07 	b	103c44 <_vfprintf_r+0x3e4>
  104024:	e30c3840 	movw	r3, #51264	; 0xc840
  104028:	e3520000 	cmp	r2, #0
  10402c:	e3403010 	movt	r3, #16
  104030:	15cd106f 	strbne	r1, [sp, #111]	; 0x6f
  104034:	e58d3050 	str	r3, [sp, #80]	; 0x50
  104038:	e31a0020 	tst	sl, #32
  10403c:	e59d3030 	ldr	r3, [sp, #48]	; 0x30
  104040:	1a000376 	bne	104e20 <_vfprintf_r+0x15c0>
  104044:	e31a0010 	tst	sl, #16
  104048:	1a0002d9 	bne	104bb4 <_vfprintf_r+0x1354>
  10404c:	e31a0040 	tst	sl, #64	; 0x40
  104050:	0a0002d7 	beq	104bb4 <_vfprintf_r+0x1354>
  104054:	e3a07000 	mov	r7, #0
  104058:	e1d360b0 	ldrh	r6, [r3]
  10405c:	e2833004 	add	r3, r3, #4
  104060:	e58d3030 	str	r3, [sp, #48]	; 0x30
  104064:	e31a0001 	tst	sl, #1
  104068:	0a000266 	beq	104a08 <_vfprintf_r+0x11a8>
  10406c:	e1963007 	orrs	r3, r6, r7
  104070:	0a000264 	beq	104a08 <_vfprintf_r+0x11a8>
  104074:	e3a03030 	mov	r3, #48	; 0x30
  104078:	e5cd5071 	strb	r5, [sp, #113]	; 0x71
  10407c:	e38aa002 	orr	sl, sl, #2
  104080:	e5cd3070 	strb	r3, [sp, #112]	; 0x70
  104084:	e3a02002 	mov	r2, #2
  104088:	eafffed0 	b	103bd0 <_vfprintf_r+0x370>
  10408c:	e3510000 	cmp	r1, #0
  104090:	e5d95000 	ldrb	r5, [r9]
  104094:	03a02001 	moveq	r2, #1
  104098:	03a01020 	moveq	r1, #32
  10409c:	eafffe52 	b	1039ec <_vfprintf_r+0x18c>
  1040a0:	e38aa008 	orr	sl, sl, #8
  1040a4:	e5d95000 	ldrb	r5, [r9]
  1040a8:	eafffe4f 	b	1039ec <_vfprintf_r+0x18c>
  1040ac:	e5d95000 	ldrb	r5, [r9]
  1040b0:	e289c001 	add	ip, r9, #1
  1040b4:	e355002a 	cmp	r5, #42	; 0x2a
  1040b8:	0a0005a6 	beq	105758 <_vfprintf_r+0x1ef8>
  1040bc:	e2453030 	sub	r3, r5, #48	; 0x30
  1040c0:	e1a0900c 	mov	r9, ip
  1040c4:	e3530009 	cmp	r3, #9
  1040c8:	e3a04000 	mov	r4, #0
  1040cc:	8afffe47 	bhi	1039f0 <_vfprintf_r+0x190>
  1040d0:	e4d95001 	ldrb	r5, [r9], #1
  1040d4:	e0844104 	add	r4, r4, r4, lsl #2
  1040d8:	e0834084 	add	r4, r3, r4, lsl #1
  1040dc:	e2453030 	sub	r3, r5, #48	; 0x30
  1040e0:	e3530009 	cmp	r3, #9
  1040e4:	9afffff9 	bls	1040d0 <_vfprintf_r+0x870>
  1040e8:	eafffe40 	b	1039f0 <_vfprintf_r+0x190>
  1040ec:	e38aa080 	orr	sl, sl, #128	; 0x80
  1040f0:	e5d95000 	ldrb	r5, [r9]
  1040f4:	eafffe3c 	b	1039ec <_vfprintf_r+0x18c>
  1040f8:	e5d95000 	ldrb	r5, [r9]
  1040fc:	e3a02001 	mov	r2, #1
  104100:	e3a0102b 	mov	r1, #43	; 0x2b
  104104:	eafffe38 	b	1039ec <_vfprintf_r+0x18c>
  104108:	e59d2030 	ldr	r2, [sp, #48]	; 0x30
  10410c:	e30c1840 	movw	r1, #51264	; 0xc840
  104110:	e3a03030 	mov	r3, #48	; 0x30
  104114:	e3a05078 	mov	r5, #120	; 0x78
  104118:	e3401010 	movt	r1, #16
  10411c:	e38aa002 	orr	sl, sl, #2
  104120:	e5926000 	ldr	r6, [r2]
  104124:	e2822004 	add	r2, r2, #4
  104128:	e58d2030 	str	r2, [sp, #48]	; 0x30
  10412c:	e3a07000 	mov	r7, #0
  104130:	e5cd3070 	strb	r3, [sp, #112]	; 0x70
  104134:	e3a02002 	mov	r2, #2
  104138:	e5cd5071 	strb	r5, [sp, #113]	; 0x71
  10413c:	e58d1050 	str	r1, [sp, #80]	; 0x50
  104140:	eafffea2 	b	103bd0 <_vfprintf_r+0x370>
  104144:	e30c382c 	movw	r3, #51244	; 0xc82c
  104148:	e3520000 	cmp	r2, #0
  10414c:	e3403010 	movt	r3, #16
  104150:	15cd106f 	strbne	r1, [sp, #111]	; 0x6f
  104154:	e58d3050 	str	r3, [sp, #80]	; 0x50
  104158:	eaffffb6 	b	104038 <_vfprintf_r+0x7d8>
  10415c:	e59d3030 	ldr	r3, [sp, #48]	; 0x30
  104160:	e593c000 	ldr	ip, [r3]
  104164:	e2833004 	add	r3, r3, #4
  104168:	e35c0000 	cmp	ip, #0
  10416c:	e58dc028 	str	ip, [sp, #40]	; 0x28
  104170:	baffff31 	blt	103e3c <_vfprintf_r+0x5dc>
  104174:	e58d3030 	str	r3, [sp, #48]	; 0x30
  104178:	e5d95000 	ldrb	r5, [r9]
  10417c:	eafffe1a 	b	1039ec <_vfprintf_r+0x18c>
  104180:	e2453030 	sub	r3, r5, #48	; 0x30
  104184:	e3a0c000 	mov	ip, #0
  104188:	e4d95001 	ldrb	r5, [r9], #1
  10418c:	e08cc10c 	add	ip, ip, ip, lsl #2
  104190:	e083c08c 	add	ip, r3, ip, lsl #1
  104194:	e2453030 	sub	r3, r5, #48	; 0x30
  104198:	e3530009 	cmp	r3, #9
  10419c:	9afffff9 	bls	104188 <_vfprintf_r+0x928>
  1041a0:	e58dc028 	str	ip, [sp, #40]	; 0x28
  1041a4:	eafffe11 	b	1039f0 <_vfprintf_r+0x190>
  1041a8:	e3520000 	cmp	r2, #0
  1041ac:	e38aa010 	orr	sl, sl, #16
  1041b0:	15cd106f 	strbne	r1, [sp, #111]	; 0x6f
  1041b4:	eaffff39 	b	103ea0 <_vfprintf_r+0x640>
  1041b8:	e38aa001 	orr	sl, sl, #1
  1041bc:	e5d95000 	ldrb	r5, [r9]
  1041c0:	eafffe09 	b	1039ec <_vfprintf_r+0x18c>
  1041c4:	e59d3030 	ldr	r3, [sp, #48]	; 0x30
  1041c8:	e3520000 	cmp	r2, #0
  1041cc:	15cd106f 	strbne	r1, [sp, #111]	; 0x6f
  1041d0:	e31a0008 	tst	sl, #8
  1041d4:	e2833007 	add	r3, r3, #7
  1041d8:	e3c33007 	bic	r3, r3, #7
  1041dc:	0d938b00 	vldreq	d8, [r3]
  1041e0:	12832008 	addne	r2, r3, #8
  1041e4:	1d938b00 	vldrne	d8, [r3]
  1041e8:	02833008 	addeq	r3, r3, #8
  1041ec:	158d2030 	strne	r2, [sp, #48]	; 0x30
  1041f0:	058d3030 	streq	r3, [sp, #48]	; 0x30
  1041f4:	eef00bc8 	vabs.f64	d16, d8
  1041f8:	eef40b49 	vcmp.f64	d16, d9
  1041fc:	eef1fa10 	vmrs	APSR_nzcv, fpscr
  104200:	da000346 	ble	104f20 <_vfprintf_r+0x16c0>
  104204:	eeb58bc0 	vcmpe.f64	d8, #0.0
  104208:	eef1fa10 	vmrs	APSR_nzcv, fpscr
  10420c:	4a000415 	bmi	105268 <_vfprintf_r+0x1a08>
  104210:	e5ddb06f 	ldrb	fp, [sp, #111]	; 0x6f
  104214:	e30c381c 	movw	r3, #51228	; 0xc81c
  104218:	e30c2820 	movw	r2, #51232	; 0xc820
  10421c:	e3403010 	movt	r3, #16
  104220:	e3550047 	cmp	r5, #71	; 0x47
  104224:	e3402010 	movt	r2, #16
  104228:	e3a07003 	mov	r7, #3
  10422c:	e3a04000 	mov	r4, #0
  104230:	e3ca1080 	bic	r1, sl, #128	; 0x80
  104234:	d1a02003 	movle	r2, r3
  104238:	e58d1018 	str	r1, [sp, #24]
  10423c:	e58d2038 	str	r2, [sp, #56]	; 0x38
  104240:	e58d702c 	str	r7, [sp, #44]	; 0x2c
  104244:	e58d4040 	str	r4, [sp, #64]	; 0x40
  104248:	eafffe7d 	b	103c44 <_vfprintf_r+0x3e4>
  10424c:	e2833007 	add	r3, r3, #7
  104250:	e3a02001 	mov	r2, #1
  104254:	e3c33007 	bic	r3, r3, #7
  104258:	e2831008 	add	r1, r3, #8
  10425c:	e1c360d0 	ldrd	r6, [r3]
  104260:	e58d1030 	str	r1, [sp, #48]	; 0x30
  104264:	eafffe59 	b	103bd0 <_vfprintf_r+0x370>
  104268:	e59d3030 	ldr	r3, [sp, #48]	; 0x30
  10426c:	e3a02000 	mov	r2, #0
  104270:	e2833007 	add	r3, r3, #7
  104274:	e3c33007 	bic	r3, r3, #7
  104278:	e2831008 	add	r1, r3, #8
  10427c:	e1c360d0 	ldrd	r6, [r3]
  104280:	e58d1030 	str	r1, [sp, #48]	; 0x30
  104284:	eafffe51 	b	103bd0 <_vfprintf_r+0x370>
  104288:	e3520000 	cmp	r2, #0
  10428c:	15cd106f 	strbne	r1, [sp, #111]	; 0x6f
  104290:	e3550000 	cmp	r5, #0
  104294:	0a0000c4 	beq	1045ac <_vfprintf_r+0xd4c>
  104298:	e3a03000 	mov	r3, #0
  10429c:	e3a07001 	mov	r7, #1
  1042a0:	e1a0b003 	mov	fp, r3
  1042a4:	e5cd306f 	strb	r3, [sp, #111]	; 0x6f
  1042a8:	e1a04003 	mov	r4, r3
  1042ac:	e58d3040 	str	r3, [sp, #64]	; 0x40
  1042b0:	e28d3098 	add	r3, sp, #152	; 0x98
  1042b4:	e5cd5098 	strb	r5, [sp, #152]	; 0x98
  1042b8:	e58da018 	str	sl, [sp, #24]
  1042bc:	e58d702c 	str	r7, [sp, #44]	; 0x2c
  1042c0:	e58d3038 	str	r3, [sp, #56]	; 0x38
  1042c4:	eafffe61 	b	103c50 <_vfprintf_r+0x3f0>
  1042c8:	e59d2030 	ldr	r2, [sp, #48]	; 0x30
  1042cc:	e5923000 	ldr	r3, [r2]
  1042d0:	e2822004 	add	r2, r2, #4
  1042d4:	e58d2030 	str	r2, [sp, #48]	; 0x30
  1042d8:	e59d2020 	ldr	r2, [sp, #32]
  1042dc:	e5832000 	str	r2, [r3]
  1042e0:	eafffd9b 	b	103954 <_vfprintf_r+0xf4>
  1042e4:	e28d208c 	add	r2, sp, #140	; 0x8c
  1042e8:	e59d1024 	ldr	r1, [sp, #36]	; 0x24
  1042ec:	e59d001c 	ldr	r0, [sp, #28]
  1042f0:	eb0015bf 	bl	1099f4 <__sprint_r>
  1042f4:	e3500000 	cmp	r0, #0
  1042f8:	1a00019d 	bne	104974 <_vfprintf_r+0x1114>
  1042fc:	e5ddb06f 	ldrb	fp, [sp, #111]	; 0x6f
  104300:	e28d80c0 	add	r8, sp, #192	; 0xc0
  104304:	e59d2094 	ldr	r2, [sp, #148]	; 0x94
  104308:	e35b0000 	cmp	fp, #0
  10430c:	0a00000b 	beq	104340 <_vfprintf_r+0xae0>
  104310:	e59d3090 	ldr	r3, [sp, #144]	; 0x90
  104314:	e28d106f 	add	r1, sp, #111	; 0x6f
  104318:	e5881000 	str	r1, [r8]
  10431c:	e3a01001 	mov	r1, #1
  104320:	e2822001 	add	r2, r2, #1
  104324:	e5881004 	str	r1, [r8, #4]
  104328:	e0833001 	add	r3, r3, r1
  10432c:	e58d2094 	str	r2, [sp, #148]	; 0x94
  104330:	e3530007 	cmp	r3, #7
  104334:	e58d3090 	str	r3, [sp, #144]	; 0x90
  104338:	d2888008 	addle	r8, r8, #8
  10433c:	ca00019f 	bgt	1049c0 <_vfprintf_r+0x1160>
  104340:	e35a0000 	cmp	sl, #0
  104344:	0a00000b 	beq	104378 <_vfprintf_r+0xb18>
  104348:	e59d3090 	ldr	r3, [sp, #144]	; 0x90
  10434c:	e28d1070 	add	r1, sp, #112	; 0x70
  104350:	e5881000 	str	r1, [r8]
  104354:	e2822002 	add	r2, r2, #2
  104358:	e3a01002 	mov	r1, #2
  10435c:	e58d2094 	str	r2, [sp, #148]	; 0x94
  104360:	e2833001 	add	r3, r3, #1
  104364:	e5881004 	str	r1, [r8, #4]
  104368:	e3530007 	cmp	r3, #7
  10436c:	e58d3090 	str	r3, [sp, #144]	; 0x90
  104370:	d2888008 	addle	r8, r8, #8
  104374:	ca00019a 	bgt	1049e4 <_vfprintf_r+0x1184>
  104378:	e59d3034 	ldr	r3, [sp, #52]	; 0x34
  10437c:	e3530080 	cmp	r3, #128	; 0x80
  104380:	0a0000fe 	beq	104780 <_vfprintf_r+0xf20>
  104384:	e59d302c 	ldr	r3, [sp, #44]	; 0x2c
  104388:	e0444003 	sub	r4, r4, r3
  10438c:	e3540000 	cmp	r4, #0
  104390:	da000034 	ble	104468 <_vfprintf_r+0xc08>
  104394:	e3540010 	cmp	r4, #16
  104398:	e59d3090 	ldr	r3, [sp, #144]	; 0x90
  10439c:	d51f66e4 	ldrle	r6, [pc, #-1764]	; 103cc0 <_vfprintf_r+0x460>
  1043a0:	da00001f 	ble	104424 <_vfprintf_r+0xbc4>
  1043a4:	e58d5034 	str	r5, [sp, #52]	; 0x34
  1043a8:	e3a0a010 	mov	sl, #16
  1043ac:	e51f66f4 	ldr	r6, [pc, #-1780]	; 103cc0 <_vfprintf_r+0x460>
  1043b0:	e1a01003 	mov	r1, r3
  1043b4:	e59db01c 	ldr	fp, [sp, #28]
  1043b8:	e59d5024 	ldr	r5, [sp, #36]	; 0x24
  1043bc:	ea000002 	b	1043cc <_vfprintf_r+0xb6c>
  1043c0:	e2444010 	sub	r4, r4, #16
  1043c4:	e3540010 	cmp	r4, #16
  1043c8:	da000013 	ble	10441c <_vfprintf_r+0xbbc>
  1043cc:	e2811001 	add	r1, r1, #1
  1043d0:	e2822010 	add	r2, r2, #16
  1043d4:	e3510007 	cmp	r1, #7
  1043d8:	e8880440 	stm	r8, {r6, sl}
  1043dc:	e58d1090 	str	r1, [sp, #144]	; 0x90
  1043e0:	d2888008 	addle	r8, r8, #8
  1043e4:	e58d2094 	str	r2, [sp, #148]	; 0x94
  1043e8:	dafffff4 	ble	1043c0 <_vfprintf_r+0xb60>
  1043ec:	e28d208c 	add	r2, sp, #140	; 0x8c
  1043f0:	e1a01005 	mov	r1, r5
  1043f4:	e1a0000b 	mov	r0, fp
  1043f8:	e28d80c0 	add	r8, sp, #192	; 0xc0
  1043fc:	eb00157c 	bl	1099f4 <__sprint_r>
  104400:	e3500000 	cmp	r0, #0
  104404:	1a0000db 	bne	104778 <_vfprintf_r+0xf18>
  104408:	e2444010 	sub	r4, r4, #16
  10440c:	e59d2094 	ldr	r2, [sp, #148]	; 0x94
  104410:	e3540010 	cmp	r4, #16
  104414:	e59d1090 	ldr	r1, [sp, #144]	; 0x90
  104418:	caffffeb 	bgt	1043cc <_vfprintf_r+0xb6c>
  10441c:	e59d5034 	ldr	r5, [sp, #52]	; 0x34
  104420:	e1a03001 	mov	r3, r1
  104424:	e2833001 	add	r3, r3, #1
  104428:	e0822004 	add	r2, r2, r4
  10442c:	e3530007 	cmp	r3, #7
  104430:	e5886000 	str	r6, [r8]
  104434:	e5884004 	str	r4, [r8, #4]
  104438:	d2888008 	addle	r8, r8, #8
  10443c:	e58d3090 	str	r3, [sp, #144]	; 0x90
  104440:	e58d2094 	str	r2, [sp, #148]	; 0x94
  104444:	da000007 	ble	104468 <_vfprintf_r+0xc08>
  104448:	e28d208c 	add	r2, sp, #140	; 0x8c
  10444c:	e59d1024 	ldr	r1, [sp, #36]	; 0x24
  104450:	e59d001c 	ldr	r0, [sp, #28]
  104454:	eb001566 	bl	1099f4 <__sprint_r>
  104458:	e3500000 	cmp	r0, #0
  10445c:	1a000144 	bne	104974 <_vfprintf_r+0x1114>
  104460:	e59d2094 	ldr	r2, [sp, #148]	; 0x94
  104464:	e28d80c0 	add	r8, sp, #192	; 0xc0
  104468:	e59d3018 	ldr	r3, [sp, #24]
  10446c:	e3130c01 	tst	r3, #256	; 0x100
  104470:	1a00005f 	bne	1045f4 <_vfprintf_r+0xd94>
  104474:	e59d3090 	ldr	r3, [sp, #144]	; 0x90
  104478:	e59d102c 	ldr	r1, [sp, #44]	; 0x2c
  10447c:	e59d0038 	ldr	r0, [sp, #56]	; 0x38
  104480:	e2833001 	add	r3, r3, #1
  104484:	e3530007 	cmp	r3, #7
  104488:	e0822001 	add	r2, r2, r1
  10448c:	e58d2094 	str	r2, [sp, #148]	; 0x94
  104490:	e5880000 	str	r0, [r8]
  104494:	e5881004 	str	r1, [r8, #4]
  104498:	e58d3090 	str	r3, [sp, #144]	; 0x90
  10449c:	ca000125 	bgt	104938 <_vfprintf_r+0x10d8>
  1044a0:	e2888008 	add	r8, r8, #8
  1044a4:	e59d3018 	ldr	r3, [sp, #24]
  1044a8:	e3130004 	tst	r3, #4
  1044ac:	0a000032 	beq	10457c <_vfprintf_r+0xd1c>
  1044b0:	e59d3028 	ldr	r3, [sp, #40]	; 0x28
  1044b4:	e0434007 	sub	r4, r3, r7
  1044b8:	e3540000 	cmp	r4, #0
  1044bc:	da00002e 	ble	10457c <_vfprintf_r+0xd1c>
  1044c0:	e3540010 	cmp	r4, #16
  1044c4:	e59d3090 	ldr	r3, [sp, #144]	; 0x90
  1044c8:	da00001c 	ble	104540 <_vfprintf_r+0xce0>
  1044cc:	e3a05010 	mov	r5, #16
  1044d0:	e59d601c 	ldr	r6, [sp, #28]
  1044d4:	e59da024 	ldr	sl, [sp, #36]	; 0x24
  1044d8:	e59db03c 	ldr	fp, [sp, #60]	; 0x3c
  1044dc:	ea000002 	b	1044ec <_vfprintf_r+0xc8c>
  1044e0:	e2444010 	sub	r4, r4, #16
  1044e4:	e3540010 	cmp	r4, #16
  1044e8:	da000014 	ble	104540 <_vfprintf_r+0xce0>
  1044ec:	e2833001 	add	r3, r3, #1
  1044f0:	e2822010 	add	r2, r2, #16
  1044f4:	e3530007 	cmp	r3, #7
  1044f8:	e588b000 	str	fp, [r8]
  1044fc:	e5885004 	str	r5, [r8, #4]
  104500:	d2888008 	addle	r8, r8, #8
  104504:	e58d3090 	str	r3, [sp, #144]	; 0x90
  104508:	e58d2094 	str	r2, [sp, #148]	; 0x94
  10450c:	dafffff3 	ble	1044e0 <_vfprintf_r+0xc80>
  104510:	e28d208c 	add	r2, sp, #140	; 0x8c
  104514:	e1a0100a 	mov	r1, sl
  104518:	e1a00006 	mov	r0, r6
  10451c:	e28d80c0 	add	r8, sp, #192	; 0xc0
  104520:	eb001533 	bl	1099f4 <__sprint_r>
  104524:	e3500000 	cmp	r0, #0
  104528:	1a000025 	bne	1045c4 <_vfprintf_r+0xd64>
  10452c:	e2444010 	sub	r4, r4, #16
  104530:	e59d2094 	ldr	r2, [sp, #148]	; 0x94
  104534:	e3540010 	cmp	r4, #16
  104538:	e59d3090 	ldr	r3, [sp, #144]	; 0x90
  10453c:	caffffea 	bgt	1044ec <_vfprintf_r+0xc8c>
  104540:	e2833001 	add	r3, r3, #1
  104544:	e0822004 	add	r2, r2, r4
  104548:	e3530007 	cmp	r3, #7
  10454c:	e58d3090 	str	r3, [sp, #144]	; 0x90
  104550:	e59d303c 	ldr	r3, [sp, #60]	; 0x3c
  104554:	e58d2094 	str	r2, [sp, #148]	; 0x94
  104558:	e8880018 	stm	r8, {r3, r4}
  10455c:	da000006 	ble	10457c <_vfprintf_r+0xd1c>
  104560:	e28d208c 	add	r2, sp, #140	; 0x8c
  104564:	e59d1024 	ldr	r1, [sp, #36]	; 0x24
  104568:	e59d001c 	ldr	r0, [sp, #28]
  10456c:	eb001520 	bl	1099f4 <__sprint_r>
  104570:	e3500000 	cmp	r0, #0
  104574:	1a0000fe 	bne	104974 <_vfprintf_r+0x1114>
  104578:	e59d2094 	ldr	r2, [sp, #148]	; 0x94
  10457c:	e59d3020 	ldr	r3, [sp, #32]
  104580:	e59d1028 	ldr	r1, [sp, #40]	; 0x28
  104584:	e1510007 	cmp	r1, r7
  104588:	a0833001 	addge	r3, r3, r1
  10458c:	b0833007 	addlt	r3, r3, r7
  104590:	e3520000 	cmp	r2, #0
  104594:	e58d3020 	str	r3, [sp, #32]
  104598:	1a0000ef 	bne	10495c <_vfprintf_r+0x10fc>
  10459c:	e3a03000 	mov	r3, #0
  1045a0:	e28d80c0 	add	r8, sp, #192	; 0xc0
  1045a4:	e58d3090 	str	r3, [sp, #144]	; 0x90
  1045a8:	eafffce9 	b	103954 <_vfprintf_r+0xf4>
  1045ac:	e59d3094 	ldr	r3, [sp, #148]	; 0x94
  1045b0:	e59da024 	ldr	sl, [sp, #36]	; 0x24
  1045b4:	e3530000 	cmp	r3, #0
  1045b8:	1a0003e8 	bne	105560 <_vfprintf_r+0x1d00>
  1045bc:	e3a03000 	mov	r3, #0
  1045c0:	e58d3090 	str	r3, [sp, #144]	; 0x90
  1045c4:	e59a3064 	ldr	r3, [sl, #100]	; 0x64
  1045c8:	e3130001 	tst	r3, #1
  1045cc:	e1da30bc 	ldrh	r3, [sl, #12]
  1045d0:	1a000001 	bne	1045dc <_vfprintf_r+0xd7c>
  1045d4:	e3130c02 	tst	r3, #512	; 0x200
  1045d8:	0a00018a 	beq	104c08 <_vfprintf_r+0x13a8>
  1045dc:	e3130040 	tst	r3, #64	; 0x40
  1045e0:	1afffe0a 	bne	103e10 <_vfprintf_r+0x5b0>
  1045e4:	e59d0020 	ldr	r0, [sp, #32]
  1045e8:	e28ddf41 	add	sp, sp, #260	; 0x104
  1045ec:	ecbd8b06 	vpop	{d8-d10}
  1045f0:	e8bd8ff0 	pop	{r4, r5, r6, r7, r8, r9, sl, fp, pc}
  1045f4:	e3550065 	cmp	r5, #101	; 0x65
  1045f8:	da00009b 	ble	10486c <_vfprintf_r+0x100c>
  1045fc:	eeb58b40 	vcmp.f64	d8, #0.0
  104600:	eef1fa10 	vmrs	APSR_nzcv, fpscr
  104604:	1a000101 	bne	104a10 <_vfprintf_r+0x11b0>
  104608:	e59d3090 	ldr	r3, [sp, #144]	; 0x90
  10460c:	e2822001 	add	r2, r2, #1
  104610:	e58d2094 	str	r2, [sp, #148]	; 0x94
  104614:	e30c285c 	movw	r2, #51292	; 0xc85c
  104618:	e3402010 	movt	r2, #16
  10461c:	e2833001 	add	r3, r3, #1
  104620:	e5882000 	str	r2, [r8]
  104624:	e3530007 	cmp	r3, #7
  104628:	e3a02001 	mov	r2, #1
  10462c:	e5882004 	str	r2, [r8, #4]
  104630:	d2888008 	addle	r8, r8, #8
  104634:	e58d3090 	str	r3, [sp, #144]	; 0x90
  104638:	ca00030e 	bgt	105278 <_vfprintf_r+0x1a18>
  10463c:	e59d3074 	ldr	r3, [sp, #116]	; 0x74
  104640:	e59d2044 	ldr	r2, [sp, #68]	; 0x44
  104644:	e1530002 	cmp	r3, r2
  104648:	ba000002 	blt	104658 <_vfprintf_r+0xdf8>
  10464c:	e59d3018 	ldr	r3, [sp, #24]
  104650:	e3130001 	tst	r3, #1
  104654:	0a0002c4 	beq	10516c <_vfprintf_r+0x190c>
  104658:	e59d104c 	ldr	r1, [sp, #76]	; 0x4c
  10465c:	e59d3090 	ldr	r3, [sp, #144]	; 0x90
  104660:	e59d2094 	ldr	r2, [sp, #148]	; 0x94
  104664:	e5881000 	str	r1, [r8]
  104668:	e59d1048 	ldr	r1, [sp, #72]	; 0x48
  10466c:	e2833001 	add	r3, r3, #1
  104670:	e3530007 	cmp	r3, #7
  104674:	e58d3090 	str	r3, [sp, #144]	; 0x90
  104678:	e0812002 	add	r2, r1, r2
  10467c:	e5881004 	str	r1, [r8, #4]
  104680:	e58d2094 	str	r2, [sp, #148]	; 0x94
  104684:	d2888008 	addle	r8, r8, #8
  104688:	ca00033d 	bgt	105384 <_vfprintf_r+0x1b24>
  10468c:	e59d3044 	ldr	r3, [sp, #68]	; 0x44
  104690:	e2434001 	sub	r4, r3, #1
  104694:	e3540000 	cmp	r4, #0
  104698:	daffff81 	ble	1044a4 <_vfprintf_r+0xc44>
  10469c:	e3540010 	cmp	r4, #16
  1046a0:	e59d3090 	ldr	r3, [sp, #144]	; 0x90
  1046a4:	da00014d 	ble	104be0 <_vfprintf_r+0x1380>
  1046a8:	e3a05010 	mov	r5, #16
  1046ac:	e51f69f4 	ldr	r6, [pc, #-2548]	; 103cc0 <_vfprintf_r+0x460>
  1046b0:	e59da01c 	ldr	sl, [sp, #28]
  1046b4:	e59db024 	ldr	fp, [sp, #36]	; 0x24
  1046b8:	ea000002 	b	1046c8 <_vfprintf_r+0xe68>
  1046bc:	e2444010 	sub	r4, r4, #16
  1046c0:	e3540010 	cmp	r4, #16
  1046c4:	da000146 	ble	104be4 <_vfprintf_r+0x1384>
  1046c8:	e2833001 	add	r3, r3, #1
  1046cc:	e2822010 	add	r2, r2, #16
  1046d0:	e3530007 	cmp	r3, #7
  1046d4:	e5886000 	str	r6, [r8]
  1046d8:	e5885004 	str	r5, [r8, #4]
  1046dc:	d2888008 	addle	r8, r8, #8
  1046e0:	e58d3090 	str	r3, [sp, #144]	; 0x90
  1046e4:	e58d2094 	str	r2, [sp, #148]	; 0x94
  1046e8:	dafffff3 	ble	1046bc <_vfprintf_r+0xe5c>
  1046ec:	e28d208c 	add	r2, sp, #140	; 0x8c
  1046f0:	e1a0100b 	mov	r1, fp
  1046f4:	e1a0000a 	mov	r0, sl
  1046f8:	e28d80c0 	add	r8, sp, #192	; 0xc0
  1046fc:	eb0014bc 	bl	1099f4 <__sprint_r>
  104700:	e3500000 	cmp	r0, #0
  104704:	1a0001de 	bne	104e84 <_vfprintf_r+0x1624>
  104708:	e59d2094 	ldr	r2, [sp, #148]	; 0x94
  10470c:	e59d3090 	ldr	r3, [sp, #144]	; 0x90
  104710:	eaffffe9 	b	1046bc <_vfprintf_r+0xe5c>
  104714:	e1a02001 	mov	r2, r1
  104718:	e2063007 	and	r3, r6, #7
  10471c:	e1a061a6 	lsr	r6, r6, #3
  104720:	e2833030 	add	r3, r3, #48	; 0x30
  104724:	e1866e87 	orr	r6, r6, r7, lsl #29
  104728:	e1a071a7 	lsr	r7, r7, #3
  10472c:	e5423001 	strb	r3, [r2, #-1]
  104730:	e1961007 	orrs	r1, r6, r7
  104734:	e2421001 	sub	r1, r2, #1
  104738:	1afffff5 	bne	104714 <_vfprintf_r+0xeb4>
  10473c:	e3530030 	cmp	r3, #48	; 0x30
  104740:	03a03000 	moveq	r3, #0
  104744:	120a3001 	andne	r3, sl, #1
  104748:	e3530000 	cmp	r3, #0
  10474c:	0a0002fd 	beq	105348 <_vfprintf_r+0x1ae8>
  104750:	e2423002 	sub	r3, r2, #2
  104754:	e28d00c0 	add	r0, sp, #192	; 0xc0
  104758:	e1a02003 	mov	r2, r3
  10475c:	e58d3038 	str	r3, [sp, #56]	; 0x38
  104760:	e0402002 	sub	r2, r0, r2
  104764:	e3a03030 	mov	r3, #48	; 0x30
  104768:	e58da018 	str	sl, [sp, #24]
  10476c:	e58d202c 	str	r2, [sp, #44]	; 0x2c
  104770:	e5413001 	strb	r3, [r1, #-1]
  104774:	eafffd2c 	b	103c2c <_vfprintf_r+0x3cc>
  104778:	e1a0a005 	mov	sl, r5
  10477c:	eaffff90 	b	1045c4 <_vfprintf_r+0xd64>
  104780:	e59d3028 	ldr	r3, [sp, #40]	; 0x28
  104784:	e043a007 	sub	sl, r3, r7
  104788:	e35a0000 	cmp	sl, #0
  10478c:	dafffefc 	ble	104384 <_vfprintf_r+0xb24>
  104790:	e35a0010 	cmp	sl, #16
  104794:	e59d3090 	ldr	r3, [sp, #144]	; 0x90
  104798:	d51f6ae0 	ldrle	r6, [pc, #-2784]	; 103cc0 <_vfprintf_r+0x460>
  10479c:	da000021 	ble	104828 <_vfprintf_r+0xfc8>
  1047a0:	e58d5034 	str	r5, [sp, #52]	; 0x34
  1047a4:	e3a0b010 	mov	fp, #16
  1047a8:	e58d4054 	str	r4, [sp, #84]	; 0x54
  1047ac:	e1a01003 	mov	r1, r3
  1047b0:	e51f6af8 	ldr	r6, [pc, #-2808]	; 103cc0 <_vfprintf_r+0x460>
  1047b4:	e59d401c 	ldr	r4, [sp, #28]
  1047b8:	e59d5024 	ldr	r5, [sp, #36]	; 0x24
  1047bc:	ea000002 	b	1047cc <_vfprintf_r+0xf6c>
  1047c0:	e24aa010 	sub	sl, sl, #16
  1047c4:	e35a0010 	cmp	sl, #16
  1047c8:	da000013 	ble	10481c <_vfprintf_r+0xfbc>
  1047cc:	e2811001 	add	r1, r1, #1
  1047d0:	e2822010 	add	r2, r2, #16
  1047d4:	e3510007 	cmp	r1, #7
  1047d8:	e8880840 	stm	r8, {r6, fp}
  1047dc:	e58d1090 	str	r1, [sp, #144]	; 0x90
  1047e0:	d2888008 	addle	r8, r8, #8
  1047e4:	e58d2094 	str	r2, [sp, #148]	; 0x94
  1047e8:	dafffff4 	ble	1047c0 <_vfprintf_r+0xf60>
  1047ec:	e28d208c 	add	r2, sp, #140	; 0x8c
  1047f0:	e1a01005 	mov	r1, r5
  1047f4:	e1a00004 	mov	r0, r4
  1047f8:	e28d80c0 	add	r8, sp, #192	; 0xc0
  1047fc:	eb00147c 	bl	1099f4 <__sprint_r>
  104800:	e3500000 	cmp	r0, #0
  104804:	1affffdb 	bne	104778 <_vfprintf_r+0xf18>
  104808:	e24aa010 	sub	sl, sl, #16
  10480c:	e59d2094 	ldr	r2, [sp, #148]	; 0x94
  104810:	e35a0010 	cmp	sl, #16
  104814:	e59d1090 	ldr	r1, [sp, #144]	; 0x90
  104818:	caffffeb 	bgt	1047cc <_vfprintf_r+0xf6c>
  10481c:	e59d5034 	ldr	r5, [sp, #52]	; 0x34
  104820:	e1a03001 	mov	r3, r1
  104824:	e59d4054 	ldr	r4, [sp, #84]	; 0x54
  104828:	e2833001 	add	r3, r3, #1
  10482c:	e082200a 	add	r2, r2, sl
  104830:	e3530007 	cmp	r3, #7
  104834:	e8880440 	stm	r8, {r6, sl}
  104838:	e58d3090 	str	r3, [sp, #144]	; 0x90
  10483c:	d2888008 	addle	r8, r8, #8
  104840:	e58d2094 	str	r2, [sp, #148]	; 0x94
  104844:	dafffece 	ble	104384 <_vfprintf_r+0xb24>
  104848:	e28d208c 	add	r2, sp, #140	; 0x8c
  10484c:	e59d1024 	ldr	r1, [sp, #36]	; 0x24
  104850:	e59d001c 	ldr	r0, [sp, #28]
  104854:	eb001466 	bl	1099f4 <__sprint_r>
  104858:	e3500000 	cmp	r0, #0
  10485c:	1a000044 	bne	104974 <_vfprintf_r+0x1114>
  104860:	e59d2094 	ldr	r2, [sp, #148]	; 0x94
  104864:	e28d80c0 	add	r8, sp, #192	; 0xc0
  104868:	eafffec5 	b	104384 <_vfprintf_r+0xb24>
  10486c:	e59d3044 	ldr	r3, [sp, #68]	; 0x44
  104870:	e3530001 	cmp	r3, #1
  104874:	da00013f 	ble	104d78 <_vfprintf_r+0x1518>
  104878:	e59d3090 	ldr	r3, [sp, #144]	; 0x90
  10487c:	e3a01001 	mov	r1, #1
  104880:	e59d0038 	ldr	r0, [sp, #56]	; 0x38
  104884:	e2822001 	add	r2, r2, #1
  104888:	e5881004 	str	r1, [r8, #4]
  10488c:	e0833001 	add	r3, r3, r1
  104890:	e58d2094 	str	r2, [sp, #148]	; 0x94
  104894:	e3530007 	cmp	r3, #7
  104898:	e5880000 	str	r0, [r8]
  10489c:	e58d3090 	str	r3, [sp, #144]	; 0x90
  1048a0:	d2888008 	addle	r8, r8, #8
  1048a4:	ca00014b 	bgt	104dd8 <_vfprintf_r+0x1578>
  1048a8:	e59d1048 	ldr	r1, [sp, #72]	; 0x48
  1048ac:	e2833001 	add	r3, r3, #1
  1048b0:	e59d004c 	ldr	r0, [sp, #76]	; 0x4c
  1048b4:	e3530007 	cmp	r3, #7
  1048b8:	e58d3090 	str	r3, [sp, #144]	; 0x90
  1048bc:	e0812002 	add	r2, r1, r2
  1048c0:	e8880003 	stm	r8, {r0, r1}
  1048c4:	d2888008 	addle	r8, r8, #8
  1048c8:	e58d2094 	str	r2, [sp, #148]	; 0x94
  1048cc:	ca000159 	bgt	104e38 <_vfprintf_r+0x15d8>
  1048d0:	eeb58b40 	vcmp.f64	d8, #0.0
  1048d4:	eef1fa10 	vmrs	APSR_nzcv, fpscr
  1048d8:	0a000086 	beq	104af8 <_vfprintf_r+0x1298>
  1048dc:	e59d1044 	ldr	r1, [sp, #68]	; 0x44
  1048e0:	e2833001 	add	r3, r3, #1
  1048e4:	e59d0038 	ldr	r0, [sp, #56]	; 0x38
  1048e8:	e3530007 	cmp	r3, #7
  1048ec:	e58d3090 	str	r3, [sp, #144]	; 0x90
  1048f0:	e2411001 	sub	r1, r1, #1
  1048f4:	e2800001 	add	r0, r0, #1
  1048f8:	e0822001 	add	r2, r2, r1
  1048fc:	e5880000 	str	r0, [r8]
  104900:	e58d2094 	str	r2, [sp, #148]	; 0x94
  104904:	e5881004 	str	r1, [r8, #4]
  104908:	ca000128 	bgt	104db0 <_vfprintf_r+0x1550>
  10490c:	e2888008 	add	r8, r8, #8
  104910:	e59d0060 	ldr	r0, [sp, #96]	; 0x60
  104914:	e2833001 	add	r3, r3, #1
  104918:	e3530007 	cmp	r3, #7
  10491c:	e28d107c 	add	r1, sp, #124	; 0x7c
  104920:	e58d3090 	str	r3, [sp, #144]	; 0x90
  104924:	e0802002 	add	r2, r0, r2
  104928:	e1a03000 	mov	r3, r0
  10492c:	e58d2094 	str	r2, [sp, #148]	; 0x94
  104930:	e888000a 	stm	r8, {r1, r3}
  104934:	dafffed9 	ble	1044a0 <_vfprintf_r+0xc40>
  104938:	e28d208c 	add	r2, sp, #140	; 0x8c
  10493c:	e59d1024 	ldr	r1, [sp, #36]	; 0x24
  104940:	e59d001c 	ldr	r0, [sp, #28]
  104944:	eb00142a 	bl	1099f4 <__sprint_r>
  104948:	e3500000 	cmp	r0, #0
  10494c:	1a000008 	bne	104974 <_vfprintf_r+0x1114>
  104950:	e59d2094 	ldr	r2, [sp, #148]	; 0x94
  104954:	e28d80c0 	add	r8, sp, #192	; 0xc0
  104958:	eafffed1 	b	1044a4 <_vfprintf_r+0xc44>
  10495c:	e28d208c 	add	r2, sp, #140	; 0x8c
  104960:	e59d1024 	ldr	r1, [sp, #36]	; 0x24
  104964:	e59d001c 	ldr	r0, [sp, #28]
  104968:	eb001421 	bl	1099f4 <__sprint_r>
  10496c:	e3500000 	cmp	r0, #0
  104970:	0affff09 	beq	10459c <_vfprintf_r+0xd3c>
  104974:	e59da024 	ldr	sl, [sp, #36]	; 0x24
  104978:	eaffff11 	b	1045c4 <_vfprintf_r+0xd64>
  10497c:	e58d302c 	str	r3, [sp, #44]	; 0x2c
  104980:	e28d30c0 	add	r3, sp, #192	; 0xc0
  104984:	e58d3038 	str	r3, [sp, #56]	; 0x38
  104988:	eafffca7 	b	103c2c <_vfprintf_r+0x3cc>
  10498c:	e3520001 	cmp	r2, #1
  104990:	e1a0a001 	mov	sl, r1
  104994:	1afffd57 	bne	103ef8 <_vfprintf_r+0x698>
  104998:	e3570000 	cmp	r7, #0
  10499c:	03560009 	cmpeq	r6, #9
  1049a0:	8a000139 	bhi	104e8c <_vfprintf_r+0x162c>
  1049a4:	e28d3c01 	add	r3, sp, #256	; 0x100
  1049a8:	e2866030 	add	r6, r6, #48	; 0x30
  1049ac:	e5636041 	strb	r6, [r3, #-65]!	; 0xffffffbf
  1049b0:	e58da018 	str	sl, [sp, #24]
  1049b4:	e58d202c 	str	r2, [sp, #44]	; 0x2c
  1049b8:	e58d3038 	str	r3, [sp, #56]	; 0x38
  1049bc:	eafffc9a 	b	103c2c <_vfprintf_r+0x3cc>
  1049c0:	e28d208c 	add	r2, sp, #140	; 0x8c
  1049c4:	e59d1024 	ldr	r1, [sp, #36]	; 0x24
  1049c8:	e59d001c 	ldr	r0, [sp, #28]
  1049cc:	eb001408 	bl	1099f4 <__sprint_r>
  1049d0:	e3500000 	cmp	r0, #0
  1049d4:	1affffe6 	bne	104974 <_vfprintf_r+0x1114>
  1049d8:	e59d2094 	ldr	r2, [sp, #148]	; 0x94
  1049dc:	e28d80c0 	add	r8, sp, #192	; 0xc0
  1049e0:	eafffe56 	b	104340 <_vfprintf_r+0xae0>
  1049e4:	e28d208c 	add	r2, sp, #140	; 0x8c
  1049e8:	e59d1024 	ldr	r1, [sp, #36]	; 0x24
  1049ec:	e59d001c 	ldr	r0, [sp, #28]
  1049f0:	eb0013ff 	bl	1099f4 <__sprint_r>
  1049f4:	e3500000 	cmp	r0, #0
  1049f8:	1affffdd 	bne	104974 <_vfprintf_r+0x1114>
  1049fc:	e59d2094 	ldr	r2, [sp, #148]	; 0x94
  104a00:	e28d80c0 	add	r8, sp, #192	; 0xc0
  104a04:	eafffe5b 	b	104378 <_vfprintf_r+0xb18>
  104a08:	e3a02002 	mov	r2, #2
  104a0c:	eafffc6f 	b	103bd0 <_vfprintf_r+0x370>
  104a10:	e59d4074 	ldr	r4, [sp, #116]	; 0x74
  104a14:	e3540000 	cmp	r4, #0
  104a18:	da00021e 	ble	105298 <_vfprintf_r+0x1a38>
  104a1c:	e59d3040 	ldr	r3, [sp, #64]	; 0x40
  104a20:	e59d1044 	ldr	r1, [sp, #68]	; 0x44
  104a24:	e1530001 	cmp	r3, r1
  104a28:	b1a04003 	movlt	r4, r3
  104a2c:	a1a04001 	movge	r4, r1
  104a30:	e3540000 	cmp	r4, #0
  104a34:	da00000a 	ble	104a64 <_vfprintf_r+0x1204>
  104a38:	e59d3090 	ldr	r3, [sp, #144]	; 0x90
  104a3c:	e0822004 	add	r2, r2, r4
  104a40:	e59d1038 	ldr	r1, [sp, #56]	; 0x38
  104a44:	e5884004 	str	r4, [r8, #4]
  104a48:	e2833001 	add	r3, r3, #1
  104a4c:	e58d2094 	str	r2, [sp, #148]	; 0x94
  104a50:	e3530007 	cmp	r3, #7
  104a54:	e5881000 	str	r1, [r8]
  104a58:	e58d3090 	str	r3, [sp, #144]	; 0x90
  104a5c:	d2888008 	addle	r8, r8, #8
  104a60:	ca000293 	bgt	1054b4 <_vfprintf_r+0x1c54>
  104a64:	e59d3040 	ldr	r3, [sp, #64]	; 0x40
  104a68:	e3540000 	cmp	r4, #0
  104a6c:	a0433004 	subge	r3, r3, r4
  104a70:	e3530000 	cmp	r3, #0
  104a74:	e1a04003 	mov	r4, r3
  104a78:	da000077 	ble	104c5c <_vfprintf_r+0x13fc>
  104a7c:	e3540010 	cmp	r4, #16
  104a80:	e59d3090 	ldr	r3, [sp, #144]	; 0x90
  104a84:	d51f6dcc 	ldrle	r6, [pc, #-3532]	; 103cc0 <_vfprintf_r+0x460>
  104a88:	da000062 	ble	104c18 <_vfprintf_r+0x13b8>
  104a8c:	e3a05010 	mov	r5, #16
  104a90:	e51f6dd8 	ldr	r6, [pc, #-3544]	; 103cc0 <_vfprintf_r+0x460>
  104a94:	e59da01c 	ldr	sl, [sp, #28]
  104a98:	e59db024 	ldr	fp, [sp, #36]	; 0x24
  104a9c:	ea000002 	b	104aac <_vfprintf_r+0x124c>
  104aa0:	e2444010 	sub	r4, r4, #16
  104aa4:	e3540010 	cmp	r4, #16
  104aa8:	da00005a 	ble	104c18 <_vfprintf_r+0x13b8>
  104aac:	e2833001 	add	r3, r3, #1
  104ab0:	e2822010 	add	r2, r2, #16
  104ab4:	e3530007 	cmp	r3, #7
  104ab8:	e5886000 	str	r6, [r8]
  104abc:	e5885004 	str	r5, [r8, #4]
  104ac0:	d2888008 	addle	r8, r8, #8
  104ac4:	e58d3090 	str	r3, [sp, #144]	; 0x90
  104ac8:	e58d2094 	str	r2, [sp, #148]	; 0x94
  104acc:	dafffff3 	ble	104aa0 <_vfprintf_r+0x1240>
  104ad0:	e28d208c 	add	r2, sp, #140	; 0x8c
  104ad4:	e1a0100b 	mov	r1, fp
  104ad8:	e1a0000a 	mov	r0, sl
  104adc:	e28d80c0 	add	r8, sp, #192	; 0xc0
  104ae0:	eb0013c3 	bl	1099f4 <__sprint_r>
  104ae4:	e3500000 	cmp	r0, #0
  104ae8:	1a0000e5 	bne	104e84 <_vfprintf_r+0x1624>
  104aec:	e59d2094 	ldr	r2, [sp, #148]	; 0x94
  104af0:	e59d3090 	ldr	r3, [sp, #144]	; 0x90
  104af4:	eaffffe9 	b	104aa0 <_vfprintf_r+0x1240>
  104af8:	e59d1044 	ldr	r1, [sp, #68]	; 0x44
  104afc:	e2414001 	sub	r4, r1, #1
  104b00:	e3540000 	cmp	r4, #0
  104b04:	daffff81 	ble	104910 <_vfprintf_r+0x10b0>
  104b08:	e3540010 	cmp	r4, #16
  104b0c:	e51f6e54 	ldr	r6, [pc, #-3668]	; 103cc0 <_vfprintf_r+0x460>
  104b10:	da0000d2 	ble	104e60 <_vfprintf_r+0x1600>
  104b14:	e3a05010 	mov	r5, #16
  104b18:	e59da01c 	ldr	sl, [sp, #28]
  104b1c:	e59db024 	ldr	fp, [sp, #36]	; 0x24
  104b20:	ea000002 	b	104b30 <_vfprintf_r+0x12d0>
  104b24:	e2444010 	sub	r4, r4, #16
  104b28:	e3540010 	cmp	r4, #16
  104b2c:	da0000cb 	ble	104e60 <_vfprintf_r+0x1600>
  104b30:	e2833001 	add	r3, r3, #1
  104b34:	e2822010 	add	r2, r2, #16
  104b38:	e3530007 	cmp	r3, #7
  104b3c:	e5886000 	str	r6, [r8]
  104b40:	e5885004 	str	r5, [r8, #4]
  104b44:	d2888008 	addle	r8, r8, #8
  104b48:	e58d3090 	str	r3, [sp, #144]	; 0x90
  104b4c:	e58d2094 	str	r2, [sp, #148]	; 0x94
  104b50:	dafffff3 	ble	104b24 <_vfprintf_r+0x12c4>
  104b54:	e28d208c 	add	r2, sp, #140	; 0x8c
  104b58:	e1a0100b 	mov	r1, fp
  104b5c:	e1a0000a 	mov	r0, sl
  104b60:	e28d80c0 	add	r8, sp, #192	; 0xc0
  104b64:	eb0013a2 	bl	1099f4 <__sprint_r>
  104b68:	e3500000 	cmp	r0, #0
  104b6c:	1a0000c4 	bne	104e84 <_vfprintf_r+0x1624>
  104b70:	e59d2094 	ldr	r2, [sp, #148]	; 0x94
  104b74:	e59d3090 	ldr	r3, [sp, #144]	; 0x90
  104b78:	eaffffe9 	b	104b24 <_vfprintf_r+0x12c4>
  104b7c:	e59d3030 	ldr	r3, [sp, #48]	; 0x30
  104b80:	e1a02007 	mov	r2, r7
  104b84:	e3a07000 	mov	r7, #0
  104b88:	e5936000 	ldr	r6, [r3]
  104b8c:	e2833004 	add	r3, r3, #4
  104b90:	e58d3030 	str	r3, [sp, #48]	; 0x30
  104b94:	eafffc0d 	b	103bd0 <_vfprintf_r+0x370>
  104b98:	e5936000 	ldr	r6, [r3]
  104b9c:	e2833004 	add	r3, r3, #4
  104ba0:	e58d3030 	str	r3, [sp, #48]	; 0x30
  104ba4:	e1a02006 	mov	r2, r6
  104ba8:	e1a07fc6 	asr	r7, r6, #31
  104bac:	e1a03007 	mov	r3, r7
  104bb0:	eafffcc7 	b	103ed4 <_vfprintf_r+0x674>
  104bb4:	e5936000 	ldr	r6, [r3]
  104bb8:	e2833004 	add	r3, r3, #4
  104bbc:	e58d3030 	str	r3, [sp, #48]	; 0x30
  104bc0:	e3a07000 	mov	r7, #0
  104bc4:	eafffd26 	b	104064 <_vfprintf_r+0x804>
  104bc8:	e5936000 	ldr	r6, [r3]
  104bcc:	e2833004 	add	r3, r3, #4
  104bd0:	e3a02001 	mov	r2, #1
  104bd4:	e58d3030 	str	r3, [sp, #48]	; 0x30
  104bd8:	e3a07000 	mov	r7, #0
  104bdc:	eafffbfb 	b	103bd0 <_vfprintf_r+0x370>
  104be0:	e51f6f28 	ldr	r6, [pc, #-3880]	; 103cc0 <_vfprintf_r+0x460>
  104be4:	e2833001 	add	r3, r3, #1
  104be8:	e0822004 	add	r2, r2, r4
  104bec:	e3530007 	cmp	r3, #7
  104bf0:	e58d3090 	str	r3, [sp, #144]	; 0x90
  104bf4:	e58d2094 	str	r2, [sp, #148]	; 0x94
  104bf8:	e5886000 	str	r6, [r8]
  104bfc:	e5884004 	str	r4, [r8, #4]
  104c00:	dafffe26 	ble	1044a0 <_vfprintf_r+0xc40>
  104c04:	eaffff4b 	b	104938 <_vfprintf_r+0x10d8>
  104c08:	e28a0058 	add	r0, sl, #88	; 0x58
  104c0c:	eb001c92 	bl	10be5c <__generic_gxx_recursive_mutex_unlock>
  104c10:	e1da30bc 	ldrh	r3, [sl, #12]
  104c14:	eafffe70 	b	1045dc <_vfprintf_r+0xd7c>
  104c18:	e2833001 	add	r3, r3, #1
  104c1c:	e0822004 	add	r2, r2, r4
  104c20:	e3530007 	cmp	r3, #7
  104c24:	e5886000 	str	r6, [r8]
  104c28:	e5884004 	str	r4, [r8, #4]
  104c2c:	d2888008 	addle	r8, r8, #8
  104c30:	e58d3090 	str	r3, [sp, #144]	; 0x90
  104c34:	e58d2094 	str	r2, [sp, #148]	; 0x94
  104c38:	da000007 	ble	104c5c <_vfprintf_r+0x13fc>
  104c3c:	e28d208c 	add	r2, sp, #140	; 0x8c
  104c40:	e59d1024 	ldr	r1, [sp, #36]	; 0x24
  104c44:	e59d001c 	ldr	r0, [sp, #28]
  104c48:	eb001369 	bl	1099f4 <__sprint_r>
  104c4c:	e3500000 	cmp	r0, #0
  104c50:	1affff47 	bne	104974 <_vfprintf_r+0x1114>
  104c54:	e59d2094 	ldr	r2, [sp, #148]	; 0x94
  104c58:	e28d80c0 	add	r8, sp, #192	; 0xc0
  104c5c:	e59d1074 	ldr	r1, [sp, #116]	; 0x74
  104c60:	e59d3044 	ldr	r3, [sp, #68]	; 0x44
  104c64:	e1510003 	cmp	r1, r3
  104c68:	aa00013b 	bge	10515c <_vfprintf_r+0x18fc>
  104c6c:	e59d3090 	ldr	r3, [sp, #144]	; 0x90
  104c70:	e59d0048 	ldr	r0, [sp, #72]	; 0x48
  104c74:	e59dc04c 	ldr	ip, [sp, #76]	; 0x4c
  104c78:	e2833001 	add	r3, r3, #1
  104c7c:	e3530007 	cmp	r3, #7
  104c80:	e0822000 	add	r2, r2, r0
  104c84:	e588c000 	str	ip, [r8]
  104c88:	e5880004 	str	r0, [r8, #4]
  104c8c:	d2888008 	addle	r8, r8, #8
  104c90:	e58d2094 	str	r2, [sp, #148]	; 0x94
  104c94:	e58d3090 	str	r3, [sp, #144]	; 0x90
  104c98:	ca000141 	bgt	1051a4 <_vfprintf_r+0x1944>
  104c9c:	e59d3044 	ldr	r3, [sp, #68]	; 0x44
  104ca0:	e59dc040 	ldr	ip, [sp, #64]	; 0x40
  104ca4:	e0431001 	sub	r1, r3, r1
  104ca8:	e043400c 	sub	r4, r3, ip
  104cac:	e1540001 	cmp	r4, r1
  104cb0:	a1a04001 	movge	r4, r1
  104cb4:	e3540000 	cmp	r4, #0
  104cb8:	da00000b 	ble	104cec <_vfprintf_r+0x148c>
  104cbc:	e59de038 	ldr	lr, [sp, #56]	; 0x38
  104cc0:	e0822004 	add	r2, r2, r4
  104cc4:	e59d0090 	ldr	r0, [sp, #144]	; 0x90
  104cc8:	e5884004 	str	r4, [r8, #4]
  104ccc:	e08e300c 	add	r3, lr, ip
  104cd0:	e58d2094 	str	r2, [sp, #148]	; 0x94
  104cd4:	e5883000 	str	r3, [r8]
  104cd8:	e2803001 	add	r3, r0, #1
  104cdc:	e3530007 	cmp	r3, #7
  104ce0:	e58d3090 	str	r3, [sp, #144]	; 0x90
  104ce4:	d2888008 	addle	r8, r8, #8
  104ce8:	ca000121 	bgt	105174 <_vfprintf_r+0x1914>
  104cec:	e3540000 	cmp	r4, #0
  104cf0:	a0414004 	subge	r4, r1, r4
  104cf4:	b1a04001 	movlt	r4, r1
  104cf8:	e3540000 	cmp	r4, #0
  104cfc:	dafffde8 	ble	1044a4 <_vfprintf_r+0xc44>
  104d00:	e3540010 	cmp	r4, #16
  104d04:	e59d3090 	ldr	r3, [sp, #144]	; 0x90
  104d08:	daffffb4 	ble	104be0 <_vfprintf_r+0x1380>
  104d0c:	e3a05010 	mov	r5, #16
  104d10:	e59f6a74 	ldr	r6, [pc, #2676]	; 10578c <_vfprintf_r+0x1f2c>
  104d14:	e59da01c 	ldr	sl, [sp, #28]
  104d18:	e59db024 	ldr	fp, [sp, #36]	; 0x24
  104d1c:	ea000002 	b	104d2c <_vfprintf_r+0x14cc>
  104d20:	e2444010 	sub	r4, r4, #16
  104d24:	e3540010 	cmp	r4, #16
  104d28:	daffffad 	ble	104be4 <_vfprintf_r+0x1384>
  104d2c:	e2833001 	add	r3, r3, #1
  104d30:	e2822010 	add	r2, r2, #16
  104d34:	e3530007 	cmp	r3, #7
  104d38:	e5886000 	str	r6, [r8]
  104d3c:	e5885004 	str	r5, [r8, #4]
  104d40:	d2888008 	addle	r8, r8, #8
  104d44:	e58d3090 	str	r3, [sp, #144]	; 0x90
  104d48:	e58d2094 	str	r2, [sp, #148]	; 0x94
  104d4c:	dafffff3 	ble	104d20 <_vfprintf_r+0x14c0>
  104d50:	e28d208c 	add	r2, sp, #140	; 0x8c
  104d54:	e1a0100b 	mov	r1, fp
  104d58:	e1a0000a 	mov	r0, sl
  104d5c:	e28d80c0 	add	r8, sp, #192	; 0xc0
  104d60:	eb001323 	bl	1099f4 <__sprint_r>
  104d64:	e3500000 	cmp	r0, #0
  104d68:	1a000045 	bne	104e84 <_vfprintf_r+0x1624>
  104d6c:	e59d2094 	ldr	r2, [sp, #148]	; 0x94
  104d70:	e59d3090 	ldr	r3, [sp, #144]	; 0x90
  104d74:	eaffffe9 	b	104d20 <_vfprintf_r+0x14c0>
  104d78:	e59d3018 	ldr	r3, [sp, #24]
  104d7c:	e3130001 	tst	r3, #1
  104d80:	1afffebc 	bne	104878 <_vfprintf_r+0x1018>
  104d84:	e59d3090 	ldr	r3, [sp, #144]	; 0x90
  104d88:	e3a01001 	mov	r1, #1
  104d8c:	e59d0038 	ldr	r0, [sp, #56]	; 0x38
  104d90:	e2822001 	add	r2, r2, #1
  104d94:	e58d2094 	str	r2, [sp, #148]	; 0x94
  104d98:	e0833001 	add	r3, r3, r1
  104d9c:	e5881004 	str	r1, [r8, #4]
  104da0:	e3530007 	cmp	r3, #7
  104da4:	e5880000 	str	r0, [r8]
  104da8:	e58d3090 	str	r3, [sp, #144]	; 0x90
  104dac:	dafffed6 	ble	10490c <_vfprintf_r+0x10ac>
  104db0:	e28d208c 	add	r2, sp, #140	; 0x8c
  104db4:	e59d1024 	ldr	r1, [sp, #36]	; 0x24
  104db8:	e59d001c 	ldr	r0, [sp, #28]
  104dbc:	eb00130c 	bl	1099f4 <__sprint_r>
  104dc0:	e3500000 	cmp	r0, #0
  104dc4:	1afffeea 	bne	104974 <_vfprintf_r+0x1114>
  104dc8:	e59d2094 	ldr	r2, [sp, #148]	; 0x94
  104dcc:	e28d80c0 	add	r8, sp, #192	; 0xc0
  104dd0:	e59d3090 	ldr	r3, [sp, #144]	; 0x90
  104dd4:	eafffecd 	b	104910 <_vfprintf_r+0x10b0>
  104dd8:	e28d208c 	add	r2, sp, #140	; 0x8c
  104ddc:	e59d1024 	ldr	r1, [sp, #36]	; 0x24
  104de0:	e59d001c 	ldr	r0, [sp, #28]
  104de4:	eb001302 	bl	1099f4 <__sprint_r>
  104de8:	e3500000 	cmp	r0, #0
  104dec:	1afffee0 	bne	104974 <_vfprintf_r+0x1114>
  104df0:	e59d2094 	ldr	r2, [sp, #148]	; 0x94
  104df4:	e28d80c0 	add	r8, sp, #192	; 0xc0
  104df8:	e59d3090 	ldr	r3, [sp, #144]	; 0x90
  104dfc:	eafffea9 	b	1048a8 <_vfprintf_r+0x1048>
  104e00:	e2833007 	add	r3, r3, #7
  104e04:	e3c31007 	bic	r1, r3, #7
  104e08:	e1c120d0 	ldrd	r2, [r1]
  104e0c:	e2811008 	add	r1, r1, #8
  104e10:	e58d1030 	str	r1, [sp, #48]	; 0x30
  104e14:	e1a06002 	mov	r6, r2
  104e18:	e1a07003 	mov	r7, r3
  104e1c:	eafffc2c 	b	103ed4 <_vfprintf_r+0x674>
  104e20:	e2833007 	add	r3, r3, #7
  104e24:	e3c33007 	bic	r3, r3, #7
  104e28:	e2832008 	add	r2, r3, #8
  104e2c:	e1c360d0 	ldrd	r6, [r3]
  104e30:	e58d2030 	str	r2, [sp, #48]	; 0x30
  104e34:	eafffc8a 	b	104064 <_vfprintf_r+0x804>
  104e38:	e28d208c 	add	r2, sp, #140	; 0x8c
  104e3c:	e59d1024 	ldr	r1, [sp, #36]	; 0x24
  104e40:	e59d001c 	ldr	r0, [sp, #28]
  104e44:	eb0012ea 	bl	1099f4 <__sprint_r>
  104e48:	e3500000 	cmp	r0, #0
  104e4c:	1afffec8 	bne	104974 <_vfprintf_r+0x1114>
  104e50:	e59d2094 	ldr	r2, [sp, #148]	; 0x94
  104e54:	e28d80c0 	add	r8, sp, #192	; 0xc0
  104e58:	e59d3090 	ldr	r3, [sp, #144]	; 0x90
  104e5c:	eafffe9b 	b	1048d0 <_vfprintf_r+0x1070>
  104e60:	e2833001 	add	r3, r3, #1
  104e64:	e0822004 	add	r2, r2, r4
  104e68:	e3530007 	cmp	r3, #7
  104e6c:	e58d3090 	str	r3, [sp, #144]	; 0x90
  104e70:	e58d2094 	str	r2, [sp, #148]	; 0x94
  104e74:	e5886000 	str	r6, [r8]
  104e78:	e5884004 	str	r4, [r8, #4]
  104e7c:	dafffea2 	ble	10490c <_vfprintf_r+0x10ac>
  104e80:	eaffffca 	b	104db0 <_vfprintf_r+0x1550>
  104e84:	e1a0a00b 	mov	sl, fp
  104e88:	eafffdcd 	b	1045c4 <_vfprintf_r+0xd64>
  104e8c:	e28d30c0 	add	r3, sp, #192	; 0xc0
  104e90:	e58db018 	str	fp, [sp, #24]
  104e94:	e1a0b008 	mov	fp, r8
  104e98:	e1a08004 	mov	r8, r4
  104e9c:	e1a04003 	mov	r4, r3
  104ea0:	e1a00006 	mov	r0, r6
  104ea4:	e1a01007 	mov	r1, r7
  104ea8:	e3a0200a 	mov	r2, #10
  104eac:	e3a03000 	mov	r3, #0
  104eb0:	eb001b84 	bl	10bcc8 <__aeabi_uldivmod>
  104eb4:	e2822030 	add	r2, r2, #48	; 0x30
  104eb8:	e1a00006 	mov	r0, r6
  104ebc:	e1a01007 	mov	r1, r7
  104ec0:	e5642001 	strb	r2, [r4, #-1]!
  104ec4:	e3a03000 	mov	r3, #0
  104ec8:	e3a0200a 	mov	r2, #10
  104ecc:	eb001b7d 	bl	10bcc8 <__aeabi_uldivmod>
  104ed0:	e1a06000 	mov	r6, r0
  104ed4:	e1a07001 	mov	r7, r1
  104ed8:	e1963007 	orrs	r3, r6, r7
  104edc:	1affffef 	bne	104ea0 <_vfprintf_r+0x1640>
  104ee0:	e1a03004 	mov	r3, r4
  104ee4:	e28d20c0 	add	r2, sp, #192	; 0xc0
  104ee8:	e0423003 	sub	r3, r2, r3
  104eec:	e58d4038 	str	r4, [sp, #56]	; 0x38
  104ef0:	e58d302c 	str	r3, [sp, #44]	; 0x2c
  104ef4:	e1a04008 	mov	r4, r8
  104ef8:	e1a0800b 	mov	r8, fp
  104efc:	e59db018 	ldr	fp, [sp, #24]
  104f00:	e58da018 	str	sl, [sp, #24]
  104f04:	eafffb48 	b	103c2c <_vfprintf_r+0x3cc>
  104f08:	e3a0b02d 	mov	fp, #45	; 0x2d
  104f0c:	e2766000 	rsbs	r6, r6, #0
  104f10:	e2e77000 	rsc	r7, r7, #0
  104f14:	e5cdb06f 	strb	fp, [sp, #111]	; 0x6f
  104f18:	e3a02001 	mov	r2, #1
  104f1c:	eafffb2e 	b	103bdc <_vfprintf_r+0x37c>
  104f20:	eeb48b48 	vcmp.f64	d8, d8
  104f24:	eef1fa10 	vmrs	APSR_nzcv, fpscr
  104f28:	6a0001e9 	bvs	1056d4 <_vfprintf_r+0x1e74>
  104f2c:	e3740001 	cmn	r4, #1
  104f30:	e3c57020 	bic	r7, r5, #32
  104f34:	03a04006 	moveq	r4, #6
  104f38:	0a0000a3 	beq	1051cc <_vfprintf_r+0x196c>
  104f3c:	e3570047 	cmp	r7, #71	; 0x47
  104f40:	03540000 	cmpeq	r4, #0
  104f44:	1a0000a0 	bne	1051cc <_vfprintf_r+0x196c>
  104f48:	ee183a90 	vmov	r3, s17
  104f4c:	e38a2c01 	orr	r2, sl, #256	; 0x100
  104f50:	e3530000 	cmp	r3, #0
  104f54:	e58d2018 	str	r2, [sp, #24]
  104f58:	ba00016b 	blt	10550c <_vfprintf_r+0x1cac>
  104f5c:	eeb0ab48 	vmov.f64	d10, d8
  104f60:	e3a07047 	mov	r7, #71	; 0x47
  104f64:	e3a0b000 	mov	fp, #0
  104f68:	e3a04001 	mov	r4, #1
  104f6c:	e28d2074 	add	r2, sp, #116	; 0x74
  104f70:	e3a03002 	mov	r3, #2
  104f74:	e28d0084 	add	r0, sp, #132	; 0x84
  104f78:	e28d1078 	add	r1, sp, #120	; 0x78
  104f7c:	e58d0010 	str	r0, [sp, #16]
  104f80:	e58d2008 	str	r2, [sp, #8]
  104f84:	e58d3000 	str	r3, [sp]
  104f88:	e58d4004 	str	r4, [sp, #4]
  104f8c:	e59d001c 	ldr	r0, [sp, #28]
  104f90:	e58d100c 	str	r1, [sp, #12]
  104f94:	ec532b1a 	vmov	r2, r3, d10
  104f98:	eb000300 	bl	105ba0 <_dtoa_r>
  104f9c:	e3570047 	cmp	r7, #71	; 0x47
  104fa0:	e58d0038 	str	r0, [sp, #56]	; 0x38
  104fa4:	1a0001f4 	bne	10577c <_vfprintf_r+0x1f1c>
  104fa8:	e31a0001 	tst	sl, #1
  104fac:	0a000184 	beq	1055c4 <_vfprintf_r+0x1d64>
  104fb0:	e59d3038 	ldr	r3, [sp, #56]	; 0x38
  104fb4:	e0836004 	add	r6, r3, r4
  104fb8:	eeb5ab40 	vcmp.f64	d10, #0.0
  104fbc:	eef1fa10 	vmrs	APSR_nzcv, fpscr
  104fc0:	01a03006 	moveq	r3, r6
  104fc4:	0a000009 	beq	104ff0 <_vfprintf_r+0x1790>
  104fc8:	e59d3084 	ldr	r3, [sp, #132]	; 0x84
  104fcc:	e1530006 	cmp	r3, r6
  104fd0:	2a000006 	bcs	104ff0 <_vfprintf_r+0x1790>
  104fd4:	e3a01030 	mov	r1, #48	; 0x30
  104fd8:	e2832001 	add	r2, r3, #1
  104fdc:	e58d2084 	str	r2, [sp, #132]	; 0x84
  104fe0:	e5c31000 	strb	r1, [r3]
  104fe4:	e59d3084 	ldr	r3, [sp, #132]	; 0x84
  104fe8:	e1560003 	cmp	r6, r3
  104fec:	8afffff9 	bhi	104fd8 <_vfprintf_r+0x1778>
  104ff0:	e59d2038 	ldr	r2, [sp, #56]	; 0x38
  104ff4:	e3570047 	cmp	r7, #71	; 0x47
  104ff8:	e0433002 	sub	r3, r3, r2
  104ffc:	e58d3044 	str	r3, [sp, #68]	; 0x44
  105000:	e59d3074 	ldr	r3, [sp, #116]	; 0x74
  105004:	1a000116 	bne	105464 <_vfprintf_r+0x1c04>
  105008:	e3730003 	cmn	r3, #3
  10500c:	e1a02003 	mov	r2, r3
  105010:	e58d3040 	str	r3, [sp, #64]	; 0x40
  105014:	a3a03000 	movge	r3, #0
  105018:	b3a03001 	movlt	r3, #1
  10501c:	e1520004 	cmp	r2, r4
  105020:	d1a04003 	movle	r4, r3
  105024:	c3834001 	orrgt	r4, r3, #1
  105028:	e3540000 	cmp	r4, #0
  10502c:	12455002 	subne	r5, r5, #2
  105030:	0a0000fc 	beq	105428 <_vfprintf_r+0x1bc8>
  105034:	e59d3040 	ldr	r3, [sp, #64]	; 0x40
  105038:	e5cd507c 	strb	r5, [sp, #124]	; 0x7c
  10503c:	e2433001 	sub	r3, r3, #1
  105040:	e3530000 	cmp	r3, #0
  105044:	e58d3074 	str	r3, [sp, #116]	; 0x74
  105048:	b59d3040 	ldrlt	r3, [sp, #64]	; 0x40
  10504c:	b3a0202d 	movlt	r2, #45	; 0x2d
  105050:	a3a0202b 	movge	r2, #43	; 0x2b
  105054:	e5cd207d 	strb	r2, [sp, #125]	; 0x7d
  105058:	b2633001 	rsblt	r3, r3, #1
  10505c:	e3530009 	cmp	r3, #9
  105060:	da000195 	ble	1056bc <_vfprintf_r+0x1e5c>
  105064:	e28de08b 	add	lr, sp, #139	; 0x8b
  105068:	e1a06005 	mov	r6, r5
  10506c:	e1a0c00e 	mov	ip, lr
  105070:	e59d1064 	ldr	r1, [sp, #100]	; 0x64
  105074:	ea000000 	b	10507c <_vfprintf_r+0x181c>
  105078:	e1a0c000 	mov	ip, r0
  10507c:	e0c54193 	smull	r4, r5, r3, r1
  105080:	e1a04fc3 	asr	r4, r3, #31
  105084:	e24c0001 	sub	r0, ip, #1
  105088:	e0644145 	rsb	r4, r4, r5, asr #2
  10508c:	e0842104 	add	r2, r4, r4, lsl #2
  105090:	e3540009 	cmp	r4, #9
  105094:	e0432082 	sub	r2, r3, r2, lsl #1
  105098:	e1a03004 	mov	r3, r4
  10509c:	e2822030 	add	r2, r2, #48	; 0x30
  1050a0:	e54c2001 	strb	r2, [ip, #-1]
  1050a4:	cafffff3 	bgt	105078 <_vfprintf_r+0x1818>
  1050a8:	e2843030 	add	r3, r4, #48	; 0x30
  1050ac:	e24cc002 	sub	ip, ip, #2
  1050b0:	e6ef2073 	uxtb	r2, r3
  1050b4:	e15e000c 	cmp	lr, ip
  1050b8:	e1a05006 	mov	r5, r6
  1050bc:	e5402001 	strb	r2, [r0, #-1]
  1050c0:	9a0001af 	bls	105784 <_vfprintf_r+0x1f24>
  1050c4:	e1a03000 	mov	r3, r0
  1050c8:	e28d107e 	add	r1, sp, #126	; 0x7e
  1050cc:	ea000000 	b	1050d4 <_vfprintf_r+0x1874>
  1050d0:	e4d32001 	ldrb	r2, [r3], #1
  1050d4:	e153000e 	cmp	r3, lr
  1050d8:	e4c12001 	strb	r2, [r1], #1
  1050dc:	1afffffb 	bne	1050d0 <_vfprintf_r+0x1870>
  1050e0:	e2833001 	add	r3, r3, #1
  1050e4:	e0430000 	sub	r0, r3, r0
  1050e8:	e28d307e 	add	r3, sp, #126	; 0x7e
  1050ec:	e0830000 	add	r0, r3, r0
  1050f0:	e59d2044 	ldr	r2, [sp, #68]	; 0x44
  1050f4:	e28d307c 	add	r3, sp, #124	; 0x7c
  1050f8:	e0403003 	sub	r3, r0, r3
  1050fc:	e1a01003 	mov	r1, r3
  105100:	e58d3060 	str	r3, [sp, #96]	; 0x60
  105104:	e3520001 	cmp	r2, #1
  105108:	e1a03002 	mov	r3, r2
  10510c:	e0833001 	add	r3, r3, r1
  105110:	e58d302c 	str	r3, [sp, #44]	; 0x2c
  105114:	da00017d 	ble	105710 <_vfprintf_r+0x1eb0>
  105118:	e59d302c 	ldr	r3, [sp, #44]	; 0x2c
  10511c:	e59d2048 	ldr	r2, [sp, #72]	; 0x48
  105120:	e0833002 	add	r3, r3, r2
  105124:	e3a02000 	mov	r2, #0
  105128:	e1c37fc3 	bic	r7, r3, r3, asr #31
  10512c:	e58d302c 	str	r3, [sp, #44]	; 0x2c
  105130:	e58d2040 	str	r2, [sp, #64]	; 0x40
  105134:	e35b0000 	cmp	fp, #0
  105138:	1a0000b6 	bne	105418 <_vfprintf_r+0x1bb8>
  10513c:	e1a0400b 	mov	r4, fp
  105140:	e5ddb06f 	ldrb	fp, [sp, #111]	; 0x6f
  105144:	eafffabe 	b	103c44 <_vfprintf_r+0x3e4>
  105148:	e3e03000 	mvn	r3, #0
  10514c:	e28a0058 	add	r0, sl, #88	; 0x58
  105150:	e58d3020 	str	r3, [sp, #32]
  105154:	eb001b40 	bl	10be5c <__generic_gxx_recursive_mutex_unlock>
  105158:	eafffb2e 	b	103e18 <_vfprintf_r+0x5b8>
  10515c:	e59d3018 	ldr	r3, [sp, #24]
  105160:	e3130001 	tst	r3, #1
  105164:	0afffecc 	beq	104c9c <_vfprintf_r+0x143c>
  105168:	eafffebf 	b	104c6c <_vfprintf_r+0x140c>
  10516c:	e59d2094 	ldr	r2, [sp, #148]	; 0x94
  105170:	eafffccb 	b	1044a4 <_vfprintf_r+0xc44>
  105174:	e28d208c 	add	r2, sp, #140	; 0x8c
  105178:	e59d1024 	ldr	r1, [sp, #36]	; 0x24
  10517c:	e59d001c 	ldr	r0, [sp, #28]
  105180:	eb00121b 	bl	1099f4 <__sprint_r>
  105184:	e3500000 	cmp	r0, #0
  105188:	1afffdf9 	bne	104974 <_vfprintf_r+0x1114>
  10518c:	e59d1074 	ldr	r1, [sp, #116]	; 0x74
  105190:	e28d80c0 	add	r8, sp, #192	; 0xc0
  105194:	e59d3044 	ldr	r3, [sp, #68]	; 0x44
  105198:	e59d2094 	ldr	r2, [sp, #148]	; 0x94
  10519c:	e0431001 	sub	r1, r3, r1
  1051a0:	eafffed1 	b	104cec <_vfprintf_r+0x148c>
  1051a4:	e28d208c 	add	r2, sp, #140	; 0x8c
  1051a8:	e59d1024 	ldr	r1, [sp, #36]	; 0x24
  1051ac:	e59d001c 	ldr	r0, [sp, #28]
  1051b0:	eb00120f 	bl	1099f4 <__sprint_r>
  1051b4:	e3500000 	cmp	r0, #0
  1051b8:	1afffded 	bne	104974 <_vfprintf_r+0x1114>
  1051bc:	e59d1074 	ldr	r1, [sp, #116]	; 0x74
  1051c0:	e28d80c0 	add	r8, sp, #192	; 0xc0
  1051c4:	e59d2094 	ldr	r2, [sp, #148]	; 0x94
  1051c8:	eafffeb3 	b	104c9c <_vfprintf_r+0x143c>
  1051cc:	ee183a90 	vmov	r3, s17
  1051d0:	e38a2c01 	orr	r2, sl, #256	; 0x100
  1051d4:	e3530000 	cmp	r3, #0
  1051d8:	e58d2018 	str	r2, [sp, #24]
  1051dc:	a3a0b000 	movge	fp, #0
  1051e0:	aeb0ab48 	vmovge.f64	d10, d8
  1051e4:	ba0000ca 	blt	105514 <_vfprintf_r+0x1cb4>
  1051e8:	e3570046 	cmp	r7, #70	; 0x46
  1051ec:	1a000078 	bne	1053d4 <_vfprintf_r+0x1b74>
  1051f0:	e28d2074 	add	r2, sp, #116	; 0x74
  1051f4:	e3a03003 	mov	r3, #3
  1051f8:	e28d0084 	add	r0, sp, #132	; 0x84
  1051fc:	e28d1078 	add	r1, sp, #120	; 0x78
  105200:	e58d0010 	str	r0, [sp, #16]
  105204:	e58d2008 	str	r2, [sp, #8]
  105208:	e58d3000 	str	r3, [sp]
  10520c:	e58d4004 	str	r4, [sp, #4]
  105210:	ec532b1a 	vmov	r2, r3, d10
  105214:	e59d001c 	ldr	r0, [sp, #28]
  105218:	e58d100c 	str	r1, [sp, #12]
  10521c:	eb00025f 	bl	105ba0 <_dtoa_r>
  105220:	eeb5ab40 	vcmp.f64	d10, #0.0
  105224:	e1a03000 	mov	r3, r0
  105228:	e5d02000 	ldrb	r2, [r0]
  10522c:	eef1fa10 	vmrs	APSR_nzcv, fpscr
  105230:	13a03001 	movne	r3, #1
  105234:	03a03000 	moveq	r3, #0
  105238:	e3520030 	cmp	r2, #48	; 0x30
  10523c:	13a03000 	movne	r3, #0
  105240:	02033001 	andeq	r3, r3, #1
  105244:	e58d0038 	str	r0, [sp, #56]	; 0x38
  105248:	e3530000 	cmp	r3, #0
  10524c:	12643001 	rsbne	r3, r4, #1
  105250:	158d3074 	strne	r3, [sp, #116]	; 0x74
  105254:	059d3074 	ldreq	r3, [sp, #116]	; 0x74
  105258:	e0836004 	add	r6, r3, r4
  10525c:	e59d3038 	ldr	r3, [sp, #56]	; 0x38
  105260:	e0836006 	add	r6, r3, r6
  105264:	eaffff53 	b	104fb8 <_vfprintf_r+0x1758>
  105268:	e3a0302d 	mov	r3, #45	; 0x2d
  10526c:	e1a0b003 	mov	fp, r3
  105270:	e5cd306f 	strb	r3, [sp, #111]	; 0x6f
  105274:	eafffbe6 	b	104214 <_vfprintf_r+0x9b4>
  105278:	e28d208c 	add	r2, sp, #140	; 0x8c
  10527c:	e59d1024 	ldr	r1, [sp, #36]	; 0x24
  105280:	e59d001c 	ldr	r0, [sp, #28]
  105284:	eb0011da 	bl	1099f4 <__sprint_r>
  105288:	e3500000 	cmp	r0, #0
  10528c:	1afffdb8 	bne	104974 <_vfprintf_r+0x1114>
  105290:	e28d80c0 	add	r8, sp, #192	; 0xc0
  105294:	eafffce8 	b	10463c <_vfprintf_r+0xddc>
  105298:	e59d3090 	ldr	r3, [sp, #144]	; 0x90
  10529c:	e30c185c 	movw	r1, #51292	; 0xc85c
  1052a0:	e3401010 	movt	r1, #16
  1052a4:	e2822001 	add	r2, r2, #1
  1052a8:	e5881000 	str	r1, [r8]
  1052ac:	e3a01001 	mov	r1, #1
  1052b0:	e2833001 	add	r3, r3, #1
  1052b4:	e5881004 	str	r1, [r8, #4]
  1052b8:	e3530007 	cmp	r3, #7
  1052bc:	e58d2094 	str	r2, [sp, #148]	; 0x94
  1052c0:	e58d3090 	str	r3, [sp, #144]	; 0x90
  1052c4:	d2888008 	addle	r8, r8, #8
  1052c8:	ca0000ab 	bgt	10557c <_vfprintf_r+0x1d1c>
  1052cc:	e59d3044 	ldr	r3, [sp, #68]	; 0x44
  1052d0:	e1933004 	orrs	r3, r3, r4
  1052d4:	1a000002 	bne	1052e4 <_vfprintf_r+0x1a84>
  1052d8:	e59d3018 	ldr	r3, [sp, #24]
  1052dc:	e3130001 	tst	r3, #1
  1052e0:	0afffc6f 	beq	1044a4 <_vfprintf_r+0xc44>
  1052e4:	e59d3090 	ldr	r3, [sp, #144]	; 0x90
  1052e8:	e59d1048 	ldr	r1, [sp, #72]	; 0x48
  1052ec:	e59d004c 	ldr	r0, [sp, #76]	; 0x4c
  1052f0:	e2833001 	add	r3, r3, #1
  1052f4:	e3530007 	cmp	r3, #7
  1052f8:	e0812002 	add	r2, r1, r2
  1052fc:	e5880000 	str	r0, [r8]
  105300:	e5881004 	str	r1, [r8, #4]
  105304:	d2888008 	addle	r8, r8, #8
  105308:	e58d2094 	str	r2, [sp, #148]	; 0x94
  10530c:	e58d3090 	str	r3, [sp, #144]	; 0x90
  105310:	ca0000cb 	bgt	105644 <_vfprintf_r+0x1de4>
  105314:	e3540000 	cmp	r4, #0
  105318:	ba0000ab 	blt	1055cc <_vfprintf_r+0x1d6c>
  10531c:	e2833001 	add	r3, r3, #1
  105320:	e59d1044 	ldr	r1, [sp, #68]	; 0x44
  105324:	e3530007 	cmp	r3, #7
  105328:	e58d3090 	str	r3, [sp, #144]	; 0x90
  10532c:	e59d3038 	ldr	r3, [sp, #56]	; 0x38
  105330:	e0812002 	add	r2, r1, r2
  105334:	e5881004 	str	r1, [r8, #4]
  105338:	e58d2094 	str	r2, [sp, #148]	; 0x94
  10533c:	e5883000 	str	r3, [r8]
  105340:	dafffc56 	ble	1044a0 <_vfprintf_r+0xc40>
  105344:	eafffd7b 	b	104938 <_vfprintf_r+0x10d8>
  105348:	e28d30c0 	add	r3, sp, #192	; 0xc0
  10534c:	e58da018 	str	sl, [sp, #24]
  105350:	e0433001 	sub	r3, r3, r1
  105354:	e58d1038 	str	r1, [sp, #56]	; 0x38
  105358:	e58d302c 	str	r3, [sp, #44]	; 0x2c
  10535c:	eafffa32 	b	103c2c <_vfprintf_r+0x3cc>
  105360:	e59d1020 	ldr	r1, [sp, #32]
  105364:	e59d2030 	ldr	r2, [sp, #48]	; 0x30
  105368:	ee801b90 	vdup.32	d16, r1
  10536c:	e2822004 	add	r2, r2, #4
  105370:	e5123004 	ldr	r3, [r2, #-4]
  105374:	f2e000b0 	vshr.s64	d16, d16, #32
  105378:	e58d2030 	str	r2, [sp, #48]	; 0x30
  10537c:	edc30b00 	vstr	d16, [r3]
  105380:	eafff973 	b	103954 <_vfprintf_r+0xf4>
  105384:	e28d208c 	add	r2, sp, #140	; 0x8c
  105388:	e59d1024 	ldr	r1, [sp, #36]	; 0x24
  10538c:	e59d001c 	ldr	r0, [sp, #28]
  105390:	eb001197 	bl	1099f4 <__sprint_r>
  105394:	e3500000 	cmp	r0, #0
  105398:	1afffd75 	bne	104974 <_vfprintf_r+0x1114>
  10539c:	e59d2094 	ldr	r2, [sp, #148]	; 0x94
  1053a0:	e28d80c0 	add	r8, sp, #192	; 0xc0
  1053a4:	eafffcb8 	b	10468c <_vfprintf_r+0xe2c>
  1053a8:	e59d0038 	ldr	r0, [sp, #56]	; 0x38
  1053ac:	e1a04006 	mov	r4, r6
  1053b0:	fafff8f2 	blx	103780 <strlen>
  1053b4:	e59d3018 	ldr	r3, [sp, #24]
  1053b8:	e1c07fc0 	bic	r7, r0, r0, asr #31
  1053bc:	e58d002c 	str	r0, [sp, #44]	; 0x2c
  1053c0:	e58da018 	str	sl, [sp, #24]
  1053c4:	e58d3030 	str	r3, [sp, #48]	; 0x30
  1053c8:	e58d6040 	str	r6, [sp, #64]	; 0x40
  1053cc:	e5ddb06f 	ldrb	fp, [sp, #111]	; 0x6f
  1053d0:	eafffa1b 	b	103c44 <_vfprintf_r+0x3e4>
  1053d4:	e3570045 	cmp	r7, #69	; 0x45
  1053d8:	1afffee3 	bne	104f6c <_vfprintf_r+0x170c>
  1053dc:	e28d2074 	add	r2, sp, #116	; 0x74
  1053e0:	e3a03002 	mov	r3, #2
  1053e4:	e28d0084 	add	r0, sp, #132	; 0x84
  1053e8:	e28d1078 	add	r1, sp, #120	; 0x78
  1053ec:	e2846001 	add	r6, r4, #1
  1053f0:	e58d0010 	str	r0, [sp, #16]
  1053f4:	e58d2008 	str	r2, [sp, #8]
  1053f8:	e58d3000 	str	r3, [sp]
  1053fc:	e58d6004 	str	r6, [sp, #4]
  105400:	e59d001c 	ldr	r0, [sp, #28]
  105404:	e58d100c 	str	r1, [sp, #12]
  105408:	ec532b1a 	vmov	r2, r3, d10
  10540c:	eb0001e3 	bl	105ba0 <_dtoa_r>
  105410:	e58d0038 	str	r0, [sp, #56]	; 0x38
  105414:	eaffff90 	b	10525c <_vfprintf_r+0x19fc>
  105418:	e3a0b02d 	mov	fp, #45	; 0x2d
  10541c:	e3a04000 	mov	r4, #0
  105420:	e5cdb06f 	strb	fp, [sp, #111]	; 0x6f
  105424:	eafffa08 	b	103c4c <_vfprintf_r+0x3ec>
  105428:	e59d2044 	ldr	r2, [sp, #68]	; 0x44
  10542c:	e59d3040 	ldr	r3, [sp, #64]	; 0x40
  105430:	e1520003 	cmp	r2, r3
  105434:	ca000039 	bgt	105520 <_vfprintf_r+0x1cc0>
  105438:	e31a0001 	tst	sl, #1
  10543c:	159d3040 	ldrne	r3, [sp, #64]	; 0x40
  105440:	01c37fc3 	biceq	r7, r3, r3, asr #31
  105444:	159d2048 	ldrne	r2, [sp, #72]	; 0x48
  105448:	03a05067 	moveq	r5, #103	; 0x67
  10544c:	058d302c 	streq	r3, [sp, #44]	; 0x2c
  105450:	13a05067 	movne	r5, #103	; 0x67
  105454:	10833002 	addne	r3, r3, r2
  105458:	158d302c 	strne	r3, [sp, #44]	; 0x2c
  10545c:	11c37fc3 	bicne	r7, r3, r3, asr #31
  105460:	eaffff33 	b	105134 <_vfprintf_r+0x18d4>
  105464:	e3550065 	cmp	r5, #101	; 0x65
  105468:	e58d3040 	str	r3, [sp, #64]	; 0x40
  10546c:	dafffef0 	ble	105034 <_vfprintf_r+0x17d4>
  105470:	e3550066 	cmp	r5, #102	; 0x66
  105474:	1affffeb 	bne	105428 <_vfprintf_r+0x1bc8>
  105478:	e3530000 	cmp	r3, #0
  10547c:	da0000a9 	ble	105728 <_vfprintf_r+0x1ec8>
  105480:	e3540000 	cmp	r4, #0
  105484:	1a000003 	bne	105498 <_vfprintf_r+0x1c38>
  105488:	e31a0001 	tst	sl, #1
  10548c:	01a07003 	moveq	r7, r3
  105490:	058d302c 	streq	r3, [sp, #44]	; 0x2c
  105494:	0affff26 	beq	105134 <_vfprintf_r+0x18d4>
  105498:	e59d3040 	ldr	r3, [sp, #64]	; 0x40
  10549c:	e59d2048 	ldr	r2, [sp, #72]	; 0x48
  1054a0:	e0837002 	add	r7, r3, r2
  1054a4:	e0873004 	add	r3, r7, r4
  1054a8:	e58d302c 	str	r3, [sp, #44]	; 0x2c
  1054ac:	e1c37fc3 	bic	r7, r3, r3, asr #31
  1054b0:	eaffff1f 	b	105134 <_vfprintf_r+0x18d4>
  1054b4:	e28d208c 	add	r2, sp, #140	; 0x8c
  1054b8:	e59d1024 	ldr	r1, [sp, #36]	; 0x24
  1054bc:	e59d001c 	ldr	r0, [sp, #28]
  1054c0:	eb00114b 	bl	1099f4 <__sprint_r>
  1054c4:	e3500000 	cmp	r0, #0
  1054c8:	1afffd29 	bne	104974 <_vfprintf_r+0x1114>
  1054cc:	e59d2094 	ldr	r2, [sp, #148]	; 0x94
  1054d0:	e28d80c0 	add	r8, sp, #192	; 0xc0
  1054d4:	eafffd62 	b	104a64 <_vfprintf_r+0x1204>
  1054d8:	e3540006 	cmp	r4, #6
  1054dc:	e1a0b002 	mov	fp, r2
  1054e0:	31a07004 	movcc	r7, r4
  1054e4:	e1a04002 	mov	r4, r2
  1054e8:	e30c2854 	movw	r2, #51284	; 0xc854
  1054ec:	23a07006 	movcs	r7, #6
  1054f0:	e3402010 	movt	r2, #16
  1054f4:	e58d3030 	str	r3, [sp, #48]	; 0x30
  1054f8:	e58da018 	str	sl, [sp, #24]
  1054fc:	e58d702c 	str	r7, [sp, #44]	; 0x2c
  105500:	e58db040 	str	fp, [sp, #64]	; 0x40
  105504:	e58d2038 	str	r2, [sp, #56]	; 0x38
  105508:	eafff9cd 	b	103c44 <_vfprintf_r+0x3e4>
  10550c:	e3a07047 	mov	r7, #71	; 0x47
  105510:	e3a04001 	mov	r4, #1
  105514:	eeb1ab48 	vneg.f64	d10, d8
  105518:	e3a0b02d 	mov	fp, #45	; 0x2d
  10551c:	eaffff31 	b	1051e8 <_vfprintf_r+0x1988>
  105520:	e59d3040 	ldr	r3, [sp, #64]	; 0x40
  105524:	e59d2048 	ldr	r2, [sp, #72]	; 0x48
  105528:	e3530000 	cmp	r3, #0
  10552c:	e59d3044 	ldr	r3, [sp, #68]	; 0x44
  105530:	c3a05067 	movgt	r5, #103	; 0x67
  105534:	d3a05067 	movle	r5, #103	; 0x67
  105538:	e0833002 	add	r3, r3, r2
  10553c:	e58d302c 	str	r3, [sp, #44]	; 0x2c
  105540:	c1c37fc3 	bicgt	r7, r3, r3, asr #31
  105544:	d59d3040 	ldrle	r3, [sp, #64]	; 0x40
  105548:	d59d202c 	ldrle	r2, [sp, #44]	; 0x2c
  10554c:	d2633001 	rsble	r3, r3, #1
  105550:	d0823003 	addle	r3, r2, r3
  105554:	d58d302c 	strle	r3, [sp, #44]	; 0x2c
  105558:	d1c37fc3 	bicle	r7, r3, r3, asr #31
  10555c:	eafffef4 	b	105134 <_vfprintf_r+0x18d4>
  105560:	e59d001c 	ldr	r0, [sp, #28]
  105564:	e28d208c 	add	r2, sp, #140	; 0x8c
  105568:	e1a0100a 	mov	r1, sl
  10556c:	eb001120 	bl	1099f4 <__sprint_r>
  105570:	e3500000 	cmp	r0, #0
  105574:	0afffc10 	beq	1045bc <_vfprintf_r+0xd5c>
  105578:	eafffc11 	b	1045c4 <_vfprintf_r+0xd64>
  10557c:	e28d208c 	add	r2, sp, #140	; 0x8c
  105580:	e59d1024 	ldr	r1, [sp, #36]	; 0x24
  105584:	e59d001c 	ldr	r0, [sp, #28]
  105588:	eb001119 	bl	1099f4 <__sprint_r>
  10558c:	e3500000 	cmp	r0, #0
  105590:	1afffcf7 	bne	104974 <_vfprintf_r+0x1114>
  105594:	e59d4074 	ldr	r4, [sp, #116]	; 0x74
  105598:	e28d80c0 	add	r8, sp, #192	; 0xc0
  10559c:	e59d2094 	ldr	r2, [sp, #148]	; 0x94
  1055a0:	eaffff49 	b	1052cc <_vfprintf_r+0x1a6c>
  1055a4:	e1a07004 	mov	r7, r4
  1055a8:	e58d402c 	str	r4, [sp, #44]	; 0x2c
  1055ac:	e58d3030 	str	r3, [sp, #48]	; 0x30
  1055b0:	e1a04000 	mov	r4, r0
  1055b4:	e58da018 	str	sl, [sp, #24]
  1055b8:	e58d0040 	str	r0, [sp, #64]	; 0x40
  1055bc:	e5ddb06f 	ldrb	fp, [sp, #111]	; 0x6f
  1055c0:	eafff99f 	b	103c44 <_vfprintf_r+0x3e4>
  1055c4:	e59d3084 	ldr	r3, [sp, #132]	; 0x84
  1055c8:	eafffe88 	b	104ff0 <_vfprintf_r+0x1790>
  1055cc:	e3740010 	cmn	r4, #16
  1055d0:	e59f61b4 	ldr	r6, [pc, #436]	; 10578c <_vfprintf_r+0x1f2c>
  1055d4:	e2644000 	rsb	r4, r4, #0
  1055d8:	aa000024 	bge	105670 <_vfprintf_r+0x1e10>
  1055dc:	e3a05010 	mov	r5, #16
  1055e0:	e59da01c 	ldr	sl, [sp, #28]
  1055e4:	e59db024 	ldr	fp, [sp, #36]	; 0x24
  1055e8:	ea000002 	b	1055f8 <_vfprintf_r+0x1d98>
  1055ec:	e2444010 	sub	r4, r4, #16
  1055f0:	e3540010 	cmp	r4, #16
  1055f4:	da00001d 	ble	105670 <_vfprintf_r+0x1e10>
  1055f8:	e2833001 	add	r3, r3, #1
  1055fc:	e2822010 	add	r2, r2, #16
  105600:	e3530007 	cmp	r3, #7
  105604:	e5886000 	str	r6, [r8]
  105608:	e5885004 	str	r5, [r8, #4]
  10560c:	d2888008 	addle	r8, r8, #8
  105610:	e58d3090 	str	r3, [sp, #144]	; 0x90
  105614:	e58d2094 	str	r2, [sp, #148]	; 0x94
  105618:	dafffff3 	ble	1055ec <_vfprintf_r+0x1d8c>
  10561c:	e28d208c 	add	r2, sp, #140	; 0x8c
  105620:	e1a0100b 	mov	r1, fp
  105624:	e1a0000a 	mov	r0, sl
  105628:	e28d80c0 	add	r8, sp, #192	; 0xc0
  10562c:	eb0010f0 	bl	1099f4 <__sprint_r>
  105630:	e3500000 	cmp	r0, #0
  105634:	1afffe12 	bne	104e84 <_vfprintf_r+0x1624>
  105638:	e59d2094 	ldr	r2, [sp, #148]	; 0x94
  10563c:	e59d3090 	ldr	r3, [sp, #144]	; 0x90
  105640:	eaffffe9 	b	1055ec <_vfprintf_r+0x1d8c>
  105644:	e28d208c 	add	r2, sp, #140	; 0x8c
  105648:	e59d1024 	ldr	r1, [sp, #36]	; 0x24
  10564c:	e59d001c 	ldr	r0, [sp, #28]
  105650:	eb0010e7 	bl	1099f4 <__sprint_r>
  105654:	e3500000 	cmp	r0, #0
  105658:	1afffcc5 	bne	104974 <_vfprintf_r+0x1114>
  10565c:	e59d4074 	ldr	r4, [sp, #116]	; 0x74
  105660:	e28d80c0 	add	r8, sp, #192	; 0xc0
  105664:	e59d2094 	ldr	r2, [sp, #148]	; 0x94
  105668:	e59d3090 	ldr	r3, [sp, #144]	; 0x90
  10566c:	eaffff28 	b	105314 <_vfprintf_r+0x1ab4>
  105670:	e2833001 	add	r3, r3, #1
  105674:	e0822004 	add	r2, r2, r4
  105678:	e3530007 	cmp	r3, #7
  10567c:	e5886000 	str	r6, [r8]
  105680:	e5884004 	str	r4, [r8, #4]
  105684:	e2888008 	add	r8, r8, #8
  105688:	e58d3090 	str	r3, [sp, #144]	; 0x90
  10568c:	e58d2094 	str	r2, [sp, #148]	; 0x94
  105690:	daffff21 	ble	10531c <_vfprintf_r+0x1abc>
  105694:	e28d208c 	add	r2, sp, #140	; 0x8c
  105698:	e59d1024 	ldr	r1, [sp, #36]	; 0x24
  10569c:	e59d001c 	ldr	r0, [sp, #28]
  1056a0:	eb0010d3 	bl	1099f4 <__sprint_r>
  1056a4:	e3500000 	cmp	r0, #0
  1056a8:	1afffcb1 	bne	104974 <_vfprintf_r+0x1114>
  1056ac:	e59d2094 	ldr	r2, [sp, #148]	; 0x94
  1056b0:	e28d80c0 	add	r8, sp, #192	; 0xc0
  1056b4:	e59d3090 	ldr	r3, [sp, #144]	; 0x90
  1056b8:	eaffff17 	b	10531c <_vfprintf_r+0x1abc>
  1056bc:	e2833030 	add	r3, r3, #48	; 0x30
  1056c0:	e3a02030 	mov	r2, #48	; 0x30
  1056c4:	e5cd307f 	strb	r3, [sp, #127]	; 0x7f
  1056c8:	e28d0080 	add	r0, sp, #128	; 0x80
  1056cc:	e5cd207e 	strb	r2, [sp, #126]	; 0x7e
  1056d0:	eafffe86 	b	1050f0 <_vfprintf_r+0x1890>
  1056d4:	e30c3824 	movw	r3, #51236	; 0xc824
  1056d8:	e30c2828 	movw	r2, #51240	; 0xc828
  1056dc:	e3403010 	movt	r3, #16
  1056e0:	e3550047 	cmp	r5, #71	; 0x47
  1056e4:	e3402010 	movt	r2, #16
  1056e8:	e3a07003 	mov	r7, #3
  1056ec:	e3a04000 	mov	r4, #0
  1056f0:	e3ca1080 	bic	r1, sl, #128	; 0x80
  1056f4:	d1a02003 	movle	r2, r3
  1056f8:	e58d1018 	str	r1, [sp, #24]
  1056fc:	e58d2038 	str	r2, [sp, #56]	; 0x38
  105700:	e58d702c 	str	r7, [sp, #44]	; 0x2c
  105704:	e58d4040 	str	r4, [sp, #64]	; 0x40
  105708:	e5ddb06f 	ldrb	fp, [sp, #111]	; 0x6f
  10570c:	eafff94c 	b	103c44 <_vfprintf_r+0x3e4>
  105710:	e21a3001 	ands	r3, sl, #1
  105714:	e58d3040 	str	r3, [sp, #64]	; 0x40
  105718:	1afffe7e 	bne	105118 <_vfprintf_r+0x18b8>
  10571c:	e59d302c 	ldr	r3, [sp, #44]	; 0x2c
  105720:	e1c37fc3 	bic	r7, r3, r3, asr #31
  105724:	eafffe82 	b	105134 <_vfprintf_r+0x18d4>
  105728:	e3540000 	cmp	r4, #0
  10572c:	1a000003 	bne	105740 <_vfprintf_r+0x1ee0>
  105730:	e31a0001 	tst	sl, #1
  105734:	03a07001 	moveq	r7, #1
  105738:	058d702c 	streq	r7, [sp, #44]	; 0x2c
  10573c:	0afffe7c 	beq	105134 <_vfprintf_r+0x18d4>
  105740:	e59d3048 	ldr	r3, [sp, #72]	; 0x48
  105744:	e2837001 	add	r7, r3, #1
  105748:	e0873004 	add	r3, r7, r4
  10574c:	e58d302c 	str	r3, [sp, #44]	; 0x2c
  105750:	e1c37fc3 	bic	r7, r3, r3, asr #31
  105754:	eafffe76 	b	105134 <_vfprintf_r+0x18d4>
  105758:	e59d3030 	ldr	r3, [sp, #48]	; 0x30
  10575c:	e5d95001 	ldrb	r5, [r9, #1]
  105760:	e1a0900c 	mov	r9, ip
  105764:	e5934000 	ldr	r4, [r3]
  105768:	e2833004 	add	r3, r3, #4
  10576c:	e58d3030 	str	r3, [sp, #48]	; 0x30
  105770:	e1540000 	cmp	r4, r0
  105774:	b1a04000 	movlt	r4, r0
  105778:	eafff89b 	b	1039ec <_vfprintf_r+0x18c>
  10577c:	e1a06004 	mov	r6, r4
  105780:	eafffeb5 	b	10525c <_vfprintf_r+0x19fc>
  105784:	e28d007e 	add	r0, sp, #126	; 0x7e
  105788:	eafffe58 	b	1050f0 <_vfprintf_r+0x1890>
  10578c:	0010c80c 	.word	0x0010c80c

00105790 <vfprintf>:
  105790:	e92d4070 	push	{r4, r5, r6, lr}
  105794:	e1a05001 	mov	r5, r1
  105798:	e1a06002 	mov	r6, r2
  10579c:	e1a04000 	mov	r4, r0
  1057a0:	eb000975 	bl	107d7c <__getreent>
  1057a4:	e1a03006 	mov	r3, r6
  1057a8:	e1a02005 	mov	r2, r5
  1057ac:	e1a01004 	mov	r1, r4
  1057b0:	e8bd4070 	pop	{r4, r5, r6, lr}
  1057b4:	eafff829 	b	103860 <_vfprintf_r>

001057b8 <__sbprintf>:
  1057b8:	e92d41f0 	push	{r4, r5, r6, r7, r8, lr}
  1057bc:	e1a04001 	mov	r4, r1
  1057c0:	e1d110bc 	ldrh	r1, [r1, #12]
  1057c4:	e1a07000 	mov	r7, r0
  1057c8:	e1a08003 	mov	r8, r3
  1057cc:	e1a06002 	mov	r6, r2
  1057d0:	e1d4c0be 	ldrh	ip, [r4, #14]
  1057d4:	e24dde46 	sub	sp, sp, #1120	; 0x460
  1057d8:	e5940064 	ldr	r0, [r4, #100]	; 0x64
  1057dc:	e24dd008 	sub	sp, sp, #8
  1057e0:	e594301c 	ldr	r3, [r4, #28]
  1057e4:	e3c11002 	bic	r1, r1, #2
  1057e8:	e5942024 	ldr	r2, [r4, #36]	; 0x24
  1057ec:	e1cd10bc 	strh	r1, [sp, #12]
  1057f0:	e3a01b01 	mov	r1, #1024	; 0x400
  1057f4:	e1cdc0be 	strh	ip, [sp, #14]
  1057f8:	e28dc068 	add	ip, sp, #104	; 0x68
  1057fc:	e58d0064 	str	r0, [sp, #100]	; 0x64
  105800:	e28d0058 	add	r0, sp, #88	; 0x58
  105804:	e58d301c 	str	r3, [sp, #28]
  105808:	e3a03000 	mov	r3, #0
  10580c:	e58d2024 	str	r2, [sp, #36]	; 0x24
  105810:	e58dc000 	str	ip, [sp]
  105814:	e58dc010 	str	ip, [sp, #16]
  105818:	e58d1008 	str	r1, [sp, #8]
  10581c:	e58d1014 	str	r1, [sp, #20]
  105820:	e58d3018 	str	r3, [sp, #24]
  105824:	eb001988 	bl	10be4c <__generic_gxx_recursive_mutex_init_function>
  105828:	e1a02006 	mov	r2, r6
  10582c:	e1a03008 	mov	r3, r8
  105830:	e1a0100d 	mov	r1, sp
  105834:	e1a00007 	mov	r0, r7
  105838:	ebfff808 	bl	103860 <_vfprintf_r>
  10583c:	e2506000 	subs	r6, r0, #0
  105840:	ba000004 	blt	105858 <__sbprintf+0xa0>
  105844:	e1a0100d 	mov	r1, sp
  105848:	e1a00007 	mov	r0, r7
  10584c:	eb0005d3 	bl	106fa0 <_fflush_r>
  105850:	e3500000 	cmp	r0, #0
  105854:	13e06000 	mvnne	r6, #0
  105858:	e1dd30bc 	ldrh	r3, [sp, #12]
  10585c:	e28d0058 	add	r0, sp, #88	; 0x58
  105860:	e3130040 	tst	r3, #64	; 0x40
  105864:	11d430bc 	ldrhne	r3, [r4, #12]
  105868:	13833040 	orrne	r3, r3, #64	; 0x40
  10586c:	11c430bc 	strhne	r3, [r4, #12]
  105870:	eb001977 	bl	10be54 <__generic_gxx_recursive_mutex_destroy>
  105874:	e1a00006 	mov	r0, r6
  105878:	e28dde46 	add	sp, sp, #1120	; 0x460
  10587c:	e28dd008 	add	sp, sp, #8
  105880:	e8bd81f0 	pop	{r4, r5, r6, r7, r8, pc}

00105884 <__swsetup_r>:
  105884:	e92d4070 	push	{r4, r5, r6, lr}
  105888:	e1a05000 	mov	r5, r0
  10588c:	e1a04001 	mov	r4, r1
  105890:	eb000939 	bl	107d7c <__getreent>
  105894:	e2503000 	subs	r3, r0, #0
  105898:	0a000002 	beq	1058a8 <__swsetup_r+0x24>
  10589c:	e5933038 	ldr	r3, [r3, #56]	; 0x38
  1058a0:	e3530000 	cmp	r3, #0
  1058a4:	0a00002f 	beq	105968 <__swsetup_r+0xe4>
  1058a8:	e1d420fc 	ldrsh	r2, [r4, #12]
  1058ac:	e6ff3072 	uxth	r3, r2
  1058b0:	e3130008 	tst	r3, #8
  1058b4:	0a00000b 	beq	1058e8 <__swsetup_r+0x64>
  1058b8:	e5940010 	ldr	r0, [r4, #16]
  1058bc:	e3500000 	cmp	r0, #0
  1058c0:	0a000012 	beq	105910 <__swsetup_r+0x8c>
  1058c4:	e2132001 	ands	r2, r3, #1
  1058c8:	1a000019 	bne	105934 <__swsetup_r+0xb0>
  1058cc:	e3130002 	tst	r3, #2
  1058d0:	05942014 	ldreq	r2, [r4, #20]
  1058d4:	e3500000 	cmp	r0, #0
  1058d8:	e5842008 	str	r2, [r4, #8]
  1058dc:	0a00001b 	beq	105950 <__swsetup_r+0xcc>
  1058e0:	e3a00000 	mov	r0, #0
  1058e4:	e8bd8070 	pop	{r4, r5, r6, pc}
  1058e8:	e3130010 	tst	r3, #16
  1058ec:	0a00002f 	beq	1059b0 <__swsetup_r+0x12c>
  1058f0:	e3130004 	tst	r3, #4
  1058f4:	1a00001d 	bne	105970 <__swsetup_r+0xec>
  1058f8:	e5940010 	ldr	r0, [r4, #16]
  1058fc:	e3500000 	cmp	r0, #0
  105900:	e3822008 	orr	r2, r2, #8
  105904:	e6ff3072 	uxth	r3, r2
  105908:	e1c420bc 	strh	r2, [r4, #12]
  10590c:	1affffec 	bne	1058c4 <__swsetup_r+0x40>
  105910:	e2032d0a 	and	r2, r3, #640	; 0x280
  105914:	e3520c02 	cmp	r2, #512	; 0x200
  105918:	0affffe9 	beq	1058c4 <__swsetup_r+0x40>
  10591c:	e1a00005 	mov	r0, r5
  105920:	e1a01004 	mov	r1, r4
  105924:	eb000951 	bl	107e70 <__smakebuf_r>
  105928:	e1d430bc 	ldrh	r3, [r4, #12]
  10592c:	e5940010 	ldr	r0, [r4, #16]
  105930:	eaffffe3 	b	1058c4 <__swsetup_r+0x40>
  105934:	e5943014 	ldr	r3, [r4, #20]
  105938:	e3500000 	cmp	r0, #0
  10593c:	e3a02000 	mov	r2, #0
  105940:	e5842008 	str	r2, [r4, #8]
  105944:	e2633000 	rsb	r3, r3, #0
  105948:	e5843018 	str	r3, [r4, #24]
  10594c:	1affffe3 	bne	1058e0 <__swsetup_r+0x5c>
  105950:	e1d430fc 	ldrsh	r3, [r4, #12]
  105954:	e3130080 	tst	r3, #128	; 0x80
  105958:	13833040 	orrne	r3, r3, #64	; 0x40
  10595c:	13e00000 	mvnne	r0, #0
  105960:	11c430bc 	strhne	r3, [r4, #12]
  105964:	e8bd8070 	pop	{r4, r5, r6, pc}
  105968:	eb000614 	bl	1071c0 <__sinit>
  10596c:	eaffffcd 	b	1058a8 <__swsetup_r+0x24>
  105970:	e5941030 	ldr	r1, [r4, #48]	; 0x30
  105974:	e3510000 	cmp	r1, #0
  105978:	0a000007 	beq	10599c <__swsetup_r+0x118>
  10597c:	e2843040 	add	r3, r4, #64	; 0x40
  105980:	e1510003 	cmp	r1, r3
  105984:	0a000002 	beq	105994 <__swsetup_r+0x110>
  105988:	e1a00005 	mov	r0, r5
  10598c:	eb0006d8 	bl	1074f4 <_free_r>
  105990:	e1d420fc 	ldrsh	r2, [r4, #12]
  105994:	e3a03000 	mov	r3, #0
  105998:	e5843030 	str	r3, [r4, #48]	; 0x30
  10599c:	e5940010 	ldr	r0, [r4, #16]
  1059a0:	e3a03000 	mov	r3, #0
  1059a4:	e3c22024 	bic	r2, r2, #36	; 0x24
  1059a8:	e8840009 	stm	r4, {r0, r3}
  1059ac:	eaffffd2 	b	1058fc <__swsetup_r+0x78>
  1059b0:	e3822040 	orr	r2, r2, #64	; 0x40
  1059b4:	e3a03009 	mov	r3, #9
  1059b8:	e5853000 	str	r3, [r5]
  1059bc:	e3e00000 	mvn	r0, #0
  1059c0:	e1c420bc 	strh	r2, [r4, #12]
  1059c4:	e8bd8070 	pop	{r4, r5, r6, pc}

001059c8 <quorem>:
  1059c8:	e92d4ff0 	push	{r4, r5, r6, r7, r8, r9, sl, fp, lr}
  1059cc:	e24dd014 	sub	sp, sp, #20
  1059d0:	e5903010 	ldr	r3, [r0, #16]
  1059d4:	e5915010 	ldr	r5, [r1, #16]
  1059d8:	e1550003 	cmp	r5, r3
  1059dc:	c3a00000 	movgt	r0, #0
  1059e0:	ca00006c 	bgt	105b98 <quorem+0x1d0>
  1059e4:	e2455001 	sub	r5, r5, #1
  1059e8:	e2814014 	add	r4, r1, #20
  1059ec:	e58d1004 	str	r1, [sp, #4]
  1059f0:	e1a03105 	lsl	r3, r5, #2
  1059f4:	e7941105 	ldr	r1, [r4, r5, lsl #2]
  1059f8:	e2809014 	add	r9, r0, #20
  1059fc:	e1a07000 	mov	r7, r0
  105a00:	e7990105 	ldr	r0, [r9, r5, lsl #2]
  105a04:	e1a0a003 	mov	sl, r3
  105a08:	e58d3008 	str	r3, [sp, #8]
  105a0c:	e2811001 	add	r1, r1, #1
  105a10:	e0848003 	add	r8, r4, r3
  105a14:	ebfff404 	bl	102a2c <__aeabi_uidiv>
  105a18:	e2506000 	subs	r6, r0, #0
  105a1c:	e089300a 	add	r3, r9, sl
  105a20:	e58d300c 	str	r3, [sp, #12]
  105a24:	0a00002e 	beq	105ae4 <quorem+0x11c>
  105a28:	e3a0c000 	mov	ip, #0
  105a2c:	e1a0a004 	mov	sl, r4
  105a30:	e1a0e009 	mov	lr, r9
  105a34:	e1a0300c 	mov	r3, ip
  105a38:	e49a1004 	ldr	r1, [sl], #4
  105a3c:	e59e0000 	ldr	r0, [lr]
  105a40:	e158000a 	cmp	r8, sl
  105a44:	e6ff2071 	uxth	r2, r1
  105a48:	e1a01821 	lsr	r1, r1, #16
  105a4c:	e6ffb070 	uxth	fp, r0
  105a50:	e022c296 	mla	r2, r6, r2, ip
  105a54:	e1a0c822 	lsr	ip, r2, #16
  105a58:	e6ff2072 	uxth	r2, r2
  105a5c:	e02cc196 	mla	ip, r6, r1, ip
  105a60:	e0433002 	sub	r3, r3, r2
  105a64:	e083300b 	add	r3, r3, fp
  105a68:	e6ff207c 	uxth	r2, ip
  105a6c:	e6ff1073 	uxth	r1, r3
  105a70:	e1a0c82c 	lsr	ip, ip, #16
  105a74:	e0622820 	rsb	r2, r2, r0, lsr #16
  105a78:	e0823843 	add	r3, r2, r3, asr #16
  105a7c:	e1811803 	orr	r1, r1, r3, lsl #16
  105a80:	e1a03843 	asr	r3, r3, #16
  105a84:	e48e1004 	str	r1, [lr], #4
  105a88:	2affffea 	bcs	105a38 <quorem+0x70>
  105a8c:	e59d3008 	ldr	r3, [sp, #8]
  105a90:	e7993003 	ldr	r3, [r9, r3]
  105a94:	e3530000 	cmp	r3, #0
  105a98:	1a000011 	bne	105ae4 <quorem+0x11c>
  105a9c:	e59d200c 	ldr	r2, [sp, #12]
  105aa0:	e2423004 	sub	r3, r2, #4
  105aa4:	e1590003 	cmp	r9, r3
  105aa8:	2a00000c 	bcs	105ae0 <quorem+0x118>
  105aac:	e5123004 	ldr	r3, [r2, #-4]
  105ab0:	e3530000 	cmp	r3, #0
  105ab4:	1a000009 	bne	105ae0 <quorem+0x118>
  105ab8:	e2423008 	sub	r3, r2, #8
  105abc:	ea000002 	b	105acc <quorem+0x104>
  105ac0:	e5922000 	ldr	r2, [r2]
  105ac4:	e3520000 	cmp	r2, #0
  105ac8:	1a000004 	bne	105ae0 <quorem+0x118>
  105acc:	e1590003 	cmp	r9, r3
  105ad0:	e1a02003 	mov	r2, r3
  105ad4:	e2455001 	sub	r5, r5, #1
  105ad8:	e2433004 	sub	r3, r3, #4
  105adc:	3afffff7 	bcc	105ac0 <quorem+0xf8>
  105ae0:	e5875010 	str	r5, [r7, #16]
  105ae4:	e59d1004 	ldr	r1, [sp, #4]
  105ae8:	e1a00007 	mov	r0, r7
  105aec:	eb000be0 	bl	108a74 <__mcmp>
  105af0:	e3500000 	cmp	r0, #0
  105af4:	ba000026 	blt	105b94 <quorem+0x1cc>
  105af8:	e2866001 	add	r6, r6, #1
  105afc:	e1a0c009 	mov	ip, r9
  105b00:	e3a03000 	mov	r3, #0
  105b04:	e4942004 	ldr	r2, [r4], #4
  105b08:	e59c0000 	ldr	r0, [ip]
  105b0c:	e1580004 	cmp	r8, r4
  105b10:	e6ff1072 	uxth	r1, r2
  105b14:	e1a02822 	lsr	r2, r2, #16
  105b18:	e6ffe070 	uxth	lr, r0
  105b1c:	e0431001 	sub	r1, r3, r1
  105b20:	e0623820 	rsb	r3, r2, r0, lsr #16
  105b24:	e081200e 	add	r2, r1, lr
  105b28:	e0833842 	add	r3, r3, r2, asr #16
  105b2c:	e6ff2072 	uxth	r2, r2
  105b30:	e1822803 	orr	r2, r2, r3, lsl #16
  105b34:	e1a03843 	asr	r3, r3, #16
  105b38:	e48c2004 	str	r2, [ip], #4
  105b3c:	2afffff0 	bcs	105b04 <quorem+0x13c>
  105b40:	e7992105 	ldr	r2, [r9, r5, lsl #2]
  105b44:	e0893105 	add	r3, r9, r5, lsl #2
  105b48:	e3520000 	cmp	r2, #0
  105b4c:	1a000010 	bne	105b94 <quorem+0x1cc>
  105b50:	e2432004 	sub	r2, r3, #4
  105b54:	e1590002 	cmp	r9, r2
  105b58:	2a00000c 	bcs	105b90 <quorem+0x1c8>
  105b5c:	e5132004 	ldr	r2, [r3, #-4]
  105b60:	e3520000 	cmp	r2, #0
  105b64:	1a000009 	bne	105b90 <quorem+0x1c8>
  105b68:	e2433008 	sub	r3, r3, #8
  105b6c:	ea000002 	b	105b7c <quorem+0x1b4>
  105b70:	e5922000 	ldr	r2, [r2]
  105b74:	e3520000 	cmp	r2, #0
  105b78:	1a000004 	bne	105b90 <quorem+0x1c8>
  105b7c:	e1590003 	cmp	r9, r3
  105b80:	e1a02003 	mov	r2, r3
  105b84:	e2455001 	sub	r5, r5, #1
  105b88:	e2433004 	sub	r3, r3, #4
  105b8c:	3afffff7 	bcc	105b70 <quorem+0x1a8>
  105b90:	e5875010 	str	r5, [r7, #16]
  105b94:	e1a00006 	mov	r0, r6
  105b98:	e28dd014 	add	sp, sp, #20
  105b9c:	e8bd8ff0 	pop	{r4, r5, r6, r7, r8, r9, sl, fp, pc}

00105ba0 <_dtoa_r>:
  105ba0:	e590c040 	ldr	ip, [r0, #64]	; 0x40
  105ba4:	e92d4ff0 	push	{r4, r5, r6, r7, r8, r9, sl, fp, lr}
  105ba8:	e1a04000 	mov	r4, r0
  105bac:	ed2d8b02 	vpush	{d8}
  105bb0:	e24dd03c 	sub	sp, sp, #60	; 0x3c
  105bb4:	e35c0000 	cmp	ip, #0
  105bb8:	e1a0a002 	mov	sl, r2
  105bbc:	e1a0b003 	mov	fp, r3
  105bc0:	e59d5074 	ldr	r5, [sp, #116]	; 0x74
  105bc4:	0a000008 	beq	105bec <_dtoa_r+0x4c>
  105bc8:	e5902044 	ldr	r2, [r0, #68]	; 0x44
  105bcc:	e3a03001 	mov	r3, #1
  105bd0:	e1a0100c 	mov	r1, ip
  105bd4:	e58c2004 	str	r2, [ip, #4]
  105bd8:	e1a03213 	lsl	r3, r3, r2
  105bdc:	e58c3008 	str	r3, [ip, #8]
  105be0:	eb000a03 	bl	1083f4 <_Bfree>
  105be4:	e3a03000 	mov	r3, #0
  105be8:	e5843040 	str	r3, [r4, #64]	; 0x40
  105bec:	e35b0000 	cmp	fp, #0
  105bf0:	e1a0600b 	mov	r6, fp
  105bf4:	b3a03001 	movlt	r3, #1
  105bf8:	a3a03000 	movge	r3, #0
  105bfc:	b5853000 	strlt	r3, [r5]
  105c00:	b3cb6102 	biclt	r6, fp, #-2147483648	; 0x80000000
  105c04:	a5853000 	strge	r3, [r5]
  105c08:	e3a03000 	mov	r3, #0
  105c0c:	e3473ff0 	movt	r3, #32752	; 0x7ff0
  105c10:	b1a0b006 	movlt	fp, r6
  105c14:	e1d33006 	bics	r3, r3, r6
  105c18:	0a000010 	beq	105c60 <_dtoa_r+0xc0>
  105c1c:	ec4bab18 	vmov	d8, sl, fp
  105c20:	eeb58b40 	vcmp.f64	d8, #0.0
  105c24:	eef1fa10 	vmrs	APSR_nzcv, fpscr
  105c28:	1a000028 	bne	105cd0 <_dtoa_r+0x130>
  105c2c:	e59d3078 	ldr	r3, [sp, #120]	; 0x78
  105c30:	e59d2070 	ldr	r2, [sp, #112]	; 0x70
  105c34:	e3530000 	cmp	r3, #0
  105c38:	e3a03001 	mov	r3, #1
  105c3c:	e5823000 	str	r3, [r2]
  105c40:	0a000087 	beq	105e64 <_dtoa_r+0x2c4>
  105c44:	e59f0304 	ldr	r0, [pc, #772]	; 105f50 <_dtoa_r+0x3b0>
  105c48:	e59d3078 	ldr	r3, [sp, #120]	; 0x78
  105c4c:	e5830000 	str	r0, [r3]
  105c50:	e2400001 	sub	r0, r0, #1
  105c54:	e28dd03c 	add	sp, sp, #60	; 0x3c
  105c58:	ecbd8b02 	vpop	{d8}
  105c5c:	e8bd8ff0 	pop	{r4, r5, r6, r7, r8, r9, sl, fp, pc}
  105c60:	e59d2070 	ldr	r2, [sp, #112]	; 0x70
  105c64:	e35a0000 	cmp	sl, #0
  105c68:	e302370f 	movw	r3, #9999	; 0x270f
  105c6c:	e5823000 	str	r3, [r2]
  105c70:	1a00000d 	bne	105cac <_dtoa_r+0x10c>
  105c74:	e7f36056 	ubfx	r6, r6, #0, #20
  105c78:	e3560000 	cmp	r6, #0
  105c7c:	1a00000a 	bne	105cac <_dtoa_r+0x10c>
  105c80:	e59d3078 	ldr	r3, [sp, #120]	; 0x78
  105c84:	e30c0860 	movw	r0, #51296	; 0xc860
  105c88:	e3400010 	movt	r0, #16
  105c8c:	e3530000 	cmp	r3, #0
  105c90:	12803008 	addne	r3, r0, #8
  105c94:	0affffee 	beq	105c54 <_dtoa_r+0xb4>
  105c98:	e59d2078 	ldr	r2, [sp, #120]	; 0x78
  105c9c:	e5823000 	str	r3, [r2]
  105ca0:	e28dd03c 	add	sp, sp, #60	; 0x3c
  105ca4:	ecbd8b02 	vpop	{d8}
  105ca8:	e8bd8ff0 	pop	{r4, r5, r6, r7, r8, r9, sl, fp, pc}
  105cac:	e59d3078 	ldr	r3, [sp, #120]	; 0x78
  105cb0:	e30c086c 	movw	r0, #51308	; 0xc86c
  105cb4:	e3400010 	movt	r0, #16
  105cb8:	e3530000 	cmp	r3, #0
  105cbc:	12803003 	addne	r3, r0, #3
  105cc0:	0affffe3 	beq	105c54 <_dtoa_r+0xb4>
  105cc4:	e59d2078 	ldr	r2, [sp, #120]	; 0x78
  105cc8:	e5823000 	str	r3, [r2]
  105ccc:	eafffff3 	b	105ca0 <_dtoa_r+0x100>
  105cd0:	e28d2030 	add	r2, sp, #48	; 0x30
  105cd4:	e28d3034 	add	r3, sp, #52	; 0x34
  105cd8:	e58d2004 	str	r2, [sp, #4]
  105cdc:	e1a00004 	mov	r0, r4
  105ce0:	e58d3000 	str	r3, [sp]
  105ce4:	e1a0200a 	mov	r2, sl
  105ce8:	e1a0300b 	mov	r3, fp
  105cec:	eb000c2e 	bl	108dac <__d2b>
  105cf0:	e1b01a26 	lsrs	r1, r6, #20
  105cf4:	e1a07000 	mov	r7, r0
  105cf8:	1a00004e 	bne	105e38 <_dtoa_r+0x298>
  105cfc:	e59d0030 	ldr	r0, [sp, #48]	; 0x30
  105d00:	e3a0c001 	mov	ip, #1
  105d04:	e59d1034 	ldr	r1, [sp, #52]	; 0x34
  105d08:	e58dc018 	str	ip, [sp, #24]
  105d0c:	e0801001 	add	r1, r0, r1
  105d10:	e2813e43 	add	r3, r1, #1072	; 0x430
  105d14:	e2833002 	add	r3, r3, #2
  105d18:	e3530020 	cmp	r3, #32
  105d1c:	c2633040 	rsbgt	r3, r3, #64	; 0x40
  105d20:	c2812e41 	addgt	r2, r1, #1040	; 0x410
  105d24:	c1a06316 	lslgt	r6, r6, r3
  105d28:	d2633020 	rsble	r3, r3, #32
  105d2c:	c2822002 	addgt	r2, r2, #2
  105d30:	d1a0331a 	lslle	r3, sl, r3
  105d34:	c186323a 	orrgt	r3, r6, sl, lsr r2
  105d38:	e2411001 	sub	r1, r1, #1
  105d3c:	ee073a90 	vmov	s15, r3
  105d40:	eef80b67 	vcvt.f64.u32	d16, s15
  105d44:	ec532b30 	vmov	r2, r3, d16
  105d48:	e243361f 	sub	r3, r3, #32505856	; 0x1f00000
  105d4c:	ec432b30 	vmov	d16, r2, r3
  105d50:	eef71b08 	vmov.f64	d17, #120	; 0x3fc00000  1.5
  105d54:	eddf3b77 	vldr	d19, [pc, #476]	; 105f38 <_dtoa_r+0x398>
  105d58:	ee701be1 	vsub.f64	d17, d16, d17
  105d5c:	eddf0b77 	vldr	d16, [pc, #476]	; 105f40 <_dtoa_r+0x3a0>
  105d60:	ee071a90 	vmov	s15, r1
  105d64:	eddf2b77 	vldr	d18, [pc, #476]	; 105f48 <_dtoa_r+0x3a8>
  105d68:	ee410ba3 	vmla.f64	d16, d17, d19
  105d6c:	eef81be7 	vcvt.f64.s32	d17, s15
  105d70:	ee410ba2 	vmla.f64	d16, d17, d18
  105d74:	eefd7be0 	vcvt.s32.f64	s15, d16
  105d78:	eef50bc0 	vcmpe.f64	d16, #0.0
  105d7c:	eef1fa10 	vmrs	APSR_nzcv, fpscr
  105d80:	ee179a90 	vmov	r9, s15
  105d84:	4a000111 	bmi	1061d0 <_dtoa_r+0x630>
  105d88:	e3590016 	cmp	r9, #22
  105d8c:	83a03001 	movhi	r3, #1
  105d90:	858d3020 	strhi	r3, [sp, #32]
  105d94:	8a000009 	bhi	105dc0 <_dtoa_r+0x220>
  105d98:	e30c3888 	movw	r3, #51336	; 0xc888
  105d9c:	ec4bab31 	vmov	d17, sl, fp
  105da0:	e3403010 	movt	r3, #16
  105da4:	e0833189 	add	r3, r3, r9, lsl #3
  105da8:	edd30b00 	vldr	d16, [r3]
  105dac:	e3a03000 	mov	r3, #0
  105db0:	e58d3020 	str	r3, [sp, #32]
  105db4:	eef40be1 	vcmpe.f64	d16, d17
  105db8:	eef1fa10 	vmrs	APSR_nzcv, fpscr
  105dbc:	c2499001 	subgt	r9, r9, #1
  105dc0:	e0403001 	sub	r3, r0, r1
  105dc4:	e2538001 	subs	r8, r3, #1
  105dc8:	42633001 	rsbmi	r3, r3, #1
  105dcc:	53a03000 	movpl	r3, #0
  105dd0:	458d3010 	strmi	r3, [sp, #16]
  105dd4:	43a08000 	movmi	r8, #0
  105dd8:	558d3010 	strpl	r3, [sp, #16]
  105ddc:	e3590000 	cmp	r9, #0
  105de0:	ba0000f2 	blt	1061b0 <_dtoa_r+0x610>
  105de4:	e0888009 	add	r8, r8, r9
  105de8:	e3a03000 	mov	r3, #0
  105dec:	e58d9024 	str	r9, [sp, #36]	; 0x24
  105df0:	e58d300c 	str	r3, [sp, #12]
  105df4:	e59d3068 	ldr	r3, [sp, #104]	; 0x68
  105df8:	e3530009 	cmp	r3, #9
  105dfc:	8a00001b 	bhi	105e70 <_dtoa_r+0x2d0>
  105e00:	e3530005 	cmp	r3, #5
  105e04:	d3a05001 	movle	r5, #1
  105e08:	c3a05000 	movgt	r5, #0
  105e0c:	c2433004 	subgt	r3, r3, #4
  105e10:	c58d3068 	strgt	r3, [sp, #104]	; 0x68
  105e14:	e59d3068 	ldr	r3, [sp, #104]	; 0x68
  105e18:	e2433002 	sub	r3, r3, #2
  105e1c:	e3530003 	cmp	r3, #3
  105e20:	979ff103 	ldrls	pc, [pc, r3, lsl #2]
  105e24:	ea0000ee 	b	1061e4 <_dtoa_r+0x644>
  105e28:	001064cc 	.word	0x001064cc
  105e2c:	001062bc 	.word	0x001062bc
  105e30:	001064fc 	.word	0x001064fc
  105e34:	001067dc 	.word	0x001067dc
  105e38:	e1a0300b 	mov	r3, fp
  105e3c:	e2411fff 	sub	r1, r1, #1020	; 0x3fc
  105e40:	e7f30053 	ubfx	r0, r3, #0, #20
  105e44:	e3a0c000 	mov	ip, #0
  105e48:	e38035ff 	orr	r3, r0, #1069547520	; 0x3fc00000
  105e4c:	e1a0200a 	mov	r2, sl
  105e50:	e2411003 	sub	r1, r1, #3
  105e54:	e59d0030 	ldr	r0, [sp, #48]	; 0x30
  105e58:	e3833603 	orr	r3, r3, #3145728	; 0x300000
  105e5c:	e58dc018 	str	ip, [sp, #24]
  105e60:	eaffffb9 	b	105d4c <_dtoa_r+0x1ac>
  105e64:	e30c085c 	movw	r0, #51292	; 0xc85c
  105e68:	e3400010 	movt	r0, #16
  105e6c:	eaffff78 	b	105c54 <_dtoa_r+0xb4>
  105e70:	e3a01000 	mov	r1, #0
  105e74:	e3e03000 	mvn	r3, #0
  105e78:	e1a00004 	mov	r0, r4
  105e7c:	e5841044 	str	r1, [r4, #68]	; 0x44
  105e80:	e1a05003 	mov	r5, r3
  105e84:	e58d3028 	str	r3, [sp, #40]	; 0x28
  105e88:	e58d1068 	str	r1, [sp, #104]	; 0x68
  105e8c:	eb000936 	bl	10836c <_Balloc>
  105e90:	e59d3068 	ldr	r3, [sp, #104]	; 0x68
  105e94:	e1a06000 	mov	r6, r0
  105e98:	e5840040 	str	r0, [r4, #64]	; 0x40
  105e9c:	e58d5014 	str	r5, [sp, #20]
  105ea0:	e58d306c 	str	r3, [sp, #108]	; 0x6c
  105ea4:	e3a03001 	mov	r3, #1
  105ea8:	e58d301c 	str	r3, [sp, #28]
  105eac:	e59d3034 	ldr	r3, [sp, #52]	; 0x34
  105eb0:	e359000e 	cmp	r9, #14
  105eb4:	e1e02003 	mvn	r2, r3
  105eb8:	e1a02fa2 	lsr	r2, r2, #31
  105ebc:	c3a02000 	movgt	r2, #0
  105ec0:	e3520000 	cmp	r2, #0
  105ec4:	0a000022 	beq	105f54 <_dtoa_r+0x3b4>
  105ec8:	e59d1014 	ldr	r1, [sp, #20]
  105ecc:	e30c3888 	movw	r3, #51336	; 0xc888
  105ed0:	e59d006c 	ldr	r0, [sp, #108]	; 0x6c
  105ed4:	e3403010 	movt	r3, #16
  105ed8:	e0833189 	add	r3, r3, r9, lsl #3
  105edc:	e3510000 	cmp	r1, #0
  105ee0:	e1a02001 	mov	r2, r1
  105ee4:	c3a02000 	movgt	r2, #0
  105ee8:	d3a02001 	movle	r2, #1
  105eec:	edd32b00 	vldr	d18, [r3]
  105ef0:	e0122fa0 	ands	r2, r2, r0, lsr #31
  105ef4:	0a000183 	beq	106508 <_dtoa_r+0x968>
  105ef8:	e59d3014 	ldr	r3, [sp, #20]
  105efc:	e3530000 	cmp	r3, #0
  105f00:	1a0001c7 	bne	106624 <_dtoa_r+0xa84>
  105f04:	eef10b04 	vmov.f64	d16, #20	; 0x40a00000  5.0
  105f08:	ee622ba0 	vmul.f64	d18, d18, d16
  105f0c:	ec4bab30 	vmov	d16, sl, fp
  105f10:	eef42be0 	vcmpe.f64	d18, d16
  105f14:	eef1fa10 	vmrs	APSR_nzcv, fpscr
  105f18:	ba00020d 	blt	106754 <_dtoa_r+0xbb4>
  105f1c:	e59d3014 	ldr	r3, [sp, #20]
  105f20:	e58d300c 	str	r3, [sp, #12]
  105f24:	e58d3018 	str	r3, [sp, #24]
  105f28:	e59d306c 	ldr	r3, [sp, #108]	; 0x6c
  105f2c:	e1a05006 	mov	r5, r6
  105f30:	e1e09003 	mvn	r9, r3
  105f34:	ea000083 	b	106148 <_dtoa_r+0x5a8>
  105f38:	636f4361 	.word	0x636f4361
  105f3c:	3fd287a7 	.word	0x3fd287a7
  105f40:	8b60c8b3 	.word	0x8b60c8b3
  105f44:	3fc68a28 	.word	0x3fc68a28
  105f48:	509f79fb 	.word	0x509f79fb
  105f4c:	3fd34413 	.word	0x3fd34413
  105f50:	0010c85d 	.word	0x0010c85d
  105f54:	e59d201c 	ldr	r2, [sp, #28]
  105f58:	e3520000 	cmp	r2, #0
  105f5c:	1a0000b5 	bne	106238 <_dtoa_r+0x698>
  105f60:	e59d300c 	ldr	r3, [sp, #12]
  105f64:	e59d5010 	ldr	r5, [sp, #16]
  105f68:	e58d302c 	str	r3, [sp, #44]	; 0x2c
  105f6c:	e59d301c 	ldr	r3, [sp, #28]
  105f70:	e58d3018 	str	r3, [sp, #24]
  105f74:	e3550000 	cmp	r5, #0
  105f78:	c3580000 	cmpgt	r8, #0
  105f7c:	da000007 	ble	105fa0 <_dtoa_r+0x400>
  105f80:	e1550008 	cmp	r5, r8
  105f84:	e59d2010 	ldr	r2, [sp, #16]
  105f88:	b1a03005 	movlt	r3, r5
  105f8c:	a1a03008 	movge	r3, r8
  105f90:	e0455003 	sub	r5, r5, r3
  105f94:	e0488003 	sub	r8, r8, r3
  105f98:	e0422003 	sub	r2, r2, r3
  105f9c:	e58d2010 	str	r2, [sp, #16]
  105fa0:	e59d300c 	ldr	r3, [sp, #12]
  105fa4:	e3530000 	cmp	r3, #0
  105fa8:	0a000017 	beq	10600c <_dtoa_r+0x46c>
  105fac:	e59d301c 	ldr	r3, [sp, #28]
  105fb0:	e3530000 	cmp	r3, #0
  105fb4:	0a0001e9 	beq	106760 <_dtoa_r+0xbc0>
  105fb8:	e59d302c 	ldr	r3, [sp, #44]	; 0x2c
  105fbc:	e3530000 	cmp	r3, #0
  105fc0:	da00000d 	ble	105ffc <_dtoa_r+0x45c>
  105fc4:	e1a02003 	mov	r2, r3
  105fc8:	e59d1018 	ldr	r1, [sp, #24]
  105fcc:	e1a00004 	mov	r0, r4
  105fd0:	eb000a2d 	bl	10888c <__pow5mult>
  105fd4:	e1a02007 	mov	r2, r7
  105fd8:	e1a01000 	mov	r1, r0
  105fdc:	e58d0018 	str	r0, [sp, #24]
  105fe0:	e1a00004 	mov	r0, r4
  105fe4:	eb0009bb 	bl	1086d8 <__multiply>
  105fe8:	e1a01007 	mov	r1, r7
  105fec:	e1a03000 	mov	r3, r0
  105ff0:	e1a00004 	mov	r0, r4
  105ff4:	e1a07003 	mov	r7, r3
  105ff8:	eb0008fd 	bl	1083f4 <_Bfree>
  105ffc:	e59d300c 	ldr	r3, [sp, #12]
  106000:	e59d202c 	ldr	r2, [sp, #44]	; 0x2c
  106004:	e0532002 	subs	r2, r3, r2
  106008:	1a0001d5 	bne	106764 <_dtoa_r+0xbc4>
  10600c:	e3a01001 	mov	r1, #1
  106010:	e1a00004 	mov	r0, r4
  106014:	eb0009a7 	bl	1086b8 <__i2b>
  106018:	e59d3024 	ldr	r3, [sp, #36]	; 0x24
  10601c:	e58d000c 	str	r0, [sp, #12]
  106020:	e3530000 	cmp	r3, #0
  106024:	da0001bf 	ble	106728 <_dtoa_r+0xb88>
  106028:	e1a01000 	mov	r1, r0
  10602c:	e1a02003 	mov	r2, r3
  106030:	e1a00004 	mov	r0, r4
  106034:	eb000a14 	bl	10888c <__pow5mult>
  106038:	e59d3068 	ldr	r3, [sp, #104]	; 0x68
  10603c:	e58d000c 	str	r0, [sp, #12]
  106040:	e3530001 	cmp	r3, #1
  106044:	da00029d 	ble	106ac0 <_dtoa_r+0xf20>
  106048:	e3a03000 	mov	r3, #0
  10604c:	e58d302c 	str	r3, [sp, #44]	; 0x2c
  106050:	e59d200c 	ldr	r2, [sp, #12]
  106054:	e5923010 	ldr	r3, [r2, #16]
  106058:	e0823103 	add	r3, r2, r3, lsl #2
  10605c:	e5930010 	ldr	r0, [r3, #16]
  106060:	eb000958 	bl	1085c8 <__hi0bits>
  106064:	e2600020 	rsb	r0, r0, #32
  106068:	e0800008 	add	r0, r0, r8
  10606c:	e210001f 	ands	r0, r0, #31
  106070:	0a00016f 	beq	106634 <_dtoa_r+0xa94>
  106074:	e2603020 	rsb	r3, r0, #32
  106078:	e3530004 	cmp	r3, #4
  10607c:	da000336 	ble	106d5c <_dtoa_r+0x11bc>
  106080:	e260001c 	rsb	r0, r0, #28
  106084:	e59d3010 	ldr	r3, [sp, #16]
  106088:	e0855000 	add	r5, r5, r0
  10608c:	e0888000 	add	r8, r8, r0
  106090:	e0833000 	add	r3, r3, r0
  106094:	e58d3010 	str	r3, [sp, #16]
  106098:	e59d3010 	ldr	r3, [sp, #16]
  10609c:	e3530000 	cmp	r3, #0
  1060a0:	da000004 	ble	1060b8 <_dtoa_r+0x518>
  1060a4:	e1a01007 	mov	r1, r7
  1060a8:	e1a02003 	mov	r2, r3
  1060ac:	e1a00004 	mov	r0, r4
  1060b0:	eb000a34 	bl	108988 <__lshift>
  1060b4:	e1a07000 	mov	r7, r0
  1060b8:	e3580000 	cmp	r8, #0
  1060bc:	da000004 	ble	1060d4 <_dtoa_r+0x534>
  1060c0:	e1a02008 	mov	r2, r8
  1060c4:	e59d100c 	ldr	r1, [sp, #12]
  1060c8:	e1a00004 	mov	r0, r4
  1060cc:	eb000a2d 	bl	108988 <__lshift>
  1060d0:	e58d000c 	str	r0, [sp, #12]
  1060d4:	e59d3020 	ldr	r3, [sp, #32]
  1060d8:	e3530000 	cmp	r3, #0
  1060dc:	1a0001e2 	bne	10686c <_dtoa_r+0xccc>
  1060e0:	e59d3014 	ldr	r3, [sp, #20]
  1060e4:	e59d2068 	ldr	r2, [sp, #104]	; 0x68
  1060e8:	e3530000 	cmp	r3, #0
  1060ec:	d3a03001 	movle	r3, #1
  1060f0:	c3a03000 	movgt	r3, #0
  1060f4:	e3520002 	cmp	r2, #2
  1060f8:	d3a03000 	movle	r3, #0
  1060fc:	e3530000 	cmp	r3, #0
  106100:	0a00014d 	beq	10663c <_dtoa_r+0xa9c>
  106104:	e59d3014 	ldr	r3, [sp, #20]
  106108:	e3530000 	cmp	r3, #0
  10610c:	1affff85 	bne	105f28 <_dtoa_r+0x388>
  106110:	e59d100c 	ldr	r1, [sp, #12]
  106114:	e3a02005 	mov	r2, #5
  106118:	e1a00004 	mov	r0, r4
  10611c:	eb0008bb 	bl	108410 <__multadd>
  106120:	e1a01000 	mov	r1, r0
  106124:	e58d000c 	str	r0, [sp, #12]
  106128:	e1a00007 	mov	r0, r7
  10612c:	eb000a50 	bl	108a74 <__mcmp>
  106130:	e3500000 	cmp	r0, #0
  106134:	daffff7b 	ble	105f28 <_dtoa_r+0x388>
  106138:	e2899001 	add	r9, r9, #1
  10613c:	e2865001 	add	r5, r6, #1
  106140:	e3a03031 	mov	r3, #49	; 0x31
  106144:	e5c63000 	strb	r3, [r6]
  106148:	e59d100c 	ldr	r1, [sp, #12]
  10614c:	e1a00004 	mov	r0, r4
  106150:	eb0008a7 	bl	1083f4 <_Bfree>
  106154:	e59d3018 	ldr	r3, [sp, #24]
  106158:	e3530000 	cmp	r3, #0
  10615c:	0a000002 	beq	10616c <_dtoa_r+0x5cc>
  106160:	e59d1018 	ldr	r1, [sp, #24]
  106164:	e1a00004 	mov	r0, r4
  106168:	eb0008a1 	bl	1083f4 <_Bfree>
  10616c:	e1a01007 	mov	r1, r7
  106170:	e1a00004 	mov	r0, r4
  106174:	eb00089e 	bl	1083f4 <_Bfree>
  106178:	e59d3078 	ldr	r3, [sp, #120]	; 0x78
  10617c:	e3a02000 	mov	r2, #0
  106180:	e5c52000 	strb	r2, [r5]
  106184:	e59d2070 	ldr	r2, [sp, #112]	; 0x70
  106188:	e3530000 	cmp	r3, #0
  10618c:	e2893001 	add	r3, r9, #1
  106190:	e5823000 	str	r3, [r2]
  106194:	0a000247 	beq	106ab8 <_dtoa_r+0xf18>
  106198:	e59d3078 	ldr	r3, [sp, #120]	; 0x78
  10619c:	e1a00006 	mov	r0, r6
  1061a0:	e5835000 	str	r5, [r3]
  1061a4:	e28dd03c 	add	sp, sp, #60	; 0x3c
  1061a8:	ecbd8b02 	vpop	{d8}
  1061ac:	e8bd8ff0 	pop	{r4, r5, r6, r7, r8, r9, sl, fp, pc}
  1061b0:	e59d3010 	ldr	r3, [sp, #16]
  1061b4:	e0433009 	sub	r3, r3, r9
  1061b8:	e58d3010 	str	r3, [sp, #16]
  1061bc:	e2693000 	rsb	r3, r9, #0
  1061c0:	e58d300c 	str	r3, [sp, #12]
  1061c4:	e3a03000 	mov	r3, #0
  1061c8:	e58d3024 	str	r3, [sp, #36]	; 0x24
  1061cc:	eaffff08 	b	105df4 <_dtoa_r+0x254>
  1061d0:	eef81be7 	vcvt.f64.s32	d17, s15
  1061d4:	eef40b61 	vcmp.f64	d16, d17
  1061d8:	eef1fa10 	vmrs	APSR_nzcv, fpscr
  1061dc:	12499001 	subne	r9, r9, #1
  1061e0:	eafffee8 	b	105d88 <_dtoa_r+0x1e8>
  1061e4:	e3a05000 	mov	r5, #0
  1061e8:	e1a00004 	mov	r0, r4
  1061ec:	e5845044 	str	r5, [r4, #68]	; 0x44
  1061f0:	e1a01005 	mov	r1, r5
  1061f4:	eb00085c 	bl	10836c <_Balloc>
  1061f8:	e59d3034 	ldr	r3, [sp, #52]	; 0x34
  1061fc:	e359000e 	cmp	r9, #14
  106200:	c3a02000 	movgt	r2, #0
  106204:	d3a02001 	movle	r2, #1
  106208:	e1a06000 	mov	r6, r0
  10620c:	e5840040 	str	r0, [r4, #64]	; 0x40
  106210:	e1530005 	cmp	r3, r5
  106214:	b3a02000 	movlt	r2, #0
  106218:	e1520005 	cmp	r2, r5
  10621c:	1a0002d1 	bne	106d68 <_dtoa_r+0x11c8>
  106220:	e3e01000 	mvn	r1, #0
  106224:	e58d206c 	str	r2, [sp, #108]	; 0x6c
  106228:	e3a02001 	mov	r2, #1
  10622c:	e58d1028 	str	r1, [sp, #40]	; 0x28
  106230:	e58d1014 	str	r1, [sp, #20]
  106234:	e58d201c 	str	r2, [sp, #28]
  106238:	e59d2068 	ldr	r2, [sp, #104]	; 0x68
  10623c:	e3520001 	cmp	r2, #1
  106240:	da00025d 	ble	106bbc <_dtoa_r+0x101c>
  106244:	e59d3014 	ldr	r3, [sp, #20]
  106248:	e2435001 	sub	r5, r3, #1
  10624c:	e59d300c 	ldr	r3, [sp, #12]
  106250:	e1530005 	cmp	r3, r5
  106254:	b59d300c 	ldrlt	r3, [sp, #12]
  106258:	a0433005 	subge	r3, r3, r5
  10625c:	b59d2024 	ldrlt	r2, [sp, #36]	; 0x24
  106260:	b58d500c 	strlt	r5, [sp, #12]
  106264:	b0453003 	sublt	r3, r5, r3
  106268:	b0823003 	addlt	r3, r2, r3
  10626c:	b58d3024 	strlt	r3, [sp, #36]	; 0x24
  106270:	b3a03000 	movlt	r3, #0
  106274:	e58d302c 	str	r3, [sp, #44]	; 0x2c
  106278:	e59d3014 	ldr	r3, [sp, #20]
  10627c:	e3530000 	cmp	r3, #0
  106280:	b59d3010 	ldrlt	r3, [sp, #16]
  106284:	b59d2014 	ldrlt	r2, [sp, #20]
  106288:	a59d5010 	ldrge	r5, [sp, #16]
  10628c:	a59d3014 	ldrge	r3, [sp, #20]
  106290:	b0435002 	sublt	r5, r3, r2
  106294:	b3a03000 	movlt	r3, #0
  106298:	e59d2010 	ldr	r2, [sp, #16]
  10629c:	e3a01001 	mov	r1, #1
  1062a0:	e1a00004 	mov	r0, r4
  1062a4:	e0888003 	add	r8, r8, r3
  1062a8:	e0822003 	add	r2, r2, r3
  1062ac:	e58d2010 	str	r2, [sp, #16]
  1062b0:	eb000900 	bl	1086b8 <__i2b>
  1062b4:	e58d0018 	str	r0, [sp, #24]
  1062b8:	eaffff2d 	b	105f74 <_dtoa_r+0x3d4>
  1062bc:	e3a03000 	mov	r3, #0
  1062c0:	e58d301c 	str	r3, [sp, #28]
  1062c4:	e59d306c 	ldr	r3, [sp, #108]	; 0x6c
  1062c8:	e0893003 	add	r3, r9, r3
  1062cc:	e58d3028 	str	r3, [sp, #40]	; 0x28
  1062d0:	e2833001 	add	r3, r3, #1
  1062d4:	e3530001 	cmp	r3, #1
  1062d8:	e58d3014 	str	r3, [sp, #20]
  1062dc:	a1a0c003 	movge	ip, r3
  1062e0:	b3a0c001 	movlt	ip, #1
  1062e4:	e353000e 	cmp	r3, #14
  1062e8:	83a05000 	movhi	r5, #0
  1062ec:	92055001 	andls	r5, r5, #1
  1062f0:	e35c0017 	cmp	ip, #23
  1062f4:	e3a01000 	mov	r1, #0
  1062f8:	e5841044 	str	r1, [r4, #68]	; 0x44
  1062fc:	9a000008 	bls	106324 <_dtoa_r+0x784>
  106300:	e3a02001 	mov	r2, #1
  106304:	e3a03004 	mov	r3, #4
  106308:	e1a03083 	lsl	r3, r3, #1
  10630c:	e1a01002 	mov	r1, r2
  106310:	e2822001 	add	r2, r2, #1
  106314:	e2830014 	add	r0, r3, #20
  106318:	e150000c 	cmp	r0, ip
  10631c:	9afffff9 	bls	106308 <_dtoa_r+0x768>
  106320:	e5841044 	str	r1, [r4, #68]	; 0x44
  106324:	e1a00004 	mov	r0, r4
  106328:	eb00080f 	bl	10836c <_Balloc>
  10632c:	e3550000 	cmp	r5, #0
  106330:	e1a06000 	mov	r6, r0
  106334:	e5840040 	str	r0, [r4, #64]	; 0x40
  106338:	0afffedb 	beq	105eac <_dtoa_r+0x30c>
  10633c:	e3590000 	cmp	r9, #0
  106340:	ec4bab35 	vmov	d21, sl, fp
  106344:	da00010d 	ble	106780 <_dtoa_r+0xbe0>
  106348:	e30c2888 	movw	r2, #51336	; 0xc888
  10634c:	e1a03249 	asr	r3, r9, #4
  106350:	e209100f 	and	r1, r9, #15
  106354:	e3402010 	movt	r2, #16
  106358:	e3130010 	tst	r3, #16
  10635c:	e0822181 	add	r2, r2, r1, lsl #3
  106360:	1203300f 	andne	r3, r3, #15
  106364:	13a01003 	movne	r1, #3
  106368:	0ef02b65 	vmoveq.f64	d18, d21
  10636c:	edd20b00 	vldr	d16, [r2]
  106370:	130c2978 	movwne	r2, #51576	; 0xc978
  106374:	13402010 	movtne	r2, #16
  106378:	03a01002 	moveq	r1, #2
  10637c:	1dd21b08 	vldrne	d17, [r2, #32]
  106380:	1ec52ba1 	vdivne.f64	d18, d21, d17
  106384:	e3530000 	cmp	r3, #0
  106388:	0a000008 	beq	1063b0 <_dtoa_r+0x810>
  10638c:	e30c2978 	movw	r2, #51576	; 0xc978
  106390:	e3402010 	movt	r2, #16
  106394:	e3130001 	tst	r3, #1
  106398:	e2822008 	add	r2, r2, #8
  10639c:	1d521b02 	vldrne	d17, [r2, #-8]
  1063a0:	12811001 	addne	r1, r1, #1
  1063a4:	1e600ba1 	vmulne.f64	d16, d16, d17
  1063a8:	e1b030c3 	asrs	r3, r3, #1
  1063ac:	1afffff8 	bne	106394 <_dtoa_r+0x7f4>
  1063b0:	eec23ba0 	vdiv.f64	d19, d18, d16
  1063b4:	e59d3020 	ldr	r3, [sp, #32]
  1063b8:	e3530000 	cmp	r3, #0
  1063bc:	0a000003 	beq	1063d0 <_dtoa_r+0x830>
  1063c0:	eef70b00 	vmov.f64	d16, #112	; 0x3f800000  1.0
  1063c4:	eef43be0 	vcmpe.f64	d19, d16
  1063c8:	eef1fa10 	vmrs	APSR_nzcv, fpscr
  1063cc:	4a0001d4 	bmi	106b24 <_dtoa_r+0xf84>
  1063d0:	ee071a90 	vmov	s15, r1
  1063d4:	eef80be7 	vcvt.f64.s32	d16, s15
  1063d8:	eef12b0c 	vmov.f64	d18, #28	; 0x40e00000  7.0
  1063dc:	e59d3014 	ldr	r3, [sp, #20]
  1063e0:	ee402ba3 	vmla.f64	d18, d16, d19
  1063e4:	e3530000 	cmp	r3, #0
  1063e8:	ec510b32 	vmov	r0, r1, d18
  1063ec:	e241150d 	sub	r1, r1, #54525952	; 0x3400000
  1063f0:	0a000081 	beq	1065fc <_dtoa_r+0xa5c>
  1063f4:	e59dc014 	ldr	ip, [sp, #20]
  1063f8:	e1a02009 	mov	r2, r9
  1063fc:	e59d301c 	ldr	r3, [sp, #28]
  106400:	e3530000 	cmp	r3, #0
  106404:	e30c3888 	movw	r3, #51336	; 0xc888
  106408:	0a0000f6 	beq	1067e8 <_dtoa_r+0xc48>
  10640c:	e3403010 	movt	r3, #16
  106410:	eef64b00 	vmov.f64	d20, #96	; 0x3f000000  0.5
  106414:	e083318c 	add	r3, r3, ip, lsl #3
  106418:	eefd7be3 	vcvt.s32.f64	s15, d19
  10641c:	e2865001 	add	r5, r6, #1
  106420:	ed532b02 	vldr	d18, [r3, #-8]
  106424:	eef80be7 	vcvt.f64.s32	d16, s15
  106428:	ee173a90 	vmov	r3, s15
  10642c:	eec41ba2 	vdiv.f64	d17, d20, d18
  106430:	e2833030 	add	r3, r3, #48	; 0x30
  106434:	ec410b32 	vmov	d18, r0, r1
  106438:	e6ef3073 	uxtb	r3, r3
  10643c:	ee730be0 	vsub.f64	d16, d19, d16
  106440:	e5c63000 	strb	r3, [r6]
  106444:	ee712be2 	vsub.f64	d18, d17, d18
  106448:	eef42be0 	vcmpe.f64	d18, d16
  10644c:	eef1fa10 	vmrs	APSR_nzcv, fpscr
  106450:	ca00001b 	bgt	1064c4 <_dtoa_r+0x924>
  106454:	eef74b00 	vmov.f64	d20, #112	; 0x3f800000  1.0
  106458:	ee741be0 	vsub.f64	d17, d20, d16
  10645c:	eef42be1 	vcmpe.f64	d18, d17
  106460:	eef1fa10 	vmrs	APSR_nzcv, fpscr
  106464:	ca0001e1 	bgt	106bf0 <_dtoa_r+0x1050>
  106468:	e35c0001 	cmp	ip, #1
  10646c:	1086100c 	addne	r1, r6, ip
  106470:	1ef23b04 	vmovne.f64	d19, #36	; 0x41200000  10.0
  106474:	1a000006 	bne	106494 <_dtoa_r+0x8f4>
  106478:	ea0000be 	b	106778 <_dtoa_r+0xbd8>
  10647c:	ee741be0 	vsub.f64	d17, d20, d16
  106480:	eef41be2 	vcmpe.f64	d17, d18
  106484:	eef1fa10 	vmrs	APSR_nzcv, fpscr
  106488:	4a0001d8 	bmi	106bf0 <_dtoa_r+0x1050>
  10648c:	e1510005 	cmp	r1, r5
  106490:	0a0000b8 	beq	106778 <_dtoa_r+0xbd8>
  106494:	ee600ba3 	vmul.f64	d16, d16, d19
  106498:	ee622ba3 	vmul.f64	d18, d18, d19
  10649c:	eefd7be0 	vcvt.s32.f64	s15, d16
  1064a0:	eef81be7 	vcvt.f64.s32	d17, s15
  1064a4:	ee173a90 	vmov	r3, s15
  1064a8:	e2833030 	add	r3, r3, #48	; 0x30
  1064ac:	e6ef3073 	uxtb	r3, r3
  1064b0:	ee700be1 	vsub.f64	d16, d16, d17
  1064b4:	e4c53001 	strb	r3, [r5], #1
  1064b8:	eef40be2 	vcmpe.f64	d16, d18
  1064bc:	eef1fa10 	vmrs	APSR_nzcv, fpscr
  1064c0:	5affffed 	bpl	10647c <_dtoa_r+0x8dc>
  1064c4:	e1a09002 	mov	r9, r2
  1064c8:	eaffff27 	b	10616c <_dtoa_r+0x5cc>
  1064cc:	e3a03000 	mov	r3, #0
  1064d0:	e58d301c 	str	r3, [sp, #28]
  1064d4:	e59d306c 	ldr	r3, [sp, #108]	; 0x6c
  1064d8:	e3530000 	cmp	r3, #0
  1064dc:	da000189 	ble	106b08 <_dtoa_r+0xf68>
  1064e0:	e353000e 	cmp	r3, #14
  1064e4:	83a05000 	movhi	r5, #0
  1064e8:	92055001 	andls	r5, r5, #1
  1064ec:	e1a0c003 	mov	ip, r3
  1064f0:	e58d3028 	str	r3, [sp, #40]	; 0x28
  1064f4:	e58d3014 	str	r3, [sp, #20]
  1064f8:	eaffff7c 	b	1062f0 <_dtoa_r+0x750>
  1064fc:	e3a03001 	mov	r3, #1
  106500:	e58d301c 	str	r3, [sp, #28]
  106504:	eafffff2 	b	1064d4 <_dtoa_r+0x934>
  106508:	ec4bab30 	vmov	d16, sl, fp
  10650c:	e3510001 	cmp	r1, #1
  106510:	e1a02001 	mov	r2, r1
  106514:	e2865001 	add	r5, r6, #1
  106518:	eec01ba2 	vdiv.f64	d17, d16, d18
  10651c:	eefd7be1 	vcvt.s32.f64	s15, d17
  106520:	eef81be7 	vcvt.f64.s32	d17, s15
  106524:	ee173a90 	vmov	r3, s15
  106528:	e2833030 	add	r3, r3, #48	; 0x30
  10652c:	e5c63000 	strb	r3, [r6]
  106530:	ee410be2 	vmls.f64	d16, d17, d18
  106534:	0a000014 	beq	10658c <_dtoa_r+0x9ec>
  106538:	eef23b04 	vmov.f64	d19, #36	; 0x41200000  10.0
  10653c:	ee600ba3 	vmul.f64	d16, d16, d19
  106540:	eef50b40 	vcmp.f64	d16, #0.0
  106544:	eef1fa10 	vmrs	APSR_nzcv, fpscr
  106548:	159d2014 	ldrne	r2, [sp, #20]
  10654c:	1a000004 	bne	106564 <_dtoa_r+0x9c4>
  106550:	eaffff05 	b	10616c <_dtoa_r+0x5cc>
  106554:	ee600ba3 	vmul.f64	d16, d16, d19
  106558:	eef50b40 	vcmp.f64	d16, #0.0
  10655c:	eef1fa10 	vmrs	APSR_nzcv, fpscr
  106560:	0affff01 	beq	10616c <_dtoa_r+0x5cc>
  106564:	eec01ba2 	vdiv.f64	d17, d16, d18
  106568:	eefd7be1 	vcvt.s32.f64	s15, d17
  10656c:	ee173a90 	vmov	r3, s15
  106570:	e2833030 	add	r3, r3, #48	; 0x30
  106574:	eef81be7 	vcvt.f64.s32	d17, s15
  106578:	e4c53001 	strb	r3, [r5], #1
  10657c:	e0453006 	sub	r3, r5, r6
  106580:	e1530002 	cmp	r3, r2
  106584:	ee410be2 	vmls.f64	d16, d17, d18
  106588:	1afffff1 	bne	106554 <_dtoa_r+0x9b4>
  10658c:	ee700ba0 	vadd.f64	d16, d16, d16
  106590:	eef42be0 	vcmpe.f64	d18, d16
  106594:	eef1fa10 	vmrs	APSR_nzcv, fpscr
  106598:	4a000005 	bmi	1065b4 <_dtoa_r+0xa14>
  10659c:	eef42b60 	vcmp.f64	d18, d16
  1065a0:	eef1fa10 	vmrs	APSR_nzcv, fpscr
  1065a4:	1afffef0 	bne	10616c <_dtoa_r+0x5cc>
  1065a8:	ee173a90 	vmov	r3, s15
  1065ac:	e3130001 	tst	r3, #1
  1065b0:	0afffeed 	beq	10616c <_dtoa_r+0x5cc>
  1065b4:	e5553001 	ldrb	r3, [r5, #-1]
  1065b8:	e2452001 	sub	r2, r5, #1
  1065bc:	ea000002 	b	1065cc <_dtoa_r+0xa2c>
  1065c0:	e1560002 	cmp	r6, r2
  1065c4:	0a000168 	beq	106b6c <_dtoa_r+0xfcc>
  1065c8:	e5723001 	ldrb	r3, [r2, #-1]!
  1065cc:	e3530039 	cmp	r3, #57	; 0x39
  1065d0:	e2825001 	add	r5, r2, #1
  1065d4:	0afffff9 	beq	1065c0 <_dtoa_r+0xa20>
  1065d8:	e2833001 	add	r3, r3, #1
  1065dc:	e5c23000 	strb	r3, [r2]
  1065e0:	eafffee1 	b	10616c <_dtoa_r+0x5cc>
  1065e4:	ee071a90 	vmov	s15, r1
  1065e8:	eef80be7 	vcvt.f64.s32	d16, s15
  1065ec:	eef12b0c 	vmov.f64	d18, #28	; 0x40e00000  7.0
  1065f0:	ee402ba3 	vmla.f64	d18, d16, d19
  1065f4:	ec510b32 	vmov	r0, r1, d18
  1065f8:	e241150d 	sub	r1, r1, #54525952	; 0x3400000
  1065fc:	eef10b04 	vmov.f64	d16, #20	; 0x40a00000  5.0
  106600:	ec410b32 	vmov	d18, r0, r1
  106604:	ee730be0 	vsub.f64	d16, d19, d16
  106608:	eef40be2 	vcmpe.f64	d16, d18
  10660c:	eef1fa10 	vmrs	APSR_nzcv, fpscr
  106610:	ca00004e 	bgt	106750 <_dtoa_r+0xbb0>
  106614:	eef12b62 	vneg.f64	d18, d18
  106618:	eef40be2 	vcmpe.f64	d16, d18
  10661c:	eef1fa10 	vmrs	APSR_nzcv, fpscr
  106620:	5a000054 	bpl	106778 <_dtoa_r+0xbd8>
  106624:	e3a03000 	mov	r3, #0
  106628:	e58d300c 	str	r3, [sp, #12]
  10662c:	e58d3018 	str	r3, [sp, #24]
  106630:	eafffe3c 	b	105f28 <_dtoa_r+0x388>
  106634:	e3a0001c 	mov	r0, #28
  106638:	eafffe91 	b	106084 <_dtoa_r+0x4e4>
  10663c:	e59d301c 	ldr	r3, [sp, #28]
  106640:	e3530000 	cmp	r3, #0
  106644:	1a0000b6 	bne	106924 <_dtoa_r+0xd84>
  106648:	e1a05006 	mov	r5, r6
  10664c:	e59da00c 	ldr	sl, [sp, #12]
  106650:	e59db014 	ldr	fp, [sp, #20]
  106654:	ea000001 	b	106660 <_dtoa_r+0xac0>
  106658:	eb00076c 	bl	108410 <__multadd>
  10665c:	e1a07000 	mov	r7, r0
  106660:	e1a0100a 	mov	r1, sl
  106664:	e1a00007 	mov	r0, r7
  106668:	ebfffcd6 	bl	1059c8 <quorem>
  10666c:	e2808030 	add	r8, r0, #48	; 0x30
  106670:	e3a03000 	mov	r3, #0
  106674:	e4c58001 	strb	r8, [r5], #1
  106678:	e0452006 	sub	r2, r5, r6
  10667c:	e15b0002 	cmp	fp, r2
  106680:	e1a01007 	mov	r1, r7
  106684:	e3a0200a 	mov	r2, #10
  106688:	e1a00004 	mov	r0, r4
  10668c:	cafffff1 	bgt	106658 <_dtoa_r+0xab8>
  106690:	e59d3014 	ldr	r3, [sp, #20]
  106694:	e3a0a000 	mov	sl, #0
  106698:	e3530001 	cmp	r3, #1
  10669c:	a0865003 	addge	r5, r6, r3
  1066a0:	b2865001 	addlt	r5, r6, #1
  1066a4:	e1a01007 	mov	r1, r7
  1066a8:	e3a02001 	mov	r2, #1
  1066ac:	e1a00004 	mov	r0, r4
  1066b0:	eb0008b4 	bl	108988 <__lshift>
  1066b4:	e59d100c 	ldr	r1, [sp, #12]
  1066b8:	e1a07000 	mov	r7, r0
  1066bc:	eb0008ec 	bl	108a74 <__mcmp>
  1066c0:	e3500000 	cmp	r0, #0
  1066c4:	da000163 	ble	106c58 <_dtoa_r+0x10b8>
  1066c8:	e5552001 	ldrb	r2, [r5, #-1]
  1066cc:	e2453001 	sub	r3, r5, #1
  1066d0:	ea000002 	b	1066e0 <_dtoa_r+0xb40>
  1066d4:	e1560003 	cmp	r6, r3
  1066d8:	0a000133 	beq	106bac <_dtoa_r+0x100c>
  1066dc:	e5732001 	ldrb	r2, [r3, #-1]!
  1066e0:	e3520039 	cmp	r2, #57	; 0x39
  1066e4:	e2835001 	add	r5, r3, #1
  1066e8:	0afffff9 	beq	1066d4 <_dtoa_r+0xb34>
  1066ec:	e2822001 	add	r2, r2, #1
  1066f0:	e5c32000 	strb	r2, [r3]
  1066f4:	e59d100c 	ldr	r1, [sp, #12]
  1066f8:	e1a00004 	mov	r0, r4
  1066fc:	eb00073c 	bl	1083f4 <_Bfree>
  106700:	e59d3018 	ldr	r3, [sp, #24]
  106704:	e3530000 	cmp	r3, #0
  106708:	0afffe97 	beq	10616c <_dtoa_r+0x5cc>
  10670c:	e35a0000 	cmp	sl, #0
  106710:	115a0003 	cmpne	sl, r3
  106714:	0afffe91 	beq	106160 <_dtoa_r+0x5c0>
  106718:	e1a0100a 	mov	r1, sl
  10671c:	e1a00004 	mov	r0, r4
  106720:	eb000733 	bl	1083f4 <_Bfree>
  106724:	eafffe8d 	b	106160 <_dtoa_r+0x5c0>
  106728:	e59d3068 	ldr	r3, [sp, #104]	; 0x68
  10672c:	e3530001 	cmp	r3, #1
  106730:	da000177 	ble	106d14 <_dtoa_r+0x1174>
  106734:	e3a03000 	mov	r3, #0
  106738:	e58d302c 	str	r3, [sp, #44]	; 0x2c
  10673c:	e59d3024 	ldr	r3, [sp, #36]	; 0x24
  106740:	e3530000 	cmp	r3, #0
  106744:	03a00001 	moveq	r0, #1
  106748:	0afffe46 	beq	106068 <_dtoa_r+0x4c8>
  10674c:	eafffe3f 	b	106050 <_dtoa_r+0x4b0>
  106750:	e3a03000 	mov	r3, #0
  106754:	e58d300c 	str	r3, [sp, #12]
  106758:	e58d3018 	str	r3, [sp, #24]
  10675c:	eafffe75 	b	106138 <_dtoa_r+0x598>
  106760:	e59d200c 	ldr	r2, [sp, #12]
  106764:	e1a01007 	mov	r1, r7
  106768:	e1a00004 	mov	r0, r4
  10676c:	eb000846 	bl	10888c <__pow5mult>
  106770:	e1a07000 	mov	r7, r0
  106774:	eafffe24 	b	10600c <_dtoa_r+0x46c>
  106778:	ec5bab35 	vmov	sl, fp, d21
  10677c:	eafffdca 	b	105eac <_dtoa_r+0x30c>
  106780:	0ef03b65 	vmoveq.f64	d19, d21
  106784:	03a01002 	moveq	r1, #2
  106788:	0affff09 	beq	1063b4 <_dtoa_r+0x814>
  10678c:	e2693000 	rsb	r3, r9, #0
  106790:	e30c2888 	movw	r2, #51336	; 0xc888
  106794:	e203100f 	and	r1, r3, #15
  106798:	e3402010 	movt	r2, #16
  10679c:	e0822181 	add	r2, r2, r1, lsl #3
  1067a0:	e1b03243 	asrs	r3, r3, #4
  1067a4:	edd23b00 	vldr	d19, [r2]
  1067a8:	ee653ba3 	vmul.f64	d19, d21, d19
  1067ac:	0a000168 	beq	106d54 <_dtoa_r+0x11b4>
  1067b0:	e30c2978 	movw	r2, #51576	; 0xc978
  1067b4:	e3a01002 	mov	r1, #2
  1067b8:	e3402010 	movt	r2, #16
  1067bc:	e3130001 	tst	r3, #1
  1067c0:	e2822008 	add	r2, r2, #8
  1067c4:	1d520b02 	vldrne	d16, [r2, #-8]
  1067c8:	12811001 	addne	r1, r1, #1
  1067cc:	1e633ba0 	vmulne.f64	d19, d19, d16
  1067d0:	e1b030c3 	asrs	r3, r3, #1
  1067d4:	1afffff8 	bne	1067bc <_dtoa_r+0xc1c>
  1067d8:	eafffef5 	b	1063b4 <_dtoa_r+0x814>
  1067dc:	e3a03001 	mov	r3, #1
  1067e0:	e58d301c 	str	r3, [sp, #28]
  1067e4:	eafffeb6 	b	1062c4 <_dtoa_r+0x724>
  1067e8:	eefd7be3 	vcvt.s32.f64	s15, d19
  1067ec:	e3403010 	movt	r3, #16
  1067f0:	e083318c 	add	r3, r3, ip, lsl #3
  1067f4:	e35c0001 	cmp	ip, #1
  1067f8:	ec410b31 	vmov	d17, r0, r1
  1067fc:	e2865001 	add	r5, r6, #1
  106800:	ed534b02 	vldr	d20, [r3, #-8]
  106804:	1086100c 	addne	r1, r6, ip
  106808:	eef80be7 	vcvt.f64.s32	d16, s15
  10680c:	ee173a90 	vmov	r3, s15
  106810:	e2833030 	add	r3, r3, #48	; 0x30
  106814:	1ef22b04 	vmovne.f64	d18, #36	; 0x41200000  10.0
  106818:	e5c63000 	strb	r3, [r6]
  10681c:	ee644ba1 	vmul.f64	d20, d20, d17
  106820:	ee730be0 	vsub.f64	d16, d19, d16
  106824:	0a000008 	beq	10684c <_dtoa_r+0xcac>
  106828:	ee600ba2 	vmul.f64	d16, d16, d18
  10682c:	eefd7be0 	vcvt.s32.f64	s15, d16
  106830:	eef81be7 	vcvt.f64.s32	d17, s15
  106834:	ee173a90 	vmov	r3, s15
  106838:	e2833030 	add	r3, r3, #48	; 0x30
  10683c:	e4c53001 	strb	r3, [r5], #1
  106840:	e1510005 	cmp	r1, r5
  106844:	ee700be1 	vsub.f64	d16, d16, d17
  106848:	1afffff6 	bne	106828 <_dtoa_r+0xc88>
  10684c:	eef61b00 	vmov.f64	d17, #96	; 0x3f000000  0.5
  106850:	ee742ba1 	vadd.f64	d18, d20, d17
  106854:	eef42be0 	vcmpe.f64	d18, d16
  106858:	eef1fa10 	vmrs	APSR_nzcv, fpscr
  10685c:	5a0000c7 	bpl	106b80 <_dtoa_r+0xfe0>
  106860:	e1a09002 	mov	r9, r2
  106864:	e5553001 	ldrb	r3, [r5, #-1]
  106868:	eaffff52 	b	1065b8 <_dtoa_r+0xa18>
  10686c:	e59d100c 	ldr	r1, [sp, #12]
  106870:	e1a00007 	mov	r0, r7
  106874:	eb00087e 	bl	108a74 <__mcmp>
  106878:	e3500000 	cmp	r0, #0
  10687c:	aafffe17 	bge	1060e0 <_dtoa_r+0x540>
  106880:	e1a01007 	mov	r1, r7
  106884:	e3a03000 	mov	r3, #0
  106888:	e3a0200a 	mov	r2, #10
  10688c:	e1a00004 	mov	r0, r4
  106890:	eb0006de 	bl	108410 <__multadd>
  106894:	e59d301c 	ldr	r3, [sp, #28]
  106898:	e1a07000 	mov	r7, r0
  10689c:	e2499001 	sub	r9, r9, #1
  1068a0:	e3530000 	cmp	r3, #0
  1068a4:	1a00000e 	bne	1068e4 <_dtoa_r+0xd44>
  1068a8:	e59d2028 	ldr	r2, [sp, #40]	; 0x28
  1068ac:	e59d1068 	ldr	r1, [sp, #104]	; 0x68
  1068b0:	e3520000 	cmp	r2, #0
  1068b4:	e1a03002 	mov	r3, r2
  1068b8:	d3a03001 	movle	r3, #1
  1068bc:	c3a03000 	movgt	r3, #0
  1068c0:	e3510002 	cmp	r1, #2
  1068c4:	d3a03000 	movle	r3, #0
  1068c8:	e3530000 	cmp	r3, #0
  1068cc:	01a03002 	moveq	r3, r2
  1068d0:	058d3014 	streq	r3, [sp, #20]
  1068d4:	0affff5b 	beq	106648 <_dtoa_r+0xaa8>
  1068d8:	e59d3028 	ldr	r3, [sp, #40]	; 0x28
  1068dc:	e58d3014 	str	r3, [sp, #20]
  1068e0:	eafffe07 	b	106104 <_dtoa_r+0x564>
  1068e4:	e3a03000 	mov	r3, #0
  1068e8:	e3a0200a 	mov	r2, #10
  1068ec:	e59d1018 	ldr	r1, [sp, #24]
  1068f0:	e1a00004 	mov	r0, r4
  1068f4:	eb0006c5 	bl	108410 <__multadd>
  1068f8:	e59d3068 	ldr	r3, [sp, #104]	; 0x68
  1068fc:	e59d2028 	ldr	r2, [sp, #40]	; 0x28
  106900:	e58d0018 	str	r0, [sp, #24]
  106904:	e3530002 	cmp	r3, #2
  106908:	c3a03001 	movgt	r3, #1
  10690c:	d3a03000 	movle	r3, #0
  106910:	e3520000 	cmp	r2, #0
  106914:	c3a03000 	movgt	r3, #0
  106918:	e3530000 	cmp	r3, #0
  10691c:	058d2014 	streq	r2, [sp, #20]
  106920:	1affffec 	bne	1068d8 <_dtoa_r+0xd38>
  106924:	e3550000 	cmp	r5, #0
  106928:	da000004 	ble	106940 <_dtoa_r+0xda0>
  10692c:	e1a02005 	mov	r2, r5
  106930:	e59d1018 	ldr	r1, [sp, #24]
  106934:	e1a00004 	mov	r0, r4
  106938:	eb000812 	bl	108988 <__lshift>
  10693c:	e58d0018 	str	r0, [sp, #24]
  106940:	e59d302c 	ldr	r3, [sp, #44]	; 0x2c
  106944:	e3530000 	cmp	r3, #0
  106948:	1a0000cc 	bne	106c80 <_dtoa_r+0x10e0>
  10694c:	e59d3018 	ldr	r3, [sp, #24]
  106950:	e58d3010 	str	r3, [sp, #16]
  106954:	e59d3014 	ldr	r3, [sp, #20]
  106958:	e20a2001 	and	r2, sl, #1
  10695c:	e1a05006 	mov	r5, r6
  106960:	e58d9020 	str	r9, [sp, #32]
  106964:	e58d6024 	str	r6, [sp, #36]	; 0x24
  106968:	e2433001 	sub	r3, r3, #1
  10696c:	e58d2014 	str	r2, [sp, #20]
  106970:	e0863003 	add	r3, r6, r3
  106974:	e59d9010 	ldr	r9, [sp, #16]
  106978:	e58d301c 	str	r3, [sp, #28]
  10697c:	e59d6018 	ldr	r6, [sp, #24]
  106980:	ea000008 	b	1069a8 <_dtoa_r+0xe08>
  106984:	eb0006a1 	bl	108410 <__multadd>
  106988:	e1a01009 	mov	r1, r9
  10698c:	e1a06000 	mov	r6, r0
  106990:	e3a03000 	mov	r3, #0
  106994:	e1a00004 	mov	r0, r4
  106998:	e3a0200a 	mov	r2, #10
  10699c:	eb00069b 	bl	108410 <__multadd>
  1069a0:	e1a09000 	mov	r9, r0
  1069a4:	e1a0500a 	mov	r5, sl
  1069a8:	e59d100c 	ldr	r1, [sp, #12]
  1069ac:	e1a00007 	mov	r0, r7
  1069b0:	ebfffc04 	bl	1059c8 <quorem>
  1069b4:	e1a01006 	mov	r1, r6
  1069b8:	e1a0b000 	mov	fp, r0
  1069bc:	e1a00007 	mov	r0, r7
  1069c0:	e28b8030 	add	r8, fp, #48	; 0x30
  1069c4:	eb00082a 	bl	108a74 <__mcmp>
  1069c8:	e1a02009 	mov	r2, r9
  1069cc:	e1a0a000 	mov	sl, r0
  1069d0:	e59d100c 	ldr	r1, [sp, #12]
  1069d4:	e1a00004 	mov	r0, r4
  1069d8:	eb00083d 	bl	108ad4 <__mdiff>
  1069dc:	e590200c 	ldr	r2, [r0, #12]
  1069e0:	e1a03000 	mov	r3, r0
  1069e4:	e3520000 	cmp	r2, #0
  1069e8:	1a000030 	bne	106ab0 <_dtoa_r+0xf10>
  1069ec:	e1a01000 	mov	r1, r0
  1069f0:	e58d0010 	str	r0, [sp, #16]
  1069f4:	e1a00007 	mov	r0, r7
  1069f8:	eb00081d 	bl	108a74 <__mcmp>
  1069fc:	e59d3010 	ldr	r3, [sp, #16]
  106a00:	e1a02000 	mov	r2, r0
  106a04:	e1a01003 	mov	r1, r3
  106a08:	e1a00004 	mov	r0, r4
  106a0c:	e58d2010 	str	r2, [sp, #16]
  106a10:	eb000677 	bl	1083f4 <_Bfree>
  106a14:	e59d3068 	ldr	r3, [sp, #104]	; 0x68
  106a18:	e59d2010 	ldr	r2, [sp, #16]
  106a1c:	e1923003 	orrs	r3, r2, r3
  106a20:	1a000002 	bne	106a30 <_dtoa_r+0xe90>
  106a24:	e59d3014 	ldr	r3, [sp, #20]
  106a28:	e3530000 	cmp	r3, #0
  106a2c:	0a0000bb 	beq	106d20 <_dtoa_r+0x1180>
  106a30:	e35a0000 	cmp	sl, #0
  106a34:	ba00006f 	blt	106bf8 <_dtoa_r+0x1058>
  106a38:	e59d3068 	ldr	r3, [sp, #104]	; 0x68
  106a3c:	e19a3003 	orrs	r3, sl, r3
  106a40:	1a000002 	bne	106a50 <_dtoa_r+0xeb0>
  106a44:	e59d3014 	ldr	r3, [sp, #20]
  106a48:	e3530000 	cmp	r3, #0
  106a4c:	0a000069 	beq	106bf8 <_dtoa_r+0x1058>
  106a50:	e3520000 	cmp	r2, #0
  106a54:	ca00009a 	bgt	106cc4 <_dtoa_r+0x1124>
  106a58:	e59d301c 	ldr	r3, [sp, #28]
  106a5c:	e285a001 	add	sl, r5, #1
  106a60:	e5c58000 	strb	r8, [r5]
  106a64:	e1530005 	cmp	r3, r5
  106a68:	e1a0500a 	mov	r5, sl
  106a6c:	0a0000a2 	beq	106cfc <_dtoa_r+0x115c>
  106a70:	e1a01007 	mov	r1, r7
  106a74:	e3a03000 	mov	r3, #0
  106a78:	e3a0200a 	mov	r2, #10
  106a7c:	e1a00004 	mov	r0, r4
  106a80:	eb000662 	bl	108410 <__multadd>
  106a84:	e1560009 	cmp	r6, r9
  106a88:	e1a07000 	mov	r7, r0
  106a8c:	e1a01006 	mov	r1, r6
  106a90:	e3a03000 	mov	r3, #0
  106a94:	e3a0200a 	mov	r2, #10
  106a98:	e1a00004 	mov	r0, r4
  106a9c:	1affffb8 	bne	106984 <_dtoa_r+0xde4>
  106aa0:	eb00065a 	bl	108410 <__multadd>
  106aa4:	e1a06000 	mov	r6, r0
  106aa8:	e1a09000 	mov	r9, r0
  106aac:	eaffffbc 	b	1069a4 <_dtoa_r+0xe04>
  106ab0:	e3a02001 	mov	r2, #1
  106ab4:	eaffffd2 	b	106a04 <_dtoa_r+0xe64>
  106ab8:	e1a00006 	mov	r0, r6
  106abc:	eafffc64 	b	105c54 <_dtoa_r+0xb4>
  106ac0:	e35a0000 	cmp	sl, #0
  106ac4:	1afffd5f 	bne	106048 <_dtoa_r+0x4a8>
  106ac8:	e7f3305b 	ubfx	r3, fp, #0, #20
  106acc:	e3530000 	cmp	r3, #0
  106ad0:	1affff17 	bne	106734 <_dtoa_r+0xb94>
  106ad4:	e3cb3102 	bic	r3, fp, #-2147483648	; 0x80000000
  106ad8:	e1a03a23 	lsr	r3, r3, #20
  106adc:	e1a03a03 	lsl	r3, r3, #20
  106ae0:	e3530000 	cmp	r3, #0
  106ae4:	058d302c 	streq	r3, [sp, #44]	; 0x2c
  106ae8:	0affff13 	beq	10673c <_dtoa_r+0xb9c>
  106aec:	e59d3010 	ldr	r3, [sp, #16]
  106af0:	e2888001 	add	r8, r8, #1
  106af4:	e2833001 	add	r3, r3, #1
  106af8:	e58d3010 	str	r3, [sp, #16]
  106afc:	e3a03001 	mov	r3, #1
  106b00:	e58d302c 	str	r3, [sp, #44]	; 0x2c
  106b04:	eaffff0c 	b	10673c <_dtoa_r+0xb9c>
  106b08:	e3a03001 	mov	r3, #1
  106b0c:	e3a01000 	mov	r1, #0
  106b10:	e58d3028 	str	r3, [sp, #40]	; 0x28
  106b14:	e5841044 	str	r1, [r4, #68]	; 0x44
  106b18:	e58d306c 	str	r3, [sp, #108]	; 0x6c
  106b1c:	e58d3014 	str	r3, [sp, #20]
  106b20:	eafffdff 	b	106324 <_dtoa_r+0x784>
  106b24:	e59d3014 	ldr	r3, [sp, #20]
  106b28:	e3530000 	cmp	r3, #0
  106b2c:	0afffeac 	beq	1065e4 <_dtoa_r+0xa44>
  106b30:	e59d3028 	ldr	r3, [sp, #40]	; 0x28
  106b34:	e3530000 	cmp	r3, #0
  106b38:	daffff0e 	ble	106778 <_dtoa_r+0xbd8>
  106b3c:	eef20b04 	vmov.f64	d16, #36	; 0x41200000  10.0
  106b40:	e2811001 	add	r1, r1, #1
  106b44:	eef12b0c 	vmov.f64	d18, #28	; 0x40e00000  7.0
  106b48:	e2492001 	sub	r2, r9, #1
  106b4c:	ee633ba0 	vmul.f64	d19, d19, d16
  106b50:	e1a0c003 	mov	ip, r3
  106b54:	ee071a90 	vmov	s15, r1
  106b58:	eef80be7 	vcvt.f64.s32	d16, s15
  106b5c:	ee402ba3 	vmla.f64	d18, d16, d19
  106b60:	ec510b32 	vmov	r0, r1, d18
  106b64:	e241150d 	sub	r1, r1, #54525952	; 0x3400000
  106b68:	eafffe23 	b	1063fc <_dtoa_r+0x85c>
  106b6c:	e3a03030 	mov	r3, #48	; 0x30
  106b70:	e2899001 	add	r9, r9, #1
  106b74:	e5c63000 	strb	r3, [r6]
  106b78:	e5553001 	ldrb	r3, [r5, #-1]
  106b7c:	eafffe95 	b	1065d8 <_dtoa_r+0xa38>
  106b80:	ee711be4 	vsub.f64	d17, d17, d20
  106b84:	eef41be0 	vcmpe.f64	d17, d16
  106b88:	eef1fa10 	vmrs	APSR_nzcv, fpscr
  106b8c:	ca000001 	bgt	106b98 <_dtoa_r+0xff8>
  106b90:	eafffef8 	b	106778 <_dtoa_r+0xbd8>
  106b94:	e1a05001 	mov	r5, r1
  106b98:	e5553001 	ldrb	r3, [r5, #-1]
  106b9c:	e2451001 	sub	r1, r5, #1
  106ba0:	e3530030 	cmp	r3, #48	; 0x30
  106ba4:	0afffffa 	beq	106b94 <_dtoa_r+0xff4>
  106ba8:	eafffe45 	b	1064c4 <_dtoa_r+0x924>
  106bac:	e3a03031 	mov	r3, #49	; 0x31
  106bb0:	e2899001 	add	r9, r9, #1
  106bb4:	e5c63000 	strb	r3, [r6]
  106bb8:	eafffecd 	b	1066f4 <_dtoa_r+0xb54>
  106bbc:	e59d2018 	ldr	r2, [sp, #24]
  106bc0:	e3520000 	cmp	r2, #0
  106bc4:	159d200c 	ldrne	r2, [sp, #12]
  106bc8:	12833e43 	addne	r3, r3, #1072	; 0x430
  106bcc:	059d3030 	ldreq	r3, [sp, #48]	; 0x30
  106bd0:	12833003 	addne	r3, r3, #3
  106bd4:	059d200c 	ldreq	r2, [sp, #12]
  106bd8:	158d202c 	strne	r2, [sp, #44]	; 0x2c
  106bdc:	159d5010 	ldrne	r5, [sp, #16]
  106be0:	02633036 	rsbeq	r3, r3, #54	; 0x36
  106be4:	058d202c 	streq	r2, [sp, #44]	; 0x2c
  106be8:	059d5010 	ldreq	r5, [sp, #16]
  106bec:	eafffda9 	b	106298 <_dtoa_r+0x6f8>
  106bf0:	e1a09002 	mov	r9, r2
  106bf4:	eafffe6f 	b	1065b8 <_dtoa_r+0xa18>
  106bf8:	e3520000 	cmp	r2, #0
  106bfc:	e58d6018 	str	r6, [sp, #24]
  106c00:	e58d9010 	str	r9, [sp, #16]
  106c04:	e59d6024 	ldr	r6, [sp, #36]	; 0x24
  106c08:	e59d9020 	ldr	r9, [sp, #32]
  106c0c:	da00000b 	ble	106c40 <_dtoa_r+0x10a0>
  106c10:	e1a01007 	mov	r1, r7
  106c14:	e3a02001 	mov	r2, #1
  106c18:	e1a00004 	mov	r0, r4
  106c1c:	eb000759 	bl	108988 <__lshift>
  106c20:	e59d100c 	ldr	r1, [sp, #12]
  106c24:	e1a07000 	mov	r7, r0
  106c28:	eb000791 	bl	108a74 <__mcmp>
  106c2c:	e3500000 	cmp	r0, #0
  106c30:	da000043 	ble	106d44 <_dtoa_r+0x11a4>
  106c34:	e3580039 	cmp	r8, #57	; 0x39
  106c38:	0a000028 	beq	106ce0 <_dtoa_r+0x1140>
  106c3c:	e28b8031 	add	r8, fp, #49	; 0x31
  106c40:	e59d3010 	ldr	r3, [sp, #16]
  106c44:	e2855001 	add	r5, r5, #1
  106c48:	e59da018 	ldr	sl, [sp, #24]
  106c4c:	e5458001 	strb	r8, [r5, #-1]
  106c50:	e58d3018 	str	r3, [sp, #24]
  106c54:	eafffea6 	b	1066f4 <_dtoa_r+0xb54>
  106c58:	1a000003 	bne	106c6c <_dtoa_r+0x10cc>
  106c5c:	e3180001 	tst	r8, #1
  106c60:	0a000001 	beq	106c6c <_dtoa_r+0x10cc>
  106c64:	eafffe97 	b	1066c8 <_dtoa_r+0xb28>
  106c68:	e1a05002 	mov	r5, r2
  106c6c:	e5553001 	ldrb	r3, [r5, #-1]
  106c70:	e2452001 	sub	r2, r5, #1
  106c74:	e3530030 	cmp	r3, #48	; 0x30
  106c78:	0afffffa 	beq	106c68 <_dtoa_r+0x10c8>
  106c7c:	eafffe9c 	b	1066f4 <_dtoa_r+0xb54>
  106c80:	e59d8018 	ldr	r8, [sp, #24]
  106c84:	e1a00004 	mov	r0, r4
  106c88:	e5981004 	ldr	r1, [r8, #4]
  106c8c:	eb0005b6 	bl	10836c <_Balloc>
  106c90:	e5982010 	ldr	r2, [r8, #16]
  106c94:	e1a05000 	mov	r5, r0
  106c98:	e288100c 	add	r1, r8, #12
  106c9c:	e280000c 	add	r0, r0, #12
  106ca0:	e2822002 	add	r2, r2, #2
  106ca4:	e1a02102 	lsl	r2, r2, #2
  106ca8:	eb0004d4 	bl	108000 <memcpy>
  106cac:	e1a01005 	mov	r1, r5
  106cb0:	e3a02001 	mov	r2, #1
  106cb4:	e1a00004 	mov	r0, r4
  106cb8:	eb000732 	bl	108988 <__lshift>
  106cbc:	e58d0010 	str	r0, [sp, #16]
  106cc0:	eaffff23 	b	106954 <_dtoa_r+0xdb4>
  106cc4:	e3580039 	cmp	r8, #57	; 0x39
  106cc8:	e58d6018 	str	r6, [sp, #24]
  106ccc:	e58d9010 	str	r9, [sp, #16]
  106cd0:	12888001 	addne	r8, r8, #1
  106cd4:	e59d9020 	ldr	r9, [sp, #32]
  106cd8:	e59d6024 	ldr	r6, [sp, #36]	; 0x24
  106cdc:	1affffd7 	bne	106c40 <_dtoa_r+0x10a0>
  106ce0:	e59d3010 	ldr	r3, [sp, #16]
  106ce4:	e3a02039 	mov	r2, #57	; 0x39
  106ce8:	e59da018 	ldr	sl, [sp, #24]
  106cec:	e2855001 	add	r5, r5, #1
  106cf0:	e5452001 	strb	r2, [r5, #-1]
  106cf4:	e58d3018 	str	r3, [sp, #24]
  106cf8:	eafffe73 	b	1066cc <_dtoa_r+0xb2c>
  106cfc:	e1a03009 	mov	r3, r9
  106d00:	e1a0a006 	mov	sl, r6
  106d04:	e59d9020 	ldr	r9, [sp, #32]
  106d08:	e59d6024 	ldr	r6, [sp, #36]	; 0x24
  106d0c:	e58d3018 	str	r3, [sp, #24]
  106d10:	eafffe63 	b	1066a4 <_dtoa_r+0xb04>
  106d14:	e35a0000 	cmp	sl, #0
  106d18:	1afffe85 	bne	106734 <_dtoa_r+0xb94>
  106d1c:	eaffff69 	b	106ac8 <_dtoa_r+0xf28>
  106d20:	e3580039 	cmp	r8, #57	; 0x39
  106d24:	e58d6018 	str	r6, [sp, #24]
  106d28:	e58d9010 	str	r9, [sp, #16]
  106d2c:	e59d6024 	ldr	r6, [sp, #36]	; 0x24
  106d30:	e59d9020 	ldr	r9, [sp, #32]
  106d34:	0affffe9 	beq	106ce0 <_dtoa_r+0x1140>
  106d38:	e35a0000 	cmp	sl, #0
  106d3c:	caffffbe 	bgt	106c3c <_dtoa_r+0x109c>
  106d40:	eaffffbe 	b	106c40 <_dtoa_r+0x10a0>
  106d44:	1affffbd 	bne	106c40 <_dtoa_r+0x10a0>
  106d48:	e3180001 	tst	r8, #1
  106d4c:	0affffbb 	beq	106c40 <_dtoa_r+0x10a0>
  106d50:	eaffffb7 	b	106c34 <_dtoa_r+0x1094>
  106d54:	e3a01002 	mov	r1, #2
  106d58:	eafffd95 	b	1063b4 <_dtoa_r+0x814>
  106d5c:	1260003c 	rsbne	r0, r0, #60	; 0x3c
  106d60:	0afffccc 	beq	106098 <_dtoa_r+0x4f8>
  106d64:	eafffcc6 	b	106084 <_dtoa_r+0x4e4>
  106d68:	e3e03000 	mvn	r3, #0
  106d6c:	e58d506c 	str	r5, [sp, #108]	; 0x6c
  106d70:	e58d3014 	str	r3, [sp, #20]
  106d74:	eafffc53 	b	105ec8 <_dtoa_r+0x328>

00106d78 <__sflush_r>:
  106d78:	e1d130fc 	ldrsh	r3, [r1, #12]
  106d7c:	e92d41f0 	push	{r4, r5, r6, r7, r8, lr}
  106d80:	e1a05001 	mov	r5, r1
  106d84:	e1a08000 	mov	r8, r0
  106d88:	e6ff2073 	uxth	r2, r3
  106d8c:	e3120008 	tst	r2, #8
  106d90:	1a000031 	bne	106e5c <__sflush_r+0xe4>
  106d94:	e5912004 	ldr	r2, [r1, #4]
  106d98:	e3833b02 	orr	r3, r3, #2048	; 0x800
  106d9c:	e1c130bc 	strh	r3, [r1, #12]
  106da0:	e3520000 	cmp	r2, #0
  106da4:	da00004a 	ble	106ed4 <__sflush_r+0x15c>
  106da8:	e5956028 	ldr	r6, [r5, #40]	; 0x28
  106dac:	e3560000 	cmp	r6, #0
  106db0:	0a00004a 	beq	106ee0 <__sflush_r+0x168>
  106db4:	e6ff3073 	uxth	r3, r3
  106db8:	e3a02000 	mov	r2, #0
  106dbc:	e5987000 	ldr	r7, [r8]
  106dc0:	e2134a01 	ands	r4, r3, #4096	; 0x1000
  106dc4:	e5882000 	str	r2, [r8]
  106dc8:	0a00005c 	beq	106f40 <__sflush_r+0x1c8>
  106dcc:	e5952050 	ldr	r2, [r5, #80]	; 0x50
  106dd0:	e3130004 	tst	r3, #4
  106dd4:	0a000005 	beq	106df0 <__sflush_r+0x78>
  106dd8:	e5951030 	ldr	r1, [r5, #48]	; 0x30
  106ddc:	e5953004 	ldr	r3, [r5, #4]
  106de0:	e3510000 	cmp	r1, #0
  106de4:	e0422003 	sub	r2, r2, r3
  106de8:	1595303c 	ldrne	r3, [r5, #60]	; 0x3c
  106dec:	10422003 	subne	r2, r2, r3
  106df0:	e3a03000 	mov	r3, #0
  106df4:	e595101c 	ldr	r1, [r5, #28]
  106df8:	e1a00008 	mov	r0, r8
  106dfc:	e12fff36 	blx	r6
  106e00:	e3700001 	cmn	r0, #1
  106e04:	0a000037 	beq	106ee8 <__sflush_r+0x170>
  106e08:	e1d530fc 	ldrsh	r3, [r5, #12]
  106e0c:	e3a01000 	mov	r1, #0
  106e10:	e5952010 	ldr	r2, [r5, #16]
  106e14:	e5851004 	str	r1, [r5, #4]
  106e18:	e3c33b02 	bic	r3, r3, #2048	; 0x800
  106e1c:	e3130a01 	tst	r3, #4096	; 0x1000
  106e20:	e1c530bc 	strh	r3, [r5, #12]
  106e24:	e5852000 	str	r2, [r5]
  106e28:	1a000042 	bne	106f38 <__sflush_r+0x1c0>
  106e2c:	e5951030 	ldr	r1, [r5, #48]	; 0x30
  106e30:	e5887000 	str	r7, [r8]
  106e34:	e3510000 	cmp	r1, #0
  106e38:	0a000028 	beq	106ee0 <__sflush_r+0x168>
  106e3c:	e2853040 	add	r3, r5, #64	; 0x40
  106e40:	e1510003 	cmp	r1, r3
  106e44:	0a000001 	beq	106e50 <__sflush_r+0xd8>
  106e48:	e1a00008 	mov	r0, r8
  106e4c:	eb0001a8 	bl	1074f4 <_free_r>
  106e50:	e3a00000 	mov	r0, #0
  106e54:	e5850030 	str	r0, [r5, #48]	; 0x30
  106e58:	e8bd81f0 	pop	{r4, r5, r6, r7, r8, pc}
  106e5c:	e5916010 	ldr	r6, [r1, #16]
  106e60:	e3560000 	cmp	r6, #0
  106e64:	0a00001d 	beq	106ee0 <__sflush_r+0x168>
  106e68:	e5914000 	ldr	r4, [r1]
  106e6c:	e3120003 	tst	r2, #3
  106e70:	05913014 	ldreq	r3, [r1, #20]
  106e74:	13a03000 	movne	r3, #0
  106e78:	e5816000 	str	r6, [r1]
  106e7c:	e0444006 	sub	r4, r4, r6
  106e80:	e3540000 	cmp	r4, #0
  106e84:	e5813008 	str	r3, [r1, #8]
  106e88:	ca000002 	bgt	106e98 <__sflush_r+0x120>
  106e8c:	ea000013 	b	106ee0 <__sflush_r+0x168>
  106e90:	e3540000 	cmp	r4, #0
  106e94:	da000011 	ble	106ee0 <__sflush_r+0x168>
  106e98:	e1a03004 	mov	r3, r4
  106e9c:	e1a02006 	mov	r2, r6
  106ea0:	e5957024 	ldr	r7, [r5, #36]	; 0x24
  106ea4:	e1a00008 	mov	r0, r8
  106ea8:	e595101c 	ldr	r1, [r5, #28]
  106eac:	e12fff37 	blx	r7
  106eb0:	e3500000 	cmp	r0, #0
  106eb4:	e0444000 	sub	r4, r4, r0
  106eb8:	e0866000 	add	r6, r6, r0
  106ebc:	cafffff3 	bgt	106e90 <__sflush_r+0x118>
  106ec0:	e1d530bc 	ldrh	r3, [r5, #12]
  106ec4:	e3e00000 	mvn	r0, #0
  106ec8:	e3833040 	orr	r3, r3, #64	; 0x40
  106ecc:	e1c530bc 	strh	r3, [r5, #12]
  106ed0:	e8bd81f0 	pop	{r4, r5, r6, r7, r8, pc}
  106ed4:	e591203c 	ldr	r2, [r1, #60]	; 0x3c
  106ed8:	e3520000 	cmp	r2, #0
  106edc:	caffffb1 	bgt	106da8 <__sflush_r+0x30>
  106ee0:	e3a00000 	mov	r0, #0
  106ee4:	e8bd81f0 	pop	{r4, r5, r6, r7, r8, pc}
  106ee8:	e5982000 	ldr	r2, [r8]
  106eec:	e352001d 	cmp	r2, #29
  106ef0:	13520000 	cmpne	r2, #0
  106ef4:	03a03001 	moveq	r3, #1
  106ef8:	13a03000 	movne	r3, #0
  106efc:	e3520016 	cmp	r2, #22
  106f00:	03833001 	orreq	r3, r3, #1
  106f04:	e3530000 	cmp	r3, #0
  106f08:	0a000020 	beq	106f90 <__sflush_r+0x218>
  106f0c:	e1d530fc 	ldrsh	r3, [r5, #12]
  106f10:	e3a0c000 	mov	ip, #0
  106f14:	e5951010 	ldr	r1, [r5, #16]
  106f18:	e585c004 	str	ip, [r5, #4]
  106f1c:	e3c33b02 	bic	r3, r3, #2048	; 0x800
  106f20:	e3130a01 	tst	r3, #4096	; 0x1000
  106f24:	e1c530bc 	strh	r3, [r5, #12]
  106f28:	e5851000 	str	r1, [r5]
  106f2c:	0affffbe 	beq	106e2c <__sflush_r+0xb4>
  106f30:	e3520000 	cmp	r2, #0
  106f34:	1affffbc 	bne	106e2c <__sflush_r+0xb4>
  106f38:	e5850050 	str	r0, [r5, #80]	; 0x50
  106f3c:	eaffffba 	b	106e2c <__sflush_r+0xb4>
  106f40:	e1a02004 	mov	r2, r4
  106f44:	e3a03001 	mov	r3, #1
  106f48:	e595101c 	ldr	r1, [r5, #28]
  106f4c:	e1a00008 	mov	r0, r8
  106f50:	e12fff36 	blx	r6
  106f54:	e3700001 	cmn	r0, #1
  106f58:	e1a02000 	mov	r2, r0
  106f5c:	0a000002 	beq	106f6c <__sflush_r+0x1f4>
  106f60:	e1d530bc 	ldrh	r3, [r5, #12]
  106f64:	e5956028 	ldr	r6, [r5, #40]	; 0x28
  106f68:	eaffff98 	b	106dd0 <__sflush_r+0x58>
  106f6c:	e5983000 	ldr	r3, [r8]
  106f70:	e3530000 	cmp	r3, #0
  106f74:	0afffff9 	beq	106f60 <__sflush_r+0x1e8>
  106f78:	e3530016 	cmp	r3, #22
  106f7c:	1353001d 	cmpne	r3, #29
  106f80:	1affffce 	bne	106ec0 <__sflush_r+0x148>
  106f84:	e5887000 	str	r7, [r8]
  106f88:	e1a00004 	mov	r0, r4
  106f8c:	e8bd81f0 	pop	{r4, r5, r6, r7, r8, pc}
  106f90:	e1d530bc 	ldrh	r3, [r5, #12]
  106f94:	e3833040 	orr	r3, r3, #64	; 0x40
  106f98:	e1c530bc 	strh	r3, [r5, #12]
  106f9c:	e8bd81f0 	pop	{r4, r5, r6, r7, r8, pc}

00106fa0 <_fflush_r>:
  106fa0:	e92d4070 	push	{r4, r5, r6, lr}
  106fa4:	e2504000 	subs	r4, r0, #0
  106fa8:	e1a05001 	mov	r5, r1
  106fac:	0a000002 	beq	106fbc <_fflush_r+0x1c>
  106fb0:	e5943038 	ldr	r3, [r4, #56]	; 0x38
  106fb4:	e3530000 	cmp	r3, #0
  106fb8:	0a000014 	beq	107010 <_fflush_r+0x70>
  106fbc:	e1d500fc 	ldrsh	r0, [r5, #12]
  106fc0:	e3500000 	cmp	r0, #0
  106fc4:	01a04000 	moveq	r4, r0
  106fc8:	0a00000e 	beq	107008 <_fflush_r+0x68>
  106fcc:	e5953064 	ldr	r3, [r5, #100]	; 0x64
  106fd0:	e3130001 	tst	r3, #1
  106fd4:	1a000001 	bne	106fe0 <_fflush_r+0x40>
  106fd8:	e3100c02 	tst	r0, #512	; 0x200
  106fdc:	0a000011 	beq	107028 <_fflush_r+0x88>
  106fe0:	e1a00004 	mov	r0, r4
  106fe4:	e1a01005 	mov	r1, r5
  106fe8:	ebffff62 	bl	106d78 <__sflush_r>
  106fec:	e5953064 	ldr	r3, [r5, #100]	; 0x64
  106ff0:	e1a04000 	mov	r4, r0
  106ff4:	e3130001 	tst	r3, #1
  106ff8:	1a000002 	bne	107008 <_fflush_r+0x68>
  106ffc:	e1d530bc 	ldrh	r3, [r5, #12]
  107000:	e3130c02 	tst	r3, #512	; 0x200
  107004:	0a000003 	beq	107018 <_fflush_r+0x78>
  107008:	e1a00004 	mov	r0, r4
  10700c:	e8bd8070 	pop	{r4, r5, r6, pc}
  107010:	eb00006a 	bl	1071c0 <__sinit>
  107014:	eaffffe8 	b	106fbc <_fflush_r+0x1c>
  107018:	e2850058 	add	r0, r5, #88	; 0x58
  10701c:	eb00138e 	bl	10be5c <__generic_gxx_recursive_mutex_unlock>
  107020:	e1a00004 	mov	r0, r4
  107024:	e8bd8070 	pop	{r4, r5, r6, pc}
  107028:	e2850058 	add	r0, r5, #88	; 0x58
  10702c:	eb00138c 	bl	10be64 <__generic_gxx_recursive_mutex_lock>
  107030:	eaffffea 	b	106fe0 <_fflush_r+0x40>

00107034 <fflush>:
  107034:	e92d4010 	push	{r4, lr}
  107038:	e2504000 	subs	r4, r0, #0
  10703c:	0a000003 	beq	107050 <fflush+0x1c>
  107040:	eb00034d 	bl	107d7c <__getreent>
  107044:	e1a01004 	mov	r1, r4
  107048:	e8bd4010 	pop	{r4, lr}
  10704c:	eaffffd3 	b	106fa0 <_fflush_r>
  107050:	e30c3870 	movw	r3, #51312	; 0xc870
  107054:	e3061fa0 	movw	r1, #28576	; 0x6fa0
  107058:	e3403010 	movt	r3, #16
  10705c:	e3401010 	movt	r1, #16
  107060:	e5930000 	ldr	r0, [r3]
  107064:	e8bd4010 	pop	{r4, lr}
  107068:	ea000323 	b	107cfc <_fwalk_reent>

0010706c <_cleanup_r>:
  10706c:	e30b103c 	movw	r1, #45116	; 0xb03c
  107070:	e3401010 	movt	r1, #16
  107074:	ea000320 	b	107cfc <_fwalk_reent>

00107078 <std.isra.0>:
  107078:	e92d4010 	push	{r4, lr}
  10707c:	e3a03000 	mov	r3, #0
  107080:	e1a04000 	mov	r4, r0
  107084:	e1c010bc 	strh	r1, [r0, #12]
  107088:	e1a01003 	mov	r1, r3
  10708c:	e280005c 	add	r0, r0, #92	; 0x5c
  107090:	e1c420be 	strh	r2, [r4, #14]
  107094:	e3a02008 	mov	r2, #8
  107098:	e5843000 	str	r3, [r4]
  10709c:	e5843004 	str	r3, [r4, #4]
  1070a0:	e5843008 	str	r3, [r4, #8]
  1070a4:	e5843064 	str	r3, [r4, #100]	; 0x64
  1070a8:	e5843010 	str	r3, [r4, #16]
  1070ac:	e5843014 	str	r3, [r4, #20]
  1070b0:	e5843018 	str	r3, [r4, #24]
  1070b4:	eb000468 	bl	10825c <memset>
  1070b8:	e309c88c 	movw	ip, #39052	; 0x988c
  1070bc:	e30918c4 	movw	r1, #39108	; 0x98c4
  1070c0:	e3092918 	movw	r2, #39192	; 0x9918
  1070c4:	e3093944 	movw	r3, #39236	; 0x9944
  1070c8:	e340c010 	movt	ip, #16
  1070cc:	e3401010 	movt	r1, #16
  1070d0:	e3402010 	movt	r2, #16
  1070d4:	e3403010 	movt	r3, #16
  1070d8:	e584401c 	str	r4, [r4, #28]
  1070dc:	e2840058 	add	r0, r4, #88	; 0x58
  1070e0:	e584c020 	str	ip, [r4, #32]
  1070e4:	e5841024 	str	r1, [r4, #36]	; 0x24
  1070e8:	e5842028 	str	r2, [r4, #40]	; 0x28
  1070ec:	e584302c 	str	r3, [r4, #44]	; 0x2c
  1070f0:	e8bd4010 	pop	{r4, lr}
  1070f4:	ea001354 	b	10be4c <__generic_gxx_recursive_mutex_init_function>

001070f8 <__fp_lock>:
  1070f8:	e5903064 	ldr	r3, [r0, #100]	; 0x64
  1070fc:	e3130001 	tst	r3, #1
  107100:	1a000002 	bne	107110 <__fp_lock+0x18>
  107104:	e1d030bc 	ldrh	r3, [r0, #12]
  107108:	e3130c02 	tst	r3, #512	; 0x200
  10710c:	0a000001 	beq	107118 <__fp_lock+0x20>
  107110:	e3a00000 	mov	r0, #0
  107114:	e12fff1e 	bx	lr
  107118:	e92d4010 	push	{r4, lr}
  10711c:	e2800058 	add	r0, r0, #88	; 0x58
  107120:	eb00134f 	bl	10be64 <__generic_gxx_recursive_mutex_lock>
  107124:	e3a00000 	mov	r0, #0
  107128:	e8bd8010 	pop	{r4, pc}

0010712c <__fp_unlock>:
  10712c:	e5903064 	ldr	r3, [r0, #100]	; 0x64
  107130:	e3130001 	tst	r3, #1
  107134:	1a000002 	bne	107144 <__fp_unlock+0x18>
  107138:	e1d030bc 	ldrh	r3, [r0, #12]
  10713c:	e3130c02 	tst	r3, #512	; 0x200
  107140:	0a000001 	beq	10714c <__fp_unlock+0x20>
  107144:	e3a00000 	mov	r0, #0
  107148:	e12fff1e 	bx	lr
  10714c:	e92d4010 	push	{r4, lr}
  107150:	e2800058 	add	r0, r0, #88	; 0x58
  107154:	eb001340 	bl	10be5c <__generic_gxx_recursive_mutex_unlock>
  107158:	e3a00000 	mov	r0, #0
  10715c:	e8bd8010 	pop	{r4, pc}

00107160 <__sfmoreglue>:
  107160:	e92d4070 	push	{r4, r5, r6, lr}
  107164:	e2412001 	sub	r2, r1, #1
  107168:	e3a05068 	mov	r5, #104	; 0x68
  10716c:	e1a06001 	mov	r6, r1
  107170:	e0050295 	mul	r5, r5, r2
  107174:	e2851074 	add	r1, r5, #116	; 0x74
  107178:	ebffeed2 	bl	102cc8 <_malloc_r>
  10717c:	e2504000 	subs	r4, r0, #0
  107180:	0a000006 	beq	1071a0 <__sfmoreglue+0x40>
  107184:	e3a01000 	mov	r1, #0
  107188:	e284000c 	add	r0, r4, #12
  10718c:	e5846004 	str	r6, [r4, #4]
  107190:	e2852068 	add	r2, r5, #104	; 0x68
  107194:	e5841000 	str	r1, [r4]
  107198:	e5840008 	str	r0, [r4, #8]
  10719c:	eb00042e 	bl	10825c <memset>
  1071a0:	e1a00004 	mov	r0, r4
  1071a4:	e8bd8070 	pop	{r4, r5, r6, pc}

001071a8 <_cleanup>:
  1071a8:	e30c3870 	movw	r3, #51312	; 0xc870
  1071ac:	e30b103c 	movw	r1, #45116	; 0xb03c
  1071b0:	e3403010 	movt	r3, #16
  1071b4:	e3401010 	movt	r1, #16
  1071b8:	e5930000 	ldr	r0, [r3]
  1071bc:	ea0002ce 	b	107cfc <_fwalk_reent>

001071c0 <__sinit>:
  1071c0:	e92d4010 	push	{r4, lr}
  1071c4:	e1a04000 	mov	r4, r0
  1071c8:	e3080a14 	movw	r0, #35348	; 0x8a14
  1071cc:	e3400011 	movt	r0, #17
  1071d0:	eb001323 	bl	10be64 <__generic_gxx_recursive_mutex_lock>
  1071d4:	e5942038 	ldr	r2, [r4, #56]	; 0x38
  1071d8:	e3520000 	cmp	r2, #0
  1071dc:	1a000018 	bne	107244 <__sinit+0x84>
  1071e0:	e307306c 	movw	r3, #28780	; 0x706c
  1071e4:	e3a0c003 	mov	ip, #3
  1071e8:	e3403010 	movt	r3, #16
  1071ec:	e2840fbb 	add	r0, r4, #748	; 0x2ec
  1071f0:	e584303c 	str	r3, [r4, #60]	; 0x3c
  1071f4:	e3a01004 	mov	r1, #4
  1071f8:	e584c2e4 	str	ip, [r4, #740]	; 0x2e4
  1071fc:	e58422e0 	str	r2, [r4, #736]	; 0x2e0
  107200:	e58402e8 	str	r0, [r4, #744]	; 0x2e8
  107204:	e5940004 	ldr	r0, [r4, #4]
  107208:	ebffff9a 	bl	107078 <std.isra.0>
  10720c:	e5940008 	ldr	r0, [r4, #8]
  107210:	e3a02001 	mov	r2, #1
  107214:	e3a01009 	mov	r1, #9
  107218:	ebffff96 	bl	107078 <std.isra.0>
  10721c:	e594000c 	ldr	r0, [r4, #12]
  107220:	e3a02002 	mov	r2, #2
  107224:	e3a01012 	mov	r1, #18
  107228:	ebffff92 	bl	107078 <std.isra.0>
  10722c:	e3a03001 	mov	r3, #1
  107230:	e3080a14 	movw	r0, #35348	; 0x8a14
  107234:	e5843038 	str	r3, [r4, #56]	; 0x38
  107238:	e3400011 	movt	r0, #17
  10723c:	e8bd4010 	pop	{r4, lr}
  107240:	ea001305 	b	10be5c <__generic_gxx_recursive_mutex_unlock>
  107244:	e3080a14 	movw	r0, #35348	; 0x8a14
  107248:	e8bd4010 	pop	{r4, lr}
  10724c:	e3400011 	movt	r0, #17
  107250:	ea001301 	b	10be5c <__generic_gxx_recursive_mutex_unlock>

00107254 <__sfp>:
  107254:	e92d4070 	push	{r4, r5, r6, lr}
  107258:	e1a06000 	mov	r6, r0
  10725c:	e59f0100 	ldr	r0, [pc, #256]	; 107364 <__sfp+0x110>
  107260:	eb0012ff 	bl	10be64 <__generic_gxx_recursive_mutex_lock>
  107264:	e30c3870 	movw	r3, #51312	; 0xc870
  107268:	e3403010 	movt	r3, #16
  10726c:	e5935000 	ldr	r5, [r3]
  107270:	e5953038 	ldr	r3, [r5, #56]	; 0x38
  107274:	e3530000 	cmp	r3, #0
  107278:	0a00002a 	beq	107328 <__sfp+0xd4>
  10727c:	e2855e2e 	add	r5, r5, #736	; 0x2e0
  107280:	e9950018 	ldmib	r5, {r3, r4}
  107284:	e2533001 	subs	r3, r3, #1
  107288:	5a000004 	bpl	1072a0 <__sfp+0x4c>
  10728c:	ea000020 	b	107314 <__sfp+0xc0>
  107290:	e2433001 	sub	r3, r3, #1
  107294:	e2844068 	add	r4, r4, #104	; 0x68
  107298:	e3730001 	cmn	r3, #1
  10729c:	0a00001c 	beq	107314 <__sfp+0xc0>
  1072a0:	e1d420fc 	ldrsh	r2, [r4, #12]
  1072a4:	e3520000 	cmp	r2, #0
  1072a8:	1afffff8 	bne	107290 <__sfp+0x3c>
  1072ac:	e3a05000 	mov	r5, #0
  1072b0:	e3e02000 	mvn	r2, #0
  1072b4:	e3a03001 	mov	r3, #1
  1072b8:	e1c420be 	strh	r2, [r4, #14]
  1072bc:	e1c430bc 	strh	r3, [r4, #12]
  1072c0:	e2840058 	add	r0, r4, #88	; 0x58
  1072c4:	e5845064 	str	r5, [r4, #100]	; 0x64
  1072c8:	eb0012df 	bl	10be4c <__generic_gxx_recursive_mutex_init_function>
  1072cc:	e59f0090 	ldr	r0, [pc, #144]	; 107364 <__sfp+0x110>
  1072d0:	eb0012e1 	bl	10be5c <__generic_gxx_recursive_mutex_unlock>
  1072d4:	e5845000 	str	r5, [r4]
  1072d8:	e1a01005 	mov	r1, r5
  1072dc:	e5845008 	str	r5, [r4, #8]
  1072e0:	e3a02008 	mov	r2, #8
  1072e4:	e5845004 	str	r5, [r4, #4]
  1072e8:	e284005c 	add	r0, r4, #92	; 0x5c
  1072ec:	e5845010 	str	r5, [r4, #16]
  1072f0:	e5845014 	str	r5, [r4, #20]
  1072f4:	e5845018 	str	r5, [r4, #24]
  1072f8:	eb0003d7 	bl	10825c <memset>
  1072fc:	e5845030 	str	r5, [r4, #48]	; 0x30
  107300:	e5845034 	str	r5, [r4, #52]	; 0x34
  107304:	e5845044 	str	r5, [r4, #68]	; 0x44
  107308:	e5845048 	str	r5, [r4, #72]	; 0x48
  10730c:	e1a00004 	mov	r0, r4
  107310:	e8bd8070 	pop	{r4, r5, r6, pc}
  107314:	e5954000 	ldr	r4, [r5]
  107318:	e3540000 	cmp	r4, #0
  10731c:	0a000004 	beq	107334 <__sfp+0xe0>
  107320:	e1a05004 	mov	r5, r4
  107324:	eaffffd5 	b	107280 <__sfp+0x2c>
  107328:	e1a00005 	mov	r0, r5
  10732c:	ebffffa3 	bl	1071c0 <__sinit>
  107330:	eaffffd1 	b	10727c <__sfp+0x28>
  107334:	e3a01004 	mov	r1, #4
  107338:	e1a00006 	mov	r0, r6
  10733c:	ebffff87 	bl	107160 <__sfmoreglue>
  107340:	e3500000 	cmp	r0, #0
  107344:	e1a04000 	mov	r4, r0
  107348:	e5850000 	str	r0, [r5]
  10734c:	1afffff3 	bne	107320 <__sfp+0xcc>
  107350:	e59f000c 	ldr	r0, [pc, #12]	; 107364 <__sfp+0x110>
  107354:	eb0012c0 	bl	10be5c <__generic_gxx_recursive_mutex_unlock>
  107358:	e3a0300c 	mov	r3, #12
  10735c:	e5863000 	str	r3, [r6]
  107360:	eaffffe9 	b	10730c <__sfp+0xb8>
  107364:	00118a18 	.word	0x00118a18

00107368 <__sfp_lock_acquire>:
  107368:	e59f0000 	ldr	r0, [pc]	; 107370 <__sfp_lock_acquire+0x8>
  10736c:	ea0012bc 	b	10be64 <__generic_gxx_recursive_mutex_lock>
  107370:	00118a18 	.word	0x00118a18

00107374 <__sfp_lock_release>:
  107374:	e59f0000 	ldr	r0, [pc]	; 10737c <__sfp_lock_release+0x8>
  107378:	ea0012b7 	b	10be5c <__generic_gxx_recursive_mutex_unlock>
  10737c:	00118a18 	.word	0x00118a18

00107380 <__sinit_lock_acquire>:
  107380:	e3080a14 	movw	r0, #35348	; 0x8a14
  107384:	e3400011 	movt	r0, #17
  107388:	ea0012b5 	b	10be64 <__generic_gxx_recursive_mutex_lock>

0010738c <__sinit_lock_release>:
  10738c:	e3080a14 	movw	r0, #35348	; 0x8a14
  107390:	e3400011 	movt	r0, #17
  107394:	ea0012b0 	b	10be5c <__generic_gxx_recursive_mutex_unlock>

00107398 <__fp_lock_all>:
  107398:	e92d4010 	push	{r4, lr}
  10739c:	e59f0014 	ldr	r0, [pc, #20]	; 1073b8 <__fp_lock_all+0x20>
  1073a0:	eb0012af 	bl	10be64 <__generic_gxx_recursive_mutex_lock>
  1073a4:	eb000274 	bl	107d7c <__getreent>
  1073a8:	e30710f8 	movw	r1, #28920	; 0x70f8
  1073ac:	e8bd4010 	pop	{r4, lr}
  1073b0:	e3401010 	movt	r1, #16
  1073b4:	ea000232 	b	107c84 <_fwalk>
  1073b8:	00118a18 	.word	0x00118a18

001073bc <__fp_unlock_all>:
  1073bc:	e92d4010 	push	{r4, lr}
  1073c0:	eb00026d 	bl	107d7c <__getreent>
  1073c4:	e307112c 	movw	r1, #28972	; 0x712c
  1073c8:	e3401010 	movt	r1, #16
  1073cc:	eb00022c 	bl	107c84 <_fwalk>
  1073d0:	e59f0004 	ldr	r0, [pc, #4]	; 1073dc <__fp_unlock_all+0x20>
  1073d4:	e8bd4010 	pop	{r4, lr}
  1073d8:	ea00129f 	b	10be5c <__generic_gxx_recursive_mutex_unlock>
  1073dc:	00118a18 	.word	0x00118a18

001073e0 <__init___sfp_lock>:
  1073e0:	e59f0000 	ldr	r0, [pc]	; 1073e8 <__init___sfp_lock+0x8>
  1073e4:	ea001298 	b	10be4c <__generic_gxx_recursive_mutex_init_function>
  1073e8:	00118a18 	.word	0x00118a18

001073ec <__init___sinit_lock>:
  1073ec:	e3080a14 	movw	r0, #35348	; 0x8a14
  1073f0:	e3400011 	movt	r0, #17
  1073f4:	ea001294 	b	10be4c <__generic_gxx_recursive_mutex_init_function>

001073f8 <_malloc_trim_r>:
  1073f8:	e92d41f0 	push	{r4, r5, r6, r7, r8, lr}
  1073fc:	e3087000 	movw	r7, #32768	; 0x8000
  107400:	e3407011 	movt	r7, #17
  107404:	e1a04001 	mov	r4, r1
  107408:	e1a06000 	mov	r6, r0
  10740c:	ebfff042 	bl	10351c <__malloc_lock>
  107410:	e5973008 	ldr	r3, [r7, #8]
  107414:	e2641efe 	rsb	r1, r4, #4064	; 0xfe0
  107418:	e281100f 	add	r1, r1, #15
  10741c:	e5935004 	ldr	r5, [r3, #4]
  107420:	e3c55003 	bic	r5, r5, #3
  107424:	e0811005 	add	r1, r1, r5
  107428:	e3c11eff 	bic	r1, r1, #4080	; 0xff0
  10742c:	e3c1100f 	bic	r1, r1, #15
  107430:	e2414a01 	sub	r4, r1, #4096	; 0x1000
  107434:	e3540a01 	cmp	r4, #4096	; 0x1000
  107438:	ba000006 	blt	107458 <_malloc_trim_r+0x60>
  10743c:	e3a01000 	mov	r1, #0
  107440:	e1a00006 	mov	r0, r6
  107444:	ebfff0bf 	bl	103748 <_sbrk_r>
  107448:	e5973008 	ldr	r3, [r7, #8]
  10744c:	e0833005 	add	r3, r3, r5
  107450:	e1500003 	cmp	r0, r3
  107454:	0a000003 	beq	107468 <_malloc_trim_r+0x70>
  107458:	e1a00006 	mov	r0, r6
  10745c:	ebfff031 	bl	103528 <__malloc_unlock>
  107460:	e3a00000 	mov	r0, #0
  107464:	e8bd81f0 	pop	{r4, r5, r6, r7, r8, pc}
  107468:	e2641000 	rsb	r1, r4, #0
  10746c:	e1a00006 	mov	r0, r6
  107470:	ebfff0b4 	bl	103748 <_sbrk_r>
  107474:	e3700001 	cmn	r0, #1
  107478:	0a00000c 	beq	1074b0 <_malloc_trim_r+0xb8>
  10747c:	e30839e0 	movw	r3, #35296	; 0x89e0
  107480:	e5972008 	ldr	r2, [r7, #8]
  107484:	e3403011 	movt	r3, #17
  107488:	e0455004 	sub	r5, r5, r4
  10748c:	e5931000 	ldr	r1, [r3]
  107490:	e3855001 	orr	r5, r5, #1
  107494:	e1a00006 	mov	r0, r6
  107498:	e5825004 	str	r5, [r2, #4]
  10749c:	e0411004 	sub	r1, r1, r4
  1074a0:	e5831000 	str	r1, [r3]
  1074a4:	ebfff01f 	bl	103528 <__malloc_unlock>
  1074a8:	e3a00001 	mov	r0, #1
  1074ac:	e8bd81f0 	pop	{r4, r5, r6, r7, r8, pc}
  1074b0:	e3a01000 	mov	r1, #0
  1074b4:	e1a00006 	mov	r0, r6
  1074b8:	ebfff0a2 	bl	103748 <_sbrk_r>
  1074bc:	e5972008 	ldr	r2, [r7, #8]
  1074c0:	e0403002 	sub	r3, r0, r2
  1074c4:	e353000f 	cmp	r3, #15
  1074c8:	daffffe2 	ble	107458 <_malloc_trim_r+0x60>
  1074cc:	e308c408 	movw	ip, #33800	; 0x8408
  1074d0:	e30819e0 	movw	r1, #35296	; 0x89e0
  1074d4:	e340c011 	movt	ip, #17
  1074d8:	e3833001 	orr	r3, r3, #1
  1074dc:	e59cc000 	ldr	ip, [ip]
  1074e0:	e3401011 	movt	r1, #17
  1074e4:	e5823004 	str	r3, [r2, #4]
  1074e8:	e040000c 	sub	r0, r0, ip
  1074ec:	e5810000 	str	r0, [r1]
  1074f0:	eaffffd8 	b	107458 <_malloc_trim_r+0x60>

001074f4 <_free_r>:
  1074f4:	e92d4070 	push	{r4, r5, r6, lr}
  1074f8:	e2515000 	subs	r5, r1, #0
  1074fc:	08bd8070 	popeq	{r4, r5, r6, pc}
  107500:	e1a04000 	mov	r4, r0
  107504:	ebfff004 	bl	10351c <__malloc_lock>
  107508:	e5151004 	ldr	r1, [r5, #-4]
  10750c:	e308e000 	movw	lr, #32768	; 0x8000
  107510:	e340e011 	movt	lr, #17
  107514:	e245c008 	sub	ip, r5, #8
  107518:	e59e6008 	ldr	r6, [lr, #8]
  10751c:	e3c13001 	bic	r3, r1, #1
  107520:	e08c0003 	add	r0, ip, r3
  107524:	e5902004 	ldr	r2, [r0, #4]
  107528:	e1500006 	cmp	r0, r6
  10752c:	e3c22003 	bic	r2, r2, #3
  107530:	0a00004f 	beq	107674 <_free_r+0x180>
  107534:	e3110001 	tst	r1, #1
  107538:	e5802004 	str	r2, [r0, #4]
  10753c:	1a000009 	bne	107568 <_free_r+0x74>
  107540:	e5151008 	ldr	r1, [r5, #-8]
  107544:	e28e5008 	add	r5, lr, #8
  107548:	e04cc001 	sub	ip, ip, r1
  10754c:	e0833001 	add	r3, r3, r1
  107550:	e59c1008 	ldr	r1, [ip, #8]
  107554:	e1510005 	cmp	r1, r5
  107558:	0a00005f 	beq	1076dc <_free_r+0x1e8>
  10755c:	e59c500c 	ldr	r5, [ip, #12]
  107560:	e581500c 	str	r5, [r1, #12]
  107564:	e5851008 	str	r1, [r5, #8]
  107568:	e0801002 	add	r1, r0, r2
  10756c:	e5911004 	ldr	r1, [r1, #4]
  107570:	e3110001 	tst	r1, #1
  107574:	13832001 	orrne	r2, r3, #1
  107578:	158c2004 	strne	r2, [ip, #4]
  10757c:	178c3003 	strne	r3, [ip, r3]
  107580:	0a00002d 	beq	10763c <_free_r+0x148>
  107584:	e3530c02 	cmp	r3, #512	; 0x200
  107588:	2a000010 	bcs	1075d0 <_free_r+0xdc>
  10758c:	e59e0004 	ldr	r0, [lr, #4]
  107590:	e1a031a3 	lsr	r3, r3, #3
  107594:	e3a06001 	mov	r6, #1
  107598:	e0832006 	add	r2, r3, r6
  10759c:	e1a03143 	asr	r3, r3, #2
  1075a0:	e79e5182 	ldr	r5, [lr, r2, lsl #3]
  1075a4:	e08e1182 	add	r1, lr, r2, lsl #3
  1075a8:	e1803316 	orr	r3, r0, r6, lsl r3
  1075ac:	e2411008 	sub	r1, r1, #8
  1075b0:	e58c100c 	str	r1, [ip, #12]
  1075b4:	e58c5008 	str	r5, [ip, #8]
  1075b8:	e58e3004 	str	r3, [lr, #4]
  1075bc:	e78ec182 	str	ip, [lr, r2, lsl #3]
  1075c0:	e585c00c 	str	ip, [r5, #12]
  1075c4:	e1a00004 	mov	r0, r4
  1075c8:	e8bd4070 	pop	{r4, r5, r6, lr}
  1075cc:	eaffefd5 	b	103528 <__malloc_unlock>
  1075d0:	e1a024a3 	lsr	r2, r3, #9
  1075d4:	e3520004 	cmp	r2, #4
  1075d8:	8a00004c 	bhi	107710 <_free_r+0x21c>
  1075dc:	e1a02323 	lsr	r2, r3, #6
  1075e0:	e2820039 	add	r0, r2, #57	; 0x39
  1075e4:	e2821038 	add	r1, r2, #56	; 0x38
  1075e8:	e1a00180 	lsl	r0, r0, #3
  1075ec:	e79e2000 	ldr	r2, [lr, r0]
  1075f0:	e08e0000 	add	r0, lr, r0
  1075f4:	e2400008 	sub	r0, r0, #8
  1075f8:	e1500002 	cmp	r0, r2
  1075fc:	0a000049 	beq	107728 <_free_r+0x234>
  107600:	e5921004 	ldr	r1, [r2, #4]
  107604:	e3c11003 	bic	r1, r1, #3
  107608:	e1530001 	cmp	r3, r1
  10760c:	2a000030 	bcs	1076d4 <_free_r+0x1e0>
  107610:	e5922008 	ldr	r2, [r2, #8]
  107614:	e1500002 	cmp	r0, r2
  107618:	1afffff8 	bne	107600 <_free_r+0x10c>
  10761c:	e590300c 	ldr	r3, [r0, #12]
  107620:	e58c0008 	str	r0, [ip, #8]
  107624:	e58c300c 	str	r3, [ip, #12]
  107628:	e583c008 	str	ip, [r3, #8]
  10762c:	e580c00c 	str	ip, [r0, #12]
  107630:	e1a00004 	mov	r0, r4
  107634:	e8bd4070 	pop	{r4, r5, r6, lr}
  107638:	eaffefba 	b	103528 <__malloc_unlock>
  10763c:	e5901008 	ldr	r1, [r0, #8]
  107640:	e0833002 	add	r3, r3, r2
  107644:	e59f2184 	ldr	r2, [pc, #388]	; 1077d0 <_free_r+0x2dc>
  107648:	e1510002 	cmp	r1, r2
  10764c:	0a00003c 	beq	107744 <_free_r+0x250>
  107650:	e590000c 	ldr	r0, [r0, #12]
  107654:	e3530c02 	cmp	r3, #512	; 0x200
  107658:	e3832001 	orr	r2, r3, #1
  10765c:	e581000c 	str	r0, [r1, #12]
  107660:	e5801008 	str	r1, [r0, #8]
  107664:	e58c2004 	str	r2, [ip, #4]
  107668:	e78c3003 	str	r3, [ip, r3]
  10766c:	2affffd7 	bcs	1075d0 <_free_r+0xdc>
  107670:	eaffffc5 	b	10758c <_free_r+0x98>
  107674:	e3110001 	tst	r1, #1
  107678:	e0833002 	add	r3, r3, r2
  10767c:	1a000006 	bne	10769c <_free_r+0x1a8>
  107680:	e5152008 	ldr	r2, [r5, #-8]
  107684:	e04cc002 	sub	ip, ip, r2
  107688:	e0833002 	add	r3, r3, r2
  10768c:	e59c1008 	ldr	r1, [ip, #8]
  107690:	e59c200c 	ldr	r2, [ip, #12]
  107694:	e581200c 	str	r2, [r1, #12]
  107698:	e5821008 	str	r1, [r2, #8]
  10769c:	e308140c 	movw	r1, #33804	; 0x840c
  1076a0:	e3832001 	orr	r2, r3, #1
  1076a4:	e3401011 	movt	r1, #17
  1076a8:	e58c2004 	str	r2, [ip, #4]
  1076ac:	e5912000 	ldr	r2, [r1]
  1076b0:	e58ec008 	str	ip, [lr, #8]
  1076b4:	e1530002 	cmp	r3, r2
  1076b8:	3affffc1 	bcc	1075c4 <_free_r+0xd0>
  1076bc:	e30839dc 	movw	r3, #35292	; 0x89dc
  1076c0:	e1a00004 	mov	r0, r4
  1076c4:	e3403011 	movt	r3, #17
  1076c8:	e5931000 	ldr	r1, [r3]
  1076cc:	ebffff49 	bl	1073f8 <_malloc_trim_r>
  1076d0:	eaffffbb 	b	1075c4 <_free_r+0xd0>
  1076d4:	e1a00002 	mov	r0, r2
  1076d8:	eaffffcf 	b	10761c <_free_r+0x128>
  1076dc:	e0801002 	add	r1, r0, r2
  1076e0:	e5911004 	ldr	r1, [r1, #4]
  1076e4:	e3110001 	tst	r1, #1
  1076e8:	1a000034 	bne	1077c0 <_free_r+0x2cc>
  1076ec:	e5901008 	ldr	r1, [r0, #8]
  1076f0:	e0823003 	add	r3, r2, r3
  1076f4:	e590200c 	ldr	r2, [r0, #12]
  1076f8:	e3830001 	orr	r0, r3, #1
  1076fc:	e581200c 	str	r2, [r1, #12]
  107700:	e5821008 	str	r1, [r2, #8]
  107704:	e58c0004 	str	r0, [ip, #4]
  107708:	e78c3003 	str	r3, [ip, r3]
  10770c:	eaffffac 	b	1075c4 <_free_r+0xd0>
  107710:	e3520014 	cmp	r2, #20
  107714:	8a000012 	bhi	107764 <_free_r+0x270>
  107718:	e282005c 	add	r0, r2, #92	; 0x5c
  10771c:	e282105b 	add	r1, r2, #91	; 0x5b
  107720:	e1a00180 	lsl	r0, r0, #3
  107724:	eaffffb0 	b	1075ec <_free_r+0xf8>
  107728:	e59e5004 	ldr	r5, [lr, #4]
  10772c:	e1a02141 	asr	r2, r1, #2
  107730:	e3a01001 	mov	r1, #1
  107734:	e1a03000 	mov	r3, r0
  107738:	e1852211 	orr	r2, r5, r1, lsl r2
  10773c:	e58e2004 	str	r2, [lr, #4]
  107740:	eaffffb6 	b	107620 <_free_r+0x12c>
  107744:	e3832001 	orr	r2, r3, #1
  107748:	e58ec014 	str	ip, [lr, #20]
  10774c:	e58ec010 	str	ip, [lr, #16]
  107750:	e58c100c 	str	r1, [ip, #12]
  107754:	e58c1008 	str	r1, [ip, #8]
  107758:	e58c2004 	str	r2, [ip, #4]
  10775c:	e78c3003 	str	r3, [ip, r3]
  107760:	eaffff97 	b	1075c4 <_free_r+0xd0>
  107764:	e3520054 	cmp	r2, #84	; 0x54
  107768:	8a000004 	bhi	107780 <_free_r+0x28c>
  10776c:	e1a02623 	lsr	r2, r3, #12
  107770:	e282006f 	add	r0, r2, #111	; 0x6f
  107774:	e282106e 	add	r1, r2, #110	; 0x6e
  107778:	e1a00180 	lsl	r0, r0, #3
  10777c:	eaffff9a 	b	1075ec <_free_r+0xf8>
  107780:	e3520f55 	cmp	r2, #340	; 0x154
  107784:	8a000004 	bhi	10779c <_free_r+0x2a8>
  107788:	e1a027a3 	lsr	r2, r3, #15
  10778c:	e2820078 	add	r0, r2, #120	; 0x78
  107790:	e2821077 	add	r1, r2, #119	; 0x77
  107794:	e1a00180 	lsl	r0, r0, #3
  107798:	eaffff93 	b	1075ec <_free_r+0xf8>
  10779c:	e3001554 	movw	r1, #1364	; 0x554
  1077a0:	e1520001 	cmp	r2, r1
  1077a4:	91a02923 	lsrls	r2, r3, #18
  1077a8:	83a00ffe 	movhi	r0, #1016	; 0x3f8
  1077ac:	83a0107e 	movhi	r1, #126	; 0x7e
  1077b0:	9282007d 	addls	r0, r2, #125	; 0x7d
  1077b4:	9282107c 	addls	r1, r2, #124	; 0x7c
  1077b8:	91a00180 	lslls	r0, r0, #3
  1077bc:	eaffff8a 	b	1075ec <_free_r+0xf8>
  1077c0:	e3832001 	orr	r2, r3, #1
  1077c4:	e58c2004 	str	r2, [ip, #4]
  1077c8:	e5803000 	str	r3, [r0]
  1077cc:	eaffff7c 	b	1075c4 <_free_r+0xd0>
  1077d0:	00118008 	.word	0x00118008

001077d4 <__sfvwrite_r>:
  1077d4:	e5923008 	ldr	r3, [r2, #8]
  1077d8:	e3530000 	cmp	r3, #0
  1077dc:	0a0000c2 	beq	107aec <__sfvwrite_r+0x318>
  1077e0:	e1d1c0bc 	ldrh	ip, [r1, #12]
  1077e4:	e92d4ff0 	push	{r4, r5, r6, r7, r8, r9, sl, fp, lr}
  1077e8:	e1a06001 	mov	r6, r1
  1077ec:	e24dd00c 	sub	sp, sp, #12
  1077f0:	e1a0b000 	mov	fp, r0
  1077f4:	e31c0008 	tst	ip, #8
  1077f8:	e1a09002 	mov	r9, r2
  1077fc:	0a00001f 	beq	107880 <__sfvwrite_r+0xac>
  107800:	e5913010 	ldr	r3, [r1, #16]
  107804:	e3530000 	cmp	r3, #0
  107808:	0a00001c 	beq	107880 <__sfvwrite_r+0xac>
  10780c:	e21c8002 	ands	r8, ip, #2
  107810:	e5997000 	ldr	r7, [r9]
  107814:	0a000022 	beq	1078a4 <__sfvwrite_r+0xd0>
  107818:	e3a05000 	mov	r5, #0
  10781c:	e3a08b3f 	mov	r8, #64512	; 0xfc00
  107820:	e1a04005 	mov	r4, r5
  107824:	e3478fff 	movt	r8, #32767	; 0x7fff
  107828:	e3540000 	cmp	r4, #0
  10782c:	e1a02005 	mov	r2, r5
  107830:	e1a0000b 	mov	r0, fp
  107834:	0a000042 	beq	107944 <__sfvwrite_r+0x170>
  107838:	e1540008 	cmp	r4, r8
  10783c:	e596a024 	ldr	sl, [r6, #36]	; 0x24
  107840:	31a03004 	movcc	r3, r4
  107844:	21a03008 	movcs	r3, r8
  107848:	e596101c 	ldr	r1, [r6, #28]
  10784c:	e12fff3a 	blx	sl
  107850:	e3500000 	cmp	r0, #0
  107854:	e0855000 	add	r5, r5, r0
  107858:	e0444000 	sub	r4, r4, r0
  10785c:	da000056 	ble	1079bc <__sfvwrite_r+0x1e8>
  107860:	e5993008 	ldr	r3, [r9, #8]
  107864:	e0430000 	sub	r0, r3, r0
  107868:	e3500000 	cmp	r0, #0
  10786c:	e5890008 	str	r0, [r9, #8]
  107870:	1affffec 	bne	107828 <__sfvwrite_r+0x54>
  107874:	e3a00000 	mov	r0, #0
  107878:	e28dd00c 	add	sp, sp, #12
  10787c:	e8bd8ff0 	pop	{r4, r5, r6, r7, r8, r9, sl, fp, pc}
  107880:	e1a01006 	mov	r1, r6
  107884:	e1a0000b 	mov	r0, fp
  107888:	ebfff7fd 	bl	105884 <__swsetup_r>
  10788c:	e3500000 	cmp	r0, #0
  107890:	1a0000f5 	bne	107c6c <__sfvwrite_r+0x498>
  107894:	e1d6c0bc 	ldrh	ip, [r6, #12]
  107898:	e5997000 	ldr	r7, [r9]
  10789c:	e21c8002 	ands	r8, ip, #2
  1078a0:	1affffdc 	bne	107818 <__sfvwrite_r+0x44>
  1078a4:	e21ca001 	ands	sl, ip, #1
  1078a8:	01a0800a 	moveq	r8, sl
  1078ac:	1a000090 	bne	107af4 <__sfvwrite_r+0x320>
  1078b0:	e3580000 	cmp	r8, #0
  1078b4:	0a00001e 	beq	107934 <__sfvwrite_r+0x160>
  1078b8:	e31c0c02 	tst	ip, #512	; 0x200
  1078bc:	e5965008 	ldr	r5, [r6, #8]
  1078c0:	0a000023 	beq	107954 <__sfvwrite_r+0x180>
  1078c4:	e1580005 	cmp	r8, r5
  1078c8:	e1a03005 	mov	r3, r5
  1078cc:	3a000040 	bcc	1079d4 <__sfvwrite_r+0x200>
  1078d0:	e31c0d12 	tst	ip, #1152	; 0x480
  1078d4:	1a000043 	bne	1079e8 <__sfvwrite_r+0x214>
  1078d8:	e5960000 	ldr	r0, [r6]
  1078dc:	e1a04008 	mov	r4, r8
  1078e0:	e1a02003 	mov	r2, r3
  1078e4:	e1a0100a 	mov	r1, sl
  1078e8:	e58d3004 	str	r3, [sp, #4]
  1078ec:	eb000208 	bl	108114 <memmove>
  1078f0:	e5961008 	ldr	r1, [r6, #8]
  1078f4:	e5962000 	ldr	r2, [r6]
  1078f8:	e59d3004 	ldr	r3, [sp, #4]
  1078fc:	e0415005 	sub	r5, r1, r5
  107900:	e5865008 	str	r5, [r6, #8]
  107904:	e0823003 	add	r3, r2, r3
  107908:	e5863000 	str	r3, [r6]
  10790c:	e5990008 	ldr	r0, [r9, #8]
  107910:	e08aa004 	add	sl, sl, r4
  107914:	e0488004 	sub	r8, r8, r4
  107918:	e0404004 	sub	r4, r0, r4
  10791c:	e3540000 	cmp	r4, #0
  107920:	e5894008 	str	r4, [r9, #8]
  107924:	0affffd2 	beq	107874 <__sfvwrite_r+0xa0>
  107928:	e3580000 	cmp	r8, #0
  10792c:	e1d6c0bc 	ldrh	ip, [r6, #12]
  107930:	1affffe0 	bne	1078b8 <__sfvwrite_r+0xe4>
  107934:	e597a000 	ldr	sl, [r7]
  107938:	e2877008 	add	r7, r7, #8
  10793c:	e5178004 	ldr	r8, [r7, #-4]
  107940:	eaffffda 	b	1078b0 <__sfvwrite_r+0xdc>
  107944:	e5975000 	ldr	r5, [r7]
  107948:	e2877008 	add	r7, r7, #8
  10794c:	e5174004 	ldr	r4, [r7, #-4]
  107950:	eaffffb4 	b	107828 <__sfvwrite_r+0x54>
  107954:	e5960000 	ldr	r0, [r6]
  107958:	e5963010 	ldr	r3, [r6, #16]
  10795c:	e1500003 	cmp	r0, r3
  107960:	8a000002 	bhi	107970 <__sfvwrite_r+0x19c>
  107964:	e5964014 	ldr	r4, [r6, #20]
  107968:	e1580004 	cmp	r8, r4
  10796c:	2a000043 	bcs	107a80 <__sfvwrite_r+0x2ac>
  107970:	e1550008 	cmp	r5, r8
  107974:	e1a0100a 	mov	r1, sl
  107978:	31a04005 	movcc	r4, r5
  10797c:	21a04008 	movcs	r4, r8
  107980:	e1a02004 	mov	r2, r4
  107984:	eb0001e2 	bl	108114 <memmove>
  107988:	e5963008 	ldr	r3, [r6, #8]
  10798c:	e5962000 	ldr	r2, [r6]
  107990:	e0433004 	sub	r3, r3, r4
  107994:	e3530000 	cmp	r3, #0
  107998:	e0822004 	add	r2, r2, r4
  10799c:	e5863008 	str	r3, [r6, #8]
  1079a0:	e5862000 	str	r2, [r6]
  1079a4:	1affffd8 	bne	10790c <__sfvwrite_r+0x138>
  1079a8:	e1a01006 	mov	r1, r6
  1079ac:	e1a0000b 	mov	r0, fp
  1079b0:	ebfffd7a 	bl	106fa0 <_fflush_r>
  1079b4:	e3500000 	cmp	r0, #0
  1079b8:	0affffd3 	beq	10790c <__sfvwrite_r+0x138>
  1079bc:	e1d630fc 	ldrsh	r3, [r6, #12]
  1079c0:	e3833040 	orr	r3, r3, #64	; 0x40
  1079c4:	e3e00000 	mvn	r0, #0
  1079c8:	e1c630bc 	strh	r3, [r6, #12]
  1079cc:	e28dd00c 	add	sp, sp, #12
  1079d0:	e8bd8ff0 	pop	{r4, r5, r6, r7, r8, r9, sl, fp, pc}
  1079d4:	e5960000 	ldr	r0, [r6]
  1079d8:	e1a05008 	mov	r5, r8
  1079dc:	e1a04008 	mov	r4, r8
  1079e0:	e1a03008 	mov	r3, r8
  1079e4:	eaffffbd 	b	1078e0 <__sfvwrite_r+0x10c>
  1079e8:	e5962014 	ldr	r2, [r6, #20]
  1079ec:	e5963010 	ldr	r3, [r6, #16]
  1079f0:	e5964000 	ldr	r4, [r6]
  1079f4:	e0822082 	add	r2, r2, r2, lsl #1
  1079f8:	e0444003 	sub	r4, r4, r3
  1079fc:	e0822fa2 	add	r2, r2, r2, lsr #31
  107a00:	e2841001 	add	r1, r4, #1
  107a04:	e0811008 	add	r1, r1, r8
  107a08:	e1a020c2 	asr	r2, r2, #1
  107a0c:	e1510002 	cmp	r1, r2
  107a10:	91a01002 	movls	r1, r2
  107a14:	81a02001 	movhi	r2, r1
  107a18:	e31c0b01 	tst	ip, #1024	; 0x400
  107a1c:	e58d1004 	str	r1, [sp, #4]
  107a20:	0a000024 	beq	107ab8 <__sfvwrite_r+0x2e4>
  107a24:	e1a01002 	mov	r1, r2
  107a28:	e1a0000b 	mov	r0, fp
  107a2c:	ebffeca5 	bl	102cc8 <_malloc_r>
  107a30:	e2505000 	subs	r5, r0, #0
  107a34:	0a00008e 	beq	107c74 <__sfvwrite_r+0x4a0>
  107a38:	e1a02004 	mov	r2, r4
  107a3c:	e5961010 	ldr	r1, [r6, #16]
  107a40:	eb00016e 	bl	108000 <memcpy>
  107a44:	e1d630bc 	ldrh	r3, [r6, #12]
  107a48:	e3c33d12 	bic	r3, r3, #1152	; 0x480
  107a4c:	e3833080 	orr	r3, r3, #128	; 0x80
  107a50:	e1c630bc 	strh	r3, [r6, #12]
  107a54:	e59d2004 	ldr	r2, [sp, #4]
  107a58:	e0850004 	add	r0, r5, r4
  107a5c:	e5865010 	str	r5, [r6, #16]
  107a60:	e1a05008 	mov	r5, r8
  107a64:	e5860000 	str	r0, [r6]
  107a68:	e0423004 	sub	r3, r2, r4
  107a6c:	e5862014 	str	r2, [r6, #20]
  107a70:	e5863008 	str	r3, [r6, #8]
  107a74:	e1a04008 	mov	r4, r8
  107a78:	e1a03008 	mov	r3, r8
  107a7c:	eaffff97 	b	1078e0 <__sfvwrite_r+0x10c>
  107a80:	e3780106 	cmn	r8, #-2147483647	; 0x80000001
  107a84:	e1a01004 	mov	r1, r4
  107a88:	31a00008 	movcc	r0, r8
  107a8c:	23e00102 	mvncs	r0, #-2147483648	; 0x80000000
  107a90:	eb000ffc 	bl	10ba88 <__aeabi_idiv>
  107a94:	e5965024 	ldr	r5, [r6, #36]	; 0x24
  107a98:	e0030094 	mul	r3, r4, r0
  107a9c:	e1a0200a 	mov	r2, sl
  107aa0:	e596101c 	ldr	r1, [r6, #28]
  107aa4:	e1a0000b 	mov	r0, fp
  107aa8:	e12fff35 	blx	r5
  107aac:	e2504000 	subs	r4, r0, #0
  107ab0:	caffff95 	bgt	10790c <__sfvwrite_r+0x138>
  107ab4:	eaffffc0 	b	1079bc <__sfvwrite_r+0x1e8>
  107ab8:	e1a01003 	mov	r1, r3
  107abc:	e1a0000b 	mov	r0, fp
  107ac0:	eb0005cf 	bl	109204 <_realloc_r>
  107ac4:	e2505000 	subs	r5, r0, #0
  107ac8:	1affffe1 	bne	107a54 <__sfvwrite_r+0x280>
  107acc:	e5961010 	ldr	r1, [r6, #16]
  107ad0:	e1a0000b 	mov	r0, fp
  107ad4:	ebfffe86 	bl	1074f4 <_free_r>
  107ad8:	e1d630fc 	ldrsh	r3, [r6, #12]
  107adc:	e3a0200c 	mov	r2, #12
  107ae0:	e58b2000 	str	r2, [fp]
  107ae4:	e3c33080 	bic	r3, r3, #128	; 0x80
  107ae8:	eaffffb4 	b	1079c0 <__sfvwrite_r+0x1ec>
  107aec:	e3a00000 	mov	r0, #0
  107af0:	e12fff1e 	bx	lr
  107af4:	e1a00008 	mov	r0, r8
  107af8:	e1a0a008 	mov	sl, r8
  107afc:	e1a05008 	mov	r5, r8
  107b00:	ea000025 	b	107b9c <__sfvwrite_r+0x3c8>
  107b04:	e3500000 	cmp	r0, #0
  107b08:	0a00002c 	beq	107bc0 <__sfvwrite_r+0x3ec>
  107b0c:	e5962010 	ldr	r2, [r6, #16]
  107b10:	e1580005 	cmp	r8, r5
  107b14:	e596c014 	ldr	ip, [r6, #20]
  107b18:	31a01008 	movcc	r1, r8
  107b1c:	e5963008 	ldr	r3, [r6, #8]
  107b20:	21a01005 	movcs	r1, r5
  107b24:	e5960000 	ldr	r0, [r6]
  107b28:	e1a04001 	mov	r4, r1
  107b2c:	e08c3003 	add	r3, ip, r3
  107b30:	e1500002 	cmp	r0, r2
  107b34:	93a02000 	movls	r2, #0
  107b38:	83a02001 	movhi	r2, #1
  107b3c:	e1510003 	cmp	r1, r3
  107b40:	d3a02000 	movle	r2, #0
  107b44:	e3520000 	cmp	r2, #0
  107b48:	1a000037 	bne	107c2c <__sfvwrite_r+0x458>
  107b4c:	e151000c 	cmp	r1, ip
  107b50:	ba000023 	blt	107be4 <__sfvwrite_r+0x410>
  107b54:	e5964024 	ldr	r4, [r6, #36]	; 0x24
  107b58:	e1a0300c 	mov	r3, ip
  107b5c:	e1a0200a 	mov	r2, sl
  107b60:	e596101c 	ldr	r1, [r6, #28]
  107b64:	e1a0000b 	mov	r0, fp
  107b68:	e12fff34 	blx	r4
  107b6c:	e2504000 	subs	r4, r0, #0
  107b70:	daffff91 	ble	1079bc <__sfvwrite_r+0x1e8>
  107b74:	e0588004 	subs	r8, r8, r4
  107b78:	13a00001 	movne	r0, #1
  107b7c:	0a000024 	beq	107c14 <__sfvwrite_r+0x440>
  107b80:	e5993008 	ldr	r3, [r9, #8]
  107b84:	e08aa004 	add	sl, sl, r4
  107b88:	e0455004 	sub	r5, r5, r4
  107b8c:	e0434004 	sub	r4, r3, r4
  107b90:	e3540000 	cmp	r4, #0
  107b94:	e5894008 	str	r4, [r9, #8]
  107b98:	0affff35 	beq	107874 <__sfvwrite_r+0xa0>
  107b9c:	e3550000 	cmp	r5, #0
  107ba0:	1affffd7 	bne	107b04 <__sfvwrite_r+0x330>
  107ba4:	e2873008 	add	r3, r7, #8
  107ba8:	e5135004 	ldr	r5, [r3, #-4]
  107bac:	e1a07003 	mov	r7, r3
  107bb0:	e513a008 	ldr	sl, [r3, #-8]
  107bb4:	e2833008 	add	r3, r3, #8
  107bb8:	e3550000 	cmp	r5, #0
  107bbc:	0afffff9 	beq	107ba8 <__sfvwrite_r+0x3d4>
  107bc0:	e1a02005 	mov	r2, r5
  107bc4:	e3a0100a 	mov	r1, #10
  107bc8:	e1a0000a 	mov	r0, sl
  107bcc:	fa0000e3 	blx	107f60 <memchr>
  107bd0:	e3500000 	cmp	r0, #0
  107bd4:	12800001 	addne	r0, r0, #1
  107bd8:	02858001 	addeq	r8, r5, #1
  107bdc:	1040800a 	subne	r8, r0, sl
  107be0:	eaffffc9 	b	107b0c <__sfvwrite_r+0x338>
  107be4:	e1a02001 	mov	r2, r1
  107be8:	e1a0100a 	mov	r1, sl
  107bec:	eb000148 	bl	108114 <memmove>
  107bf0:	e5962008 	ldr	r2, [r6, #8]
  107bf4:	e0588004 	subs	r8, r8, r4
  107bf8:	e5963000 	ldr	r3, [r6]
  107bfc:	13a00001 	movne	r0, #1
  107c00:	e0422004 	sub	r2, r2, r4
  107c04:	e0833004 	add	r3, r3, r4
  107c08:	e5862008 	str	r2, [r6, #8]
  107c0c:	e5863000 	str	r3, [r6]
  107c10:	1affffda 	bne	107b80 <__sfvwrite_r+0x3ac>
  107c14:	e1a01006 	mov	r1, r6
  107c18:	e1a0000b 	mov	r0, fp
  107c1c:	ebfffcdf 	bl	106fa0 <_fflush_r>
  107c20:	e3500000 	cmp	r0, #0
  107c24:	0affffd5 	beq	107b80 <__sfvwrite_r+0x3ac>
  107c28:	eaffff63 	b	1079bc <__sfvwrite_r+0x1e8>
  107c2c:	e1a02003 	mov	r2, r3
  107c30:	e1a0100a 	mov	r1, sl
  107c34:	e58d3004 	str	r3, [sp, #4]
  107c38:	eb000135 	bl	108114 <memmove>
  107c3c:	e5962000 	ldr	r2, [r6]
  107c40:	e1a01006 	mov	r1, r6
  107c44:	e59d3004 	ldr	r3, [sp, #4]
  107c48:	e1a0000b 	mov	r0, fp
  107c4c:	e0822003 	add	r2, r2, r3
  107c50:	e5862000 	str	r2, [r6]
  107c54:	ebfffcd1 	bl	106fa0 <_fflush_r>
  107c58:	e3500000 	cmp	r0, #0
  107c5c:	e59d3004 	ldr	r3, [sp, #4]
  107c60:	1affff55 	bne	1079bc <__sfvwrite_r+0x1e8>
  107c64:	e1a04003 	mov	r4, r3
  107c68:	eaffffc1 	b	107b74 <__sfvwrite_r+0x3a0>
  107c6c:	e3e00000 	mvn	r0, #0
  107c70:	eaffff00 	b	107878 <__sfvwrite_r+0xa4>
  107c74:	e3a0200c 	mov	r2, #12
  107c78:	e1d630fc 	ldrsh	r3, [r6, #12]
  107c7c:	e58b2000 	str	r2, [fp]
  107c80:	eaffff4e 	b	1079c0 <__sfvwrite_r+0x1ec>

00107c84 <_fwalk>:
  107c84:	e92d41f0 	push	{r4, r5, r6, r7, r8, lr}
  107c88:	e2907e2e 	adds	r7, r0, #736	; 0x2e0
  107c8c:	0a000017 	beq	107cf0 <_fwalk+0x6c>
  107c90:	e1a08001 	mov	r8, r1
  107c94:	e3a06000 	mov	r6, #0
  107c98:	e5975004 	ldr	r5, [r7, #4]
  107c9c:	e5974008 	ldr	r4, [r7, #8]
  107ca0:	e2555001 	subs	r5, r5, #1
  107ca4:	4a00000c 	bmi	107cdc <_fwalk+0x58>
  107ca8:	e1d430bc 	ldrh	r3, [r4, #12]
  107cac:	e2455001 	sub	r5, r5, #1
  107cb0:	e3530001 	cmp	r3, #1
  107cb4:	9a000005 	bls	107cd0 <_fwalk+0x4c>
  107cb8:	e1d430fe 	ldrsh	r3, [r4, #14]
  107cbc:	e1a00004 	mov	r0, r4
  107cc0:	e3730001 	cmn	r3, #1
  107cc4:	0a000001 	beq	107cd0 <_fwalk+0x4c>
  107cc8:	e12fff38 	blx	r8
  107ccc:	e1866000 	orr	r6, r6, r0
  107cd0:	e3750001 	cmn	r5, #1
  107cd4:	e2844068 	add	r4, r4, #104	; 0x68
  107cd8:	1afffff2 	bne	107ca8 <_fwalk+0x24>
  107cdc:	e5977000 	ldr	r7, [r7]
  107ce0:	e3570000 	cmp	r7, #0
  107ce4:	1affffeb 	bne	107c98 <_fwalk+0x14>
  107ce8:	e1a00006 	mov	r0, r6
  107cec:	e8bd81f0 	pop	{r4, r5, r6, r7, r8, pc}
  107cf0:	e1a06007 	mov	r6, r7
  107cf4:	e1a00006 	mov	r0, r6
  107cf8:	e8bd81f0 	pop	{r4, r5, r6, r7, r8, pc}

00107cfc <_fwalk_reent>:
  107cfc:	e92d47f0 	push	{r4, r5, r6, r7, r8, r9, sl, lr}
  107d00:	e2907e2e 	adds	r7, r0, #736	; 0x2e0
  107d04:	0a000019 	beq	107d70 <_fwalk_reent+0x74>
  107d08:	e1a08001 	mov	r8, r1
  107d0c:	e1a06000 	mov	r6, r0
  107d10:	e3a09000 	mov	r9, #0
  107d14:	e5975004 	ldr	r5, [r7, #4]
  107d18:	e5974008 	ldr	r4, [r7, #8]
  107d1c:	e2555001 	subs	r5, r5, #1
  107d20:	4a00000d 	bmi	107d5c <_fwalk_reent+0x60>
  107d24:	e1d430bc 	ldrh	r3, [r4, #12]
  107d28:	e2455001 	sub	r5, r5, #1
  107d2c:	e3530001 	cmp	r3, #1
  107d30:	9a000006 	bls	107d50 <_fwalk_reent+0x54>
  107d34:	e1d430fe 	ldrsh	r3, [r4, #14]
  107d38:	e1a01004 	mov	r1, r4
  107d3c:	e1a00006 	mov	r0, r6
  107d40:	e3730001 	cmn	r3, #1
  107d44:	0a000001 	beq	107d50 <_fwalk_reent+0x54>
  107d48:	e12fff38 	blx	r8
  107d4c:	e1899000 	orr	r9, r9, r0
  107d50:	e3750001 	cmn	r5, #1
  107d54:	e2844068 	add	r4, r4, #104	; 0x68
  107d58:	1afffff1 	bne	107d24 <_fwalk_reent+0x28>
  107d5c:	e5977000 	ldr	r7, [r7]
  107d60:	e3570000 	cmp	r7, #0
  107d64:	1affffea 	bne	107d14 <_fwalk_reent+0x18>
  107d68:	e1a00009 	mov	r0, r9
  107d6c:	e8bd87f0 	pop	{r4, r5, r6, r7, r8, r9, sl, pc}
  107d70:	e1a09007 	mov	r9, r7
  107d74:	e1a00009 	mov	r0, r9
  107d78:	e8bd87f0 	pop	{r4, r5, r6, r7, r8, r9, sl, pc}

00107d7c <__getreent>:
  107d7c:	e3083410 	movw	r3, #33808	; 0x8410
  107d80:	e3403011 	movt	r3, #17
  107d84:	e5930000 	ldr	r0, [r3]
  107d88:	e12fff1e 	bx	lr

00107d8c <__localeconv_l>:
  107d8c:	e28000f0 	add	r0, r0, #240	; 0xf0
  107d90:	e12fff1e 	bx	lr

00107d94 <_localeconv_r>:
  107d94:	e92d4010 	push	{r4, lr}
  107d98:	ebfffff7 	bl	107d7c <__getreent>
  107d9c:	e3083840 	movw	r3, #34880	; 0x8840
  107da0:	e5900034 	ldr	r0, [r0, #52]	; 0x34
  107da4:	e3403011 	movt	r3, #17
  107da8:	e3500000 	cmp	r0, #0
  107dac:	01a00003 	moveq	r0, r3
  107db0:	e28000f0 	add	r0, r0, #240	; 0xf0
  107db4:	e8bd8010 	pop	{r4, pc}

00107db8 <localeconv>:
  107db8:	e92d4010 	push	{r4, lr}
  107dbc:	ebffffee 	bl	107d7c <__getreent>
  107dc0:	e3083840 	movw	r3, #34880	; 0x8840
  107dc4:	e5900034 	ldr	r0, [r0, #52]	; 0x34
  107dc8:	e3403011 	movt	r3, #17
  107dcc:	e3500000 	cmp	r0, #0
  107dd0:	01a00003 	moveq	r0, r3
  107dd4:	e28000f0 	add	r0, r0, #240	; 0xf0
  107dd8:	e8bd8010 	pop	{r4, pc}

00107ddc <__swhatbuf_r>:
  107ddc:	e92d4070 	push	{r4, r5, r6, lr}
  107de0:	e1a04001 	mov	r4, r1
  107de4:	e1d110fe 	ldrsh	r1, [r1, #14]
  107de8:	e24dd040 	sub	sp, sp, #64	; 0x40
  107dec:	e1a05002 	mov	r5, r2
  107df0:	e1a06003 	mov	r6, r3
  107df4:	e3510000 	cmp	r1, #0
  107df8:	ba00000e 	blt	107e38 <__swhatbuf_r+0x5c>
  107dfc:	e28d2004 	add	r2, sp, #4
  107e00:	eb000d64 	bl	10b398 <_fstat_r>
  107e04:	e3500000 	cmp	r0, #0
  107e08:	ba00000a 	blt	107e38 <__swhatbuf_r+0x5c>
  107e0c:	e59d2008 	ldr	r2, [sp, #8]
  107e10:	e3a03b01 	mov	r3, #1024	; 0x400
  107e14:	e3a00b02 	mov	r0, #2048	; 0x800
  107e18:	e2022a0f 	and	r2, r2, #61440	; 0xf000
  107e1c:	e2422a02 	sub	r2, r2, #8192	; 0x2000
  107e20:	e16f2f12 	clz	r2, r2
  107e24:	e1a022a2 	lsr	r2, r2, #5
  107e28:	e5862000 	str	r2, [r6]
  107e2c:	e5853000 	str	r3, [r5]
  107e30:	e28dd040 	add	sp, sp, #64	; 0x40
  107e34:	e8bd8070 	pop	{r4, r5, r6, pc}
  107e38:	e1d420bc 	ldrh	r2, [r4, #12]
  107e3c:	e3a03000 	mov	r3, #0
  107e40:	e5863000 	str	r3, [r6]
  107e44:	e2120080 	ands	r0, r2, #128	; 0x80
  107e48:	0a000004 	beq	107e60 <__swhatbuf_r+0x84>
  107e4c:	e3a02040 	mov	r2, #64	; 0x40
  107e50:	e1a00003 	mov	r0, r3
  107e54:	e5852000 	str	r2, [r5]
  107e58:	e28dd040 	add	sp, sp, #64	; 0x40
  107e5c:	e8bd8070 	pop	{r4, r5, r6, pc}
  107e60:	e3a03b01 	mov	r3, #1024	; 0x400
  107e64:	e5853000 	str	r3, [r5]
  107e68:	e28dd040 	add	sp, sp, #64	; 0x40
  107e6c:	e8bd8070 	pop	{r4, r5, r6, pc}

00107e70 <__smakebuf_r>:
  107e70:	e1d120bc 	ldrh	r2, [r1, #12]
  107e74:	e92d4070 	push	{r4, r5, r6, lr}
  107e78:	e1a04001 	mov	r4, r1
  107e7c:	e24dd008 	sub	sp, sp, #8
  107e80:	e3120002 	tst	r2, #2
  107e84:	0a000006 	beq	107ea4 <__smakebuf_r+0x34>
  107e88:	e2812043 	add	r2, r1, #67	; 0x43
  107e8c:	e3a01001 	mov	r1, #1
  107e90:	e5842000 	str	r2, [r4]
  107e94:	e5842010 	str	r2, [r4, #16]
  107e98:	e5841014 	str	r1, [r4, #20]
  107e9c:	e28dd008 	add	sp, sp, #8
  107ea0:	e8bd8070 	pop	{r4, r5, r6, pc}
  107ea4:	e1a05000 	mov	r5, r0
  107ea8:	e28d3004 	add	r3, sp, #4
  107eac:	e1a0200d 	mov	r2, sp
  107eb0:	ebffffc9 	bl	107ddc <__swhatbuf_r>
  107eb4:	e59d1000 	ldr	r1, [sp]
  107eb8:	e1a06000 	mov	r6, r0
  107ebc:	e1a00005 	mov	r0, r5
  107ec0:	ebffeb80 	bl	102cc8 <_malloc_r>
  107ec4:	e3500000 	cmp	r0, #0
  107ec8:	0a000017 	beq	107f2c <__smakebuf_r+0xbc>
  107ecc:	e59dc004 	ldr	ip, [sp, #4]
  107ed0:	e307206c 	movw	r2, #28780	; 0x706c
  107ed4:	e1d430fc 	ldrsh	r3, [r4, #12]
  107ed8:	e3402010 	movt	r2, #16
  107edc:	e59d1000 	ldr	r1, [sp]
  107ee0:	e35c0000 	cmp	ip, #0
  107ee4:	e585203c 	str	r2, [r5, #60]	; 0x3c
  107ee8:	e3833080 	orr	r3, r3, #128	; 0x80
  107eec:	e5840000 	str	r0, [r4]
  107ef0:	e5840010 	str	r0, [r4, #16]
  107ef4:	e1c430bc 	strh	r3, [r4, #12]
  107ef8:	e5841014 	str	r1, [r4, #20]
  107efc:	1a000003 	bne	107f10 <__smakebuf_r+0xa0>
  107f00:	e1833006 	orr	r3, r3, r6
  107f04:	e1c430bc 	strh	r3, [r4, #12]
  107f08:	e28dd008 	add	sp, sp, #8
  107f0c:	e8bd8070 	pop	{r4, r5, r6, pc}
  107f10:	e1a00005 	mov	r0, r5
  107f14:	e1d410fe 	ldrsh	r1, [r4, #14]
  107f18:	eb000d2e 	bl	10b3d8 <_isatty_r>
  107f1c:	e1d430fc 	ldrsh	r3, [r4, #12]
  107f20:	e3500000 	cmp	r0, #0
  107f24:	13833001 	orrne	r3, r3, #1
  107f28:	eafffff4 	b	107f00 <__smakebuf_r+0x90>
  107f2c:	e1d430fc 	ldrsh	r3, [r4, #12]
  107f30:	e3130c02 	tst	r3, #512	; 0x200
  107f34:	1affffd8 	bne	107e9c <__smakebuf_r+0x2c>
  107f38:	e2842043 	add	r2, r4, #67	; 0x43
  107f3c:	e3833002 	orr	r3, r3, #2
  107f40:	e3a01001 	mov	r1, #1
  107f44:	e1c430bc 	strh	r3, [r4, #12]
  107f48:	e5842000 	str	r2, [r4]
  107f4c:	e5842010 	str	r2, [r4, #16]
  107f50:	e5841014 	str	r1, [r4, #20]
  107f54:	eaffffd0 	b	107e9c <__smakebuf_r+0x2c>
	...

00107f60 <memchr>:
  107f60:	f001 01ff 	and.w	r1, r1, #255	; 0xff
  107f64:	2a10      	cmp	r2, #16
  107f66:	db2b      	blt.n	107fc0 <memchr+0x60>
  107f68:	f010 0f07 	tst.w	r0, #7
  107f6c:	d008      	beq.n	107f80 <memchr+0x20>
  107f6e:	f810 3b01 	ldrb.w	r3, [r0], #1
  107f72:	3a01      	subs	r2, #1
  107f74:	428b      	cmp	r3, r1
  107f76:	d02d      	beq.n	107fd4 <memchr+0x74>
  107f78:	f010 0f07 	tst.w	r0, #7
  107f7c:	b342      	cbz	r2, 107fd0 <memchr+0x70>
  107f7e:	d1f6      	bne.n	107f6e <memchr+0xe>
  107f80:	b4f0      	push	{r4, r5, r6, r7}
  107f82:	ea41 2101 	orr.w	r1, r1, r1, lsl #8
  107f86:	ea41 4101 	orr.w	r1, r1, r1, lsl #16
  107f8a:	f022 0407 	bic.w	r4, r2, #7
  107f8e:	f07f 0700 	mvns.w	r7, #0
  107f92:	2300      	movs	r3, #0
  107f94:	e8f0 5602 	ldrd	r5, r6, [r0], #8
  107f98:	3c08      	subs	r4, #8
  107f9a:	ea85 0501 	eor.w	r5, r5, r1
  107f9e:	ea86 0601 	eor.w	r6, r6, r1
  107fa2:	fa85 f547 	uadd8	r5, r5, r7
  107fa6:	faa3 f587 	sel	r5, r3, r7
  107faa:	fa86 f647 	uadd8	r6, r6, r7
  107fae:	faa5 f687 	sel	r6, r5, r7
  107fb2:	b98e      	cbnz	r6, 107fd8 <memchr+0x78>
  107fb4:	d1ee      	bne.n	107f94 <memchr+0x34>
  107fb6:	bcf0      	pop	{r4, r5, r6, r7}
  107fb8:	f001 01ff 	and.w	r1, r1, #255	; 0xff
  107fbc:	f002 0207 	and.w	r2, r2, #7
  107fc0:	b132      	cbz	r2, 107fd0 <memchr+0x70>
  107fc2:	f810 3b01 	ldrb.w	r3, [r0], #1
  107fc6:	3a01      	subs	r2, #1
  107fc8:	ea83 0301 	eor.w	r3, r3, r1
  107fcc:	b113      	cbz	r3, 107fd4 <memchr+0x74>
  107fce:	d1f8      	bne.n	107fc2 <memchr+0x62>
  107fd0:	2000      	movs	r0, #0
  107fd2:	4770      	bx	lr
  107fd4:	3801      	subs	r0, #1
  107fd6:	4770      	bx	lr
  107fd8:	2d00      	cmp	r5, #0
  107fda:	bf06      	itte	eq
  107fdc:	4635      	moveq	r5, r6
  107fde:	3803      	subeq	r0, #3
  107fe0:	3807      	subne	r0, #7
  107fe2:	f015 0f01 	tst.w	r5, #1
  107fe6:	d107      	bne.n	107ff8 <memchr+0x98>
  107fe8:	3001      	adds	r0, #1
  107fea:	f415 7f80 	tst.w	r5, #256	; 0x100
  107fee:	bf02      	ittt	eq
  107ff0:	3001      	addeq	r0, #1
  107ff2:	f415 3fc0 	tsteq.w	r5, #98304	; 0x18000
  107ff6:	3001      	addeq	r0, #1
  107ff8:	bcf0      	pop	{r4, r5, r6, r7}
  107ffa:	3801      	subs	r0, #1
  107ffc:	4770      	bx	lr
  107ffe:	bf00      	nop

00108000 <memcpy>:
  108000:	e352000f 	cmp	r2, #15
  108004:	8a000009 	bhi	108030 <memcpy+0x30>
  108008:	e3520000 	cmp	r2, #0
  10800c:	e1a03000 	mov	r3, r0
  108010:	0a00003b 	beq	108104 <memcpy+0x104>
  108014:	e2433001 	sub	r3, r3, #1
  108018:	e0812002 	add	r2, r1, r2
  10801c:	e4d1c001 	ldrb	ip, [r1], #1
  108020:	e1510002 	cmp	r1, r2
  108024:	e5e3c001 	strb	ip, [r3, #1]!
  108028:	1afffffb 	bne	10801c <memcpy+0x1c>
  10802c:	e12fff1e 	bx	lr
  108030:	e1813000 	orr	r3, r1, r0
  108034:	e3130003 	tst	r3, #3
  108038:	1a00002f 	bne	1080fc <memcpy+0xfc>
  10803c:	e92d40f0 	push	{r4, r5, r6, r7, lr}
  108040:	e280c010 	add	ip, r0, #16
  108044:	e2813010 	add	r3, r1, #16
  108048:	e1a0e002 	mov	lr, r2
  10804c:	e24ee010 	sub	lr, lr, #16
  108050:	e2833010 	add	r3, r3, #16
  108054:	e5137020 	ldr	r7, [r3, #-32]	; 0xffffffe0
  108058:	e35e000f 	cmp	lr, #15
  10805c:	e513601c 	ldr	r6, [r3, #-28]	; 0xffffffe4
  108060:	e28cc010 	add	ip, ip, #16
  108064:	e5135018 	ldr	r5, [r3, #-24]	; 0xffffffe8
  108068:	e5134014 	ldr	r4, [r3, #-20]	; 0xffffffec
  10806c:	e50c7020 	str	r7, [ip, #-32]	; 0xffffffe0
  108070:	e50c601c 	str	r6, [ip, #-28]	; 0xffffffe4
  108074:	e50c5018 	str	r5, [ip, #-24]	; 0xffffffe8
  108078:	e50c4014 	str	r4, [ip, #-20]	; 0xffffffec
  10807c:	8afffff2 	bhi	10804c <memcpy+0x4c>
  108080:	e2423010 	sub	r3, r2, #16
  108084:	e202400f 	and	r4, r2, #15
  108088:	e3c3300f 	bic	r3, r3, #15
  10808c:	e3540003 	cmp	r4, #3
  108090:	e2833010 	add	r3, r3, #16
  108094:	e0811003 	add	r1, r1, r3
  108098:	e0803003 	add	r3, r0, r3
  10809c:	9a00001a 	bls	10810c <memcpy+0x10c>
  1080a0:	e2435004 	sub	r5, r3, #4
  1080a4:	e1a0e001 	mov	lr, r1
  1080a8:	e1a0c004 	mov	ip, r4
  1080ac:	e24cc004 	sub	ip, ip, #4
  1080b0:	e49e6004 	ldr	r6, [lr], #4
  1080b4:	e35c0003 	cmp	ip, #3
  1080b8:	e5a56004 	str	r6, [r5, #4]!
  1080bc:	8afffffa 	bhi	1080ac <memcpy+0xac>
  1080c0:	e244c004 	sub	ip, r4, #4
  1080c4:	e2022003 	and	r2, r2, #3
  1080c8:	e3ccc003 	bic	ip, ip, #3
  1080cc:	e28cc004 	add	ip, ip, #4
  1080d0:	e081100c 	add	r1, r1, ip
  1080d4:	e083300c 	add	r3, r3, ip
  1080d8:	e3520000 	cmp	r2, #0
  1080dc:	12433001 	subne	r3, r3, #1
  1080e0:	10812002 	addne	r2, r1, r2
  1080e4:	0a000007 	beq	108108 <memcpy+0x108>
  1080e8:	e4d1c001 	ldrb	ip, [r1], #1
  1080ec:	e1510002 	cmp	r1, r2
  1080f0:	e5e3c001 	strb	ip, [r3, #1]!
  1080f4:	1afffffb 	bne	1080e8 <memcpy+0xe8>
  1080f8:	e8bd80f0 	pop	{r4, r5, r6, r7, pc}
  1080fc:	e1a03000 	mov	r3, r0
  108100:	eaffffc3 	b	108014 <memcpy+0x14>
  108104:	e12fff1e 	bx	lr
  108108:	e8bd80f0 	pop	{r4, r5, r6, r7, pc}
  10810c:	e1a02004 	mov	r2, r4
  108110:	eafffff0 	b	1080d8 <memcpy+0xd8>

00108114 <memmove>:
  108114:	e1500001 	cmp	r0, r1
  108118:	9a00000a 	bls	108148 <memmove+0x34>
  10811c:	e0813002 	add	r3, r1, r2
  108120:	e1500003 	cmp	r0, r3
  108124:	2a000007 	bcs	108148 <memmove+0x34>
  108128:	e3520000 	cmp	r2, #0
  10812c:	e0802002 	add	r2, r0, r2
  108130:	012fff1e 	bxeq	lr
  108134:	e573c001 	ldrb	ip, [r3, #-1]!
  108138:	e1510003 	cmp	r1, r3
  10813c:	e562c001 	strb	ip, [r2, #-1]!
  108140:	1afffffb 	bne	108134 <memmove+0x20>
  108144:	e12fff1e 	bx	lr
  108148:	e352000f 	cmp	r2, #15
  10814c:	8a000009 	bhi	108178 <memmove+0x64>
  108150:	e3520000 	cmp	r2, #0
  108154:	e1a03000 	mov	r3, r0
  108158:	0a00003c 	beq	108250 <memmove+0x13c>
  10815c:	e2433001 	sub	r3, r3, #1
  108160:	e0812002 	add	r2, r1, r2
  108164:	e4d1c001 	ldrb	ip, [r1], #1
  108168:	e1520001 	cmp	r2, r1
  10816c:	e5e3c001 	strb	ip, [r3, #1]!
  108170:	1afffffb 	bne	108164 <memmove+0x50>
  108174:	e12fff1e 	bx	lr
  108178:	e1813000 	orr	r3, r1, r0
  10817c:	e3130003 	tst	r3, #3
  108180:	1a00002f 	bne	108244 <memmove+0x130>
  108184:	e92d4070 	push	{r4, r5, r6, lr}
  108188:	e280c010 	add	ip, r0, #16
  10818c:	e2813010 	add	r3, r1, #16
  108190:	e1a0e002 	mov	lr, r2
  108194:	e24ee010 	sub	lr, lr, #16
  108198:	e2833010 	add	r3, r3, #16
  10819c:	e5134020 	ldr	r4, [r3, #-32]	; 0xffffffe0
  1081a0:	e35e000f 	cmp	lr, #15
  1081a4:	e28cc010 	add	ip, ip, #16
  1081a8:	e50c4020 	str	r4, [ip, #-32]	; 0xffffffe0
  1081ac:	e513401c 	ldr	r4, [r3, #-28]	; 0xffffffe4
  1081b0:	e50c401c 	str	r4, [ip, #-28]	; 0xffffffe4
  1081b4:	e5134018 	ldr	r4, [r3, #-24]	; 0xffffffe8
  1081b8:	e50c4018 	str	r4, [ip, #-24]	; 0xffffffe8
  1081bc:	e5134014 	ldr	r4, [r3, #-20]	; 0xffffffec
  1081c0:	e50c4014 	str	r4, [ip, #-20]	; 0xffffffec
  1081c4:	8afffff2 	bhi	108194 <memmove+0x80>
  1081c8:	e2423010 	sub	r3, r2, #16
  1081cc:	e202400f 	and	r4, r2, #15
  1081d0:	e3c3300f 	bic	r3, r3, #15
  1081d4:	e3540003 	cmp	r4, #3
  1081d8:	e2833010 	add	r3, r3, #16
  1081dc:	e0811003 	add	r1, r1, r3
  1081e0:	e0803003 	add	r3, r0, r3
  1081e4:	9a00001a 	bls	108254 <memmove+0x140>
  1081e8:	e2435004 	sub	r5, r3, #4
  1081ec:	e1a0e001 	mov	lr, r1
  1081f0:	e1a0c004 	mov	ip, r4
  1081f4:	e24cc004 	sub	ip, ip, #4
  1081f8:	e49e6004 	ldr	r6, [lr], #4
  1081fc:	e35c0003 	cmp	ip, #3
  108200:	e5a56004 	str	r6, [r5, #4]!
  108204:	8afffffa 	bhi	1081f4 <memmove+0xe0>
  108208:	e244c004 	sub	ip, r4, #4
  10820c:	e2022003 	and	r2, r2, #3
  108210:	e3ccc003 	bic	ip, ip, #3
  108214:	e28cc004 	add	ip, ip, #4
  108218:	e081100c 	add	r1, r1, ip
  10821c:	e083300c 	add	r3, r3, ip
  108220:	e3520000 	cmp	r2, #0
  108224:	12433001 	subne	r3, r3, #1
  108228:	10812002 	addne	r2, r1, r2
  10822c:	0a000006 	beq	10824c <memmove+0x138>
  108230:	e4d1c001 	ldrb	ip, [r1], #1
  108234:	e1520001 	cmp	r2, r1
  108238:	e5e3c001 	strb	ip, [r3, #1]!
  10823c:	1afffffb 	bne	108230 <memmove+0x11c>
  108240:	e8bd8070 	pop	{r4, r5, r6, pc}
  108244:	e1a03000 	mov	r3, r0
  108248:	eaffffc3 	b	10815c <memmove+0x48>
  10824c:	e8bd8070 	pop	{r4, r5, r6, pc}
  108250:	e12fff1e 	bx	lr
  108254:	e1a02004 	mov	r2, r4
  108258:	eafffff0 	b	108220 <memmove+0x10c>

0010825c <memset>:
  10825c:	e3100003 	tst	r0, #3
  108260:	0a00003f 	beq	108364 <memset+0x108>
  108264:	e3520000 	cmp	r2, #0
  108268:	e2422001 	sub	r2, r2, #1
  10826c:	012fff1e 	bxeq	lr
  108270:	e6efc071 	uxtb	ip, r1
  108274:	e1a03000 	mov	r3, r0
  108278:	ea000002 	b	108288 <memset+0x2c>
  10827c:	e2422001 	sub	r2, r2, #1
  108280:	e3720001 	cmn	r2, #1
  108284:	012fff1e 	bxeq	lr
  108288:	e4c3c001 	strb	ip, [r3], #1
  10828c:	e3130003 	tst	r3, #3
  108290:	1afffff9 	bne	10827c <memset+0x20>
  108294:	e3520003 	cmp	r2, #3
  108298:	9a000029 	bls	108344 <memset+0xe8>
  10829c:	e92d4010 	push	{r4, lr}
  1082a0:	e6efe071 	uxtb	lr, r1
  1082a4:	e352000f 	cmp	r2, #15
  1082a8:	e18ee40e 	orr	lr, lr, lr, lsl #8
  1082ac:	e18ee80e 	orr	lr, lr, lr, lsl #16
  1082b0:	9a000010 	bls	1082f8 <memset+0x9c>
  1082b4:	e283c010 	add	ip, r3, #16
  1082b8:	e1a04002 	mov	r4, r2
  1082bc:	e2444010 	sub	r4, r4, #16
  1082c0:	e50ce010 	str	lr, [ip, #-16]
  1082c4:	e354000f 	cmp	r4, #15
  1082c8:	e50ce00c 	str	lr, [ip, #-12]
  1082cc:	e50ce008 	str	lr, [ip, #-8]
  1082d0:	e28cc010 	add	ip, ip, #16
  1082d4:	e50ce014 	str	lr, [ip, #-20]	; 0xffffffec
  1082d8:	8afffff7 	bhi	1082bc <memset+0x60>
  1082dc:	e242c010 	sub	ip, r2, #16
  1082e0:	e202200f 	and	r2, r2, #15
  1082e4:	e3ccc00f 	bic	ip, ip, #15
  1082e8:	e3520003 	cmp	r2, #3
  1082ec:	e28cc010 	add	ip, ip, #16
  1082f0:	e083300c 	add	r3, r3, ip
  1082f4:	9a00000a 	bls	108324 <memset+0xc8>
  1082f8:	e1a04003 	mov	r4, r3
  1082fc:	e1a0c002 	mov	ip, r2
  108300:	e24cc004 	sub	ip, ip, #4
  108304:	e484e004 	str	lr, [r4], #4
  108308:	e35c0003 	cmp	ip, #3
  10830c:	8afffffb 	bhi	108300 <memset+0xa4>
  108310:	e242c004 	sub	ip, r2, #4
  108314:	e2022003 	and	r2, r2, #3
  108318:	e3ccc003 	bic	ip, ip, #3
  10831c:	e28cc004 	add	ip, ip, #4
  108320:	e083300c 	add	r3, r3, ip
  108324:	e3520000 	cmp	r2, #0
  108328:	08bd8010 	popeq	{r4, pc}
  10832c:	e6ef1071 	uxtb	r1, r1
  108330:	e0832002 	add	r2, r3, r2
  108334:	e4c31001 	strb	r1, [r3], #1
  108338:	e1520003 	cmp	r2, r3
  10833c:	1afffffc 	bne	108334 <memset+0xd8>
  108340:	e8bd8010 	pop	{r4, pc}
  108344:	e3520000 	cmp	r2, #0
  108348:	012fff1e 	bxeq	lr
  10834c:	e6ef1071 	uxtb	r1, r1
  108350:	e0832002 	add	r2, r3, r2
  108354:	e4c31001 	strb	r1, [r3], #1
  108358:	e1520003 	cmp	r2, r3
  10835c:	1afffffc 	bne	108354 <memset+0xf8>
  108360:	e12fff1e 	bx	lr
  108364:	e1a03000 	mov	r3, r0
  108368:	eaffffc9 	b	108294 <memset+0x38>

0010836c <_Balloc>:
  10836c:	e590304c 	ldr	r3, [r0, #76]	; 0x4c
  108370:	e92d4070 	push	{r4, r5, r6, lr}
  108374:	e1a05000 	mov	r5, r0
  108378:	e1a04001 	mov	r4, r1
  10837c:	e3530000 	cmp	r3, #0
  108380:	0a000008 	beq	1083a8 <_Balloc+0x3c>
  108384:	e7930104 	ldr	r0, [r3, r4, lsl #2]
  108388:	e3500000 	cmp	r0, #0
  10838c:	0a00000e 	beq	1083cc <_Balloc+0x60>
  108390:	e5902000 	ldr	r2, [r0]
  108394:	e7832104 	str	r2, [r3, r4, lsl #2]
  108398:	e3a03000 	mov	r3, #0
  10839c:	e5803010 	str	r3, [r0, #16]
  1083a0:	e580300c 	str	r3, [r0, #12]
  1083a4:	e8bd8070 	pop	{r4, r5, r6, pc}
  1083a8:	e3a02021 	mov	r2, #33	; 0x21
  1083ac:	e3a01004 	mov	r1, #4
  1083b0:	eb000aef 	bl	10af74 <_calloc_r>
  1083b4:	e3500000 	cmp	r0, #0
  1083b8:	e585004c 	str	r0, [r5, #76]	; 0x4c
  1083bc:	11a03000 	movne	r3, r0
  1083c0:	1affffef 	bne	108384 <_Balloc+0x18>
  1083c4:	e3a00000 	mov	r0, #0
  1083c8:	e8bd8070 	pop	{r4, r5, r6, pc}
  1083cc:	e3a01001 	mov	r1, #1
  1083d0:	e1a00005 	mov	r0, r5
  1083d4:	e1a05411 	lsl	r5, r1, r4
  1083d8:	e2852005 	add	r2, r5, #5
  1083dc:	e1a02102 	lsl	r2, r2, #2
  1083e0:	eb000ae3 	bl	10af74 <_calloc_r>
  1083e4:	e3500000 	cmp	r0, #0
  1083e8:	0afffff5 	beq	1083c4 <_Balloc+0x58>
  1083ec:	e9800030 	stmib	r0, {r4, r5}
  1083f0:	eaffffe8 	b	108398 <_Balloc+0x2c>

001083f4 <_Bfree>:
  1083f4:	e3510000 	cmp	r1, #0
  1083f8:	1590304c 	ldrne	r3, [r0, #76]	; 0x4c
  1083fc:	15912004 	ldrne	r2, [r1, #4]
  108400:	17930102 	ldrne	r0, [r3, r2, lsl #2]
  108404:	15810000 	strne	r0, [r1]
  108408:	17831102 	strne	r1, [r3, r2, lsl #2]
  10840c:	e12fff1e 	bx	lr

00108410 <__multadd>:
  108410:	e92d40f0 	push	{r4, r5, r6, r7, lr}
  108414:	e3a0c000 	mov	ip, #0
  108418:	e5914010 	ldr	r4, [r1, #16]
  10841c:	e24dd00c 	sub	sp, sp, #12
  108420:	e1a05001 	mov	r5, r1
  108424:	e1a06000 	mov	r6, r0
  108428:	e281e014 	add	lr, r1, #20
  10842c:	e59e0000 	ldr	r0, [lr]
  108430:	e28cc001 	add	ip, ip, #1
  108434:	e154000c 	cmp	r4, ip
  108438:	e6ff1070 	uxth	r1, r0
  10843c:	e1a00820 	lsr	r0, r0, #16
  108440:	e0233192 	mla	r3, r2, r1, r3
  108444:	e1a01823 	lsr	r1, r3, #16
  108448:	e6ff3073 	uxth	r3, r3
  10844c:	e0201092 	mla	r0, r2, r0, r1
  108450:	e0831800 	add	r1, r3, r0, lsl #16
  108454:	e1a03820 	lsr	r3, r0, #16
  108458:	e48e1004 	str	r1, [lr], #4
  10845c:	cafffff2 	bgt	10842c <__multadd+0x1c>
  108460:	e3530000 	cmp	r3, #0
  108464:	0a000006 	beq	108484 <__multadd+0x74>
  108468:	e5952008 	ldr	r2, [r5, #8]
  10846c:	e1540002 	cmp	r4, r2
  108470:	aa000006 	bge	108490 <__multadd+0x80>
  108474:	e0852104 	add	r2, r5, r4, lsl #2
  108478:	e2844001 	add	r4, r4, #1
  10847c:	e5823014 	str	r3, [r2, #20]
  108480:	e5854010 	str	r4, [r5, #16]
  108484:	e1a00005 	mov	r0, r5
  108488:	e28dd00c 	add	sp, sp, #12
  10848c:	e8bd80f0 	pop	{r4, r5, r6, r7, pc}
  108490:	e5951004 	ldr	r1, [r5, #4]
  108494:	e1a00006 	mov	r0, r6
  108498:	e58d3004 	str	r3, [sp, #4]
  10849c:	e2811001 	add	r1, r1, #1
  1084a0:	ebffffb1 	bl	10836c <_Balloc>
  1084a4:	e5952010 	ldr	r2, [r5, #16]
  1084a8:	e285100c 	add	r1, r5, #12
  1084ac:	e1a07000 	mov	r7, r0
  1084b0:	e280000c 	add	r0, r0, #12
  1084b4:	e2822002 	add	r2, r2, #2
  1084b8:	e1a02102 	lsl	r2, r2, #2
  1084bc:	ebfffecf 	bl	108000 <memcpy>
  1084c0:	e596204c 	ldr	r2, [r6, #76]	; 0x4c
  1084c4:	e5951004 	ldr	r1, [r5, #4]
  1084c8:	e59d3004 	ldr	r3, [sp, #4]
  1084cc:	e7920101 	ldr	r0, [r2, r1, lsl #2]
  1084d0:	e5850000 	str	r0, [r5]
  1084d4:	e7825101 	str	r5, [r2, r1, lsl #2]
  1084d8:	e1a05007 	mov	r5, r7
  1084dc:	eaffffe4 	b	108474 <__multadd+0x64>

001084e0 <__s2b>:
  1084e0:	e92d47f0 	push	{r4, r5, r6, r7, r8, r9, sl, lr}
  1084e4:	e3088e39 	movw	r8, #36409	; 0x8e39
  1084e8:	e1a06003 	mov	r6, r3
  1084ec:	e34388e3 	movt	r8, #14563	; 0x38e3
  1084f0:	e2833008 	add	r3, r3, #8
  1084f4:	e1a07002 	mov	r7, r2
  1084f8:	e0c98893 	smull	r8, r9, r3, r8
  1084fc:	e1a03fc3 	asr	r3, r3, #31
  108500:	e1a05000 	mov	r5, r0
  108504:	e59d8020 	ldr	r8, [sp, #32]
  108508:	e1a04001 	mov	r4, r1
  10850c:	e06320c9 	rsb	r2, r3, r9, asr #1
  108510:	e3520001 	cmp	r2, #1
  108514:	da000028 	ble	1085bc <__s2b+0xdc>
  108518:	e3a03001 	mov	r3, #1
  10851c:	e3a01000 	mov	r1, #0
  108520:	e1a03083 	lsl	r3, r3, #1
  108524:	e2811001 	add	r1, r1, #1
  108528:	e1520003 	cmp	r2, r3
  10852c:	cafffffb 	bgt	108520 <__s2b+0x40>
  108530:	e1a00005 	mov	r0, r5
  108534:	ebffff8c 	bl	10836c <_Balloc>
  108538:	e3570009 	cmp	r7, #9
  10853c:	e3a03001 	mov	r3, #1
  108540:	e5808014 	str	r8, [r0, #20]
  108544:	d284400a 	addle	r4, r4, #10
  108548:	e5803010 	str	r3, [r0, #16]
  10854c:	d3a07009 	movle	r7, #9
  108550:	da00000c 	ble	108588 <__s2b+0xa8>
  108554:	e2849009 	add	r9, r4, #9
  108558:	e0844007 	add	r4, r4, r7
  10855c:	e1a08009 	mov	r8, r9
  108560:	e4d83001 	ldrb	r3, [r8], #1
  108564:	e1a01000 	mov	r1, r0
  108568:	e3a0200a 	mov	r2, #10
  10856c:	e1a00005 	mov	r0, r5
  108570:	e2433030 	sub	r3, r3, #48	; 0x30
  108574:	ebffffa5 	bl	108410 <__multadd>
  108578:	e1580004 	cmp	r8, r4
  10857c:	1afffff7 	bne	108560 <__s2b+0x80>
  108580:	e2474008 	sub	r4, r7, #8
  108584:	e0894004 	add	r4, r9, r4
  108588:	e1560007 	cmp	r6, r7
  10858c:	c0466007 	subgt	r6, r6, r7
  108590:	c0846006 	addgt	r6, r4, r6
  108594:	da00000a 	ble	1085c4 <__s2b+0xe4>
  108598:	e4d43001 	ldrb	r3, [r4], #1
  10859c:	e1a01000 	mov	r1, r0
  1085a0:	e3a0200a 	mov	r2, #10
  1085a4:	e1a00005 	mov	r0, r5
  1085a8:	e2433030 	sub	r3, r3, #48	; 0x30
  1085ac:	ebffff97 	bl	108410 <__multadd>
  1085b0:	e1560004 	cmp	r6, r4
  1085b4:	1afffff7 	bne	108598 <__s2b+0xb8>
  1085b8:	e8bd87f0 	pop	{r4, r5, r6, r7, r8, r9, sl, pc}
  1085bc:	e3a01000 	mov	r1, #0
  1085c0:	eaffffda 	b	108530 <__s2b+0x50>
  1085c4:	e8bd87f0 	pop	{r4, r5, r6, r7, r8, r9, sl, pc}

001085c8 <__hi0bits>:
  1085c8:	e1a02820 	lsr	r2, r0, #16
  1085cc:	e1a03000 	mov	r3, r0
  1085d0:	e1a02802 	lsl	r2, r2, #16
  1085d4:	e3520000 	cmp	r2, #0
  1085d8:	01a03800 	lsleq	r3, r0, #16
  1085dc:	13a00000 	movne	r0, #0
  1085e0:	03a00010 	moveq	r0, #16
  1085e4:	e31304ff 	tst	r3, #-16777216	; 0xff000000
  1085e8:	01a03403 	lsleq	r3, r3, #8
  1085ec:	02800008 	addeq	r0, r0, #8
  1085f0:	e313020f 	tst	r3, #-268435456	; 0xf0000000
  1085f4:	01a03203 	lsleq	r3, r3, #4
  1085f8:	02800004 	addeq	r0, r0, #4
  1085fc:	e3130103 	tst	r3, #-1073741824	; 0xc0000000
  108600:	01a03103 	lsleq	r3, r3, #2
  108604:	02800002 	addeq	r0, r0, #2
  108608:	e3530000 	cmp	r3, #0
  10860c:	b12fff1e 	bxlt	lr
  108610:	e3130101 	tst	r3, #1073741824	; 0x40000000
  108614:	12800001 	addne	r0, r0, #1
  108618:	03a00020 	moveq	r0, #32
  10861c:	e12fff1e 	bx	lr

00108620 <__lo0bits>:
  108620:	e5903000 	ldr	r3, [r0]
  108624:	e1a01000 	mov	r1, r0
  108628:	e2132007 	ands	r2, r3, #7
  10862c:	0a000008 	beq	108654 <__lo0bits+0x34>
  108630:	e3130001 	tst	r3, #1
  108634:	1a00001d 	bne	1086b0 <__lo0bits+0x90>
  108638:	e3130002 	tst	r3, #2
  10863c:	11a030a3 	lsrne	r3, r3, #1
  108640:	01a03123 	lsreq	r3, r3, #2
  108644:	13a00001 	movne	r0, #1
  108648:	03a00002 	moveq	r0, #2
  10864c:	e5813000 	str	r3, [r1]
  108650:	e12fff1e 	bx	lr
  108654:	e6ff0073 	uxth	r0, r3
  108658:	e3500000 	cmp	r0, #0
  10865c:	01a03823 	lsreq	r3, r3, #16
  108660:	03a00010 	moveq	r0, #16
  108664:	11a00002 	movne	r0, r2
  108668:	e31300ff 	tst	r3, #255	; 0xff
  10866c:	01a03423 	lsreq	r3, r3, #8
  108670:	02800008 	addeq	r0, r0, #8
  108674:	e313000f 	tst	r3, #15
  108678:	01a03223 	lsreq	r3, r3, #4
  10867c:	02800004 	addeq	r0, r0, #4
  108680:	e3130003 	tst	r3, #3
  108684:	01a03123 	lsreq	r3, r3, #2
  108688:	02800002 	addeq	r0, r0, #2
  10868c:	e3130001 	tst	r3, #1
  108690:	1a000004 	bne	1086a8 <__lo0bits+0x88>
  108694:	e1b030a3 	lsrs	r3, r3, #1
  108698:	1a000001 	bne	1086a4 <__lo0bits+0x84>
  10869c:	e3a00020 	mov	r0, #32
  1086a0:	e12fff1e 	bx	lr
  1086a4:	e2800001 	add	r0, r0, #1
  1086a8:	e5813000 	str	r3, [r1]
  1086ac:	e12fff1e 	bx	lr
  1086b0:	e3a00000 	mov	r0, #0
  1086b4:	e12fff1e 	bx	lr

001086b8 <__i2b>:
  1086b8:	e92d4010 	push	{r4, lr}
  1086bc:	e1a04001 	mov	r4, r1
  1086c0:	e3a01001 	mov	r1, #1
  1086c4:	ebffff28 	bl	10836c <_Balloc>
  1086c8:	e3a02001 	mov	r2, #1
  1086cc:	e5804014 	str	r4, [r0, #20]
  1086d0:	e5802010 	str	r2, [r0, #16]
  1086d4:	e8bd8010 	pop	{r4, pc}

001086d8 <__multiply>:
  1086d8:	e92d4ff0 	push	{r4, r5, r6, r7, r8, r9, sl, fp, lr}
  1086dc:	e1a0b001 	mov	fp, r1
  1086e0:	e5916010 	ldr	r6, [r1, #16]
  1086e4:	e24dd00c 	sub	sp, sp, #12
  1086e8:	e1a08002 	mov	r8, r2
  1086ec:	e5924010 	ldr	r4, [r2, #16]
  1086f0:	e1560004 	cmp	r6, r4
  1086f4:	aa000004 	bge	10870c <__multiply+0x34>
  1086f8:	e1a02006 	mov	r2, r6
  1086fc:	e1a0b008 	mov	fp, r8
  108700:	e1a06004 	mov	r6, r4
  108704:	e1a08001 	mov	r8, r1
  108708:	e1a04002 	mov	r4, r2
  10870c:	e59b3008 	ldr	r3, [fp, #8]
  108710:	e0867004 	add	r7, r6, r4
  108714:	e59b1004 	ldr	r1, [fp, #4]
  108718:	e1570003 	cmp	r7, r3
  10871c:	c2811001 	addgt	r1, r1, #1
  108720:	ebffff11 	bl	10836c <_Balloc>
  108724:	e2809014 	add	r9, r0, #20
  108728:	e1a03000 	mov	r3, r0
  10872c:	e089a107 	add	sl, r9, r7, lsl #2
  108730:	e58d0000 	str	r0, [sp]
  108734:	e159000a 	cmp	r9, sl
  108738:	31a03009 	movcc	r3, r9
  10873c:	33a01000 	movcc	r1, #0
  108740:	2a000002 	bcs	108750 <__multiply+0x78>
  108744:	e4831004 	str	r1, [r3], #4
  108748:	e15a0003 	cmp	sl, r3
  10874c:	8afffffc 	bhi	108744 <__multiply+0x6c>
  108750:	e2888014 	add	r8, r8, #20
  108754:	e28bb014 	add	fp, fp, #20
  108758:	e0883104 	add	r3, r8, r4, lsl #2
  10875c:	e08b6106 	add	r6, fp, r6, lsl #2
  108760:	e1580003 	cmp	r8, r3
  108764:	358da004 	strcc	sl, [sp, #4]
  108768:	31a0a003 	movcc	sl, r3
  10876c:	2a000035 	bcs	108848 <__multiply+0x170>
  108770:	e598e000 	ldr	lr, [r8]
  108774:	e6ff507e 	uxth	r5, lr
  108778:	e3550000 	cmp	r5, #0
  10877c:	0a000014 	beq	1087d4 <__multiply+0xfc>
  108780:	e1a0e009 	mov	lr, r9
  108784:	e1a0400b 	mov	r4, fp
  108788:	e3a02000 	mov	r2, #0
  10878c:	e4943004 	ldr	r3, [r4], #4
  108790:	e59e0000 	ldr	r0, [lr]
  108794:	e1560004 	cmp	r6, r4
  108798:	e6ff1073 	uxth	r1, r3
  10879c:	e1a03823 	lsr	r3, r3, #16
  1087a0:	e6ffc070 	uxth	ip, r0
  1087a4:	e1a00820 	lsr	r0, r0, #16
  1087a8:	e021c195 	mla	r1, r5, r1, ip
  1087ac:	e0230395 	mla	r3, r5, r3, r0
  1087b0:	e0812002 	add	r2, r1, r2
  1087b4:	e6ff1072 	uxth	r1, r2
  1087b8:	e0832822 	add	r2, r3, r2, lsr #16
  1087bc:	e1813802 	orr	r3, r1, r2, lsl #16
  1087c0:	e1a02822 	lsr	r2, r2, #16
  1087c4:	e48e3004 	str	r3, [lr], #4
  1087c8:	8affffef 	bhi	10878c <__multiply+0xb4>
  1087cc:	e58e2000 	str	r2, [lr]
  1087d0:	e598e000 	ldr	lr, [r8]
  1087d4:	e1b0e82e 	lsrs	lr, lr, #16
  1087d8:	0a000015 	beq	108834 <__multiply+0x15c>
  1087dc:	e5993000 	ldr	r3, [r9]
  1087e0:	e1a0c009 	mov	ip, r9
  1087e4:	e1a0000b 	mov	r0, fp
  1087e8:	e3a04000 	mov	r4, #0
  1087ec:	e1a02003 	mov	r2, r3
  1087f0:	e1d010b0 	ldrh	r1, [r0]
  1087f4:	e1a02822 	lsr	r2, r2, #16
  1087f8:	e6ff3073 	uxth	r3, r3
  1087fc:	e022219e 	mla	r2, lr, r1, r2
  108800:	e0824004 	add	r4, r2, r4
  108804:	e1833804 	orr	r3, r3, r4, lsl #16
  108808:	e48c3004 	str	r3, [ip], #4
  10880c:	e4903004 	ldr	r3, [r0], #4
  108810:	e59c2000 	ldr	r2, [ip]
  108814:	e1560000 	cmp	r6, r0
  108818:	e1a03823 	lsr	r3, r3, #16
  10881c:	e6ff1072 	uxth	r1, r2
  108820:	e023139e 	mla	r3, lr, r3, r1
  108824:	e0833824 	add	r3, r3, r4, lsr #16
  108828:	e1a04823 	lsr	r4, r3, #16
  10882c:	8affffef 	bhi	1087f0 <__multiply+0x118>
  108830:	e58c3000 	str	r3, [ip]
  108834:	e2888004 	add	r8, r8, #4
  108838:	e2899004 	add	r9, r9, #4
  10883c:	e15a0008 	cmp	sl, r8
  108840:	8affffca 	bhi	108770 <__multiply+0x98>
  108844:	e59da004 	ldr	sl, [sp, #4]
  108848:	e3570000 	cmp	r7, #0
  10884c:	da000009 	ble	108878 <__multiply+0x1a0>
  108850:	e51a3004 	ldr	r3, [sl, #-4]
  108854:	e24aa004 	sub	sl, sl, #4
  108858:	e3530000 	cmp	r3, #0
  10885c:	0a000003 	beq	108870 <__multiply+0x198>
  108860:	ea000004 	b	108878 <__multiply+0x1a0>
  108864:	e53a3004 	ldr	r3, [sl, #-4]!
  108868:	e3530000 	cmp	r3, #0
  10886c:	1a000001 	bne	108878 <__multiply+0x1a0>
  108870:	e2577001 	subs	r7, r7, #1
  108874:	1afffffa 	bne	108864 <__multiply+0x18c>
  108878:	e59d3000 	ldr	r3, [sp]
  10887c:	e1a00003 	mov	r0, r3
  108880:	e5837010 	str	r7, [r3, #16]
  108884:	e28dd00c 	add	sp, sp, #12
  108888:	e8bd8ff0 	pop	{r4, r5, r6, r7, r8, r9, sl, fp, pc}

0010888c <__pow5mult>:
  10888c:	e2123003 	ands	r3, r2, #3
  108890:	e92d41f0 	push	{r4, r5, r6, r7, r8, lr}
  108894:	e1a04002 	mov	r4, r2
  108898:	e1a07000 	mov	r7, r0
  10889c:	01a05001 	moveq	r5, r1
  1088a0:	1a000024 	bne	108938 <__pow5mult+0xac>
  1088a4:	e1b04144 	asrs	r4, r4, #2
  1088a8:	0a000019 	beq	108914 <__pow5mult+0x88>
  1088ac:	e5976048 	ldr	r6, [r7, #72]	; 0x48
  1088b0:	e3560000 	cmp	r6, #0
  1088b4:	0a000027 	beq	108958 <__pow5mult+0xcc>
  1088b8:	e3a08000 	mov	r8, #0
  1088bc:	ea000005 	b	1088d8 <__pow5mult+0x4c>
  1088c0:	e1b040c4 	asrs	r4, r4, #1
  1088c4:	0a000012 	beq	108914 <__pow5mult+0x88>
  1088c8:	e5960000 	ldr	r0, [r6]
  1088cc:	e3500000 	cmp	r0, #0
  1088d0:	0a000011 	beq	10891c <__pow5mult+0x90>
  1088d4:	e1a06000 	mov	r6, r0
  1088d8:	e3140001 	tst	r4, #1
  1088dc:	0afffff7 	beq	1088c0 <__pow5mult+0x34>
  1088e0:	e1a02006 	mov	r2, r6
  1088e4:	e1a01005 	mov	r1, r5
  1088e8:	e1a00007 	mov	r0, r7
  1088ec:	ebffff79 	bl	1086d8 <__multiply>
  1088f0:	e3550000 	cmp	r5, #0
  1088f4:	15952004 	ldrne	r2, [r5, #4]
  1088f8:	1597304c 	ldrne	r3, [r7, #76]	; 0x4c
  1088fc:	17931102 	ldrne	r1, [r3, r2, lsl #2]
  108900:	15851000 	strne	r1, [r5]
  108904:	17835102 	strne	r5, [r3, r2, lsl #2]
  108908:	e1b040c4 	asrs	r4, r4, #1
  10890c:	e1a05000 	mov	r5, r0
  108910:	1affffec 	bne	1088c8 <__pow5mult+0x3c>
  108914:	e1a00005 	mov	r0, r5
  108918:	e8bd81f0 	pop	{r4, r5, r6, r7, r8, pc}
  10891c:	e1a02006 	mov	r2, r6
  108920:	e1a01006 	mov	r1, r6
  108924:	e1a00007 	mov	r0, r7
  108928:	ebffff6a 	bl	1086d8 <__multiply>
  10892c:	e5860000 	str	r0, [r6]
  108930:	e5808000 	str	r8, [r0]
  108934:	eaffffe6 	b	1088d4 <__pow5mult+0x48>
  108938:	e30cc878 	movw	ip, #51320	; 0xc878
  10893c:	e2432001 	sub	r2, r3, #1
  108940:	e340c010 	movt	ip, #16
  108944:	e3a03000 	mov	r3, #0
  108948:	e79c2102 	ldr	r2, [ip, r2, lsl #2]
  10894c:	ebfffeaf 	bl	108410 <__multadd>
  108950:	e1a05000 	mov	r5, r0
  108954:	eaffffd2 	b	1088a4 <__pow5mult+0x18>
  108958:	e3a01001 	mov	r1, #1
  10895c:	e1a00007 	mov	r0, r7
  108960:	ebfffe81 	bl	10836c <_Balloc>
  108964:	e3001271 	movw	r1, #625	; 0x271
  108968:	e3a02001 	mov	r2, #1
  10896c:	e3a03000 	mov	r3, #0
  108970:	e5801014 	str	r1, [r0, #20]
  108974:	e5802010 	str	r2, [r0, #16]
  108978:	e1a06000 	mov	r6, r0
  10897c:	e5870048 	str	r0, [r7, #72]	; 0x48
  108980:	e5803000 	str	r3, [r0]
  108984:	eaffffcb 	b	1088b8 <__pow5mult+0x2c>

00108988 <__lshift>:
  108988:	e92d47f0 	push	{r4, r5, r6, r7, r8, r9, sl, lr}
  10898c:	e1a092c2 	asr	r9, r2, #5
  108990:	e5917010 	ldr	r7, [r1, #16]
  108994:	e1a05001 	mov	r5, r1
  108998:	e1a08002 	mov	r8, r2
  10899c:	e1a06000 	mov	r6, r0
  1089a0:	e5913008 	ldr	r3, [r1, #8]
  1089a4:	e0897007 	add	r7, r9, r7
  1089a8:	e5911004 	ldr	r1, [r1, #4]
  1089ac:	e2874001 	add	r4, r7, #1
  1089b0:	e1540003 	cmp	r4, r3
  1089b4:	da000003 	ble	1089c8 <__lshift+0x40>
  1089b8:	e1a03083 	lsl	r3, r3, #1
  1089bc:	e2811001 	add	r1, r1, #1
  1089c0:	e1540003 	cmp	r4, r3
  1089c4:	cafffffb 	bgt	1089b8 <__lshift+0x30>
  1089c8:	e1a00006 	mov	r0, r6
  1089cc:	ebfffe66 	bl	10836c <_Balloc>
  1089d0:	e3590000 	cmp	r9, #0
  1089d4:	e1a0c000 	mov	ip, r0
  1089d8:	e2803014 	add	r3, r0, #20
  1089dc:	da000004 	ble	1089f4 <__lshift+0x6c>
  1089e0:	e0831109 	add	r1, r3, r9, lsl #2
  1089e4:	e3a02000 	mov	r2, #0
  1089e8:	e4832004 	str	r2, [r3], #4
  1089ec:	e1510003 	cmp	r1, r3
  1089f0:	1afffffc 	bne	1089e8 <__lshift+0x60>
  1089f4:	e595e010 	ldr	lr, [r5, #16]
  1089f8:	e218801f 	ands	r8, r8, #31
  1089fc:	e2851014 	add	r1, r5, #20
  108a00:	e081e10e 	add	lr, r1, lr, lsl #2
  108a04:	0a000014 	beq	108a5c <__lshift+0xd4>
  108a08:	e2682020 	rsb	r2, r8, #32
  108a0c:	e3a00000 	mov	r0, #0
  108a10:	e5919000 	ldr	r9, [r1]
  108a14:	e1800819 	orr	r0, r0, r9, lsl r8
  108a18:	e4830004 	str	r0, [r3], #4
  108a1c:	e4910004 	ldr	r0, [r1], #4
  108a20:	e15e0001 	cmp	lr, r1
  108a24:	e1a00230 	lsr	r0, r0, r2
  108a28:	8afffff8 	bhi	108a10 <__lshift+0x88>
  108a2c:	e3500000 	cmp	r0, #0
  108a30:	e5830000 	str	r0, [r3]
  108a34:	12874002 	addne	r4, r7, #2
  108a38:	e596304c 	ldr	r3, [r6, #76]	; 0x4c
  108a3c:	e2444001 	sub	r4, r4, #1
  108a40:	e5952004 	ldr	r2, [r5, #4]
  108a44:	e1a0000c 	mov	r0, ip
  108a48:	e58c4010 	str	r4, [ip, #16]
  108a4c:	e7931102 	ldr	r1, [r3, r2, lsl #2]
  108a50:	e5851000 	str	r1, [r5]
  108a54:	e7835102 	str	r5, [r3, r2, lsl #2]
  108a58:	e8bd87f0 	pop	{r4, r5, r6, r7, r8, r9, sl, pc}
  108a5c:	e2433004 	sub	r3, r3, #4
  108a60:	e4912004 	ldr	r2, [r1], #4
  108a64:	e15e0001 	cmp	lr, r1
  108a68:	e5a32004 	str	r2, [r3, #4]!
  108a6c:	8afffffb 	bhi	108a60 <__lshift+0xd8>
  108a70:	eafffff0 	b	108a38 <__lshift+0xb0>

00108a74 <__mcmp>:
  108a74:	e52de004 	push	{lr}		; (str lr, [sp, #-4]!)
  108a78:	e1a0e000 	mov	lr, r0
  108a7c:	e5913010 	ldr	r3, [r1, #16]
  108a80:	e5900010 	ldr	r0, [r0, #16]
  108a84:	e0500003 	subs	r0, r0, r3
  108a88:	149df004 	popne	{pc}		; (ldrne pc, [sp], #4)
  108a8c:	e1a03103 	lsl	r3, r3, #2
  108a90:	e28ee014 	add	lr, lr, #20
  108a94:	e2811014 	add	r1, r1, #20
  108a98:	e0811003 	add	r1, r1, r3
  108a9c:	e08e3003 	add	r3, lr, r3
  108aa0:	ea000001 	b	108aac <__mcmp+0x38>
  108aa4:	e15e0003 	cmp	lr, r3
  108aa8:	2a000006 	bcs	108ac8 <__mcmp+0x54>
  108aac:	e533c004 	ldr	ip, [r3, #-4]!
  108ab0:	e5312004 	ldr	r2, [r1, #-4]!
  108ab4:	e15c0002 	cmp	ip, r2
  108ab8:	0afffff9 	beq	108aa4 <__mcmp+0x30>
  108abc:	3a000002 	bcc	108acc <__mcmp+0x58>
  108ac0:	e3a00001 	mov	r0, #1
  108ac4:	e49df004 	pop	{pc}		; (ldr pc, [sp], #4)
  108ac8:	e49df004 	pop	{pc}		; (ldr pc, [sp], #4)
  108acc:	e3e00000 	mvn	r0, #0
  108ad0:	e49df004 	pop	{pc}		; (ldr pc, [sp], #4)

00108ad4 <__mdiff>:
  108ad4:	e92d47f0 	push	{r4, r5, r6, r7, r8, r9, sl, lr}
  108ad8:	e1a05001 	mov	r5, r1
  108adc:	e5917010 	ldr	r7, [r1, #16]
  108ae0:	e1a08002 	mov	r8, r2
  108ae4:	e5921010 	ldr	r1, [r2, #16]
  108ae8:	e0477001 	sub	r7, r7, r1
  108aec:	e3570000 	cmp	r7, #0
  108af0:	1a000044 	bne	108c08 <__mdiff+0x134>
  108af4:	e1a01101 	lsl	r1, r1, #2
  108af8:	e2854014 	add	r4, r5, #20
  108afc:	e282e014 	add	lr, r2, #20
  108b00:	e0843001 	add	r3, r4, r1
  108b04:	e08e1001 	add	r1, lr, r1
  108b08:	ea000001 	b	108b14 <__mdiff+0x40>
  108b0c:	e1540003 	cmp	r4, r3
  108b10:	2a000047 	bcs	108c34 <__mdiff+0x160>
  108b14:	e533c004 	ldr	ip, [r3, #-4]!
  108b18:	e5312004 	ldr	r2, [r1, #-4]!
  108b1c:	e15c0002 	cmp	ip, r2
  108b20:	0afffff9 	beq	108b0c <__mdiff+0x38>
  108b24:	21a0600e 	movcs	r6, lr
  108b28:	3a000048 	bcc	108c50 <__mdiff+0x17c>
  108b2c:	e5951004 	ldr	r1, [r5, #4]
  108b30:	ebfffe0d 	bl	10836c <_Balloc>
  108b34:	e5955010 	ldr	r5, [r5, #16]
  108b38:	e1a0c006 	mov	ip, r6
  108b3c:	e5983010 	ldr	r3, [r8, #16]
  108b40:	e1a0e004 	mov	lr, r4
  108b44:	e580700c 	str	r7, [r0, #12]
  108b48:	e2801014 	add	r1, r0, #20
  108b4c:	e3a07000 	mov	r7, #0
  108b50:	e0844105 	add	r4, r4, r5, lsl #2
  108b54:	e0866103 	add	r6, r6, r3, lsl #2
  108b58:	e49c8004 	ldr	r8, [ip], #4
  108b5c:	e49e9004 	ldr	r9, [lr], #4
  108b60:	e156000c 	cmp	r6, ip
  108b64:	e1a02828 	lsr	r2, r8, #16
  108b68:	e6ff8078 	uxth	r8, r8
  108b6c:	e6ff3079 	uxth	r3, r9
  108b70:	e0622829 	rsb	r2, r2, r9, lsr #16
  108b74:	e0833007 	add	r3, r3, r7
  108b78:	e0433008 	sub	r3, r3, r8
  108b7c:	e0822843 	add	r2, r2, r3, asr #16
  108b80:	e6ff3073 	uxth	r3, r3
  108b84:	e1833802 	orr	r3, r3, r2, lsl #16
  108b88:	e1a07842 	asr	r7, r2, #16
  108b8c:	e4813004 	str	r3, [r1], #4
  108b90:	8afffff0 	bhi	108b58 <__mdiff+0x84>
  108b94:	e154000e 	cmp	r4, lr
  108b98:	9a000011 	bls	108be4 <__mdiff+0x110>
  108b9c:	e1a06001 	mov	r6, r1
  108ba0:	e1a0c00e 	mov	ip, lr
  108ba4:	e49c8004 	ldr	r8, [ip], #4
  108ba8:	e154000c 	cmp	r4, ip
  108bac:	e6ff3078 	uxth	r3, r8
  108bb0:	e0833007 	add	r3, r3, r7
  108bb4:	e1a02843 	asr	r2, r3, #16
  108bb8:	e6ff3073 	uxth	r3, r3
  108bbc:	e0822828 	add	r2, r2, r8, lsr #16
  108bc0:	e1833802 	orr	r3, r3, r2, lsl #16
  108bc4:	e1a07842 	asr	r7, r2, #16
  108bc8:	e4863004 	str	r3, [r6], #4
  108bcc:	8afffff4 	bhi	108ba4 <__mdiff+0xd0>
  108bd0:	e1e0e00e 	mvn	lr, lr
  108bd4:	e08e4004 	add	r4, lr, r4
  108bd8:	e3c44003 	bic	r4, r4, #3
  108bdc:	e2844004 	add	r4, r4, #4
  108be0:	e0811004 	add	r1, r1, r4
  108be4:	e3530000 	cmp	r3, #0
  108be8:	e2411004 	sub	r1, r1, #4
  108bec:	1a000003 	bne	108c00 <__mdiff+0x12c>
  108bf0:	e5313004 	ldr	r3, [r1, #-4]!
  108bf4:	e2455001 	sub	r5, r5, #1
  108bf8:	e3530000 	cmp	r3, #0
  108bfc:	0afffffb 	beq	108bf0 <__mdiff+0x11c>
  108c00:	e5805010 	str	r5, [r0, #16]
  108c04:	e8bd87f0 	pop	{r4, r5, r6, r7, r8, r9, sl, pc}
  108c08:	a2854014 	addge	r4, r5, #20
  108c0c:	a2826014 	addge	r6, r2, #20
  108c10:	a3a07000 	movge	r7, #0
  108c14:	aaffffc4 	bge	108b2c <__mdiff+0x58>
  108c18:	e1a03005 	mov	r3, r5
  108c1c:	e2856014 	add	r6, r5, #20
  108c20:	e2824014 	add	r4, r2, #20
  108c24:	e1a05002 	mov	r5, r2
  108c28:	e3a07001 	mov	r7, #1
  108c2c:	e1a08003 	mov	r8, r3
  108c30:	eaffffbd 	b	108b2c <__mdiff+0x58>
  108c34:	e3a01000 	mov	r1, #0
  108c38:	ebfffdcb 	bl	10836c <_Balloc>
  108c3c:	e3a02001 	mov	r2, #1
  108c40:	e3a03000 	mov	r3, #0
  108c44:	e5802010 	str	r2, [r0, #16]
  108c48:	e5803014 	str	r3, [r0, #20]
  108c4c:	e8bd87f0 	pop	{r4, r5, r6, r7, r8, r9, sl, pc}
  108c50:	e1a03005 	mov	r3, r5
  108c54:	e1a06004 	mov	r6, r4
  108c58:	e1a05008 	mov	r5, r8
  108c5c:	e1a0400e 	mov	r4, lr
  108c60:	e1a08003 	mov	r8, r3
  108c64:	e3a07001 	mov	r7, #1
  108c68:	eaffffaf 	b	108b2c <__mdiff+0x58>

00108c6c <__ulp>:
  108c6c:	e3a03000 	mov	r3, #0
  108c70:	e3473ff0 	movt	r3, #32752	; 0x7ff0
  108c74:	e0033001 	and	r3, r3, r1
  108c78:	e243350d 	sub	r3, r3, #54525952	; 0x3400000
  108c7c:	e3530000 	cmp	r3, #0
  108c80:	da000002 	ble	108c90 <__ulp+0x24>
  108c84:	e3a00000 	mov	r0, #0
  108c88:	e1a01003 	mov	r1, r3
  108c8c:	e12fff1e 	bx	lr
  108c90:	e2633000 	rsb	r3, r3, #0
  108c94:	e1a03a43 	asr	r3, r3, #20
  108c98:	e3530013 	cmp	r3, #19
  108c9c:	da000008 	ble	108cc4 <__ulp+0x58>
  108ca0:	e2433014 	sub	r3, r3, #20
  108ca4:	e3a01000 	mov	r1, #0
  108ca8:	e353001e 	cmp	r3, #30
  108cac:	d263301f 	rsble	r3, r3, #31
  108cb0:	d3a02001 	movle	r2, #1
  108cb4:	d1a03312 	lslle	r3, r2, r3
  108cb8:	c3a03001 	movgt	r3, #1
  108cbc:	e1a00003 	mov	r0, r3
  108cc0:	e12fff1e 	bx	lr
  108cc4:	e3a02702 	mov	r2, #524288	; 0x80000
  108cc8:	e3a00000 	mov	r0, #0
  108ccc:	e1a01352 	asr	r1, r2, r3
  108cd0:	e12fff1e 	bx	lr

00108cd4 <__b2d>:
  108cd4:	e92d47f0 	push	{r4, r5, r6, r7, r8, r9, sl, lr}
  108cd8:	e2806014 	add	r6, r0, #20
  108cdc:	e5907010 	ldr	r7, [r0, #16]
  108ce0:	e0867107 	add	r7, r6, r7, lsl #2
  108ce4:	e5178004 	ldr	r8, [r7, #-4]
  108ce8:	e2479004 	sub	r9, r7, #4
  108cec:	e1a00008 	mov	r0, r8
  108cf0:	ebfffe34 	bl	1085c8 <__hi0bits>
  108cf4:	e350000a 	cmp	r0, #10
  108cf8:	e2603020 	rsb	r3, r0, #32
  108cfc:	e5813000 	str	r3, [r1]
  108d00:	ca00000c 	bgt	108d38 <__b2d+0x64>
  108d04:	e1560009 	cmp	r6, r9
  108d08:	e260100b 	rsb	r1, r0, #11
  108d0c:	35172008 	ldrcc	r2, [r7, #-8]
  108d10:	e3a03000 	mov	r3, #0
  108d14:	e3433ff0 	movt	r3, #16368	; 0x3ff0
  108d18:	23a02000 	movcs	r2, #0
  108d1c:	e1835138 	orr	r5, r3, r8, lsr r1
  108d20:	e2803015 	add	r3, r0, #21
  108d24:	31a02132 	lsrcc	r2, r2, r1
  108d28:	e1824318 	orr	r4, r2, r8, lsl r3
  108d2c:	e1a00004 	mov	r0, r4
  108d30:	e1a01005 	mov	r1, r5
  108d34:	e8bd87f0 	pop	{r4, r5, r6, r7, r8, r9, sl, pc}
  108d38:	e1560009 	cmp	r6, r9
  108d3c:	2a00000f 	bcs	108d80 <__b2d+0xac>
  108d40:	e250100b 	subs	r1, r0, #11
  108d44:	e5173008 	ldr	r3, [r7, #-8]
  108d48:	0a00000e 	beq	108d88 <__b2d+0xb4>
  108d4c:	e2470008 	sub	r0, r7, #8
  108d50:	e3a02000 	mov	r2, #0
  108d54:	e1560000 	cmp	r6, r0
  108d58:	e3432ff0 	movt	r2, #16368	; 0x3ff0
  108d5c:	e1828118 	orr	r8, r2, r8, lsl r1
  108d60:	3517000c 	ldrcc	r0, [r7, #-12]
  108d64:	e2612020 	rsb	r2, r1, #32
  108d68:	21a00113 	lslcs	r0, r3, r1
  108d6c:	e1885233 	orr	r5, r8, r3, lsr r2
  108d70:	31a03113 	lslcc	r3, r3, r1
  108d74:	31830230 	orrcc	r0, r3, r0, lsr r2
  108d78:	e1a04000 	mov	r4, r0
  108d7c:	eaffffea 	b	108d2c <__b2d+0x58>
  108d80:	e250300b 	subs	r3, r0, #11
  108d84:	1a000003 	bne	108d98 <__b2d+0xc4>
  108d88:	e38855ff 	orr	r5, r8, #1069547520	; 0x3fc00000
  108d8c:	e1a04003 	mov	r4, r3
  108d90:	e3855603 	orr	r5, r5, #3145728	; 0x300000
  108d94:	eaffffe4 	b	108d2c <__b2d+0x58>
  108d98:	e3a02000 	mov	r2, #0
  108d9c:	e3a00000 	mov	r0, #0
  108da0:	e3432ff0 	movt	r2, #16368	; 0x3ff0
  108da4:	e1825318 	orr	r5, r2, r8, lsl r3
  108da8:	eafffff2 	b	108d78 <__b2d+0xa4>

00108dac <__d2b>:
  108dac:	e92d43f0 	push	{r4, r5, r6, r7, r8, r9, lr}
  108db0:	e3a01001 	mov	r1, #1
  108db4:	e24dd00c 	sub	sp, sp, #12
  108db8:	e1a04003 	mov	r4, r3
  108dbc:	e7ea5a53 	ubfx	r5, r3, #20, #11
  108dc0:	e1a08002 	mov	r8, r2
  108dc4:	e7f34054 	ubfx	r4, r4, #0, #20
  108dc8:	e59d7028 	ldr	r7, [sp, #40]	; 0x28
  108dcc:	e59d602c 	ldr	r6, [sp, #44]	; 0x2c
  108dd0:	ebfffd65 	bl	10836c <_Balloc>
  108dd4:	e3550000 	cmp	r5, #0
  108dd8:	e1a09000 	mov	r9, r0
  108ddc:	13844601 	orrne	r4, r4, #1048576	; 0x100000
  108de0:	e3580000 	cmp	r8, #0
  108de4:	e58d4004 	str	r4, [sp, #4]
  108de8:	0a00001d 	beq	108e64 <__d2b+0xb8>
  108dec:	e28d0008 	add	r0, sp, #8
  108df0:	e5208008 	str	r8, [r0, #-8]!
  108df4:	ebfffe09 	bl	108620 <__lo0bits>
  108df8:	e3500000 	cmp	r0, #0
  108dfc:	159dc004 	ldrne	ip, [sp, #4]
  108e00:	12602020 	rsbne	r2, r0, #32
  108e04:	159d1000 	ldrne	r1, [sp]
  108e08:	089d000c 	ldmeq	sp, {r2, r3}
  108e0c:	11a0303c 	lsrne	r3, ip, r0
  108e10:	1181221c 	orrne	r2, r1, ip, lsl r2
  108e14:	158d3004 	strne	r3, [sp, #4]
  108e18:	e3530000 	cmp	r3, #0
  108e1c:	03a01001 	moveq	r1, #1
  108e20:	13a01002 	movne	r1, #2
  108e24:	e3550000 	cmp	r5, #0
  108e28:	e5892014 	str	r2, [r9, #20]
  108e2c:	e5893018 	str	r3, [r9, #24]
  108e30:	e5891010 	str	r1, [r9, #16]
  108e34:	1a000014 	bne	108e8c <__d2b+0xe0>
  108e38:	e0893101 	add	r3, r9, r1, lsl #2
  108e3c:	e2405e43 	sub	r5, r0, #1072	; 0x430
  108e40:	e2455002 	sub	r5, r5, #2
  108e44:	e5930010 	ldr	r0, [r3, #16]
  108e48:	e5875000 	str	r5, [r7]
  108e4c:	ebfffddd 	bl	1085c8 <__hi0bits>
  108e50:	e0600281 	rsb	r0, r0, r1, lsl #5
  108e54:	e5860000 	str	r0, [r6]
  108e58:	e1a00009 	mov	r0, r9
  108e5c:	e28dd00c 	add	sp, sp, #12
  108e60:	e8bd83f0 	pop	{r4, r5, r6, r7, r8, r9, pc}
  108e64:	e28d0004 	add	r0, sp, #4
  108e68:	ebfffdec 	bl	108620 <__lo0bits>
  108e6c:	e59d2004 	ldr	r2, [sp, #4]
  108e70:	e3550000 	cmp	r5, #0
  108e74:	e3a03001 	mov	r3, #1
  108e78:	e2800020 	add	r0, r0, #32
  108e7c:	e1a01003 	mov	r1, r3
  108e80:	e5893010 	str	r3, [r9, #16]
  108e84:	e5892014 	str	r2, [r9, #20]
  108e88:	0affffea 	beq	108e38 <__d2b+0x8c>
  108e8c:	e2455e43 	sub	r5, r5, #1072	; 0x430
  108e90:	e2603035 	rsb	r3, r0, #53	; 0x35
  108e94:	e2455003 	sub	r5, r5, #3
  108e98:	e0855000 	add	r5, r5, r0
  108e9c:	e1a00009 	mov	r0, r9
  108ea0:	e5875000 	str	r5, [r7]
  108ea4:	e5863000 	str	r3, [r6]
  108ea8:	e28dd00c 	add	sp, sp, #12
  108eac:	e8bd83f0 	pop	{r4, r5, r6, r7, r8, r9, pc}

00108eb0 <__ratio>:
  108eb0:	e92d40f0 	push	{r4, r5, r6, r7, lr}
  108eb4:	e24dd00c 	sub	sp, sp, #12
  108eb8:	e1a06001 	mov	r6, r1
  108ebc:	e1a0100d 	mov	r1, sp
  108ec0:	e1a07000 	mov	r7, r0
  108ec4:	ebffff82 	bl	108cd4 <__b2d>
  108ec8:	ec410b30 	vmov	d16, r0, r1
  108ecc:	e1a00006 	mov	r0, r6
  108ed0:	e28d1004 	add	r1, sp, #4
  108ed4:	ebffff7e 	bl	108cd4 <__b2d>
  108ed8:	e5972010 	ldr	r2, [r7, #16]
  108edc:	e596e010 	ldr	lr, [r6, #16]
  108ee0:	e89d1008 	ldm	sp, {r3, ip}
  108ee4:	e042200e 	sub	r2, r2, lr
  108ee8:	e043300c 	sub	r3, r3, ip
  108eec:	e0833282 	add	r3, r3, r2, lsl #5
  108ef0:	e3530000 	cmp	r3, #0
  108ef4:	da000007 	ble	108f18 <__ratio+0x68>
  108ef8:	ec554b30 	vmov	r4, r5, d16
  108efc:	e0855a03 	add	r5, r5, r3, lsl #20
  108f00:	ec410b31 	vmov	d17, r0, r1
  108f04:	ec454b30 	vmov	d16, r4, r5
  108f08:	eec02ba1 	vdiv.f64	d18, d16, d17
  108f0c:	ec510b32 	vmov	r0, r1, d18
  108f10:	e28dd00c 	add	sp, sp, #12
  108f14:	e8bd80f0 	pop	{r4, r5, r6, r7, pc}
  108f18:	e0411a03 	sub	r1, r1, r3, lsl #20
  108f1c:	ec410b31 	vmov	d17, r0, r1
  108f20:	eec02ba1 	vdiv.f64	d18, d16, d17
  108f24:	ec510b32 	vmov	r0, r1, d18
  108f28:	e28dd00c 	add	sp, sp, #12
  108f2c:	e8bd80f0 	pop	{r4, r5, r6, r7, pc}

00108f30 <_mprec_log10>:
  108f30:	e3500017 	cmp	r0, #23
  108f34:	da000006 	ble	108f54 <_mprec_log10+0x24>
  108f38:	eef70b00 	vmov.f64	d16, #112	; 0x3f800000  1.0
  108f3c:	eef21b04 	vmov.f64	d17, #36	; 0x41200000  10.0
  108f40:	e2500001 	subs	r0, r0, #1
  108f44:	ee600ba1 	vmul.f64	d16, d16, d17
  108f48:	1afffffc 	bne	108f40 <_mprec_log10+0x10>
  108f4c:	ec510b30 	vmov	r0, r1, d16
  108f50:	e12fff1e 	bx	lr
  108f54:	e30c3878 	movw	r3, #51320	; 0xc878
  108f58:	e3403010 	movt	r3, #16
  108f5c:	e0830180 	add	r0, r3, r0, lsl #3
  108f60:	edd00b04 	vldr	d16, [r0, #16]
  108f64:	ec510b30 	vmov	r0, r1, d16
  108f68:	e12fff1e 	bx	lr

00108f6c <__copybits>:
  108f6c:	e592c010 	ldr	ip, [r2, #16]
  108f70:	e2411001 	sub	r1, r1, #1
  108f74:	e1a012c1 	asr	r1, r1, #5
  108f78:	e2823014 	add	r3, r2, #20
  108f7c:	e92d4010 	push	{r4, lr}
  108f80:	e2814001 	add	r4, r1, #1
  108f84:	e083110c 	add	r1, r3, ip, lsl #2
  108f88:	e0804104 	add	r4, r0, r4, lsl #2
  108f8c:	e1530001 	cmp	r3, r1
  108f90:	2a000009 	bcs	108fbc <__copybits+0x50>
  108f94:	e240c004 	sub	ip, r0, #4
  108f98:	e493e004 	ldr	lr, [r3], #4
  108f9c:	e1510003 	cmp	r1, r3
  108fa0:	e5ace004 	str	lr, [ip, #4]!
  108fa4:	8afffffb 	bhi	108f98 <__copybits+0x2c>
  108fa8:	e0413002 	sub	r3, r1, r2
  108fac:	e2433015 	sub	r3, r3, #21
  108fb0:	e3c33003 	bic	r3, r3, #3
  108fb4:	e2833004 	add	r3, r3, #4
  108fb8:	e0800003 	add	r0, r0, r3
  108fbc:	e1540000 	cmp	r4, r0
  108fc0:	98bd8010 	popls	{r4, pc}
  108fc4:	e3a03000 	mov	r3, #0
  108fc8:	e4803004 	str	r3, [r0], #4
  108fcc:	e1540000 	cmp	r4, r0
  108fd0:	8afffffc 	bhi	108fc8 <__copybits+0x5c>
  108fd4:	e8bd8010 	pop	{r4, pc}

00108fd8 <__any_on>:
  108fd8:	e5903010 	ldr	r3, [r0, #16]
  108fdc:	e1a022c1 	asr	r2, r1, #5
  108fe0:	e280c014 	add	ip, r0, #20
  108fe4:	e1530002 	cmp	r3, r2
  108fe8:	b08c3103 	addlt	r3, ip, r3, lsl #2
  108fec:	ba00000a 	blt	10901c <__any_on+0x44>
  108ff0:	da000008 	ble	109018 <__any_on+0x40>
  108ff4:	e211101f 	ands	r1, r1, #31
  108ff8:	0a000006 	beq	109018 <__any_on+0x40>
  108ffc:	e79c0102 	ldr	r0, [ip, r2, lsl #2]
  109000:	e08c3102 	add	r3, ip, r2, lsl #2
  109004:	e1a02130 	lsr	r2, r0, r1
  109008:	e1500112 	cmp	r0, r2, lsl r1
  10900c:	0a000002 	beq	10901c <__any_on+0x44>
  109010:	e3a00001 	mov	r0, #1
  109014:	e12fff1e 	bx	lr
  109018:	e08c3102 	add	r3, ip, r2, lsl #2
  10901c:	e15c0003 	cmp	ip, r3
  109020:	2a00000a 	bcs	109050 <__any_on+0x78>
  109024:	e5130004 	ldr	r0, [r3, #-4]
  109028:	e2433004 	sub	r3, r3, #4
  10902c:	e3500000 	cmp	r0, #0
  109030:	0a000003 	beq	109044 <__any_on+0x6c>
  109034:	eafffff5 	b	109010 <__any_on+0x38>
  109038:	e5332004 	ldr	r2, [r3, #-4]!
  10903c:	e3520000 	cmp	r2, #0
  109040:	1afffff2 	bne	109010 <__any_on+0x38>
  109044:	e15c0003 	cmp	ip, r3
  109048:	3afffffa 	bcc	109038 <__any_on+0x60>
  10904c:	e12fff1e 	bx	lr
  109050:	e3a00000 	mov	r0, #0
  109054:	e12fff1e 	bx	lr

00109058 <_putc_r>:
  109058:	e92d41f0 	push	{r4, r5, r6, r7, r8, lr}
  10905c:	e2507000 	subs	r7, r0, #0
  109060:	e1a06001 	mov	r6, r1
  109064:	e1a04002 	mov	r4, r2
  109068:	0a000002 	beq	109078 <_putc_r+0x20>
  10906c:	e5973038 	ldr	r3, [r7, #56]	; 0x38
  109070:	e3530000 	cmp	r3, #0
  109074:	0a000027 	beq	109118 <_putc_r+0xc0>
  109078:	e5943064 	ldr	r3, [r4, #100]	; 0x64
  10907c:	e3130001 	tst	r3, #1
  109080:	1a000002 	bne	109090 <_putc_r+0x38>
  109084:	e1d430bc 	ldrh	r3, [r4, #12]
  109088:	e3130c02 	tst	r3, #512	; 0x200
  10908c:	0a000023 	beq	109120 <_putc_r+0xc8>
  109090:	e5943008 	ldr	r3, [r4, #8]
  109094:	e2433001 	sub	r3, r3, #1
  109098:	e3530000 	cmp	r3, #0
  10909c:	e5843008 	str	r3, [r4, #8]
  1090a0:	ba000010 	blt	1090e8 <_putc_r+0x90>
  1090a4:	e6ef5076 	uxtb	r5, r6
  1090a8:	e5943000 	ldr	r3, [r4]
  1090ac:	e2832001 	add	r2, r3, #1
  1090b0:	e5842000 	str	r2, [r4]
  1090b4:	e5c36000 	strb	r6, [r3]
  1090b8:	e5943064 	ldr	r3, [r4, #100]	; 0x64
  1090bc:	e3130001 	tst	r3, #1
  1090c0:	1a000002 	bne	1090d0 <_putc_r+0x78>
  1090c4:	e1d430bc 	ldrh	r3, [r4, #12]
  1090c8:	e3130c02 	tst	r3, #512	; 0x200
  1090cc:	0a000001 	beq	1090d8 <_putc_r+0x80>
  1090d0:	e1a00005 	mov	r0, r5
  1090d4:	e8bd81f0 	pop	{r4, r5, r6, r7, r8, pc}
  1090d8:	e2840058 	add	r0, r4, #88	; 0x58
  1090dc:	eb000b5e 	bl	10be5c <__generic_gxx_recursive_mutex_unlock>
  1090e0:	e1a00005 	mov	r0, r5
  1090e4:	e8bd81f0 	pop	{r4, r5, r6, r7, r8, pc}
  1090e8:	e5942018 	ldr	r2, [r4, #24]
  1090ec:	e1530002 	cmp	r3, r2
  1090f0:	ba000002 	blt	109100 <_putc_r+0xa8>
  1090f4:	e6ef5076 	uxtb	r5, r6
  1090f8:	e355000a 	cmp	r5, #10
  1090fc:	1affffe9 	bne	1090a8 <_putc_r+0x50>
  109100:	e1a01006 	mov	r1, r6
  109104:	e1a00007 	mov	r0, r7
  109108:	e1a02004 	mov	r2, r4
  10910c:	eb000735 	bl	10ade8 <__swbuf_r>
  109110:	e1a05000 	mov	r5, r0
  109114:	eaffffe7 	b	1090b8 <_putc_r+0x60>
  109118:	ebfff828 	bl	1071c0 <__sinit>
  10911c:	eaffffd5 	b	109078 <_putc_r+0x20>
  109120:	e2840058 	add	r0, r4, #88	; 0x58
  109124:	eb000b4e 	bl	10be64 <__generic_gxx_recursive_mutex_lock>
  109128:	eaffffd8 	b	109090 <_putc_r+0x38>

0010912c <putc>:
  10912c:	e92d41f0 	push	{r4, r5, r6, r7, r8, lr}
  109130:	e1a06000 	mov	r6, r0
  109134:	e1a04001 	mov	r4, r1
  109138:	ebfffb0f 	bl	107d7c <__getreent>
  10913c:	e2507000 	subs	r7, r0, #0
  109140:	0a000002 	beq	109150 <putc+0x24>
  109144:	e5973038 	ldr	r3, [r7, #56]	; 0x38
  109148:	e3530000 	cmp	r3, #0
  10914c:	0a000027 	beq	1091f0 <putc+0xc4>
  109150:	e5943064 	ldr	r3, [r4, #100]	; 0x64
  109154:	e3130001 	tst	r3, #1
  109158:	1a000002 	bne	109168 <putc+0x3c>
  10915c:	e1d430bc 	ldrh	r3, [r4, #12]
  109160:	e3130c02 	tst	r3, #512	; 0x200
  109164:	0a000023 	beq	1091f8 <putc+0xcc>
  109168:	e5943008 	ldr	r3, [r4, #8]
  10916c:	e2433001 	sub	r3, r3, #1
  109170:	e3530000 	cmp	r3, #0
  109174:	e5843008 	str	r3, [r4, #8]
  109178:	ba000010 	blt	1091c0 <putc+0x94>
  10917c:	e6ef5076 	uxtb	r5, r6
  109180:	e5943000 	ldr	r3, [r4]
  109184:	e2832001 	add	r2, r3, #1
  109188:	e5842000 	str	r2, [r4]
  10918c:	e5c36000 	strb	r6, [r3]
  109190:	e5943064 	ldr	r3, [r4, #100]	; 0x64
  109194:	e3130001 	tst	r3, #1
  109198:	1a000002 	bne	1091a8 <putc+0x7c>
  10919c:	e1d430bc 	ldrh	r3, [r4, #12]
  1091a0:	e3130c02 	tst	r3, #512	; 0x200
  1091a4:	0a000001 	beq	1091b0 <putc+0x84>
  1091a8:	e1a00005 	mov	r0, r5
  1091ac:	e8bd81f0 	pop	{r4, r5, r6, r7, r8, pc}
  1091b0:	e2840058 	add	r0, r4, #88	; 0x58
  1091b4:	eb000b28 	bl	10be5c <__generic_gxx_recursive_mutex_unlock>
  1091b8:	e1a00005 	mov	r0, r5
  1091bc:	e8bd81f0 	pop	{r4, r5, r6, r7, r8, pc}
  1091c0:	e5942018 	ldr	r2, [r4, #24]
  1091c4:	e1530002 	cmp	r3, r2
  1091c8:	ba000002 	blt	1091d8 <putc+0xac>
  1091cc:	e6ef5076 	uxtb	r5, r6
  1091d0:	e355000a 	cmp	r5, #10
  1091d4:	1affffe9 	bne	109180 <putc+0x54>
  1091d8:	e1a01006 	mov	r1, r6
  1091dc:	e1a00007 	mov	r0, r7
  1091e0:	e1a02004 	mov	r2, r4
  1091e4:	eb0006ff 	bl	10ade8 <__swbuf_r>
  1091e8:	e1a05000 	mov	r5, r0
  1091ec:	eaffffe7 	b	109190 <putc+0x64>
  1091f0:	ebfff7f2 	bl	1071c0 <__sinit>
  1091f4:	eaffffd5 	b	109150 <putc+0x24>
  1091f8:	e2840058 	add	r0, r4, #88	; 0x58
  1091fc:	eb000b18 	bl	10be64 <__generic_gxx_recursive_mutex_lock>
  109200:	eaffffd8 	b	109168 <putc+0x3c>

00109204 <_realloc_r>:
  109204:	e92d4ff0 	push	{r4, r5, r6, r7, r8, r9, sl, fp, lr}
  109208:	e2515000 	subs	r5, r1, #0
  10920c:	e24dd00c 	sub	sp, sp, #12
  109210:	0a000080 	beq	109418 <_realloc_r+0x214>
  109214:	e1a07002 	mov	r7, r2
  109218:	e1a08000 	mov	r8, r0
  10921c:	e287600b 	add	r6, r7, #11
  109220:	e2459008 	sub	r9, r5, #8
  109224:	ebffe8bc 	bl	10351c <__malloc_lock>
  109228:	e3560016 	cmp	r6, #22
  10922c:	e5151004 	ldr	r1, [r5, #-4]
  109230:	83c66007 	bichi	r6, r6, #7
  109234:	93a02010 	movls	r2, #16
  109238:	81a03fa6 	lsrhi	r3, r6, #31
  10923c:	93a03000 	movls	r3, #0
  109240:	91a06002 	movls	r6, r2
  109244:	81a02006 	movhi	r2, r6
  109248:	e1560007 	cmp	r6, r7
  10924c:	33833001 	orrcc	r3, r3, #1
  109250:	e3530000 	cmp	r3, #0
  109254:	e3c14003 	bic	r4, r1, #3
  109258:	13a0300c 	movne	r3, #12
  10925c:	13a07000 	movne	r7, #0
  109260:	15883000 	strne	r3, [r8]
  109264:	1a00000f 	bne	1092a8 <_realloc_r+0xa4>
  109268:	e1540002 	cmp	r4, r2
  10926c:	ba000010 	blt	1092b4 <_realloc_r+0xb0>
  109270:	e1a07005 	mov	r7, r5
  109274:	e0443006 	sub	r3, r4, r6
  109278:	e353000f 	cmp	r3, #15
  10927c:	8a000056 	bhi	1093dc <_realloc_r+0x1d8>
  109280:	e5992004 	ldr	r2, [r9, #4]
  109284:	e0891004 	add	r1, r9, r4
  109288:	e2022001 	and	r2, r2, #1
  10928c:	e1824004 	orr	r4, r2, r4
  109290:	e5894004 	str	r4, [r9, #4]
  109294:	e5913004 	ldr	r3, [r1, #4]
  109298:	e3833001 	orr	r3, r3, #1
  10929c:	e5813004 	str	r3, [r1, #4]
  1092a0:	e1a00008 	mov	r0, r8
  1092a4:	ebffe89f 	bl	103528 <__malloc_unlock>
  1092a8:	e1a00007 	mov	r0, r7
  1092ac:	e28dd00c 	add	sp, sp, #12
  1092b0:	e8bd8ff0 	pop	{r4, r5, r6, r7, r8, r9, sl, fp, pc}
  1092b4:	e308a000 	movw	sl, #32768	; 0x8000
  1092b8:	e0893004 	add	r3, r9, r4
  1092bc:	e340a011 	movt	sl, #17
  1092c0:	e59a0008 	ldr	r0, [sl, #8]
  1092c4:	e1530000 	cmp	r3, r0
  1092c8:	0a0000bf 	beq	1095cc <_realloc_r+0x3c8>
  1092cc:	e593c004 	ldr	ip, [r3, #4]
  1092d0:	e3cc0001 	bic	r0, ip, #1
  1092d4:	e0830000 	add	r0, r3, r0
  1092d8:	e5900004 	ldr	r0, [r0, #4]
  1092dc:	e3100001 	tst	r0, #1
  1092e0:	0a000032 	beq	1093b0 <_realloc_r+0x1ac>
  1092e4:	e3110001 	tst	r1, #1
  1092e8:	0a000086 	beq	109508 <_realloc_r+0x304>
  1092ec:	e1a01007 	mov	r1, r7
  1092f0:	e1a00008 	mov	r0, r8
  1092f4:	ebffe673 	bl	102cc8 <_malloc_r>
  1092f8:	e2507000 	subs	r7, r0, #0
  1092fc:	0affffe7 	beq	1092a0 <_realloc_r+0x9c>
  109300:	e5153004 	ldr	r3, [r5, #-4]
  109304:	e2472008 	sub	r2, r7, #8
  109308:	e3c33001 	bic	r3, r3, #1
  10930c:	e0893003 	add	r3, r9, r3
  109310:	e1520003 	cmp	r2, r3
  109314:	0a000104 	beq	10972c <_realloc_r+0x528>
  109318:	e2442004 	sub	r2, r4, #4
  10931c:	e3520024 	cmp	r2, #36	; 0x24
  109320:	8a0000fe 	bhi	109720 <_realloc_r+0x51c>
  109324:	e3520013 	cmp	r2, #19
  109328:	91a03007 	movls	r3, r7
  10932c:	91a02005 	movls	r2, r5
  109330:	9a000014 	bls	109388 <_realloc_r+0x184>
  109334:	e5953000 	ldr	r3, [r5]
  109338:	e352001b 	cmp	r2, #27
  10933c:	92852008 	addls	r2, r5, #8
  109340:	e5873000 	str	r3, [r7]
  109344:	e5953004 	ldr	r3, [r5, #4]
  109348:	e5873004 	str	r3, [r7, #4]
  10934c:	92873008 	addls	r3, r7, #8
  109350:	9a00000c 	bls	109388 <_realloc_r+0x184>
  109354:	e5953008 	ldr	r3, [r5, #8]
  109358:	e3520024 	cmp	r2, #36	; 0x24
  10935c:	12852010 	addne	r2, r5, #16
  109360:	02852018 	addeq	r2, r5, #24
  109364:	e5873008 	str	r3, [r7, #8]
  109368:	e595300c 	ldr	r3, [r5, #12]
  10936c:	e587300c 	str	r3, [r7, #12]
  109370:	12873010 	addne	r3, r7, #16
  109374:	05951010 	ldreq	r1, [r5, #16]
  109378:	02873018 	addeq	r3, r7, #24
  10937c:	05871010 	streq	r1, [r7, #16]
  109380:	05951014 	ldreq	r1, [r5, #20]
  109384:	05871014 	streq	r1, [r7, #20]
  109388:	e5921000 	ldr	r1, [r2]
  10938c:	e5831000 	str	r1, [r3]
  109390:	e5921004 	ldr	r1, [r2, #4]
  109394:	e5831004 	str	r1, [r3, #4]
  109398:	e5922008 	ldr	r2, [r2, #8]
  10939c:	e5832008 	str	r2, [r3, #8]
  1093a0:	e1a01005 	mov	r1, r5
  1093a4:	e1a00008 	mov	r0, r8
  1093a8:	ebfff851 	bl	1074f4 <_free_r>
  1093ac:	eaffffbb 	b	1092a0 <_realloc_r+0x9c>
  1093b0:	e3ccc003 	bic	ip, ip, #3
  1093b4:	e084000c 	add	r0, r4, ip
  1093b8:	e1500002 	cmp	r0, r2
  1093bc:	ba000019 	blt	109428 <_realloc_r+0x224>
  1093c0:	e593200c 	ldr	r2, [r3, #12]
  1093c4:	e1a07005 	mov	r7, r5
  1093c8:	e5933008 	ldr	r3, [r3, #8]
  1093cc:	e1a04000 	mov	r4, r0
  1093d0:	e583200c 	str	r2, [r3, #12]
  1093d4:	e5823008 	str	r3, [r2, #8]
  1093d8:	eaffffa5 	b	109274 <_realloc_r+0x70>
  1093dc:	e5991004 	ldr	r1, [r9, #4]
  1093e0:	e0892006 	add	r2, r9, r6
  1093e4:	e0894004 	add	r4, r9, r4
  1093e8:	e3833001 	orr	r3, r3, #1
  1093ec:	e1a00008 	mov	r0, r8
  1093f0:	e2011001 	and	r1, r1, #1
  1093f4:	e1816006 	orr	r6, r1, r6
  1093f8:	e2821008 	add	r1, r2, #8
  1093fc:	e5896004 	str	r6, [r9, #4]
  109400:	e5823004 	str	r3, [r2, #4]
  109404:	e5943004 	ldr	r3, [r4, #4]
  109408:	e3833001 	orr	r3, r3, #1
  10940c:	e5843004 	str	r3, [r4, #4]
  109410:	ebfff837 	bl	1074f4 <_free_r>
  109414:	eaffffa1 	b	1092a0 <_realloc_r+0x9c>
  109418:	e1a01002 	mov	r1, r2
  10941c:	e28dd00c 	add	sp, sp, #12
  109420:	e8bd4ff0 	pop	{r4, r5, r6, r7, r8, r9, sl, fp, lr}
  109424:	eaffe627 	b	102cc8 <_malloc_r>
  109428:	e3110001 	tst	r1, #1
  10942c:	1affffae 	bne	1092ec <_realloc_r+0xe8>
  109430:	e515b008 	ldr	fp, [r5, #-8]
  109434:	e049b00b 	sub	fp, r9, fp
  109438:	e59b1004 	ldr	r1, [fp, #4]
  10943c:	e3c11003 	bic	r1, r1, #3
  109440:	e081c00c 	add	ip, r1, ip
  109444:	e08cc004 	add	ip, ip, r4
  109448:	e15c0002 	cmp	ip, r2
  10944c:	ba000031 	blt	109518 <_realloc_r+0x314>
  109450:	e593100c 	ldr	r1, [r3, #12]
  109454:	e1a0700b 	mov	r7, fp
  109458:	e5933008 	ldr	r3, [r3, #8]
  10945c:	e2442004 	sub	r2, r4, #4
  109460:	e3520024 	cmp	r2, #36	; 0x24
  109464:	e583100c 	str	r1, [r3, #12]
  109468:	e5813008 	str	r3, [r1, #8]
  10946c:	e59b300c 	ldr	r3, [fp, #12]
  109470:	e5b71008 	ldr	r1, [r7, #8]!
  109474:	e581300c 	str	r3, [r1, #12]
  109478:	e5831008 	str	r1, [r3, #8]
  10947c:	8a0000af 	bhi	109740 <_realloc_r+0x53c>
  109480:	e3520013 	cmp	r2, #19
  109484:	91a02005 	movls	r2, r5
  109488:	91a03007 	movls	r3, r7
  10948c:	9a000014 	bls	1094e4 <_realloc_r+0x2e0>
  109490:	e5953000 	ldr	r3, [r5]
  109494:	e352001b 	cmp	r2, #27
  109498:	92852008 	addls	r2, r5, #8
  10949c:	e58b3008 	str	r3, [fp, #8]
  1094a0:	e5953004 	ldr	r3, [r5, #4]
  1094a4:	e58b300c 	str	r3, [fp, #12]
  1094a8:	928b3010 	addls	r3, fp, #16
  1094ac:	9a00000c 	bls	1094e4 <_realloc_r+0x2e0>
  1094b0:	e5953008 	ldr	r3, [r5, #8]
  1094b4:	e3520024 	cmp	r2, #36	; 0x24
  1094b8:	12852010 	addne	r2, r5, #16
  1094bc:	02852018 	addeq	r2, r5, #24
  1094c0:	e58b3010 	str	r3, [fp, #16]
  1094c4:	e595300c 	ldr	r3, [r5, #12]
  1094c8:	e58b3014 	str	r3, [fp, #20]
  1094cc:	128b3018 	addne	r3, fp, #24
  1094d0:	05951010 	ldreq	r1, [r5, #16]
  1094d4:	028b3020 	addeq	r3, fp, #32
  1094d8:	058b1018 	streq	r1, [fp, #24]
  1094dc:	05951014 	ldreq	r1, [r5, #20]
  1094e0:	058b101c 	streq	r1, [fp, #28]
  1094e4:	e5921000 	ldr	r1, [r2]
  1094e8:	e1a0400c 	mov	r4, ip
  1094ec:	e1a0900b 	mov	r9, fp
  1094f0:	e5831000 	str	r1, [r3]
  1094f4:	e5921004 	ldr	r1, [r2, #4]
  1094f8:	e5831004 	str	r1, [r3, #4]
  1094fc:	e5922008 	ldr	r2, [r2, #8]
  109500:	e5832008 	str	r2, [r3, #8]
  109504:	eaffff5a 	b	109274 <_realloc_r+0x70>
  109508:	e515b008 	ldr	fp, [r5, #-8]
  10950c:	e049b00b 	sub	fp, r9, fp
  109510:	e59b1004 	ldr	r1, [fp, #4]
  109514:	e3c11003 	bic	r1, r1, #3
  109518:	e0843001 	add	r3, r4, r1
  10951c:	e1530002 	cmp	r3, r2
  109520:	baffff71 	blt	1092ec <_realloc_r+0xe8>
  109524:	e1a0700b 	mov	r7, fp
  109528:	e59b100c 	ldr	r1, [fp, #12]
  10952c:	e5b7c008 	ldr	ip, [r7, #8]!
  109530:	e2442004 	sub	r2, r4, #4
  109534:	e3520024 	cmp	r2, #36	; 0x24
  109538:	e58c100c 	str	r1, [ip, #12]
  10953c:	e581c008 	str	ip, [r1, #8]
  109540:	8a000063 	bhi	1096d4 <_realloc_r+0x4d0>
  109544:	e3520013 	cmp	r2, #19
  109548:	91a01005 	movls	r1, r5
  10954c:	91a02007 	movls	r2, r7
  109550:	9a000014 	bls	1095a8 <_realloc_r+0x3a4>
  109554:	e5951000 	ldr	r1, [r5]
  109558:	e352001b 	cmp	r2, #27
  10955c:	928b2010 	addls	r2, fp, #16
  109560:	e58b1008 	str	r1, [fp, #8]
  109564:	e5951004 	ldr	r1, [r5, #4]
  109568:	e58b100c 	str	r1, [fp, #12]
  10956c:	92851008 	addls	r1, r5, #8
  109570:	9a00000c 	bls	1095a8 <_realloc_r+0x3a4>
  109574:	e5951008 	ldr	r1, [r5, #8]
  109578:	e3520024 	cmp	r2, #36	; 0x24
  10957c:	e58b1010 	str	r1, [fp, #16]
  109580:	12851010 	addne	r1, r5, #16
  109584:	e595200c 	ldr	r2, [r5, #12]
  109588:	02851018 	addeq	r1, r5, #24
  10958c:	e58b2014 	str	r2, [fp, #20]
  109590:	128b2018 	addne	r2, fp, #24
  109594:	0595c010 	ldreq	ip, [r5, #16]
  109598:	028b2020 	addeq	r2, fp, #32
  10959c:	058bc018 	streq	ip, [fp, #24]
  1095a0:	0595c014 	ldreq	ip, [r5, #20]
  1095a4:	058bc01c 	streq	ip, [fp, #28]
  1095a8:	e591c000 	ldr	ip, [r1]
  1095ac:	e1a04003 	mov	r4, r3
  1095b0:	e1a0900b 	mov	r9, fp
  1095b4:	e582c000 	str	ip, [r2]
  1095b8:	e5913004 	ldr	r3, [r1, #4]
  1095bc:	e5823004 	str	r3, [r2, #4]
  1095c0:	e5913008 	ldr	r3, [r1, #8]
  1095c4:	e5823008 	str	r3, [r2, #8]
  1095c8:	eaffff29 	b	109274 <_realloc_r+0x70>
  1095cc:	e5933004 	ldr	r3, [r3, #4]
  1095d0:	e2860010 	add	r0, r6, #16
  1095d4:	e3c33003 	bic	r3, r3, #3
  1095d8:	e0833004 	add	r3, r3, r4
  1095dc:	e1530000 	cmp	r3, r0
  1095e0:	aa000041 	bge	1096ec <_realloc_r+0x4e8>
  1095e4:	e3110001 	tst	r1, #1
  1095e8:	1affff3f 	bne	1092ec <_realloc_r+0xe8>
  1095ec:	e515b008 	ldr	fp, [r5, #-8]
  1095f0:	e049b00b 	sub	fp, r9, fp
  1095f4:	e59b1004 	ldr	r1, [fp, #4]
  1095f8:	e3c11003 	bic	r1, r1, #3
  1095fc:	e0813003 	add	r3, r1, r3
  109600:	e1500003 	cmp	r0, r3
  109604:	caffffc3 	bgt	109518 <_realloc_r+0x314>
  109608:	e1a0700b 	mov	r7, fp
  10960c:	e59b100c 	ldr	r1, [fp, #12]
  109610:	e5b70008 	ldr	r0, [r7, #8]!
  109614:	e2442004 	sub	r2, r4, #4
  109618:	e3520024 	cmp	r2, #36	; 0x24
  10961c:	e580100c 	str	r1, [r0, #12]
  109620:	e5810008 	str	r0, [r1, #8]
  109624:	8a00004b 	bhi	109758 <_realloc_r+0x554>
  109628:	e3520013 	cmp	r2, #19
  10962c:	91a01005 	movls	r1, r5
  109630:	91a02007 	movls	r2, r7
  109634:	9a000014 	bls	10968c <_realloc_r+0x488>
  109638:	e5951000 	ldr	r1, [r5]
  10963c:	e352001b 	cmp	r2, #27
  109640:	928b2010 	addls	r2, fp, #16
  109644:	e58b1008 	str	r1, [fp, #8]
  109648:	e5951004 	ldr	r1, [r5, #4]
  10964c:	e58b100c 	str	r1, [fp, #12]
  109650:	92851008 	addls	r1, r5, #8
  109654:	9a00000c 	bls	10968c <_realloc_r+0x488>
  109658:	e5951008 	ldr	r1, [r5, #8]
  10965c:	e3520024 	cmp	r2, #36	; 0x24
  109660:	e58b1010 	str	r1, [fp, #16]
  109664:	12851010 	addne	r1, r5, #16
  109668:	e595200c 	ldr	r2, [r5, #12]
  10966c:	02851018 	addeq	r1, r5, #24
  109670:	e58b2014 	str	r2, [fp, #20]
  109674:	128b2018 	addne	r2, fp, #24
  109678:	05950010 	ldreq	r0, [r5, #16]
  10967c:	028b2020 	addeq	r2, fp, #32
  109680:	058b0018 	streq	r0, [fp, #24]
  109684:	05950014 	ldreq	r0, [r5, #20]
  109688:	058b001c 	streq	r0, [fp, #28]
  10968c:	e5910000 	ldr	r0, [r1]
  109690:	e5820000 	str	r0, [r2]
  109694:	e5910004 	ldr	r0, [r1, #4]
  109698:	e5820004 	str	r0, [r2, #4]
  10969c:	e5911008 	ldr	r1, [r1, #8]
  1096a0:	e5821008 	str	r1, [r2, #8]
  1096a4:	e0433006 	sub	r3, r3, r6
  1096a8:	e08b2006 	add	r2, fp, r6
  1096ac:	e3833001 	orr	r3, r3, #1
  1096b0:	e58a2008 	str	r2, [sl, #8]
  1096b4:	e5823004 	str	r3, [r2, #4]
  1096b8:	e1a00008 	mov	r0, r8
  1096bc:	e59b3004 	ldr	r3, [fp, #4]
  1096c0:	e2033001 	and	r3, r3, #1
  1096c4:	e1836006 	orr	r6, r3, r6
  1096c8:	e58b6004 	str	r6, [fp, #4]
  1096cc:	ebffe795 	bl	103528 <__malloc_unlock>
  1096d0:	eafffef4 	b	1092a8 <_realloc_r+0xa4>
  1096d4:	e1a01005 	mov	r1, r5
  1096d8:	e1a00007 	mov	r0, r7
  1096dc:	e1a04003 	mov	r4, r3
  1096e0:	e1a0900b 	mov	r9, fp
  1096e4:	ebfffa8a 	bl	108114 <memmove>
  1096e8:	eafffee1 	b	109274 <_realloc_r+0x70>
  1096ec:	e0433006 	sub	r3, r3, r6
  1096f0:	e0899006 	add	r9, r9, r6
  1096f4:	e3833001 	orr	r3, r3, #1
  1096f8:	e58a9008 	str	r9, [sl, #8]
  1096fc:	e5893004 	str	r3, [r9, #4]
  109700:	e1a00008 	mov	r0, r8
  109704:	e5153004 	ldr	r3, [r5, #-4]
  109708:	e1a07005 	mov	r7, r5
  10970c:	e2033001 	and	r3, r3, #1
  109710:	e1836006 	orr	r6, r3, r6
  109714:	e5056004 	str	r6, [r5, #-4]
  109718:	ebffe782 	bl	103528 <__malloc_unlock>
  10971c:	eafffee1 	b	1092a8 <_realloc_r+0xa4>
  109720:	e1a01005 	mov	r1, r5
  109724:	ebfffa7a 	bl	108114 <memmove>
  109728:	eaffff1c 	b	1093a0 <_realloc_r+0x19c>
  10972c:	e5173004 	ldr	r3, [r7, #-4]
  109730:	e1a07005 	mov	r7, r5
  109734:	e3c33003 	bic	r3, r3, #3
  109738:	e0844003 	add	r4, r4, r3
  10973c:	eafffecc 	b	109274 <_realloc_r+0x70>
  109740:	e1a01005 	mov	r1, r5
  109744:	e1a00007 	mov	r0, r7
  109748:	e1a0400c 	mov	r4, ip
  10974c:	e1a0900b 	mov	r9, fp
  109750:	ebfffa6f 	bl	108114 <memmove>
  109754:	eafffec6 	b	109274 <_realloc_r+0x70>
  109758:	e1a01005 	mov	r1, r5
  10975c:	e1a00007 	mov	r0, r7
  109760:	e58d3004 	str	r3, [sp, #4]
  109764:	ebfffa6a 	bl	108114 <memmove>
  109768:	e59d3004 	ldr	r3, [sp, #4]
  10976c:	eaffffcc 	b	1096a4 <_realloc_r+0x4a0>

00109770 <cleanup_glue>:
  109770:	e92d4070 	push	{r4, r5, r6, lr}
  109774:	e1a04001 	mov	r4, r1
  109778:	e5911000 	ldr	r1, [r1]
  10977c:	e1a05000 	mov	r5, r0
  109780:	e3510000 	cmp	r1, #0
  109784:	0a000000 	beq	10978c <cleanup_glue+0x1c>
  109788:	ebfffff8 	bl	109770 <cleanup_glue>
  10978c:	e1a01004 	mov	r1, r4
  109790:	e1a00005 	mov	r0, r5
  109794:	e8bd4070 	pop	{r4, r5, r6, lr}
  109798:	eafff755 	b	1074f4 <_free_r>

0010979c <_reclaim_reent>:
  10979c:	e3083410 	movw	r3, #33808	; 0x8410
  1097a0:	e3403011 	movt	r3, #17
  1097a4:	e5933000 	ldr	r3, [r3]
  1097a8:	e1530000 	cmp	r3, r0
  1097ac:	012fff1e 	bxeq	lr
  1097b0:	e590304c 	ldr	r3, [r0, #76]	; 0x4c
  1097b4:	e92d4070 	push	{r4, r5, r6, lr}
  1097b8:	e1a05000 	mov	r5, r0
  1097bc:	e3530000 	cmp	r3, #0
  1097c0:	0a00000f 	beq	109804 <_reclaim_reent+0x68>
  1097c4:	e3a06000 	mov	r6, #0
  1097c8:	e7931006 	ldr	r1, [r3, r6]
  1097cc:	e3510000 	cmp	r1, #0
  1097d0:	0a000005 	beq	1097ec <_reclaim_reent+0x50>
  1097d4:	e5914000 	ldr	r4, [r1]
  1097d8:	e1a00005 	mov	r0, r5
  1097dc:	ebfff744 	bl	1074f4 <_free_r>
  1097e0:	e2541000 	subs	r1, r4, #0
  1097e4:	1afffffa 	bne	1097d4 <_reclaim_reent+0x38>
  1097e8:	e595304c 	ldr	r3, [r5, #76]	; 0x4c
  1097ec:	e2866004 	add	r6, r6, #4
  1097f0:	e3560080 	cmp	r6, #128	; 0x80
  1097f4:	1afffff3 	bne	1097c8 <_reclaim_reent+0x2c>
  1097f8:	e1a01003 	mov	r1, r3
  1097fc:	e1a00005 	mov	r0, r5
  109800:	ebfff73b 	bl	1074f4 <_free_r>
  109804:	e5951040 	ldr	r1, [r5, #64]	; 0x40
  109808:	e3510000 	cmp	r1, #0
  10980c:	0a000001 	beq	109818 <_reclaim_reent+0x7c>
  109810:	e1a00005 	mov	r0, r5
  109814:	ebfff736 	bl	1074f4 <_free_r>
  109818:	e5951148 	ldr	r1, [r5, #328]	; 0x148
  10981c:	e3510000 	cmp	r1, #0
  109820:	0a000008 	beq	109848 <_reclaim_reent+0xac>
  109824:	e2856f53 	add	r6, r5, #332	; 0x14c
  109828:	e1510006 	cmp	r1, r6
  10982c:	0a000005 	beq	109848 <_reclaim_reent+0xac>
  109830:	e5914000 	ldr	r4, [r1]
  109834:	e1a00005 	mov	r0, r5
  109838:	ebfff72d 	bl	1074f4 <_free_r>
  10983c:	e1560004 	cmp	r6, r4
  109840:	e1a01004 	mov	r1, r4
  109844:	1afffff9 	bne	109830 <_reclaim_reent+0x94>
  109848:	e5951054 	ldr	r1, [r5, #84]	; 0x54
  10984c:	e3510000 	cmp	r1, #0
  109850:	0a000001 	beq	10985c <_reclaim_reent+0xc0>
  109854:	e1a00005 	mov	r0, r5
  109858:	ebfff725 	bl	1074f4 <_free_r>
  10985c:	e5953038 	ldr	r3, [r5, #56]	; 0x38
  109860:	e3530000 	cmp	r3, #0
  109864:	08bd8070 	popeq	{r4, r5, r6, pc}
  109868:	e595303c 	ldr	r3, [r5, #60]	; 0x3c
  10986c:	e1a00005 	mov	r0, r5
  109870:	e12fff33 	blx	r3
  109874:	e59512e0 	ldr	r1, [r5, #736]	; 0x2e0
  109878:	e3510000 	cmp	r1, #0
  10987c:	08bd8070 	popeq	{r4, r5, r6, pc}
  109880:	e1a00005 	mov	r0, r5
  109884:	e8bd4070 	pop	{r4, r5, r6, lr}
  109888:	eaffffb8 	b	109770 <cleanup_glue>

0010988c <__sread>:
  10988c:	e92d4010 	push	{r4, lr}
  109890:	e1a04001 	mov	r4, r1
  109894:	e1d110fe 	ldrsh	r1, [r1, #14]
  109898:	eb00074f 	bl	10b5dc <_read_r>
  10989c:	e3500000 	cmp	r0, #0
  1098a0:	a5943050 	ldrge	r3, [r4, #80]	; 0x50
  1098a4:	b1d430bc 	ldrhlt	r3, [r4, #12]
  1098a8:	a0833000 	addge	r3, r3, r0
  1098ac:	b3c33a01 	biclt	r3, r3, #4096	; 0x1000
  1098b0:	a5843050 	strge	r3, [r4, #80]	; 0x50
  1098b4:	b1c430bc 	strhlt	r3, [r4, #12]
  1098b8:	e8bd8010 	pop	{r4, pc}

001098bc <__seofread>:
  1098bc:	e3a00000 	mov	r0, #0
  1098c0:	e12fff1e 	bx	lr

001098c4 <__swrite>:
  1098c4:	e92d41f0 	push	{r4, r5, r6, r7, r8, lr}
  1098c8:	e1a06002 	mov	r6, r2
  1098cc:	e1d120fc 	ldrsh	r2, [r1, #12]
  1098d0:	e1a04001 	mov	r4, r1
  1098d4:	e1a07003 	mov	r7, r3
  1098d8:	e1a05000 	mov	r5, r0
  1098dc:	e3120c01 	tst	r2, #256	; 0x100
  1098e0:	0a000004 	beq	1098f8 <__swrite+0x34>
  1098e4:	e3a02000 	mov	r2, #0
  1098e8:	e3a03002 	mov	r3, #2
  1098ec:	e1d110fe 	ldrsh	r1, [r1, #14]
  1098f0:	eb000700 	bl	10b4f8 <_lseek_r>
  1098f4:	e1d420fc 	ldrsh	r2, [r4, #12]
  1098f8:	e3c22a01 	bic	r2, r2, #4096	; 0x1000
  1098fc:	e1a03007 	mov	r3, r7
  109900:	e1c420bc 	strh	r2, [r4, #12]
  109904:	e1a00005 	mov	r0, r5
  109908:	e1a02006 	mov	r2, r6
  10990c:	e1d410fe 	ldrsh	r1, [r4, #14]
  109910:	e8bd41f0 	pop	{r4, r5, r6, r7, r8, lr}
  109914:	ea000585 	b	10af30 <_write_r>

00109918 <__sseek>:
  109918:	e92d4010 	push	{r4, lr}
  10991c:	e1a04001 	mov	r4, r1
  109920:	e1d110fe 	ldrsh	r1, [r1, #14]
  109924:	eb0006f3 	bl	10b4f8 <_lseek_r>
  109928:	e1d430bc 	ldrh	r3, [r4, #12]
  10992c:	e3700001 	cmn	r0, #1
  109930:	15840050 	strne	r0, [r4, #80]	; 0x50
  109934:	03c33a01 	biceq	r3, r3, #4096	; 0x1000
  109938:	13833a01 	orrne	r3, r3, #4096	; 0x1000
  10993c:	e1c430bc 	strh	r3, [r4, #12]
  109940:	e8bd8010 	pop	{r4, pc}

00109944 <__sclose>:
  109944:	e1d110fe 	ldrsh	r1, [r1, #14]
  109948:	ea0005ad 	b	10b004 <_close_r>

0010994c <__sprint_r.part.0>:
  10994c:	e92d4ff8 	push	{r3, r4, r5, r6, r7, r8, r9, sl, fp, lr}
  109950:	e1a0b002 	mov	fp, r2
  109954:	e5913064 	ldr	r3, [r1, #100]	; 0x64
  109958:	e3130a02 	tst	r3, #8192	; 0x2000
  10995c:	0a000022 	beq	1099ec <__sprint_r.part.0+0xa0>
  109960:	e5923008 	ldr	r3, [r2, #8]
  109964:	e5929000 	ldr	r9, [r2]
  109968:	e3530000 	cmp	r3, #0
  10996c:	11a06001 	movne	r6, r1
  109970:	11a07000 	movne	r7, r0
  109974:	12899008 	addne	r9, r9, #8
  109978:	0a000019 	beq	1099e4 <__sprint_r.part.0+0x98>
  10997c:	e9190420 	ldmdb	r9, {r5, sl}
  109980:	e1b0812a 	lsrs	r8, sl, #2
  109984:	12455004 	subne	r5, r5, #4
  109988:	13a04000 	movne	r4, #0
  10998c:	1a000002 	bne	10999c <__sprint_r.part.0+0x50>
  109990:	ea00000d 	b	1099cc <__sprint_r.part.0+0x80>
  109994:	e1580004 	cmp	r8, r4
  109998:	0a00000a 	beq	1099c8 <__sprint_r.part.0+0x7c>
  10999c:	e1a02006 	mov	r2, r6
  1099a0:	e5b51004 	ldr	r1, [r5, #4]!
  1099a4:	e1a00007 	mov	r0, r7
  1099a8:	e2844001 	add	r4, r4, #1
  1099ac:	eb000640 	bl	10b2b4 <_fputwc_r>
  1099b0:	e3700001 	cmn	r0, #1
  1099b4:	1afffff6 	bne	109994 <__sprint_r.part.0+0x48>
  1099b8:	e3a03000 	mov	r3, #0
  1099bc:	e58b3008 	str	r3, [fp, #8]
  1099c0:	e58b3004 	str	r3, [fp, #4]
  1099c4:	e8bd8ff8 	pop	{r3, r4, r5, r6, r7, r8, r9, sl, fp, pc}
  1099c8:	e59b3008 	ldr	r3, [fp, #8]
  1099cc:	e3caa003 	bic	sl, sl, #3
  1099d0:	e2899008 	add	r9, r9, #8
  1099d4:	e043300a 	sub	r3, r3, sl
  1099d8:	e3530000 	cmp	r3, #0
  1099dc:	e58b3008 	str	r3, [fp, #8]
  1099e0:	1affffe5 	bne	10997c <__sprint_r.part.0+0x30>
  1099e4:	e3a00000 	mov	r0, #0
  1099e8:	eafffff2 	b	1099b8 <__sprint_r.part.0+0x6c>
  1099ec:	ebfff778 	bl	1077d4 <__sfvwrite_r>
  1099f0:	eafffff0 	b	1099b8 <__sprint_r.part.0+0x6c>

001099f4 <__sprint_r>:
  1099f4:	e5923008 	ldr	r3, [r2, #8]
  1099f8:	e3530000 	cmp	r3, #0
  1099fc:	0a000000 	beq	109a04 <__sprint_r+0x10>
  109a00:	eaffffd1 	b	10994c <__sprint_r.part.0>
  109a04:	e5823004 	str	r3, [r2, #4]
  109a08:	e1a00003 	mov	r0, r3
  109a0c:	e12fff1e 	bx	lr

00109a10 <_vfiprintf_r>:
  109a10:	e250c000 	subs	ip, r0, #0
  109a14:	e92d4ff0 	push	{r4, r5, r6, r7, r8, r9, sl, fp, lr}
  109a18:	e24dd0b4 	sub	sp, sp, #180	; 0xb4
  109a1c:	e1a05003 	mov	r5, r3
  109a20:	e1a0a002 	mov	sl, r2
  109a24:	e58dc014 	str	ip, [sp, #20]
  109a28:	e58d1004 	str	r1, [sp, #4]
  109a2c:	e58d301c 	str	r3, [sp, #28]
  109a30:	0a000002 	beq	109a40 <_vfiprintf_r+0x30>
  109a34:	e59c3038 	ldr	r3, [ip, #56]	; 0x38
  109a38:	e3530000 	cmp	r3, #0
  109a3c:	0a0001a8 	beq	10a0e4 <_vfiprintf_r+0x6d4>
  109a40:	e59d2004 	ldr	r2, [sp, #4]
  109a44:	e5923064 	ldr	r3, [r2, #100]	; 0x64
  109a48:	e3130001 	tst	r3, #1
  109a4c:	0a00009f 	beq	109cd0 <_vfiprintf_r+0x2c0>
  109a50:	e1d200fc 	ldrsh	r0, [r2, #12]
  109a54:	e6ff1070 	uxth	r1, r0
  109a58:	e3110a02 	tst	r1, #8192	; 0x2000
  109a5c:	1a000006 	bne	109a7c <_vfiprintf_r+0x6c>
  109a60:	e59d2004 	ldr	r2, [sp, #4]
  109a64:	e3800a02 	orr	r0, r0, #8192	; 0x2000
  109a68:	e6ff1070 	uxth	r1, r0
  109a6c:	e5923064 	ldr	r3, [r2, #100]	; 0x64
  109a70:	e1c200bc 	strh	r0, [r2, #12]
  109a74:	e3c33a02 	bic	r3, r3, #8192	; 0x2000
  109a78:	e5823064 	str	r3, [r2, #100]	; 0x64
  109a7c:	e3110008 	tst	r1, #8
  109a80:	0a000179 	beq	10a06c <_vfiprintf_r+0x65c>
  109a84:	e59d3004 	ldr	r3, [sp, #4]
  109a88:	e5933010 	ldr	r3, [r3, #16]
  109a8c:	e3530000 	cmp	r3, #0
  109a90:	0a000175 	beq	10a06c <_vfiprintf_r+0x65c>
  109a94:	e201301a 	and	r3, r1, #26
  109a98:	e353000a 	cmp	r3, #10
  109a9c:	0a00017c 	beq	10a094 <_vfiprintf_r+0x684>
  109aa0:	e28d9070 	add	r9, sp, #112	; 0x70
  109aa4:	e3a03000 	mov	r3, #0
  109aa8:	e1a08009 	mov	r8, r9
  109aac:	e58d3028 	str	r3, [sp, #40]	; 0x28
  109ab0:	e58d3010 	str	r3, [sp, #16]
  109ab4:	e58d3044 	str	r3, [sp, #68]	; 0x44
  109ab8:	e58d3040 	str	r3, [sp, #64]	; 0x40
  109abc:	e58d903c 	str	r9, [sp, #60]	; 0x3c
  109ac0:	e5da3000 	ldrb	r3, [sl]
  109ac4:	e1a0600a 	mov	r6, sl
  109ac8:	e3530000 	cmp	r3, #0
  109acc:	13530025 	cmpne	r3, #37	; 0x25
  109ad0:	0a000013 	beq	109b24 <_vfiprintf_r+0x114>
  109ad4:	e5f63001 	ldrb	r3, [r6, #1]!
  109ad8:	e3530000 	cmp	r3, #0
  109adc:	13530025 	cmpne	r3, #37	; 0x25
  109ae0:	1afffffb 	bne	109ad4 <_vfiprintf_r+0xc4>
  109ae4:	e056400a 	subs	r4, r6, sl
  109ae8:	0a00000d 	beq	109b24 <_vfiprintf_r+0x114>
  109aec:	e59d3040 	ldr	r3, [sp, #64]	; 0x40
  109af0:	e59d2044 	ldr	r2, [sp, #68]	; 0x44
  109af4:	e588a000 	str	sl, [r8]
  109af8:	e2833001 	add	r3, r3, #1
  109afc:	e5884004 	str	r4, [r8, #4]
  109b00:	e3530007 	cmp	r3, #7
  109b04:	e0842002 	add	r2, r4, r2
  109b08:	e58d3040 	str	r3, [sp, #64]	; 0x40
  109b0c:	d2888008 	addle	r8, r8, #8
  109b10:	e58d2044 	str	r2, [sp, #68]	; 0x44
  109b14:	ca000078 	bgt	109cfc <_vfiprintf_r+0x2ec>
  109b18:	e59d3010 	ldr	r3, [sp, #16]
  109b1c:	e0833004 	add	r3, r3, r4
  109b20:	e58d3010 	str	r3, [sp, #16]
  109b24:	e5d63000 	ldrb	r3, [r6]
  109b28:	e3530000 	cmp	r3, #0
  109b2c:	0a0002d7 	beq	10a690 <_vfiprintf_r+0xc80>
  109b30:	e3a03000 	mov	r3, #0
  109b34:	e3a01000 	mov	r1, #0
  109b38:	e5cd3037 	strb	r3, [sp, #55]	; 0x37
  109b3c:	e3e04000 	mvn	r4, #0
  109b40:	e5d63001 	ldrb	r3, [r6, #1]
  109b44:	e1a00001 	mov	r0, r1
  109b48:	e1a0b001 	mov	fp, r1
  109b4c:	e1a05001 	mov	r5, r1
  109b50:	e1a0c004 	mov	ip, r4
  109b54:	e286a001 	add	sl, r6, #1
  109b58:	e28aa001 	add	sl, sl, #1
  109b5c:	e2432020 	sub	r2, r3, #32
  109b60:	e3520058 	cmp	r2, #88	; 0x58
  109b64:	979ff102 	ldrls	pc, [pc, r2, lsl #2]
  109b68:	ea000245 	b	10a484 <_vfiprintf_r+0xa74>
  109b6c:	0010a3bc 	.word	0x0010a3bc
  109b70:	0010a484 	.word	0x0010a484
  109b74:	0010a484 	.word	0x0010a484
  109b78:	0010a3d0 	.word	0x0010a3d0
  109b7c:	0010a484 	.word	0x0010a484
  109b80:	0010a484 	.word	0x0010a484
  109b84:	0010a484 	.word	0x0010a484
  109b88:	0010a484 	.word	0x0010a484
  109b8c:	0010a484 	.word	0x0010a484
  109b90:	0010a484 	.word	0x0010a484
  109b94:	0010a3dc 	.word	0x0010a3dc
  109b98:	0010a3fc 	.word	0x0010a3fc
  109b9c:	0010a484 	.word	0x0010a484
  109ba0:	0010a0f4 	.word	0x0010a0f4
  109ba4:	0010a100 	.word	0x0010a100
  109ba8:	0010a484 	.word	0x0010a484
  109bac:	0010a27c 	.word	0x0010a27c
  109bb0:	0010a288 	.word	0x0010a288
  109bb4:	0010a288 	.word	0x0010a288
  109bb8:	0010a288 	.word	0x0010a288
  109bbc:	0010a288 	.word	0x0010a288
  109bc0:	0010a288 	.word	0x0010a288
  109bc4:	0010a288 	.word	0x0010a288
  109bc8:	0010a288 	.word	0x0010a288
  109bcc:	0010a288 	.word	0x0010a288
  109bd0:	0010a288 	.word	0x0010a288
  109bd4:	0010a484 	.word	0x0010a484
  109bd8:	0010a484 	.word	0x0010a484
  109bdc:	0010a484 	.word	0x0010a484
  109be0:	0010a484 	.word	0x0010a484
  109be4:	0010a484 	.word	0x0010a484
  109be8:	0010a484 	.word	0x0010a484
  109bec:	0010a484 	.word	0x0010a484
  109bf0:	0010a484 	.word	0x0010a484
  109bf4:	0010a484 	.word	0x0010a484
  109bf8:	0010a484 	.word	0x0010a484
  109bfc:	0010a2ac 	.word	0x0010a2ac
  109c00:	0010a484 	.word	0x0010a484
  109c04:	0010a484 	.word	0x0010a484
  109c08:	0010a484 	.word	0x0010a484
  109c0c:	0010a484 	.word	0x0010a484
  109c10:	0010a484 	.word	0x0010a484
  109c14:	0010a484 	.word	0x0010a484
  109c18:	0010a484 	.word	0x0010a484
  109c1c:	0010a484 	.word	0x0010a484
  109c20:	0010a484 	.word	0x0010a484
  109c24:	0010a484 	.word	0x0010a484
  109c28:	00109d48 	.word	0x00109d48
  109c2c:	0010a484 	.word	0x0010a484
  109c30:	0010a484 	.word	0x0010a484
  109c34:	0010a484 	.word	0x0010a484
  109c38:	0010a484 	.word	0x0010a484
  109c3c:	0010a484 	.word	0x0010a484
  109c40:	00109d10 	.word	0x00109d10
  109c44:	0010a484 	.word	0x0010a484
  109c48:	0010a484 	.word	0x0010a484
  109c4c:	0010a35c 	.word	0x0010a35c
  109c50:	0010a484 	.word	0x0010a484
  109c54:	0010a484 	.word	0x0010a484
  109c58:	0010a484 	.word	0x0010a484
  109c5c:	0010a484 	.word	0x0010a484
  109c60:	0010a484 	.word	0x0010a484
  109c64:	0010a484 	.word	0x0010a484
  109c68:	0010a484 	.word	0x0010a484
  109c6c:	0010a484 	.word	0x0010a484
  109c70:	0010a484 	.word	0x0010a484
  109c74:	0010a484 	.word	0x0010a484
  109c78:	0010a374 	.word	0x0010a374
  109c7c:	0010a3b0 	.word	0x0010a3b0
  109c80:	0010a484 	.word	0x0010a484
  109c84:	0010a484 	.word	0x0010a484
  109c88:	0010a484 	.word	0x0010a484
  109c8c:	0010a254 	.word	0x0010a254
  109c90:	0010a3b0 	.word	0x0010a3b0
  109c94:	0010a484 	.word	0x0010a484
  109c98:	0010a484 	.word	0x0010a484
  109c9c:	0010a260 	.word	0x0010a260
  109ca0:	0010a484 	.word	0x0010a484
  109ca4:	0010a140 	.word	0x0010a140
  109ca8:	00109d4c 	.word	0x00109d4c
  109cac:	0010a40c 	.word	0x0010a40c
  109cb0:	0010a1e0 	.word	0x0010a1e0
  109cb4:	0010a484 	.word	0x0010a484
  109cb8:	0010a17c 	.word	0x0010a17c
  109cbc:	0010a484 	.word	0x0010a484
  109cc0:	00109d14 	.word	0x00109d14
  109cc4:	0010a484 	.word	0x0010a484
  109cc8:	0010a484 	.word	0x0010a484
  109ccc:	0010a1ec 	.word	0x0010a1ec
  109cd0:	e59d3004 	ldr	r3, [sp, #4]
  109cd4:	e1d300fc 	ldrsh	r0, [r3, #12]
  109cd8:	e6ff1070 	uxth	r1, r0
  109cdc:	e3110c02 	tst	r1, #512	; 0x200
  109ce0:	1affff5c 	bne	109a58 <_vfiprintf_r+0x48>
  109ce4:	e1a04003 	mov	r4, r3
  109ce8:	e2830058 	add	r0, r3, #88	; 0x58
  109cec:	eb00085c 	bl	10be64 <__generic_gxx_recursive_mutex_lock>
  109cf0:	e1d400fc 	ldrsh	r0, [r4, #12]
  109cf4:	e6ff1070 	uxth	r1, r0
  109cf8:	eaffff56 	b	109a58 <_vfiprintf_r+0x48>
  109cfc:	e3520000 	cmp	r2, #0
  109d00:	1a000319 	bne	10a96c <_vfiprintf_r+0xf5c>
  109d04:	e58d2040 	str	r2, [sp, #64]	; 0x40
  109d08:	e1a08009 	mov	r8, r9
  109d0c:	eaffff81 	b	109b18 <_vfiprintf_r+0x108>
  109d10:	e3855010 	orr	r5, r5, #16
  109d14:	e3150020 	tst	r5, #32
  109d18:	e59d301c 	ldr	r3, [sp, #28]
  109d1c:	1a0001c9 	bne	10a448 <_vfiprintf_r+0xa38>
  109d20:	e3150010 	tst	r5, #16
  109d24:	1a00031d 	bne	10a9a0 <_vfiprintf_r+0xf90>
  109d28:	e3150040 	tst	r5, #64	; 0x40
  109d2c:	0a00031b 	beq	10a9a0 <_vfiprintf_r+0xf90>
  109d30:	e1d360b0 	ldrh	r6, [r3]
  109d34:	e2833004 	add	r3, r3, #4
  109d38:	e3a07000 	mov	r7, #0
  109d3c:	e3a02001 	mov	r2, #1
  109d40:	e58d301c 	str	r3, [sp, #28]
  109d44:	ea00000c 	b	109d7c <_vfiprintf_r+0x36c>
  109d48:	e3855010 	orr	r5, r5, #16
  109d4c:	e2152020 	ands	r2, r5, #32
  109d50:	1a0001c3 	bne	10a464 <_vfiprintf_r+0xa54>
  109d54:	e2153010 	ands	r3, r5, #16
  109d58:	1a000316 	bne	10a9b8 <_vfiprintf_r+0xfa8>
  109d5c:	e2152040 	ands	r2, r5, #64	; 0x40
  109d60:	0a000314 	beq	10a9b8 <_vfiprintf_r+0xfa8>
  109d64:	e1a02003 	mov	r2, r3
  109d68:	e59d301c 	ldr	r3, [sp, #28]
  109d6c:	e3a07000 	mov	r7, #0
  109d70:	e1d360b0 	ldrh	r6, [r3]
  109d74:	e2833004 	add	r3, r3, #4
  109d78:	e58d301c 	str	r3, [sp, #28]
  109d7c:	e3a03000 	mov	r3, #0
  109d80:	e58d3020 	str	r3, [sp, #32]
  109d84:	e5cd3037 	strb	r3, [sp, #55]	; 0x37
  109d88:	e3740001 	cmn	r4, #1
  109d8c:	0a00015e 	beq	10a30c <_vfiprintf_r+0x8fc>
  109d90:	e1863007 	orr	r3, r6, r7
  109d94:	e3c51080 	bic	r1, r5, #128	; 0x80
  109d98:	e3530000 	cmp	r3, #0
  109d9c:	03540000 	cmpeq	r4, #0
  109da0:	e58d100c 	str	r1, [sp, #12]
  109da4:	13a03001 	movne	r3, #1
  109da8:	03a03000 	moveq	r3, #0
  109dac:	1a0002c3 	bne	10a8c0 <_vfiprintf_r+0xeb0>
  109db0:	e3520000 	cmp	r2, #0
  109db4:	158d3018 	strne	r3, [sp, #24]
  109db8:	158d9024 	strne	r9, [sp, #36]	; 0x24
  109dbc:	1a000006 	bne	109ddc <_vfiprintf_r+0x3cc>
  109dc0:	e2153001 	ands	r3, r5, #1
  109dc4:	128d20b0 	addne	r2, sp, #176	; 0xb0
  109dc8:	e58d3018 	str	r3, [sp, #24]
  109dcc:	13a03030 	movne	r3, #48	; 0x30
  109dd0:	058d9024 	streq	r9, [sp, #36]	; 0x24
  109dd4:	15623041 	strbne	r3, [r2, #-65]!	; 0xffffffbf
  109dd8:	158d2024 	strne	r2, [sp, #36]	; 0x24
  109ddc:	e59d3018 	ldr	r3, [sp, #24]
  109de0:	e59d2020 	ldr	r2, [sp, #32]
  109de4:	e1540003 	cmp	r4, r3
  109de8:	a1a03004 	movge	r3, r4
  109dec:	e3520000 	cmp	r2, #0
  109df0:	e58d3008 	str	r3, [sp, #8]
  109df4:	12833001 	addne	r3, r3, #1
  109df8:	158d3008 	strne	r3, [sp, #8]
  109dfc:	e59d300c 	ldr	r3, [sp, #12]
  109e00:	e2133002 	ands	r3, r3, #2
  109e04:	159d2008 	ldrne	r2, [sp, #8]
  109e08:	12822002 	addne	r2, r2, #2
  109e0c:	158d2008 	strne	r2, [sp, #8]
  109e10:	e59d200c 	ldr	r2, [sp, #12]
  109e14:	e2122084 	ands	r2, r2, #132	; 0x84
  109e18:	e58d2020 	str	r2, [sp, #32]
  109e1c:	1a0001ac 	bne	10a4d4 <_vfiprintf_r+0xac4>
  109e20:	e59d2008 	ldr	r2, [sp, #8]
  109e24:	e04b5002 	sub	r5, fp, r2
  109e28:	e3550000 	cmp	r5, #0
  109e2c:	da0001a8 	ble	10a4d4 <_vfiprintf_r+0xac4>
  109e30:	e3550010 	cmp	r5, #16
  109e34:	da00037f 	ble	10ac38 <_vfiprintf_r+0x1228>
  109e38:	e30c69a0 	movw	r6, #51616	; 0xc9a0
  109e3c:	e58d402c 	str	r4, [sp, #44]	; 0x2c
  109e40:	e3406010 	movt	r6, #16
  109e44:	e59d2044 	ldr	r2, [sp, #68]	; 0x44
  109e48:	e1a04006 	mov	r4, r6
  109e4c:	e59dc040 	ldr	ip, [sp, #64]	; 0x40
  109e50:	e3a07010 	mov	r7, #16
  109e54:	e1a06003 	mov	r6, r3
  109e58:	ea000002 	b	109e68 <_vfiprintf_r+0x458>
  109e5c:	e2455010 	sub	r5, r5, #16
  109e60:	e3550010 	cmp	r5, #16
  109e64:	da00001b 	ble	109ed8 <_vfiprintf_r+0x4c8>
  109e68:	e28c0001 	add	r0, ip, #1
  109e6c:	e2822010 	add	r2, r2, #16
  109e70:	e3500007 	cmp	r0, #7
  109e74:	e5884000 	str	r4, [r8]
  109e78:	e28c1002 	add	r1, ip, #2
  109e7c:	e5887004 	str	r7, [r8, #4]
  109e80:	e58d2044 	str	r2, [sp, #68]	; 0x44
  109e84:	e1a0c000 	mov	ip, r0
  109e88:	e58d0040 	str	r0, [sp, #64]	; 0x40
  109e8c:	d2888008 	addle	r8, r8, #8
  109e90:	dafffff1 	ble	109e5c <_vfiprintf_r+0x44c>
  109e94:	e3520000 	cmp	r2, #0
  109e98:	e1a0c002 	mov	ip, r2
  109e9c:	e3a01001 	mov	r1, #1
  109ea0:	e1a08009 	mov	r8, r9
  109ea4:	0affffec 	beq	109e5c <_vfiprintf_r+0x44c>
  109ea8:	e28d203c 	add	r2, sp, #60	; 0x3c
  109eac:	e59d1004 	ldr	r1, [sp, #4]
  109eb0:	e59d0014 	ldr	r0, [sp, #20]
  109eb4:	ebfffea4 	bl	10994c <__sprint_r.part.0>
  109eb8:	e3500000 	cmp	r0, #0
  109ebc:	1a0001f8 	bne	10a6a4 <_vfiprintf_r+0xc94>
  109ec0:	e59dc040 	ldr	ip, [sp, #64]	; 0x40
  109ec4:	e2455010 	sub	r5, r5, #16
  109ec8:	e3550010 	cmp	r5, #16
  109ecc:	e59d2044 	ldr	r2, [sp, #68]	; 0x44
  109ed0:	e28c1001 	add	r1, ip, #1
  109ed4:	caffffe3 	bgt	109e68 <_vfiprintf_r+0x458>
  109ed8:	e1a03006 	mov	r3, r6
  109edc:	e1a06004 	mov	r6, r4
  109ee0:	e59d402c 	ldr	r4, [sp, #44]	; 0x2c
  109ee4:	e3510007 	cmp	r1, #7
  109ee8:	e0852002 	add	r2, r5, r2
  109eec:	e5886000 	str	r6, [r8]
  109ef0:	d2810001 	addle	r0, r1, #1
  109ef4:	e5885004 	str	r5, [r8, #4]
  109ef8:	d2888008 	addle	r8, r8, #8
  109efc:	e58d2044 	str	r2, [sp, #68]	; 0x44
  109f00:	e58d1040 	str	r1, [sp, #64]	; 0x40
  109f04:	da000175 	ble	10a4e0 <_vfiprintf_r+0xad0>
  109f08:	e3520000 	cmp	r2, #0
  109f0c:	1a00031a 	bne	10ab7c <_vfiprintf_r+0x116c>
  109f10:	e5dd1037 	ldrb	r1, [sp, #55]	; 0x37
  109f14:	e3510000 	cmp	r1, #0
  109f18:	0a000301 	beq	10ab24 <_vfiprintf_r+0x1114>
  109f1c:	e3a02001 	mov	r2, #1
  109f20:	e1a08009 	mov	r8, r9
  109f24:	e1a00002 	mov	r0, r2
  109f28:	e28d1037 	add	r1, sp, #55	; 0x37
  109f2c:	e58d2074 	str	r2, [sp, #116]	; 0x74
  109f30:	e58d1070 	str	r1, [sp, #112]	; 0x70
  109f34:	e1a01000 	mov	r1, r0
  109f38:	e2888008 	add	r8, r8, #8
  109f3c:	e2800001 	add	r0, r0, #1
  109f40:	e3530000 	cmp	r3, #0
  109f44:	0a00017e 	beq	10a544 <_vfiprintf_r+0xb34>
  109f48:	e3500007 	cmp	r0, #7
  109f4c:	e2822002 	add	r2, r2, #2
  109f50:	e28dc038 	add	ip, sp, #56	; 0x38
  109f54:	e3a01002 	mov	r1, #2
  109f58:	e58d2044 	str	r2, [sp, #68]	; 0x44
  109f5c:	e58d0040 	str	r0, [sp, #64]	; 0x40
  109f60:	e588c000 	str	ip, [r8]
  109f64:	e5881004 	str	r1, [r8, #4]
  109f68:	da000172 	ble	10a538 <_vfiprintf_r+0xb28>
  109f6c:	e3520000 	cmp	r2, #0
  109f70:	1a0002aa 	bne	10aa20 <_vfiprintf_r+0x1010>
  109f74:	e59d3020 	ldr	r3, [sp, #32]
  109f78:	e3a00001 	mov	r0, #1
  109f7c:	e1a01002 	mov	r1, r2
  109f80:	e1a08009 	mov	r8, r9
  109f84:	e3530080 	cmp	r3, #128	; 0x80
  109f88:	1a000170 	bne	10a550 <_vfiprintf_r+0xb40>
  109f8c:	e59d3008 	ldr	r3, [sp, #8]
  109f90:	e04b6003 	sub	r6, fp, r3
  109f94:	e3560000 	cmp	r6, #0
  109f98:	da00016c 	ble	10a550 <_vfiprintf_r+0xb40>
  109f9c:	e3560010 	cmp	r6, #16
  109fa0:	e59f5d48 	ldr	r5, [pc, #3400]	; 10acf0 <_vfiprintf_r+0x12e0>
  109fa4:	da000346 	ble	10acc4 <_vfiprintf_r+0x12b4>
  109fa8:	e1a03005 	mov	r3, r5
  109fac:	e3a07010 	mov	r7, #16
  109fb0:	e1a05004 	mov	r5, r4
  109fb4:	e1a04003 	mov	r4, r3
  109fb8:	ea000002 	b	109fc8 <_vfiprintf_r+0x5b8>
  109fbc:	e2466010 	sub	r6, r6, #16
  109fc0:	e3560010 	cmp	r6, #16
  109fc4:	da00001b 	ble	10a038 <_vfiprintf_r+0x628>
  109fc8:	e2810001 	add	r0, r1, #1
  109fcc:	e2822010 	add	r2, r2, #16
  109fd0:	e3500007 	cmp	r0, #7
  109fd4:	e5884000 	str	r4, [r8]
  109fd8:	e281c002 	add	ip, r1, #2
  109fdc:	e5887004 	str	r7, [r8, #4]
  109fe0:	e58d2044 	str	r2, [sp, #68]	; 0x44
  109fe4:	e1a01000 	mov	r1, r0
  109fe8:	e58d0040 	str	r0, [sp, #64]	; 0x40
  109fec:	d2888008 	addle	r8, r8, #8
  109ff0:	dafffff1 	ble	109fbc <_vfiprintf_r+0x5ac>
  109ff4:	e3520000 	cmp	r2, #0
  109ff8:	e3a0c001 	mov	ip, #1
  109ffc:	e1a01002 	mov	r1, r2
  10a000:	e1a08009 	mov	r8, r9
  10a004:	0affffec 	beq	109fbc <_vfiprintf_r+0x5ac>
  10a008:	e28d203c 	add	r2, sp, #60	; 0x3c
  10a00c:	e59d1004 	ldr	r1, [sp, #4]
  10a010:	e59d0014 	ldr	r0, [sp, #20]
  10a014:	ebfffe4c 	bl	10994c <__sprint_r.part.0>
  10a018:	e3500000 	cmp	r0, #0
  10a01c:	1a0001a0 	bne	10a6a4 <_vfiprintf_r+0xc94>
  10a020:	e59d1040 	ldr	r1, [sp, #64]	; 0x40
  10a024:	e2466010 	sub	r6, r6, #16
  10a028:	e3560010 	cmp	r6, #16
  10a02c:	e59d2044 	ldr	r2, [sp, #68]	; 0x44
  10a030:	e281c001 	add	ip, r1, #1
  10a034:	caffffe3 	bgt	109fc8 <_vfiprintf_r+0x5b8>
  10a038:	e1a03004 	mov	r3, r4
  10a03c:	e1a04005 	mov	r4, r5
  10a040:	e1a05003 	mov	r5, r3
  10a044:	e35c0007 	cmp	ip, #7
  10a048:	e0822006 	add	r2, r2, r6
  10a04c:	e58d2044 	str	r2, [sp, #68]	; 0x44
  10a050:	e8880060 	stm	r8, {r5, r6}
  10a054:	e58dc040 	str	ip, [sp, #64]	; 0x40
  10a058:	ca00027b 	bgt	10aa4c <_vfiprintf_r+0x103c>
  10a05c:	e2888008 	add	r8, r8, #8
  10a060:	e28c0001 	add	r0, ip, #1
  10a064:	e1a0100c 	mov	r1, ip
  10a068:	ea000138 	b	10a550 <_vfiprintf_r+0xb40>
  10a06c:	e59d4004 	ldr	r4, [sp, #4]
  10a070:	e59d0014 	ldr	r0, [sp, #20]
  10a074:	e1a01004 	mov	r1, r4
  10a078:	ebffee01 	bl	105884 <__swsetup_r>
  10a07c:	e3500000 	cmp	r0, #0
  10a080:	1a000222 	bne	10a910 <_vfiprintf_r+0xf00>
  10a084:	e1d410bc 	ldrh	r1, [r4, #12]
  10a088:	e201301a 	and	r3, r1, #26
  10a08c:	e353000a 	cmp	r3, #10
  10a090:	1afffe82 	bne	109aa0 <_vfiprintf_r+0x90>
  10a094:	e59d2004 	ldr	r2, [sp, #4]
  10a098:	e1d230fe 	ldrsh	r3, [r2, #14]
  10a09c:	e3530000 	cmp	r3, #0
  10a0a0:	bafffe7e 	blt	109aa0 <_vfiprintf_r+0x90>
  10a0a4:	e5923064 	ldr	r3, [r2, #100]	; 0x64
  10a0a8:	e3130001 	tst	r3, #1
  10a0ac:	1a000003 	bne	10a0c0 <_vfiprintf_r+0x6b0>
  10a0b0:	e3110c02 	tst	r1, #512	; 0x200
  10a0b4:	1a000001 	bne	10a0c0 <_vfiprintf_r+0x6b0>
  10a0b8:	e2820058 	add	r0, r2, #88	; 0x58
  10a0bc:	eb000766 	bl	10be5c <__generic_gxx_recursive_mutex_unlock>
  10a0c0:	e1a03005 	mov	r3, r5
  10a0c4:	e1a0200a 	mov	r2, sl
  10a0c8:	e59d1004 	ldr	r1, [sp, #4]
  10a0cc:	e59d0014 	ldr	r0, [sp, #20]
  10a0d0:	eb000311 	bl	10ad1c <__sbprintf>
  10a0d4:	e58d0010 	str	r0, [sp, #16]
  10a0d8:	e59d0010 	ldr	r0, [sp, #16]
  10a0dc:	e28dd0b4 	add	sp, sp, #180	; 0xb4
  10a0e0:	e8bd8ff0 	pop	{r4, r5, r6, r7, r8, r9, sl, fp, pc}
  10a0e4:	ebfff435 	bl	1071c0 <__sinit>
  10a0e8:	eafffe54 	b	109a40 <_vfiprintf_r+0x30>
  10a0ec:	e26bb000 	rsb	fp, fp, #0
  10a0f0:	e58d301c 	str	r3, [sp, #28]
  10a0f4:	e3855004 	orr	r5, r5, #4
  10a0f8:	e5da3000 	ldrb	r3, [sl]
  10a0fc:	eafffe95 	b	109b58 <_vfiprintf_r+0x148>
  10a100:	e5da3000 	ldrb	r3, [sl]
  10a104:	e28ae001 	add	lr, sl, #1
  10a108:	e353002a 	cmp	r3, #42	; 0x2a
  10a10c:	0a0002ee 	beq	10accc <_vfiprintf_r+0x12bc>
  10a110:	e2432030 	sub	r2, r3, #48	; 0x30
  10a114:	e1a0a00e 	mov	sl, lr
  10a118:	e3520009 	cmp	r2, #9
  10a11c:	e3a04000 	mov	r4, #0
  10a120:	8afffe8d 	bhi	109b5c <_vfiprintf_r+0x14c>
  10a124:	e4da3001 	ldrb	r3, [sl], #1
  10a128:	e0844104 	add	r4, r4, r4, lsl #2
  10a12c:	e0824084 	add	r4, r2, r4, lsl #1
  10a130:	e2432030 	sub	r2, r3, #48	; 0x30
  10a134:	e3520009 	cmp	r2, #9
  10a138:	9afffff9 	bls	10a124 <_vfiprintf_r+0x714>
  10a13c:	eafffe86 	b	109b5c <_vfiprintf_r+0x14c>
  10a140:	e3510000 	cmp	r1, #0
  10a144:	15cd0037 	strbne	r0, [sp, #55]	; 0x37
  10a148:	e3150020 	tst	r5, #32
  10a14c:	1a00029c 	bne	10abc4 <_vfiprintf_r+0x11b4>
  10a150:	e3150010 	tst	r5, #16
  10a154:	1a0000d7 	bne	10a4b8 <_vfiprintf_r+0xaa8>
  10a158:	e3150040 	tst	r5, #64	; 0x40
  10a15c:	0a0000d5 	beq	10a4b8 <_vfiprintf_r+0xaa8>
  10a160:	e59d201c 	ldr	r2, [sp, #28]
  10a164:	e5923000 	ldr	r3, [r2]
  10a168:	e2822004 	add	r2, r2, #4
  10a16c:	e58d201c 	str	r2, [sp, #28]
  10a170:	e1dd21b0 	ldrh	r2, [sp, #16]
  10a174:	e1c320b0 	strh	r2, [r3]
  10a178:	eafffe50 	b	109ac0 <_vfiprintf_r+0xb0>
  10a17c:	e59d301c 	ldr	r3, [sp, #28]
  10a180:	e5932000 	ldr	r2, [r3]
  10a184:	e2836004 	add	r6, r3, #4
  10a188:	e3a03000 	mov	r3, #0
  10a18c:	e5cd3037 	strb	r3, [sp, #55]	; 0x37
  10a190:	e3520000 	cmp	r2, #0
  10a194:	e58d2024 	str	r2, [sp, #36]	; 0x24
  10a198:	0a0002ac 	beq	10ac50 <_vfiprintf_r+0x1240>
  10a19c:	e3740001 	cmn	r4, #1
  10a1a0:	0a000290 	beq	10abe8 <_vfiprintf_r+0x11d8>
  10a1a4:	e59d7024 	ldr	r7, [sp, #36]	; 0x24
  10a1a8:	e1a02004 	mov	r2, r4
  10a1ac:	e3a01000 	mov	r1, #0
  10a1b0:	e1a00007 	mov	r0, r7
  10a1b4:	fafff769 	blx	107f60 <memchr>
  10a1b8:	e3500000 	cmp	r0, #0
  10a1bc:	0a0002b2 	beq	10ac8c <_vfiprintf_r+0x127c>
  10a1c0:	e0403007 	sub	r3, r0, r7
  10a1c4:	e58d601c 	str	r6, [sp, #28]
  10a1c8:	e58d3018 	str	r3, [sp, #24]
  10a1cc:	e3a04000 	mov	r4, #0
  10a1d0:	e5dd3037 	ldrb	r3, [sp, #55]	; 0x37
  10a1d4:	e58d500c 	str	r5, [sp, #12]
  10a1d8:	e58d3020 	str	r3, [sp, #32]
  10a1dc:	eafffefe 	b	109ddc <_vfiprintf_r+0x3cc>
  10a1e0:	e3855020 	orr	r5, r5, #32
  10a1e4:	e5da3000 	ldrb	r3, [sl]
  10a1e8:	eafffe5a 	b	109b58 <_vfiprintf_r+0x148>
  10a1ec:	e30c2840 	movw	r2, #51264	; 0xc840
  10a1f0:	e3510000 	cmp	r1, #0
  10a1f4:	e3402010 	movt	r2, #16
  10a1f8:	15cd0037 	strbne	r0, [sp, #55]	; 0x37
  10a1fc:	e58d2028 	str	r2, [sp, #40]	; 0x28
  10a200:	e3150020 	tst	r5, #32
  10a204:	e59d201c 	ldr	r2, [sp, #28]
  10a208:	1a00021d 	bne	10aa84 <_vfiprintf_r+0x1074>
  10a20c:	e3150010 	tst	r5, #16
  10a210:	1a0001dd 	bne	10a98c <_vfiprintf_r+0xf7c>
  10a214:	e3150040 	tst	r5, #64	; 0x40
  10a218:	0a0001db 	beq	10a98c <_vfiprintf_r+0xf7c>
  10a21c:	e3a07000 	mov	r7, #0
  10a220:	e1d260b0 	ldrh	r6, [r2]
  10a224:	e2822004 	add	r2, r2, #4
  10a228:	e58d201c 	str	r2, [sp, #28]
  10a22c:	e3150001 	tst	r5, #1
  10a230:	0a0001c2 	beq	10a940 <_vfiprintf_r+0xf30>
  10a234:	e1962007 	orrs	r2, r6, r7
  10a238:	0a0001c0 	beq	10a940 <_vfiprintf_r+0xf30>
  10a23c:	e3a02030 	mov	r2, #48	; 0x30
  10a240:	e5cd3039 	strb	r3, [sp, #57]	; 0x39
  10a244:	e5cd2038 	strb	r2, [sp, #56]	; 0x38
  10a248:	e3855002 	orr	r5, r5, #2
  10a24c:	e3a02002 	mov	r2, #2
  10a250:	eafffec9 	b	109d7c <_vfiprintf_r+0x36c>
  10a254:	e3855040 	orr	r5, r5, #64	; 0x40
  10a258:	e5da3000 	ldrb	r3, [sl]
  10a25c:	eafffe3d 	b	109b58 <_vfiprintf_r+0x148>
  10a260:	e5da3000 	ldrb	r3, [sl]
  10a264:	e353006c 	cmp	r3, #108	; 0x6c
  10a268:	05da3001 	ldrbeq	r3, [sl, #1]
  10a26c:	03855020 	orreq	r5, r5, #32
  10a270:	028aa001 	addeq	sl, sl, #1
  10a274:	13855010 	orrne	r5, r5, #16
  10a278:	eafffe36 	b	109b58 <_vfiprintf_r+0x148>
  10a27c:	e3855080 	orr	r5, r5, #128	; 0x80
  10a280:	e5da3000 	ldrb	r3, [sl]
  10a284:	eafffe33 	b	109b58 <_vfiprintf_r+0x148>
  10a288:	e2432030 	sub	r2, r3, #48	; 0x30
  10a28c:	e3a0b000 	mov	fp, #0
  10a290:	e4da3001 	ldrb	r3, [sl], #1
  10a294:	e08bb10b 	add	fp, fp, fp, lsl #2
  10a298:	e082b08b 	add	fp, r2, fp, lsl #1
  10a29c:	e2432030 	sub	r2, r3, #48	; 0x30
  10a2a0:	e3520009 	cmp	r2, #9
  10a2a4:	9afffff9 	bls	10a290 <_vfiprintf_r+0x880>
  10a2a8:	eafffe2b 	b	109b5c <_vfiprintf_r+0x14c>
  10a2ac:	e3855010 	orr	r5, r5, #16
  10a2b0:	e3510000 	cmp	r1, #0
  10a2b4:	15cd0037 	strbne	r0, [sp, #55]	; 0x37
  10a2b8:	e3150020 	tst	r5, #32
  10a2bc:	e59d301c 	ldr	r3, [sp, #28]
  10a2c0:	1a0001e7 	bne	10aa64 <_vfiprintf_r+0x1054>
  10a2c4:	e3150010 	tst	r5, #16
  10a2c8:	1a0001c0 	bne	10a9d0 <_vfiprintf_r+0xfc0>
  10a2cc:	e3150040 	tst	r5, #64	; 0x40
  10a2d0:	0a0001be 	beq	10a9d0 <_vfiprintf_r+0xfc0>
  10a2d4:	e1d360f0 	ldrsh	r6, [r3]
  10a2d8:	e2833004 	add	r3, r3, #4
  10a2dc:	e58d301c 	str	r3, [sp, #28]
  10a2e0:	e1a02006 	mov	r2, r6
  10a2e4:	e1a07fc6 	asr	r7, r6, #31
  10a2e8:	e1a03007 	mov	r3, r7
  10a2ec:	e3520000 	cmp	r2, #0
  10a2f0:	e2d33000 	sbcs	r3, r3, #0
  10a2f4:	ba000203 	blt	10ab08 <_vfiprintf_r+0x10f8>
  10a2f8:	e5dd3037 	ldrb	r3, [sp, #55]	; 0x37
  10a2fc:	e3740001 	cmn	r4, #1
  10a300:	e3a02001 	mov	r2, #1
  10a304:	e58d3020 	str	r3, [sp, #32]
  10a308:	1afffea0 	bne	109d90 <_vfiprintf_r+0x380>
  10a30c:	e3520001 	cmp	r2, #1
  10a310:	0a00016d 	beq	10a8cc <_vfiprintf_r+0xebc>
  10a314:	e3520002 	cmp	r2, #2
  10a318:	11a02009 	movne	r2, r9
  10a31c:	1a000147 	bne	10a840 <_vfiprintf_r+0xe30>
  10a320:	e59d1028 	ldr	r1, [sp, #40]	; 0x28
  10a324:	e1a03009 	mov	r3, r9
  10a328:	e206200f 	and	r2, r6, #15
  10a32c:	e1a06226 	lsr	r6, r6, #4
  10a330:	e7d12002 	ldrb	r2, [r1, r2]
  10a334:	e1866e07 	orr	r6, r6, r7, lsl #28
  10a338:	e1a07227 	lsr	r7, r7, #4
  10a33c:	e1960007 	orrs	r0, r6, r7
  10a340:	e5632001 	strb	r2, [r3, #-1]!
  10a344:	1afffff7 	bne	10a328 <_vfiprintf_r+0x918>
  10a348:	e58d3024 	str	r3, [sp, #36]	; 0x24
  10a34c:	e0493003 	sub	r3, r9, r3
  10a350:	e58d500c 	str	r5, [sp, #12]
  10a354:	e58d3018 	str	r3, [sp, #24]
  10a358:	eafffe9f 	b	109ddc <_vfiprintf_r+0x3cc>
  10a35c:	e30c282c 	movw	r2, #51244	; 0xc82c
  10a360:	e3510000 	cmp	r1, #0
  10a364:	e3402010 	movt	r2, #16
  10a368:	15cd0037 	strbne	r0, [sp, #55]	; 0x37
  10a36c:	e58d2028 	str	r2, [sp, #40]	; 0x28
  10a370:	eaffffa2 	b	10a200 <_vfiprintf_r+0x7f0>
  10a374:	e59d201c 	ldr	r2, [sp, #28]
  10a378:	e3a01001 	mov	r1, #1
  10a37c:	e3a00000 	mov	r0, #0
  10a380:	e58d1008 	str	r1, [sp, #8]
  10a384:	e5cd0037 	strb	r0, [sp, #55]	; 0x37
  10a388:	e5923000 	ldr	r3, [r2]
  10a38c:	e2822004 	add	r2, r2, #4
  10a390:	e58d201c 	str	r2, [sp, #28]
  10a394:	e28d2048 	add	r2, sp, #72	; 0x48
  10a398:	e58d1018 	str	r1, [sp, #24]
  10a39c:	e58d2024 	str	r2, [sp, #36]	; 0x24
  10a3a0:	e5cd3048 	strb	r3, [sp, #72]	; 0x48
  10a3a4:	e58d500c 	str	r5, [sp, #12]
  10a3a8:	e3a04000 	mov	r4, #0
  10a3ac:	eafffe92 	b	109dfc <_vfiprintf_r+0x3ec>
  10a3b0:	e3510000 	cmp	r1, #0
  10a3b4:	15cd0037 	strbne	r0, [sp, #55]	; 0x37
  10a3b8:	eaffffbe 	b	10a2b8 <_vfiprintf_r+0x8a8>
  10a3bc:	e3500000 	cmp	r0, #0
  10a3c0:	e5da3000 	ldrb	r3, [sl]
  10a3c4:	03a01001 	moveq	r1, #1
  10a3c8:	03a00020 	moveq	r0, #32
  10a3cc:	eafffde1 	b	109b58 <_vfiprintf_r+0x148>
  10a3d0:	e3855001 	orr	r5, r5, #1
  10a3d4:	e5da3000 	ldrb	r3, [sl]
  10a3d8:	eafffdde 	b	109b58 <_vfiprintf_r+0x148>
  10a3dc:	e59d301c 	ldr	r3, [sp, #28]
  10a3e0:	e593b000 	ldr	fp, [r3]
  10a3e4:	e2833004 	add	r3, r3, #4
  10a3e8:	e35b0000 	cmp	fp, #0
  10a3ec:	baffff3e 	blt	10a0ec <_vfiprintf_r+0x6dc>
  10a3f0:	e58d301c 	str	r3, [sp, #28]
  10a3f4:	e5da3000 	ldrb	r3, [sl]
  10a3f8:	eafffdd6 	b	109b58 <_vfiprintf_r+0x148>
  10a3fc:	e5da3000 	ldrb	r3, [sl]
  10a400:	e3a01001 	mov	r1, #1
  10a404:	e3a0002b 	mov	r0, #43	; 0x2b
  10a408:	eafffdd2 	b	109b58 <_vfiprintf_r+0x148>
  10a40c:	e59d101c 	ldr	r1, [sp, #28]
  10a410:	e30c0840 	movw	r0, #51264	; 0xc840
  10a414:	e3a02030 	mov	r2, #48	; 0x30
  10a418:	e3a03078 	mov	r3, #120	; 0x78
  10a41c:	e3400010 	movt	r0, #16
  10a420:	e5cd2038 	strb	r2, [sp, #56]	; 0x38
  10a424:	e5916000 	ldr	r6, [r1]
  10a428:	e2811004 	add	r1, r1, #4
  10a42c:	e3855002 	orr	r5, r5, #2
  10a430:	e58d101c 	str	r1, [sp, #28]
  10a434:	e3a07000 	mov	r7, #0
  10a438:	e5cd3039 	strb	r3, [sp, #57]	; 0x39
  10a43c:	e58d0028 	str	r0, [sp, #40]	; 0x28
  10a440:	e3a02002 	mov	r2, #2
  10a444:	eafffe4c 	b	109d7c <_vfiprintf_r+0x36c>
  10a448:	e2833007 	add	r3, r3, #7
  10a44c:	e3a02001 	mov	r2, #1
  10a450:	e3c33007 	bic	r3, r3, #7
  10a454:	e2831008 	add	r1, r3, #8
  10a458:	e1c360d0 	ldrd	r6, [r3]
  10a45c:	e58d101c 	str	r1, [sp, #28]
  10a460:	eafffe45 	b	109d7c <_vfiprintf_r+0x36c>
  10a464:	e59d301c 	ldr	r3, [sp, #28]
  10a468:	e3a02000 	mov	r2, #0
  10a46c:	e2833007 	add	r3, r3, #7
  10a470:	e3c33007 	bic	r3, r3, #7
  10a474:	e2831008 	add	r1, r3, #8
  10a478:	e1c360d0 	ldrd	r6, [r3]
  10a47c:	e58d101c 	str	r1, [sp, #28]
  10a480:	eafffe3d 	b	109d7c <_vfiprintf_r+0x36c>
  10a484:	e3510000 	cmp	r1, #0
  10a488:	15cd0037 	strbne	r0, [sp, #55]	; 0x37
  10a48c:	e3530000 	cmp	r3, #0
  10a490:	0a00007e 	beq	10a690 <_vfiprintf_r+0xc80>
  10a494:	e5cd3048 	strb	r3, [sp, #72]	; 0x48
  10a498:	e3a03000 	mov	r3, #0
  10a49c:	e3a02001 	mov	r2, #1
  10a4a0:	e5cd3037 	strb	r3, [sp, #55]	; 0x37
  10a4a4:	e28d3048 	add	r3, sp, #72	; 0x48
  10a4a8:	e58d2008 	str	r2, [sp, #8]
  10a4ac:	e58d2018 	str	r2, [sp, #24]
  10a4b0:	e58d3024 	str	r3, [sp, #36]	; 0x24
  10a4b4:	eaffffba 	b	10a3a4 <_vfiprintf_r+0x994>
  10a4b8:	e59d201c 	ldr	r2, [sp, #28]
  10a4bc:	e5923000 	ldr	r3, [r2]
  10a4c0:	e2822004 	add	r2, r2, #4
  10a4c4:	e58d201c 	str	r2, [sp, #28]
  10a4c8:	e59d2010 	ldr	r2, [sp, #16]
  10a4cc:	e5832000 	str	r2, [r3]
  10a4d0:	eafffd7a 	b	109ac0 <_vfiprintf_r+0xb0>
  10a4d4:	e59d1040 	ldr	r1, [sp, #64]	; 0x40
  10a4d8:	e59d2044 	ldr	r2, [sp, #68]	; 0x44
  10a4dc:	e2810001 	add	r0, r1, #1
  10a4e0:	e5ddc037 	ldrb	ip, [sp, #55]	; 0x37
  10a4e4:	e35c0000 	cmp	ip, #0
  10a4e8:	0afffe94 	beq	109f40 <_vfiprintf_r+0x530>
  10a4ec:	e3500007 	cmp	r0, #7
  10a4f0:	e2822001 	add	r2, r2, #1
  10a4f4:	e28dc037 	add	ip, sp, #55	; 0x37
  10a4f8:	e3a01001 	mov	r1, #1
  10a4fc:	e58d2044 	str	r2, [sp, #68]	; 0x44
  10a500:	e58d0040 	str	r0, [sp, #64]	; 0x40
  10a504:	e588c000 	str	ip, [r8]
  10a508:	e5881004 	str	r1, [r8, #4]
  10a50c:	dafffe88 	ble	109f34 <_vfiprintf_r+0x524>
  10a510:	e3520000 	cmp	r2, #0
  10a514:	1a000134 	bne	10a9ec <_vfiprintf_r+0xfdc>
  10a518:	e3530000 	cmp	r3, #0
  10a51c:	0afffe94 	beq	109f74 <_vfiprintf_r+0x564>
  10a520:	e1a00001 	mov	r0, r1
  10a524:	e1a08009 	mov	r8, r9
  10a528:	e28dc038 	add	ip, sp, #56	; 0x38
  10a52c:	e3a02002 	mov	r2, #2
  10a530:	e58dc070 	str	ip, [sp, #112]	; 0x70
  10a534:	e58d2074 	str	r2, [sp, #116]	; 0x74
  10a538:	e1a01000 	mov	r1, r0
  10a53c:	e2888008 	add	r8, r8, #8
  10a540:	e2800001 	add	r0, r0, #1
  10a544:	e59d3020 	ldr	r3, [sp, #32]
  10a548:	e3530080 	cmp	r3, #128	; 0x80
  10a54c:	0afffe8e 	beq	109f8c <_vfiprintf_r+0x57c>
  10a550:	e59d3018 	ldr	r3, [sp, #24]
  10a554:	e0444003 	sub	r4, r4, r3
  10a558:	e3540000 	cmp	r4, #0
  10a55c:	da000066 	ble	10a6fc <_vfiprintf_r+0xcec>
  10a560:	e3540010 	cmp	r4, #16
  10a564:	e59f5784 	ldr	r5, [pc, #1924]	; 10acf0 <_vfiprintf_r+0x12e0>
  10a568:	da000021 	ble	10a5f4 <_vfiprintf_r+0xbe4>
  10a56c:	e3a06010 	mov	r6, #16
  10a570:	e59d7014 	ldr	r7, [sp, #20]
  10a574:	ea000002 	b	10a584 <_vfiprintf_r+0xb74>
  10a578:	e2444010 	sub	r4, r4, #16
  10a57c:	e3540010 	cmp	r4, #16
  10a580:	da00001b 	ble	10a5f4 <_vfiprintf_r+0xbe4>
  10a584:	e281c001 	add	ip, r1, #1
  10a588:	e2822010 	add	r2, r2, #16
  10a58c:	e35c0007 	cmp	ip, #7
  10a590:	e5885000 	str	r5, [r8]
  10a594:	e2810002 	add	r0, r1, #2
  10a598:	e5886004 	str	r6, [r8, #4]
  10a59c:	e58d2044 	str	r2, [sp, #68]	; 0x44
  10a5a0:	e1a0100c 	mov	r1, ip
  10a5a4:	e58dc040 	str	ip, [sp, #64]	; 0x40
  10a5a8:	d2888008 	addle	r8, r8, #8
  10a5ac:	dafffff1 	ble	10a578 <_vfiprintf_r+0xb68>
  10a5b0:	e3520000 	cmp	r2, #0
  10a5b4:	e3a00001 	mov	r0, #1
  10a5b8:	e1a01002 	mov	r1, r2
  10a5bc:	e1a08009 	mov	r8, r9
  10a5c0:	0affffec 	beq	10a578 <_vfiprintf_r+0xb68>
  10a5c4:	e28d203c 	add	r2, sp, #60	; 0x3c
  10a5c8:	e59d1004 	ldr	r1, [sp, #4]
  10a5cc:	e1a00007 	mov	r0, r7
  10a5d0:	ebfffcdd 	bl	10994c <__sprint_r.part.0>
  10a5d4:	e3500000 	cmp	r0, #0
  10a5d8:	1a000031 	bne	10a6a4 <_vfiprintf_r+0xc94>
  10a5dc:	e59d1040 	ldr	r1, [sp, #64]	; 0x40
  10a5e0:	e2444010 	sub	r4, r4, #16
  10a5e4:	e3540010 	cmp	r4, #16
  10a5e8:	e59d2044 	ldr	r2, [sp, #68]	; 0x44
  10a5ec:	e2810001 	add	r0, r1, #1
  10a5f0:	caffffe3 	bgt	10a584 <_vfiprintf_r+0xb74>
  10a5f4:	e3500007 	cmp	r0, #7
  10a5f8:	e0822004 	add	r2, r2, r4
  10a5fc:	e5885000 	str	r5, [r8]
  10a600:	e5884004 	str	r4, [r8, #4]
  10a604:	d2888008 	addle	r8, r8, #8
  10a608:	e58d0040 	str	r0, [sp, #64]	; 0x40
  10a60c:	d2800001 	addle	r0, r0, #1
  10a610:	e58d2044 	str	r2, [sp, #68]	; 0x44
  10a614:	da000038 	ble	10a6fc <_vfiprintf_r+0xcec>
  10a618:	e3520000 	cmp	r2, #0
  10a61c:	1a00002c 	bne	10a6d4 <_vfiprintf_r+0xcc4>
  10a620:	e59d2018 	ldr	r2, [sp, #24]
  10a624:	e1a08009 	mov	r8, r9
  10a628:	e59d1024 	ldr	r1, [sp, #36]	; 0x24
  10a62c:	e3a03001 	mov	r3, #1
  10a630:	e58d3040 	str	r3, [sp, #64]	; 0x40
  10a634:	e58d2074 	str	r2, [sp, #116]	; 0x74
  10a638:	e58d2044 	str	r2, [sp, #68]	; 0x44
  10a63c:	e58d1070 	str	r1, [sp, #112]	; 0x70
  10a640:	e2888008 	add	r8, r8, #8
  10a644:	e59d300c 	ldr	r3, [sp, #12]
  10a648:	e3130004 	tst	r3, #4
  10a64c:	0a000003 	beq	10a660 <_vfiprintf_r+0xc50>
  10a650:	e59d3008 	ldr	r3, [sp, #8]
  10a654:	e04b4003 	sub	r4, fp, r3
  10a658:	e3540000 	cmp	r4, #0
  10a65c:	ca000039 	bgt	10a748 <_vfiprintf_r+0xd38>
  10a660:	e59d3010 	ldr	r3, [sp, #16]
  10a664:	e59d1008 	ldr	r1, [sp, #8]
  10a668:	e15b0001 	cmp	fp, r1
  10a66c:	a083300b 	addge	r3, r3, fp
  10a670:	b0833001 	addlt	r3, r3, r1
  10a674:	e3520000 	cmp	r2, #0
  10a678:	e58d3010 	str	r3, [sp, #16]
  10a67c:	1a00009c 	bne	10a8f4 <_vfiprintf_r+0xee4>
  10a680:	e3a03000 	mov	r3, #0
  10a684:	e1a08009 	mov	r8, r9
  10a688:	e58d3040 	str	r3, [sp, #64]	; 0x40
  10a68c:	eafffd0b 	b	109ac0 <_vfiprintf_r+0xb0>
  10a690:	e59d3044 	ldr	r3, [sp, #68]	; 0x44
  10a694:	e3530000 	cmp	r3, #0
  10a698:	1a000182 	bne	10aca8 <_vfiprintf_r+0x1298>
  10a69c:	e3a03000 	mov	r3, #0
  10a6a0:	e58d3040 	str	r3, [sp, #64]	; 0x40
  10a6a4:	e59d2004 	ldr	r2, [sp, #4]
  10a6a8:	e5923064 	ldr	r3, [r2, #100]	; 0x64
  10a6ac:	e3130001 	tst	r3, #1
  10a6b0:	0a000079 	beq	10a89c <_vfiprintf_r+0xe8c>
  10a6b4:	e1d230bc 	ldrh	r3, [r2, #12]
  10a6b8:	e3130040 	tst	r3, #64	; 0x40
  10a6bc:	0afffe85 	beq	10a0d8 <_vfiprintf_r+0x6c8>
  10a6c0:	e3e03000 	mvn	r3, #0
  10a6c4:	e58d3010 	str	r3, [sp, #16]
  10a6c8:	e59d0010 	ldr	r0, [sp, #16]
  10a6cc:	e28dd0b4 	add	sp, sp, #180	; 0xb4
  10a6d0:	e8bd8ff0 	pop	{r4, r5, r6, r7, r8, r9, sl, fp, pc}
  10a6d4:	e28d203c 	add	r2, sp, #60	; 0x3c
  10a6d8:	e59d1004 	ldr	r1, [sp, #4]
  10a6dc:	e59d0014 	ldr	r0, [sp, #20]
  10a6e0:	ebfffc99 	bl	10994c <__sprint_r.part.0>
  10a6e4:	e3500000 	cmp	r0, #0
  10a6e8:	1affffed 	bne	10a6a4 <_vfiprintf_r+0xc94>
  10a6ec:	e59d0040 	ldr	r0, [sp, #64]	; 0x40
  10a6f0:	e1a08009 	mov	r8, r9
  10a6f4:	e59d2044 	ldr	r2, [sp, #68]	; 0x44
  10a6f8:	e2800001 	add	r0, r0, #1
  10a6fc:	e59d3018 	ldr	r3, [sp, #24]
  10a700:	e3500007 	cmp	r0, #7
  10a704:	e59d1024 	ldr	r1, [sp, #36]	; 0x24
  10a708:	e58d0040 	str	r0, [sp, #64]	; 0x40
  10a70c:	e0832002 	add	r2, r3, r2
  10a710:	e58d2044 	str	r2, [sp, #68]	; 0x44
  10a714:	e888000a 	stm	r8, {r1, r3}
  10a718:	daffffc8 	ble	10a640 <_vfiprintf_r+0xc30>
  10a71c:	e3520000 	cmp	r2, #0
  10a720:	1a000088 	bne	10a948 <_vfiprintf_r+0xf38>
  10a724:	e59d300c 	ldr	r3, [sp, #12]
  10a728:	e58d2040 	str	r2, [sp, #64]	; 0x40
  10a72c:	e3130004 	tst	r3, #4
  10a730:	0a00003a 	beq	10a820 <_vfiprintf_r+0xe10>
  10a734:	e59d3008 	ldr	r3, [sp, #8]
  10a738:	e04b4003 	sub	r4, fp, r3
  10a73c:	e3540000 	cmp	r4, #0
  10a740:	c1a08009 	movgt	r8, r9
  10a744:	da000035 	ble	10a820 <_vfiprintf_r+0xe10>
  10a748:	e3540010 	cmp	r4, #16
  10a74c:	da000149 	ble	10ac78 <_vfiprintf_r+0x1268>
  10a750:	e30c69a0 	movw	r6, #51616	; 0xc9a0
  10a754:	e1a0c008 	mov	ip, r8
  10a758:	e3406010 	movt	r6, #16
  10a75c:	e59d1040 	ldr	r1, [sp, #64]	; 0x40
  10a760:	e1a08006 	mov	r8, r6
  10a764:	e3a05010 	mov	r5, #16
  10a768:	e59d7014 	ldr	r7, [sp, #20]
  10a76c:	e59d6004 	ldr	r6, [sp, #4]
  10a770:	ea000002 	b	10a780 <_vfiprintf_r+0xd70>
  10a774:	e2444010 	sub	r4, r4, #16
  10a778:	e3540010 	cmp	r4, #16
  10a77c:	da00001c 	ble	10a7f4 <_vfiprintf_r+0xde4>
  10a780:	e2813001 	add	r3, r1, #1
  10a784:	e2822010 	add	r2, r2, #16
  10a788:	e3530007 	cmp	r3, #7
  10a78c:	e58c8000 	str	r8, [ip]
  10a790:	e2810002 	add	r0, r1, #2
  10a794:	e58c5004 	str	r5, [ip, #4]
  10a798:	e58d2044 	str	r2, [sp, #68]	; 0x44
  10a79c:	e1a01003 	mov	r1, r3
  10a7a0:	e58d3040 	str	r3, [sp, #64]	; 0x40
  10a7a4:	d28cc008 	addle	ip, ip, #8
  10a7a8:	dafffff1 	ble	10a774 <_vfiprintf_r+0xd64>
  10a7ac:	e3520000 	cmp	r2, #0
  10a7b0:	e3a00001 	mov	r0, #1
  10a7b4:	e1a01002 	mov	r1, r2
  10a7b8:	e1a0c009 	mov	ip, r9
  10a7bc:	0affffec 	beq	10a774 <_vfiprintf_r+0xd64>
  10a7c0:	e28d203c 	add	r2, sp, #60	; 0x3c
  10a7c4:	e1a01006 	mov	r1, r6
  10a7c8:	e1a00007 	mov	r0, r7
  10a7cc:	ebfffc5e 	bl	10994c <__sprint_r.part.0>
  10a7d0:	e3500000 	cmp	r0, #0
  10a7d4:	e1a0c009 	mov	ip, r9
  10a7d8:	1affffb1 	bne	10a6a4 <_vfiprintf_r+0xc94>
  10a7dc:	e59d1040 	ldr	r1, [sp, #64]	; 0x40
  10a7e0:	e2444010 	sub	r4, r4, #16
  10a7e4:	e3540010 	cmp	r4, #16
  10a7e8:	e59d2044 	ldr	r2, [sp, #68]	; 0x44
  10a7ec:	e2810001 	add	r0, r1, #1
  10a7f0:	caffffe2 	bgt	10a780 <_vfiprintf_r+0xd70>
  10a7f4:	e1a06008 	mov	r6, r8
  10a7f8:	e1a0800c 	mov	r8, ip
  10a7fc:	e3500007 	cmp	r0, #7
  10a800:	e0822004 	add	r2, r2, r4
  10a804:	e58d2044 	str	r2, [sp, #68]	; 0x44
  10a808:	e5886000 	str	r6, [r8]
  10a80c:	e5884004 	str	r4, [r8, #4]
  10a810:	e58d0040 	str	r0, [sp, #64]	; 0x40
  10a814:	daffff91 	ble	10a660 <_vfiprintf_r+0xc50>
  10a818:	e3520000 	cmp	r2, #0
  10a81c:	1a0000c6 	bne	10ab3c <_vfiprintf_r+0x112c>
  10a820:	e59d3010 	ldr	r3, [sp, #16]
  10a824:	e59d2008 	ldr	r2, [sp, #8]
  10a828:	e15b0002 	cmp	fp, r2
  10a82c:	a083300b 	addge	r3, r3, fp
  10a830:	b0833002 	addlt	r3, r3, r2
  10a834:	e58d3010 	str	r3, [sp, #16]
  10a838:	eaffff90 	b	10a680 <_vfiprintf_r+0xc70>
  10a83c:	e1a02001 	mov	r2, r1
  10a840:	e2063007 	and	r3, r6, #7
  10a844:	e1a061a6 	lsr	r6, r6, #3
  10a848:	e2833030 	add	r3, r3, #48	; 0x30
  10a84c:	e1866e87 	orr	r6, r6, r7, lsl #29
  10a850:	e1a071a7 	lsr	r7, r7, #3
  10a854:	e5423001 	strb	r3, [r2, #-1]
  10a858:	e1961007 	orrs	r1, r6, r7
  10a85c:	e2421001 	sub	r1, r2, #1
  10a860:	1afffff5 	bne	10a83c <_vfiprintf_r+0xe2c>
  10a864:	e3530030 	cmp	r3, #48	; 0x30
  10a868:	03a03000 	moveq	r3, #0
  10a86c:	12053001 	andne	r3, r5, #1
  10a870:	e3530000 	cmp	r3, #0
  10a874:	0a0000cd 	beq	10abb0 <_vfiprintf_r+0x11a0>
  10a878:	e2423002 	sub	r3, r2, #2
  10a87c:	e58d500c 	str	r5, [sp, #12]
  10a880:	e1a02003 	mov	r2, r3
  10a884:	e58d3024 	str	r3, [sp, #36]	; 0x24
  10a888:	e0492002 	sub	r2, r9, r2
  10a88c:	e3a03030 	mov	r3, #48	; 0x30
  10a890:	e58d2018 	str	r2, [sp, #24]
  10a894:	e5413001 	strb	r3, [r1, #-1]
  10a898:	eafffd4f 	b	109ddc <_vfiprintf_r+0x3cc>
  10a89c:	e59d3004 	ldr	r3, [sp, #4]
  10a8a0:	e1d330bc 	ldrh	r3, [r3, #12]
  10a8a4:	e3130c02 	tst	r3, #512	; 0x200
  10a8a8:	1affff82 	bne	10a6b8 <_vfiprintf_r+0xca8>
  10a8ac:	e59d4004 	ldr	r4, [sp, #4]
  10a8b0:	e2840058 	add	r0, r4, #88	; 0x58
  10a8b4:	eb000568 	bl	10be5c <__generic_gxx_recursive_mutex_unlock>
  10a8b8:	e1d430bc 	ldrh	r3, [r4, #12]
  10a8bc:	eaffff7d 	b	10a6b8 <_vfiprintf_r+0xca8>
  10a8c0:	e3520001 	cmp	r2, #1
  10a8c4:	e1a05001 	mov	r5, r1
  10a8c8:	1afffe91 	bne	10a314 <_vfiprintf_r+0x904>
  10a8cc:	e3570000 	cmp	r7, #0
  10a8d0:	03560009 	cmpeq	r6, #9
  10a8d4:	8a000070 	bhi	10aa9c <_vfiprintf_r+0x108c>
  10a8d8:	e28d30b0 	add	r3, sp, #176	; 0xb0
  10a8dc:	e2866030 	add	r6, r6, #48	; 0x30
  10a8e0:	e5636041 	strb	r6, [r3, #-65]!	; 0xffffffbf
  10a8e4:	e58d500c 	str	r5, [sp, #12]
  10a8e8:	e58d2018 	str	r2, [sp, #24]
  10a8ec:	e58d3024 	str	r3, [sp, #36]	; 0x24
  10a8f0:	eafffd39 	b	109ddc <_vfiprintf_r+0x3cc>
  10a8f4:	e28d203c 	add	r2, sp, #60	; 0x3c
  10a8f8:	e59d1004 	ldr	r1, [sp, #4]
  10a8fc:	e59d0014 	ldr	r0, [sp, #20]
  10a900:	ebfffc11 	bl	10994c <__sprint_r.part.0>
  10a904:	e3500000 	cmp	r0, #0
  10a908:	0affff5c 	beq	10a680 <_vfiprintf_r+0xc70>
  10a90c:	eaffff64 	b	10a6a4 <_vfiprintf_r+0xc94>
  10a910:	e59d2004 	ldr	r2, [sp, #4]
  10a914:	e5923064 	ldr	r3, [r2, #100]	; 0x64
  10a918:	e3130001 	tst	r3, #1
  10a91c:	1affff67 	bne	10a6c0 <_vfiprintf_r+0xcb0>
  10a920:	e1d230bc 	ldrh	r3, [r2, #12]
  10a924:	e3130c02 	tst	r3, #512	; 0x200
  10a928:	1affff64 	bne	10a6c0 <_vfiprintf_r+0xcb0>
  10a92c:	e3e03000 	mvn	r3, #0
  10a930:	e2820058 	add	r0, r2, #88	; 0x58
  10a934:	e58d3010 	str	r3, [sp, #16]
  10a938:	eb000547 	bl	10be5c <__generic_gxx_recursive_mutex_unlock>
  10a93c:	eafffde5 	b	10a0d8 <_vfiprintf_r+0x6c8>
  10a940:	e3a02002 	mov	r2, #2
  10a944:	eafffd0c 	b	109d7c <_vfiprintf_r+0x36c>
  10a948:	e28d203c 	add	r2, sp, #60	; 0x3c
  10a94c:	e59d1004 	ldr	r1, [sp, #4]
  10a950:	e59d0014 	ldr	r0, [sp, #20]
  10a954:	ebfffbfc 	bl	10994c <__sprint_r.part.0>
  10a958:	e3500000 	cmp	r0, #0
  10a95c:	1affff50 	bne	10a6a4 <_vfiprintf_r+0xc94>
  10a960:	e59d2044 	ldr	r2, [sp, #68]	; 0x44
  10a964:	e1a08009 	mov	r8, r9
  10a968:	eaffff35 	b	10a644 <_vfiprintf_r+0xc34>
  10a96c:	e28d203c 	add	r2, sp, #60	; 0x3c
  10a970:	e59d1004 	ldr	r1, [sp, #4]
  10a974:	e59d0014 	ldr	r0, [sp, #20]
  10a978:	ebfffbf3 	bl	10994c <__sprint_r.part.0>
  10a97c:	e3500000 	cmp	r0, #0
  10a980:	1affff47 	bne	10a6a4 <_vfiprintf_r+0xc94>
  10a984:	e1a08009 	mov	r8, r9
  10a988:	eafffc62 	b	109b18 <_vfiprintf_r+0x108>
  10a98c:	e5926000 	ldr	r6, [r2]
  10a990:	e2822004 	add	r2, r2, #4
  10a994:	e58d201c 	str	r2, [sp, #28]
  10a998:	e3a07000 	mov	r7, #0
  10a99c:	eafffe22 	b	10a22c <_vfiprintf_r+0x81c>
  10a9a0:	e5936000 	ldr	r6, [r3]
  10a9a4:	e2833004 	add	r3, r3, #4
  10a9a8:	e3a02001 	mov	r2, #1
  10a9ac:	e58d301c 	str	r3, [sp, #28]
  10a9b0:	e3a07000 	mov	r7, #0
  10a9b4:	eafffcf0 	b	109d7c <_vfiprintf_r+0x36c>
  10a9b8:	e59d301c 	ldr	r3, [sp, #28]
  10a9bc:	e3a07000 	mov	r7, #0
  10a9c0:	e5936000 	ldr	r6, [r3]
  10a9c4:	e2833004 	add	r3, r3, #4
  10a9c8:	e58d301c 	str	r3, [sp, #28]
  10a9cc:	eafffcea 	b	109d7c <_vfiprintf_r+0x36c>
  10a9d0:	e5936000 	ldr	r6, [r3]
  10a9d4:	e2833004 	add	r3, r3, #4
  10a9d8:	e58d301c 	str	r3, [sp, #28]
  10a9dc:	e1a02006 	mov	r2, r6
  10a9e0:	e1a07fc6 	asr	r7, r6, #31
  10a9e4:	e1a03007 	mov	r3, r7
  10a9e8:	eafffe3f 	b	10a2ec <_vfiprintf_r+0x8dc>
  10a9ec:	e28d203c 	add	r2, sp, #60	; 0x3c
  10a9f0:	e59d1004 	ldr	r1, [sp, #4]
  10a9f4:	e59d0014 	ldr	r0, [sp, #20]
  10a9f8:	e58d302c 	str	r3, [sp, #44]	; 0x2c
  10a9fc:	ebfffbd2 	bl	10994c <__sprint_r.part.0>
  10aa00:	e3500000 	cmp	r0, #0
  10aa04:	1affff26 	bne	10a6a4 <_vfiprintf_r+0xc94>
  10aa08:	e59d1040 	ldr	r1, [sp, #64]	; 0x40
  10aa0c:	e1a08009 	mov	r8, r9
  10aa10:	e59d2044 	ldr	r2, [sp, #68]	; 0x44
  10aa14:	e59d302c 	ldr	r3, [sp, #44]	; 0x2c
  10aa18:	e2810001 	add	r0, r1, #1
  10aa1c:	eafffd47 	b	109f40 <_vfiprintf_r+0x530>
  10aa20:	e28d203c 	add	r2, sp, #60	; 0x3c
  10aa24:	e59d1004 	ldr	r1, [sp, #4]
  10aa28:	e59d0014 	ldr	r0, [sp, #20]
  10aa2c:	ebfffbc6 	bl	10994c <__sprint_r.part.0>
  10aa30:	e3500000 	cmp	r0, #0
  10aa34:	1affff1a 	bne	10a6a4 <_vfiprintf_r+0xc94>
  10aa38:	e59d1040 	ldr	r1, [sp, #64]	; 0x40
  10aa3c:	e1a08009 	mov	r8, r9
  10aa40:	e59d2044 	ldr	r2, [sp, #68]	; 0x44
  10aa44:	e2810001 	add	r0, r1, #1
  10aa48:	eafffebd 	b	10a544 <_vfiprintf_r+0xb34>
  10aa4c:	e3520000 	cmp	r2, #0
  10aa50:	1a00006d 	bne	10ac0c <_vfiprintf_r+0x11fc>
  10aa54:	e3a00001 	mov	r0, #1
  10aa58:	e1a01002 	mov	r1, r2
  10aa5c:	e1a08009 	mov	r8, r9
  10aa60:	eafffeba 	b	10a550 <_vfiprintf_r+0xb40>
  10aa64:	e2831007 	add	r1, r3, #7
  10aa68:	e3c11007 	bic	r1, r1, #7
  10aa6c:	e1c120d0 	ldrd	r2, [r1]
  10aa70:	e2811008 	add	r1, r1, #8
  10aa74:	e58d101c 	str	r1, [sp, #28]
  10aa78:	e1a06002 	mov	r6, r2
  10aa7c:	e1a07003 	mov	r7, r3
  10aa80:	eafffe19 	b	10a2ec <_vfiprintf_r+0x8dc>
  10aa84:	e2822007 	add	r2, r2, #7
  10aa88:	e3c22007 	bic	r2, r2, #7
  10aa8c:	e2821008 	add	r1, r2, #8
  10aa90:	e1c260d0 	ldrd	r6, [r2]
  10aa94:	e58d101c 	str	r1, [sp, #28]
  10aa98:	eafffde3 	b	10a22c <_vfiprintf_r+0x81c>
  10aa9c:	e58d8008 	str	r8, [sp, #8]
  10aaa0:	e1a08004 	mov	r8, r4
  10aaa4:	e1a04009 	mov	r4, r9
  10aaa8:	e1a00006 	mov	r0, r6
  10aaac:	e1a01007 	mov	r1, r7
  10aab0:	e3a0200a 	mov	r2, #10
  10aab4:	e3a03000 	mov	r3, #0
  10aab8:	eb000482 	bl	10bcc8 <__aeabi_uldivmod>
  10aabc:	e2822030 	add	r2, r2, #48	; 0x30
  10aac0:	e1a00006 	mov	r0, r6
  10aac4:	e1a01007 	mov	r1, r7
  10aac8:	e5642001 	strb	r2, [r4, #-1]!
  10aacc:	e3a03000 	mov	r3, #0
  10aad0:	e3a0200a 	mov	r2, #10
  10aad4:	eb00047b 	bl	10bcc8 <__aeabi_uldivmod>
  10aad8:	e1a06000 	mov	r6, r0
  10aadc:	e1a07001 	mov	r7, r1
  10aae0:	e1963007 	orrs	r3, r6, r7
  10aae4:	1affffef 	bne	10aaa8 <_vfiprintf_r+0x1098>
  10aae8:	e1a03004 	mov	r3, r4
  10aaec:	e58d4024 	str	r4, [sp, #36]	; 0x24
  10aaf0:	e0493003 	sub	r3, r9, r3
  10aaf4:	e1a04008 	mov	r4, r8
  10aaf8:	e58d500c 	str	r5, [sp, #12]
  10aafc:	e59d8008 	ldr	r8, [sp, #8]
  10ab00:	e58d3018 	str	r3, [sp, #24]
  10ab04:	eafffcb4 	b	109ddc <_vfiprintf_r+0x3cc>
  10ab08:	e3a0302d 	mov	r3, #45	; 0x2d
  10ab0c:	e2766000 	rsbs	r6, r6, #0
  10ab10:	e2e77000 	rsc	r7, r7, #0
  10ab14:	e5cd3037 	strb	r3, [sp, #55]	; 0x37
  10ab18:	e58d3020 	str	r3, [sp, #32]
  10ab1c:	e3a02001 	mov	r2, #1
  10ab20:	eafffc98 	b	109d88 <_vfiprintf_r+0x378>
  10ab24:	e3530000 	cmp	r3, #0
  10ab28:	1a00000b 	bne	10ab5c <_vfiprintf_r+0x114c>
  10ab2c:	e1a01002 	mov	r1, r2
  10ab30:	e3a00001 	mov	r0, #1
  10ab34:	e1a08009 	mov	r8, r9
  10ab38:	eafffe84 	b	10a550 <_vfiprintf_r+0xb40>
  10ab3c:	e28d203c 	add	r2, sp, #60	; 0x3c
  10ab40:	e59d1004 	ldr	r1, [sp, #4]
  10ab44:	e59d0014 	ldr	r0, [sp, #20]
  10ab48:	ebfffb7f 	bl	10994c <__sprint_r.part.0>
  10ab4c:	e3500000 	cmp	r0, #0
  10ab50:	1afffed3 	bne	10a6a4 <_vfiprintf_r+0xc94>
  10ab54:	e59d2044 	ldr	r2, [sp, #68]	; 0x44
  10ab58:	eafffec0 	b	10a660 <_vfiprintf_r+0xc50>
  10ab5c:	e28d2038 	add	r2, sp, #56	; 0x38
  10ab60:	e3a01002 	mov	r1, #2
  10ab64:	e58d2070 	str	r2, [sp, #112]	; 0x70
  10ab68:	e3a00001 	mov	r0, #1
  10ab6c:	e1a02001 	mov	r2, r1
  10ab70:	e58d1074 	str	r1, [sp, #116]	; 0x74
  10ab74:	e1a08009 	mov	r8, r9
  10ab78:	eafffe6e 	b	10a538 <_vfiprintf_r+0xb28>
  10ab7c:	e28d203c 	add	r2, sp, #60	; 0x3c
  10ab80:	e59d1004 	ldr	r1, [sp, #4]
  10ab84:	e59d0014 	ldr	r0, [sp, #20]
  10ab88:	e58d302c 	str	r3, [sp, #44]	; 0x2c
  10ab8c:	ebfffb6e 	bl	10994c <__sprint_r.part.0>
  10ab90:	e3500000 	cmp	r0, #0
  10ab94:	1afffec2 	bne	10a6a4 <_vfiprintf_r+0xc94>
  10ab98:	e59d1040 	ldr	r1, [sp, #64]	; 0x40
  10ab9c:	e1a08009 	mov	r8, r9
  10aba0:	e59d2044 	ldr	r2, [sp, #68]	; 0x44
  10aba4:	e59d302c 	ldr	r3, [sp, #44]	; 0x2c
  10aba8:	e2810001 	add	r0, r1, #1
  10abac:	eafffe4b 	b	10a4e0 <_vfiprintf_r+0xad0>
  10abb0:	e0493001 	sub	r3, r9, r1
  10abb4:	e58d500c 	str	r5, [sp, #12]
  10abb8:	e58d3018 	str	r3, [sp, #24]
  10abbc:	e58d1024 	str	r1, [sp, #36]	; 0x24
  10abc0:	eafffc85 	b	109ddc <_vfiprintf_r+0x3cc>
  10abc4:	e59d1010 	ldr	r1, [sp, #16]
  10abc8:	e59d201c 	ldr	r2, [sp, #28]
  10abcc:	ee801b90 	vdup.32	d16, r1
  10abd0:	e2822004 	add	r2, r2, #4
  10abd4:	e5123004 	ldr	r3, [r2, #-4]
  10abd8:	f2e000b0 	vshr.s64	d16, d16, #32
  10abdc:	e58d201c 	str	r2, [sp, #28]
  10abe0:	edc30b00 	vstr	d16, [r3]
  10abe4:	eafffbb5 	b	109ac0 <_vfiprintf_r+0xb0>
  10abe8:	e59d0024 	ldr	r0, [sp, #36]	; 0x24
  10abec:	e3a04000 	mov	r4, #0
  10abf0:	e58d601c 	str	r6, [sp, #28]
  10abf4:	e58d500c 	str	r5, [sp, #12]
  10abf8:	faffe2e0 	blx	103780 <strlen>
  10abfc:	e5dd3037 	ldrb	r3, [sp, #55]	; 0x37
  10ac00:	e58d0018 	str	r0, [sp, #24]
  10ac04:	e58d3020 	str	r3, [sp, #32]
  10ac08:	eafffc73 	b	109ddc <_vfiprintf_r+0x3cc>
  10ac0c:	e28d203c 	add	r2, sp, #60	; 0x3c
  10ac10:	e59d1004 	ldr	r1, [sp, #4]
  10ac14:	e59d0014 	ldr	r0, [sp, #20]
  10ac18:	ebfffb4b 	bl	10994c <__sprint_r.part.0>
  10ac1c:	e3500000 	cmp	r0, #0
  10ac20:	1afffe9f 	bne	10a6a4 <_vfiprintf_r+0xc94>
  10ac24:	e59d1040 	ldr	r1, [sp, #64]	; 0x40
  10ac28:	e1a08009 	mov	r8, r9
  10ac2c:	e59d2044 	ldr	r2, [sp, #68]	; 0x44
  10ac30:	e2810001 	add	r0, r1, #1
  10ac34:	eafffe45 	b	10a550 <_vfiprintf_r+0xb40>
  10ac38:	e59d1040 	ldr	r1, [sp, #64]	; 0x40
  10ac3c:	e30c69a0 	movw	r6, #51616	; 0xc9a0
  10ac40:	e3406010 	movt	r6, #16
  10ac44:	e59d2044 	ldr	r2, [sp, #68]	; 0x44
  10ac48:	e2811001 	add	r1, r1, #1
  10ac4c:	eafffca4 	b	109ee4 <_vfiprintf_r+0x4d4>
  10ac50:	e3540006 	cmp	r4, #6
  10ac54:	e30c3854 	movw	r3, #51284	; 0xc854
  10ac58:	31a02004 	movcc	r2, r4
  10ac5c:	23a02006 	movcs	r2, #6
  10ac60:	e3403010 	movt	r3, #16
  10ac64:	e58d2018 	str	r2, [sp, #24]
  10ac68:	e58d601c 	str	r6, [sp, #28]
  10ac6c:	e58d2008 	str	r2, [sp, #8]
  10ac70:	e58d3024 	str	r3, [sp, #36]	; 0x24
  10ac74:	eafffdca 	b	10a3a4 <_vfiprintf_r+0x994>
  10ac78:	e59d0040 	ldr	r0, [sp, #64]	; 0x40
  10ac7c:	e30c69a0 	movw	r6, #51616	; 0xc9a0
  10ac80:	e3406010 	movt	r6, #16
  10ac84:	e2800001 	add	r0, r0, #1
  10ac88:	eafffedb 	b	10a7fc <_vfiprintf_r+0xdec>
  10ac8c:	e5dd3037 	ldrb	r3, [sp, #55]	; 0x37
  10ac90:	e58d4018 	str	r4, [sp, #24]
  10ac94:	e1a04000 	mov	r4, r0
  10ac98:	e58d601c 	str	r6, [sp, #28]
  10ac9c:	e58d3020 	str	r3, [sp, #32]
  10aca0:	e58d500c 	str	r5, [sp, #12]
  10aca4:	eafffc4c 	b	109ddc <_vfiprintf_r+0x3cc>
  10aca8:	e59d0014 	ldr	r0, [sp, #20]
  10acac:	e28d203c 	add	r2, sp, #60	; 0x3c
  10acb0:	e59d1004 	ldr	r1, [sp, #4]
  10acb4:	ebfffb24 	bl	10994c <__sprint_r.part.0>
  10acb8:	e3500000 	cmp	r0, #0
  10acbc:	0afffe76 	beq	10a69c <_vfiprintf_r+0xc8c>
  10acc0:	eafffe77 	b	10a6a4 <_vfiprintf_r+0xc94>
  10acc4:	e1a0c000 	mov	ip, r0
  10acc8:	eafffcdd 	b	10a044 <_vfiprintf_r+0x634>
  10accc:	e59d301c 	ldr	r3, [sp, #28]
  10acd0:	e5934000 	ldr	r4, [r3]
  10acd4:	e2833004 	add	r3, r3, #4
  10acd8:	e58d301c 	str	r3, [sp, #28]
  10acdc:	e5da3001 	ldrb	r3, [sl, #1]
  10ace0:	e1a0a00e 	mov	sl, lr
  10ace4:	e154000c 	cmp	r4, ip
  10ace8:	b1a0400c 	movlt	r4, ip
  10acec:	eafffb99 	b	109b58 <_vfiprintf_r+0x148>
  10acf0:	0010c9b0 	.word	0x0010c9b0

0010acf4 <vfiprintf>:
  10acf4:	e92d4070 	push	{r4, r5, r6, lr}
  10acf8:	e1a05001 	mov	r5, r1
  10acfc:	e1a06002 	mov	r6, r2
  10ad00:	e1a04000 	mov	r4, r0
  10ad04:	ebfff41c 	bl	107d7c <__getreent>
  10ad08:	e1a03006 	mov	r3, r6
  10ad0c:	e1a02005 	mov	r2, r5
  10ad10:	e1a01004 	mov	r1, r4
  10ad14:	e8bd4070 	pop	{r4, r5, r6, lr}
  10ad18:	eafffb3c 	b	109a10 <_vfiprintf_r>

0010ad1c <__sbprintf>:
  10ad1c:	e92d41f0 	push	{r4, r5, r6, r7, r8, lr}
  10ad20:	e1a04001 	mov	r4, r1
  10ad24:	e1d110bc 	ldrh	r1, [r1, #12]
  10ad28:	e1a07000 	mov	r7, r0
  10ad2c:	e1a08003 	mov	r8, r3
  10ad30:	e1a06002 	mov	r6, r2
  10ad34:	e1d4c0be 	ldrh	ip, [r4, #14]
  10ad38:	e24dde46 	sub	sp, sp, #1120	; 0x460
  10ad3c:	e5940064 	ldr	r0, [r4, #100]	; 0x64
  10ad40:	e24dd008 	sub	sp, sp, #8
  10ad44:	e594301c 	ldr	r3, [r4, #28]
  10ad48:	e3c11002 	bic	r1, r1, #2
  10ad4c:	e5942024 	ldr	r2, [r4, #36]	; 0x24
  10ad50:	e1cd10bc 	strh	r1, [sp, #12]
  10ad54:	e3a01b01 	mov	r1, #1024	; 0x400
  10ad58:	e1cdc0be 	strh	ip, [sp, #14]
  10ad5c:	e28dc068 	add	ip, sp, #104	; 0x68
  10ad60:	e58d0064 	str	r0, [sp, #100]	; 0x64
  10ad64:	e28d0058 	add	r0, sp, #88	; 0x58
  10ad68:	e58d301c 	str	r3, [sp, #28]
  10ad6c:	e3a03000 	mov	r3, #0
  10ad70:	e58d2024 	str	r2, [sp, #36]	; 0x24
  10ad74:	e58dc000 	str	ip, [sp]
  10ad78:	e58dc010 	str	ip, [sp, #16]
  10ad7c:	e58d1008 	str	r1, [sp, #8]
  10ad80:	e58d1014 	str	r1, [sp, #20]
  10ad84:	e58d3018 	str	r3, [sp, #24]
  10ad88:	eb00042f 	bl	10be4c <__generic_gxx_recursive_mutex_init_function>
  10ad8c:	e1a02006 	mov	r2, r6
  10ad90:	e1a03008 	mov	r3, r8
  10ad94:	e1a0100d 	mov	r1, sp
  10ad98:	e1a00007 	mov	r0, r7
  10ad9c:	ebfffb1b 	bl	109a10 <_vfiprintf_r>
  10ada0:	e2506000 	subs	r6, r0, #0
  10ada4:	ba000004 	blt	10adbc <__sbprintf+0xa0>
  10ada8:	e1a0100d 	mov	r1, sp
  10adac:	e1a00007 	mov	r0, r7
  10adb0:	ebfff07a 	bl	106fa0 <_fflush_r>
  10adb4:	e3500000 	cmp	r0, #0
  10adb8:	13e06000 	mvnne	r6, #0
  10adbc:	e1dd30bc 	ldrh	r3, [sp, #12]
  10adc0:	e28d0058 	add	r0, sp, #88	; 0x58
  10adc4:	e3130040 	tst	r3, #64	; 0x40
  10adc8:	11d430bc 	ldrhne	r3, [r4, #12]
  10adcc:	13833040 	orrne	r3, r3, #64	; 0x40
  10add0:	11c430bc 	strhne	r3, [r4, #12]
  10add4:	eb00041e 	bl	10be54 <__generic_gxx_recursive_mutex_destroy>
  10add8:	e1a00006 	mov	r0, r6
  10addc:	e28dde46 	add	sp, sp, #1120	; 0x460
  10ade0:	e28dd008 	add	sp, sp, #8
  10ade4:	e8bd81f0 	pop	{r4, r5, r6, r7, r8, pc}

0010ade8 <__swbuf_r>:
  10ade8:	e92d41f0 	push	{r4, r5, r6, r7, r8, lr}
  10adec:	e2506000 	subs	r6, r0, #0
  10adf0:	e1a05001 	mov	r5, r1
  10adf4:	e1a04002 	mov	r4, r2
  10adf8:	0a000002 	beq	10ae08 <__swbuf_r+0x20>
  10adfc:	e5963038 	ldr	r3, [r6, #56]	; 0x38
  10ae00:	e3530000 	cmp	r3, #0
  10ae04:	0a00003f 	beq	10af08 <__swbuf_r+0x120>
  10ae08:	e1d420fc 	ldrsh	r2, [r4, #12]
  10ae0c:	e5943018 	ldr	r3, [r4, #24]
  10ae10:	e6ff1072 	uxth	r1, r2
  10ae14:	e5843008 	str	r3, [r4, #8]
  10ae18:	e3110008 	tst	r1, #8
  10ae1c:	0a000021 	beq	10aea8 <__swbuf_r+0xc0>
  10ae20:	e5943010 	ldr	r3, [r4, #16]
  10ae24:	e3530000 	cmp	r3, #0
  10ae28:	0a00001e 	beq	10aea8 <__swbuf_r+0xc0>
  10ae2c:	e3110a02 	tst	r1, #8192	; 0x2000
  10ae30:	e6ef5075 	uxtb	r5, r5
  10ae34:	05941064 	ldreq	r1, [r4, #100]	; 0x64
  10ae38:	03822a02 	orreq	r2, r2, #8192	; 0x2000
  10ae3c:	01c420bc 	strheq	r2, [r4, #12]
  10ae40:	e1a07005 	mov	r7, r5
  10ae44:	03c12a02 	biceq	r2, r1, #8192	; 0x2000
  10ae48:	e5941014 	ldr	r1, [r4, #20]
  10ae4c:	05842064 	streq	r2, [r4, #100]	; 0x64
  10ae50:	e5942000 	ldr	r2, [r4]
  10ae54:	e0423003 	sub	r3, r2, r3
  10ae58:	e1530001 	cmp	r3, r1
  10ae5c:	b2833001 	addlt	r3, r3, #1
  10ae60:	aa000020 	bge	10aee8 <__swbuf_r+0x100>
  10ae64:	e5941008 	ldr	r1, [r4, #8]
  10ae68:	e2820001 	add	r0, r2, #1
  10ae6c:	e5840000 	str	r0, [r4]
  10ae70:	e2411001 	sub	r1, r1, #1
  10ae74:	e5841008 	str	r1, [r4, #8]
  10ae78:	e5c25000 	strb	r5, [r2]
  10ae7c:	e5942014 	ldr	r2, [r4, #20]
  10ae80:	e1520003 	cmp	r2, r3
  10ae84:	0a000010 	beq	10aecc <__swbuf_r+0xe4>
  10ae88:	e1d430bc 	ldrh	r3, [r4, #12]
  10ae8c:	e355000a 	cmp	r5, #10
  10ae90:	13a05000 	movne	r5, #0
  10ae94:	02035001 	andeq	r5, r3, #1
  10ae98:	e3550000 	cmp	r5, #0
  10ae9c:	1a00000a 	bne	10aecc <__swbuf_r+0xe4>
  10aea0:	e1a00007 	mov	r0, r7
  10aea4:	e8bd81f0 	pop	{r4, r5, r6, r7, r8, pc}
  10aea8:	e1a01004 	mov	r1, r4
  10aeac:	e1a00006 	mov	r0, r6
  10aeb0:	ebffea73 	bl	105884 <__swsetup_r>
  10aeb4:	e3500000 	cmp	r0, #0
  10aeb8:	1a000008 	bne	10aee0 <__swbuf_r+0xf8>
  10aebc:	e1d420fc 	ldrsh	r2, [r4, #12]
  10aec0:	e5943010 	ldr	r3, [r4, #16]
  10aec4:	e6ff1072 	uxth	r1, r2
  10aec8:	eaffffd7 	b	10ae2c <__swbuf_r+0x44>
  10aecc:	e1a01004 	mov	r1, r4
  10aed0:	e1a00006 	mov	r0, r6
  10aed4:	ebfff031 	bl	106fa0 <_fflush_r>
  10aed8:	e3500000 	cmp	r0, #0
  10aedc:	0affffef 	beq	10aea0 <__swbuf_r+0xb8>
  10aee0:	e3e07000 	mvn	r7, #0
  10aee4:	eaffffed 	b	10aea0 <__swbuf_r+0xb8>
  10aee8:	e1a01004 	mov	r1, r4
  10aeec:	e1a00006 	mov	r0, r6
  10aef0:	ebfff02a 	bl	106fa0 <_fflush_r>
  10aef4:	e3500000 	cmp	r0, #0
  10aef8:	1afffff8 	bne	10aee0 <__swbuf_r+0xf8>
  10aefc:	e5942000 	ldr	r2, [r4]
  10af00:	e3a03001 	mov	r3, #1
  10af04:	eaffffd6 	b	10ae64 <__swbuf_r+0x7c>
  10af08:	ebfff0ac 	bl	1071c0 <__sinit>
  10af0c:	eaffffbd 	b	10ae08 <__swbuf_r+0x20>

0010af10 <__swbuf>:
  10af10:	e92d4070 	push	{r4, r5, r6, lr}
  10af14:	e1a05001 	mov	r5, r1
  10af18:	e1a04000 	mov	r4, r0
  10af1c:	ebfff396 	bl	107d7c <__getreent>
  10af20:	e1a02005 	mov	r2, r5
  10af24:	e1a01004 	mov	r1, r4
  10af28:	e8bd4070 	pop	{r4, r5, r6, lr}
  10af2c:	eaffffad 	b	10ade8 <__swbuf_r>

0010af30 <_write_r>:
  10af30:	e92d4070 	push	{r4, r5, r6, lr}
  10af34:	e1a0c001 	mov	ip, r1
  10af38:	e3084a1c 	movw	r4, #35356	; 0x8a1c
  10af3c:	e1a01002 	mov	r1, r2
  10af40:	e1a05000 	mov	r5, r0
  10af44:	e1a02003 	mov	r2, r3
  10af48:	e1a0000c 	mov	r0, ip
  10af4c:	e3a03000 	mov	r3, #0
  10af50:	e3404011 	movt	r4, #17
  10af54:	e5843000 	str	r3, [r4]
  10af58:	ebffd7fe 	bl	100f58 <_write>
  10af5c:	e3700001 	cmn	r0, #1
  10af60:	18bd8070 	popne	{r4, r5, r6, pc}
  10af64:	e5943000 	ldr	r3, [r4]
  10af68:	e3530000 	cmp	r3, #0
  10af6c:	15853000 	strne	r3, [r5]
  10af70:	e8bd8070 	pop	{r4, r5, r6, pc}

0010af74 <_calloc_r>:
  10af74:	e92d4010 	push	{r4, lr}
  10af78:	e0010192 	mul	r1, r2, r1
  10af7c:	ebffdf51 	bl	102cc8 <_malloc_r>
  10af80:	e2504000 	subs	r4, r0, #0
  10af84:	0a000018 	beq	10afec <_calloc_r+0x78>
  10af88:	e5142004 	ldr	r2, [r4, #-4]
  10af8c:	e3c22003 	bic	r2, r2, #3
  10af90:	e2422004 	sub	r2, r2, #4
  10af94:	e3520024 	cmp	r2, #36	; 0x24
  10af98:	8a000015 	bhi	10aff4 <_calloc_r+0x80>
  10af9c:	e3520013 	cmp	r2, #19
  10afa0:	91a02004 	movls	r2, r4
  10afa4:	9a00000c 	bls	10afdc <_calloc_r+0x68>
  10afa8:	e352001b 	cmp	r2, #27
  10afac:	e3a03000 	mov	r3, #0
  10afb0:	e5843000 	str	r3, [r4]
  10afb4:	92842008 	addls	r2, r4, #8
  10afb8:	e5843004 	str	r3, [r4, #4]
  10afbc:	9a000006 	bls	10afdc <_calloc_r+0x68>
  10afc0:	e3520024 	cmp	r2, #36	; 0x24
  10afc4:	e5843008 	str	r3, [r4, #8]
  10afc8:	12842010 	addne	r2, r4, #16
  10afcc:	02842018 	addeq	r2, r4, #24
  10afd0:	e584300c 	str	r3, [r4, #12]
  10afd4:	05843010 	streq	r3, [r4, #16]
  10afd8:	05843014 	streq	r3, [r4, #20]
  10afdc:	e3a03000 	mov	r3, #0
  10afe0:	e5823000 	str	r3, [r2]
  10afe4:	e5823004 	str	r3, [r2, #4]
  10afe8:	e5823008 	str	r3, [r2, #8]
  10afec:	e1a00004 	mov	r0, r4
  10aff0:	e8bd8010 	pop	{r4, pc}
  10aff4:	e3a01000 	mov	r1, #0
  10aff8:	ebfff497 	bl	10825c <memset>
  10affc:	e1a00004 	mov	r0, r4
  10b000:	e8bd8010 	pop	{r4, pc}

0010b004 <_close_r>:
  10b004:	e92d4070 	push	{r4, r5, r6, lr}
  10b008:	e3084a1c 	movw	r4, #35356	; 0x8a1c
  10b00c:	e3a03000 	mov	r3, #0
  10b010:	e1a05000 	mov	r5, r0
  10b014:	e3404011 	movt	r4, #17
  10b018:	e1a00001 	mov	r0, r1
  10b01c:	e5843000 	str	r3, [r4]
  10b020:	ebffd786 	bl	100e40 <_close>
  10b024:	e3700001 	cmn	r0, #1
  10b028:	18bd8070 	popne	{r4, r5, r6, pc}
  10b02c:	e5943000 	ldr	r3, [r4]
  10b030:	e3530000 	cmp	r3, #0
  10b034:	15853000 	strne	r3, [r5]
  10b038:	e8bd8070 	pop	{r4, r5, r6, pc}

0010b03c <_fclose_r>:
  10b03c:	e92d41f0 	push	{r4, r5, r6, r7, r8, lr}
  10b040:	e2514000 	subs	r4, r1, #0
  10b044:	0a00003a 	beq	10b134 <_fclose_r+0xf8>
  10b048:	e3500000 	cmp	r0, #0
  10b04c:	e1a06000 	mov	r6, r0
  10b050:	0a000002 	beq	10b060 <_fclose_r+0x24>
  10b054:	e5903038 	ldr	r3, [r0, #56]	; 0x38
  10b058:	e3530000 	cmp	r3, #0
  10b05c:	0a000037 	beq	10b140 <_fclose_r+0x104>
  10b060:	e5943064 	ldr	r3, [r4, #100]	; 0x64
  10b064:	e3130001 	tst	r3, #1
  10b068:	1a00002e 	bne	10b128 <_fclose_r+0xec>
  10b06c:	e1d430bc 	ldrh	r3, [r4, #12]
  10b070:	e3130c02 	tst	r3, #512	; 0x200
  10b074:	0a00003a 	beq	10b164 <_fclose_r+0x128>
  10b078:	e2847058 	add	r7, r4, #88	; 0x58
  10b07c:	e1a01004 	mov	r1, r4
  10b080:	e1a00006 	mov	r0, r6
  10b084:	ebffef3b 	bl	106d78 <__sflush_r>
  10b088:	e594302c 	ldr	r3, [r4, #44]	; 0x2c
  10b08c:	e1a05000 	mov	r5, r0
  10b090:	e3530000 	cmp	r3, #0
  10b094:	0a000004 	beq	10b0ac <_fclose_r+0x70>
  10b098:	e594101c 	ldr	r1, [r4, #28]
  10b09c:	e1a00006 	mov	r0, r6
  10b0a0:	e12fff33 	blx	r3
  10b0a4:	e3500000 	cmp	r0, #0
  10b0a8:	b3e05000 	mvnlt	r5, #0
  10b0ac:	e1d430bc 	ldrh	r3, [r4, #12]
  10b0b0:	e3130080 	tst	r3, #128	; 0x80
  10b0b4:	1a000023 	bne	10b148 <_fclose_r+0x10c>
  10b0b8:	e5941030 	ldr	r1, [r4, #48]	; 0x30
  10b0bc:	e3510000 	cmp	r1, #0
  10b0c0:	0a000006 	beq	10b0e0 <_fclose_r+0xa4>
  10b0c4:	e2843040 	add	r3, r4, #64	; 0x40
  10b0c8:	e1510003 	cmp	r1, r3
  10b0cc:	0a000001 	beq	10b0d8 <_fclose_r+0x9c>
  10b0d0:	e1a00006 	mov	r0, r6
  10b0d4:	ebfff106 	bl	1074f4 <_free_r>
  10b0d8:	e3a03000 	mov	r3, #0
  10b0dc:	e5843030 	str	r3, [r4, #48]	; 0x30
  10b0e0:	e5941044 	ldr	r1, [r4, #68]	; 0x44
  10b0e4:	e3510000 	cmp	r1, #0
  10b0e8:	0a000003 	beq	10b0fc <_fclose_r+0xc0>
  10b0ec:	e1a00006 	mov	r0, r6
  10b0f0:	ebfff0ff 	bl	1074f4 <_free_r>
  10b0f4:	e3a03000 	mov	r3, #0
  10b0f8:	e5843044 	str	r3, [r4, #68]	; 0x44
  10b0fc:	ebfff099 	bl	107368 <__sfp_lock_acquire>
  10b100:	e5943064 	ldr	r3, [r4, #100]	; 0x64
  10b104:	e3a02000 	mov	r2, #0
  10b108:	e1c420bc 	strh	r2, [r4, #12]
  10b10c:	e3130001 	tst	r3, #1
  10b110:	0a000010 	beq	10b158 <_fclose_r+0x11c>
  10b114:	e1a00007 	mov	r0, r7
  10b118:	eb00034d 	bl	10be54 <__generic_gxx_recursive_mutex_destroy>
  10b11c:	ebfff094 	bl	107374 <__sfp_lock_release>
  10b120:	e1a00005 	mov	r0, r5
  10b124:	e8bd81f0 	pop	{r4, r5, r6, r7, r8, pc}
  10b128:	e1d430fc 	ldrsh	r3, [r4, #12]
  10b12c:	e3530000 	cmp	r3, #0
  10b130:	1affffd0 	bne	10b078 <_fclose_r+0x3c>
  10b134:	e3a05000 	mov	r5, #0
  10b138:	e1a00005 	mov	r0, r5
  10b13c:	e8bd81f0 	pop	{r4, r5, r6, r7, r8, pc}
  10b140:	ebfff01e 	bl	1071c0 <__sinit>
  10b144:	eaffffc5 	b	10b060 <_fclose_r+0x24>
  10b148:	e5941010 	ldr	r1, [r4, #16]
  10b14c:	e1a00006 	mov	r0, r6
  10b150:	ebfff0e7 	bl	1074f4 <_free_r>
  10b154:	eaffffd7 	b	10b0b8 <_fclose_r+0x7c>
  10b158:	e1a00007 	mov	r0, r7
  10b15c:	eb00033e 	bl	10be5c <__generic_gxx_recursive_mutex_unlock>
  10b160:	eaffffeb 	b	10b114 <_fclose_r+0xd8>
  10b164:	e2847058 	add	r7, r4, #88	; 0x58
  10b168:	e1a00007 	mov	r0, r7
  10b16c:	eb00033c 	bl	10be64 <__generic_gxx_recursive_mutex_lock>
  10b170:	e1d430fc 	ldrsh	r3, [r4, #12]
  10b174:	e3530000 	cmp	r3, #0
  10b178:	1affffbf 	bne	10b07c <_fclose_r+0x40>
  10b17c:	e5945064 	ldr	r5, [r4, #100]	; 0x64
  10b180:	e2155001 	ands	r5, r5, #1
  10b184:	1affffea 	bne	10b134 <_fclose_r+0xf8>
  10b188:	e1a00007 	mov	r0, r7
  10b18c:	eb000332 	bl	10be5c <__generic_gxx_recursive_mutex_unlock>
  10b190:	e1a00005 	mov	r0, r5
  10b194:	e8bd81f0 	pop	{r4, r5, r6, r7, r8, pc}

0010b198 <fclose>:
  10b198:	e92d4010 	push	{r4, lr}
  10b19c:	e1a04000 	mov	r4, r0
  10b1a0:	ebfff2f5 	bl	107d7c <__getreent>
  10b1a4:	e1a01004 	mov	r1, r4
  10b1a8:	e8bd4010 	pop	{r4, lr}
  10b1ac:	eaffffa2 	b	10b03c <_fclose_r>

0010b1b0 <__fputwc>:
  10b1b0:	e92d43f0 	push	{r4, r5, r6, r7, r8, r9, lr}
  10b1b4:	e24dd00c 	sub	sp, sp, #12
  10b1b8:	e1a08000 	mov	r8, r0
  10b1bc:	e1a07001 	mov	r7, r1
  10b1c0:	e1a04002 	mov	r4, r2
  10b1c4:	eb0000b3 	bl	10b498 <__locale_mb_cur_max>
  10b1c8:	e3500001 	cmp	r0, #1
  10b1cc:	0a00002e 	beq	10b28c <__fputwc+0xdc>
  10b1d0:	e284305c 	add	r3, r4, #92	; 0x5c
  10b1d4:	e1a02007 	mov	r2, r7
  10b1d8:	e28d1004 	add	r1, sp, #4
  10b1dc:	e1a00008 	mov	r0, r8
  10b1e0:	eb0001c5 	bl	10b8fc <_wcrtomb_r>
  10b1e4:	e3700001 	cmn	r0, #1
  10b1e8:	e1a06000 	mov	r6, r0
  10b1ec:	0a000021 	beq	10b278 <__fputwc+0xc8>
  10b1f0:	e3500000 	cmp	r0, #0
  10b1f4:	15dd1004 	ldrbne	r1, [sp, #4]
  10b1f8:	0a00002a 	beq	10b2a8 <__fputwc+0xf8>
  10b1fc:	e3a05000 	mov	r5, #0
  10b200:	e28d9004 	add	r9, sp, #4
  10b204:	ea000007 	b	10b228 <__fputwc+0x78>
  10b208:	e5943000 	ldr	r3, [r4]
  10b20c:	e2832001 	add	r2, r3, #1
  10b210:	e5842000 	str	r2, [r4]
  10b214:	e5c31000 	strb	r1, [r3]
  10b218:	e2855001 	add	r5, r5, #1
  10b21c:	e1560005 	cmp	r6, r5
  10b220:	9a000020 	bls	10b2a8 <__fputwc+0xf8>
  10b224:	e7d51009 	ldrb	r1, [r5, r9]
  10b228:	e5943008 	ldr	r3, [r4, #8]
  10b22c:	e2433001 	sub	r3, r3, #1
  10b230:	e3530000 	cmp	r3, #0
  10b234:	e5843008 	str	r3, [r4, #8]
  10b238:	aafffff2 	bge	10b208 <__fputwc+0x58>
  10b23c:	e5942018 	ldr	r2, [r4, #24]
  10b240:	e1530002 	cmp	r3, r2
  10b244:	b3a03000 	movlt	r3, #0
  10b248:	a3a03001 	movge	r3, #1
  10b24c:	e351000a 	cmp	r1, #10
  10b250:	03a03000 	moveq	r3, #0
  10b254:	e3530000 	cmp	r3, #0
  10b258:	1affffea 	bne	10b208 <__fputwc+0x58>
  10b25c:	e1a02004 	mov	r2, r4
  10b260:	e1a00008 	mov	r0, r8
  10b264:	ebfffedf 	bl	10ade8 <__swbuf_r>
  10b268:	e3700001 	cmn	r0, #1
  10b26c:	1affffe9 	bne	10b218 <__fputwc+0x68>
  10b270:	e28dd00c 	add	sp, sp, #12
  10b274:	e8bd83f0 	pop	{r4, r5, r6, r7, r8, r9, pc}
  10b278:	e1d430bc 	ldrh	r3, [r4, #12]
  10b27c:	e3833040 	orr	r3, r3, #64	; 0x40
  10b280:	e1c430bc 	strh	r3, [r4, #12]
  10b284:	e28dd00c 	add	sp, sp, #12
  10b288:	e8bd83f0 	pop	{r4, r5, r6, r7, r8, r9, pc}
  10b28c:	e2473001 	sub	r3, r7, #1
  10b290:	e35300fe 	cmp	r3, #254	; 0xfe
  10b294:	8affffcd 	bhi	10b1d0 <__fputwc+0x20>
  10b298:	e6ef1077 	uxtb	r1, r7
  10b29c:	e1a06000 	mov	r6, r0
  10b2a0:	e5cd1004 	strb	r1, [sp, #4]
  10b2a4:	eaffffd4 	b	10b1fc <__fputwc+0x4c>
  10b2a8:	e1a00007 	mov	r0, r7
  10b2ac:	e28dd00c 	add	sp, sp, #12
  10b2b0:	e8bd83f0 	pop	{r4, r5, r6, r7, r8, r9, pc}

0010b2b4 <_fputwc_r>:
  10b2b4:	e5923064 	ldr	r3, [r2, #100]	; 0x64
  10b2b8:	e92d4030 	push	{r4, r5, lr}
  10b2bc:	e1a04002 	mov	r4, r2
  10b2c0:	e24dd00c 	sub	sp, sp, #12
  10b2c4:	e1a05000 	mov	r5, r0
  10b2c8:	e3130001 	tst	r3, #1
  10b2cc:	e1d230fc 	ldrsh	r3, [r2, #12]
  10b2d0:	e6ff2073 	uxth	r2, r3
  10b2d4:	1a000001 	bne	10b2e0 <_fputwc_r+0x2c>
  10b2d8:	e3120c02 	tst	r2, #512	; 0x200
  10b2dc:	0a000017 	beq	10b340 <_fputwc_r+0x8c>
  10b2e0:	e3120a02 	tst	r2, #8192	; 0x2000
  10b2e4:	e1a00005 	mov	r0, r5
  10b2e8:	05942064 	ldreq	r2, [r4, #100]	; 0x64
  10b2ec:	03833a02 	orreq	r3, r3, #8192	; 0x2000
  10b2f0:	01c430bc 	strheq	r3, [r4, #12]
  10b2f4:	03823a02 	orreq	r3, r2, #8192	; 0x2000
  10b2f8:	e1a02004 	mov	r2, r4
  10b2fc:	05843064 	streq	r3, [r4, #100]	; 0x64
  10b300:	ebffffaa 	bl	10b1b0 <__fputwc>
  10b304:	e5943064 	ldr	r3, [r4, #100]	; 0x64
  10b308:	e1a05000 	mov	r5, r0
  10b30c:	e3130001 	tst	r3, #1
  10b310:	1a000002 	bne	10b320 <_fputwc_r+0x6c>
  10b314:	e1d430bc 	ldrh	r3, [r4, #12]
  10b318:	e3130c02 	tst	r3, #512	; 0x200
  10b31c:	0a000002 	beq	10b32c <_fputwc_r+0x78>
  10b320:	e1a00005 	mov	r0, r5
  10b324:	e28dd00c 	add	sp, sp, #12
  10b328:	e8bd8030 	pop	{r4, r5, pc}
  10b32c:	e2840058 	add	r0, r4, #88	; 0x58
  10b330:	eb0002c9 	bl	10be5c <__generic_gxx_recursive_mutex_unlock>
  10b334:	e1a00005 	mov	r0, r5
  10b338:	e28dd00c 	add	sp, sp, #12
  10b33c:	e8bd8030 	pop	{r4, r5, pc}
  10b340:	e2840058 	add	r0, r4, #88	; 0x58
  10b344:	e58d1004 	str	r1, [sp, #4]
  10b348:	eb0002c5 	bl	10be64 <__generic_gxx_recursive_mutex_lock>
  10b34c:	e1d430fc 	ldrsh	r3, [r4, #12]
  10b350:	e59d1004 	ldr	r1, [sp, #4]
  10b354:	e6ff2073 	uxth	r2, r3
  10b358:	eaffffe0 	b	10b2e0 <_fputwc_r+0x2c>

0010b35c <fputwc>:
  10b35c:	e92d4070 	push	{r4, r5, r6, lr}
  10b360:	e1a05000 	mov	r5, r0
  10b364:	e1a06001 	mov	r6, r1
  10b368:	ebfff283 	bl	107d7c <__getreent>
  10b36c:	e2504000 	subs	r4, r0, #0
  10b370:	0a000003 	beq	10b384 <fputwc+0x28>
  10b374:	e5943038 	ldr	r3, [r4, #56]	; 0x38
  10b378:	e3530000 	cmp	r3, #0
  10b37c:	1a000000 	bne	10b384 <fputwc+0x28>
  10b380:	ebffef8e 	bl	1071c0 <__sinit>
  10b384:	e1a02006 	mov	r2, r6
  10b388:	e1a01005 	mov	r1, r5
  10b38c:	e1a00004 	mov	r0, r4
  10b390:	e8bd4070 	pop	{r4, r5, r6, lr}
  10b394:	eaffffc6 	b	10b2b4 <_fputwc_r>

0010b398 <_fstat_r>:
  10b398:	e92d4070 	push	{r4, r5, r6, lr}
  10b39c:	e1a03001 	mov	r3, r1
  10b3a0:	e3084a1c 	movw	r4, #35356	; 0x8a1c
  10b3a4:	e1a05000 	mov	r5, r0
  10b3a8:	e1a01002 	mov	r1, r2
  10b3ac:	e1a00003 	mov	r0, r3
  10b3b0:	e3404011 	movt	r4, #17
  10b3b4:	e3a03000 	mov	r3, #0
  10b3b8:	e5843000 	str	r3, [r4]
  10b3bc:	ebffd6ad 	bl	100e78 <_fstat>
  10b3c0:	e3700001 	cmn	r0, #1
  10b3c4:	18bd8070 	popne	{r4, r5, r6, pc}
  10b3c8:	e5943000 	ldr	r3, [r4]
  10b3cc:	e3530000 	cmp	r3, #0
  10b3d0:	15853000 	strne	r3, [r5]
  10b3d4:	e8bd8070 	pop	{r4, r5, r6, pc}

0010b3d8 <_isatty_r>:
  10b3d8:	e92d4070 	push	{r4, r5, r6, lr}
  10b3dc:	e3084a1c 	movw	r4, #35356	; 0x8a1c
  10b3e0:	e3a03000 	mov	r3, #0
  10b3e4:	e1a05000 	mov	r5, r0
  10b3e8:	e3404011 	movt	r4, #17
  10b3ec:	e1a00001 	mov	r0, r1
  10b3f0:	e5843000 	str	r3, [r4]
  10b3f4:	ebffd6ae 	bl	100eb4 <_isatty>
  10b3f8:	e3700001 	cmn	r0, #1
  10b3fc:	18bd8070 	popne	{r4, r5, r6, pc}
  10b400:	e5943000 	ldr	r3, [r4]
  10b404:	e3530000 	cmp	r3, #0
  10b408:	15853000 	strne	r3, [r5]
  10b40c:	e8bd8070 	pop	{r4, r5, r6, pc}

0010b410 <__get_current_locale>:
  10b410:	e92d4010 	push	{r4, lr}
  10b414:	ebfff258 	bl	107d7c <__getreent>
  10b418:	e3083840 	movw	r3, #34880	; 0x8840
  10b41c:	e5900034 	ldr	r0, [r0, #52]	; 0x34
  10b420:	e3403011 	movt	r3, #17
  10b424:	e3500000 	cmp	r0, #0
  10b428:	01a00003 	moveq	r0, r3
  10b42c:	e8bd8010 	pop	{r4, pc}

0010b430 <_setlocale_r>:
  10b430:	e92d4010 	push	{r4, lr}
  10b434:	e2524000 	subs	r4, r2, #0
  10b438:	0a000005 	beq	10b454 <_setlocale_r+0x24>
  10b43c:	e30c19c4 	movw	r1, #51652	; 0xc9c4
  10b440:	e1a00004 	mov	r0, r4
  10b444:	e3401010 	movt	r1, #16
  10b448:	fa000076 	blx	10b628 <strcmp>
  10b44c:	e3500000 	cmp	r0, #0
  10b450:	1a000002 	bne	10b460 <_setlocale_r+0x30>
  10b454:	e30c09c0 	movw	r0, #51648	; 0xc9c0
  10b458:	e3400010 	movt	r0, #16
  10b45c:	e8bd8010 	pop	{r4, pc}
  10b460:	e30c19c0 	movw	r1, #51648	; 0xc9c0
  10b464:	e1a00004 	mov	r0, r4
  10b468:	e3401010 	movt	r1, #16
  10b46c:	fa00006d 	blx	10b628 <strcmp>
  10b470:	e3500000 	cmp	r0, #0
  10b474:	0afffff6 	beq	10b454 <_setlocale_r+0x24>
  10b478:	e30c183c 	movw	r1, #51260	; 0xc83c
  10b47c:	e1a00004 	mov	r0, r4
  10b480:	e3401010 	movt	r1, #16
  10b484:	fa000067 	blx	10b628 <strcmp>
  10b488:	e3500000 	cmp	r0, #0
  10b48c:	0afffff0 	beq	10b454 <_setlocale_r+0x24>
  10b490:	e3a00000 	mov	r0, #0
  10b494:	e8bd8010 	pop	{r4, pc}

0010b498 <__locale_mb_cur_max>:
  10b498:	e92d4010 	push	{r4, lr}
  10b49c:	ebfff236 	bl	107d7c <__getreent>
  10b4a0:	e3082840 	movw	r2, #34880	; 0x8840
  10b4a4:	e5903034 	ldr	r3, [r0, #52]	; 0x34
  10b4a8:	e3402011 	movt	r2, #17
  10b4ac:	e3530000 	cmp	r3, #0
  10b4b0:	01a03002 	moveq	r3, r2
  10b4b4:	e5d30128 	ldrb	r0, [r3, #296]	; 0x128
  10b4b8:	e8bd8010 	pop	{r4, pc}

0010b4bc <__locale_ctype_ptr_l>:
  10b4bc:	e59000ec 	ldr	r0, [r0, #236]	; 0xec
  10b4c0:	e12fff1e 	bx	lr

0010b4c4 <__locale_ctype_ptr>:
  10b4c4:	e92d4010 	push	{r4, lr}
  10b4c8:	ebfff22b 	bl	107d7c <__getreent>
  10b4cc:	ebffffcf 	bl	10b410 <__get_current_locale>
  10b4d0:	e59000ec 	ldr	r0, [r0, #236]	; 0xec
  10b4d4:	e8bd8010 	pop	{r4, pc}

0010b4d8 <setlocale>:
  10b4d8:	e92d4070 	push	{r4, r5, r6, lr}
  10b4dc:	e1a05001 	mov	r5, r1
  10b4e0:	e1a04000 	mov	r4, r0
  10b4e4:	ebfff224 	bl	107d7c <__getreent>
  10b4e8:	e1a02005 	mov	r2, r5
  10b4ec:	e1a01004 	mov	r1, r4
  10b4f0:	e8bd4070 	pop	{r4, r5, r6, lr}
  10b4f4:	eaffffcd 	b	10b430 <_setlocale_r>

0010b4f8 <_lseek_r>:
  10b4f8:	e92d4070 	push	{r4, r5, r6, lr}
  10b4fc:	e1a0c001 	mov	ip, r1
  10b500:	e3084a1c 	movw	r4, #35356	; 0x8a1c
  10b504:	e1a01002 	mov	r1, r2
  10b508:	e1a05000 	mov	r5, r0
  10b50c:	e1a02003 	mov	r2, r3
  10b510:	e1a0000c 	mov	r0, ip
  10b514:	e3a03000 	mov	r3, #0
  10b518:	e3404011 	movt	r4, #17
  10b51c:	e5843000 	str	r3, [r4]
  10b520:	ebffd671 	bl	100eec <_lseek>
  10b524:	e3700001 	cmn	r0, #1
  10b528:	18bd8070 	popne	{r4, r5, r6, pc}
  10b52c:	e5943000 	ldr	r3, [r4]
  10b530:	e3530000 	cmp	r3, #0
  10b534:	15853000 	strne	r3, [r5]
  10b538:	e8bd8070 	pop	{r4, r5, r6, pc}

0010b53c <_mbtowc_r>:
  10b53c:	e92d41f0 	push	{r4, r5, r6, r7, r8, lr}
  10b540:	e1a04000 	mov	r4, r0
  10b544:	e1a05001 	mov	r5, r1
  10b548:	e1a06002 	mov	r6, r2
  10b54c:	e1a07003 	mov	r7, r3
  10b550:	e59d8018 	ldr	r8, [sp, #24]
  10b554:	ebfff208 	bl	107d7c <__getreent>
  10b558:	e590c034 	ldr	ip, [r0, #52]	; 0x34
  10b55c:	e3080840 	movw	r0, #34880	; 0x8840
  10b560:	e3400011 	movt	r0, #17
  10b564:	e58d8018 	str	r8, [sp, #24]
  10b568:	e1a03007 	mov	r3, r7
  10b56c:	e1a02006 	mov	r2, r6
  10b570:	e35c0000 	cmp	ip, #0
  10b574:	e1a01005 	mov	r1, r5
  10b578:	01a0c000 	moveq	ip, r0
  10b57c:	e1a00004 	mov	r0, r4
  10b580:	e59ce0e4 	ldr	lr, [ip, #228]	; 0xe4
  10b584:	e1a0c00e 	mov	ip, lr
  10b588:	e8bd41f0 	pop	{r4, r5, r6, r7, r8, lr}
  10b58c:	e12fff1c 	bx	ip

0010b590 <__ascii_mbtowc>:
  10b590:	e3510000 	cmp	r1, #0
  10b594:	e24dd008 	sub	sp, sp, #8
  10b598:	028d1004 	addeq	r1, sp, #4
  10b59c:	e3520000 	cmp	r2, #0
  10b5a0:	0a000008 	beq	10b5c8 <__ascii_mbtowc+0x38>
  10b5a4:	e3530000 	cmp	r3, #0
  10b5a8:	0a000009 	beq	10b5d4 <__ascii_mbtowc+0x44>
  10b5ac:	e5d23000 	ldrb	r3, [r2]
  10b5b0:	e5813000 	str	r3, [r1]
  10b5b4:	e5d22000 	ldrb	r2, [r2]
  10b5b8:	e2920000 	adds	r0, r2, #0
  10b5bc:	13a00001 	movne	r0, #1
  10b5c0:	e28dd008 	add	sp, sp, #8
  10b5c4:	e12fff1e 	bx	lr
  10b5c8:	e1a00002 	mov	r0, r2
  10b5cc:	e28dd008 	add	sp, sp, #8
  10b5d0:	e12fff1e 	bx	lr
  10b5d4:	e3e00001 	mvn	r0, #1
  10b5d8:	eafffff8 	b	10b5c0 <__ascii_mbtowc+0x30>

0010b5dc <_read_r>:
  10b5dc:	e92d4070 	push	{r4, r5, r6, lr}
  10b5e0:	e1a0c001 	mov	ip, r1
  10b5e4:	e3084a1c 	movw	r4, #35356	; 0x8a1c
  10b5e8:	e1a01002 	mov	r1, r2
  10b5ec:	e1a05000 	mov	r5, r0
  10b5f0:	e1a02003 	mov	r2, r3
  10b5f4:	e1a0000c 	mov	r0, ip
  10b5f8:	e3a03000 	mov	r3, #0
  10b5fc:	e3404011 	movt	r4, #17
  10b600:	e5843000 	str	r3, [r4]
  10b604:	ebffd648 	bl	100f2c <_read>
  10b608:	e3700001 	cmn	r0, #1
  10b60c:	18bd8070 	popne	{r4, r5, r6, pc}
  10b610:	e5943000 	ldr	r3, [r4]
  10b614:	e3530000 	cmp	r3, #0
  10b618:	15853000 	strne	r3, [r5]
  10b61c:	e8bd8070 	pop	{r4, r5, r6, pc}
  10b620:	eba2 0003 	sub.w	r0, r2, r3
  10b624:	4770      	bx	lr
  10b626:	bf00      	nop

0010b628 <strcmp>:
  10b628:	7802      	ldrb	r2, [r0, #0]
  10b62a:	780b      	ldrb	r3, [r1, #0]
  10b62c:	2a01      	cmp	r2, #1
  10b62e:	bf28      	it	cs
  10b630:	429a      	cmpcs	r2, r3
  10b632:	d1f5      	bne.n	10b620 <_read_r+0x44>
  10b634:	e96d 4504 	strd	r4, r5, [sp, #-16]!
  10b638:	ea40 0401 	orr.w	r4, r0, r1
  10b63c:	e9cd 6702 	strd	r6, r7, [sp, #8]
  10b640:	f06f 0c00 	mvn.w	ip, #0
  10b644:	ea4f 7244 	mov.w	r2, r4, lsl #29
  10b648:	b312      	cbz	r2, 10b690 <strcmp+0x68>
  10b64a:	ea80 0401 	eor.w	r4, r0, r1
  10b64e:	f014 0f07 	tst.w	r4, #7
  10b652:	d16a      	bne.n	10b72a <strcmp+0x102>
  10b654:	f000 0407 	and.w	r4, r0, #7
  10b658:	f020 0007 	bic.w	r0, r0, #7
  10b65c:	f004 0503 	and.w	r5, r4, #3
  10b660:	f021 0107 	bic.w	r1, r1, #7
  10b664:	ea4f 05c5 	mov.w	r5, r5, lsl #3
  10b668:	e8f0 2304 	ldrd	r2, r3, [r0], #16
  10b66c:	f014 0f04 	tst.w	r4, #4
  10b670:	e8f1 6704 	ldrd	r6, r7, [r1], #16
  10b674:	fa0c f405 	lsl.w	r4, ip, r5
  10b678:	ea62 0204 	orn	r2, r2, r4
  10b67c:	ea66 0604 	orn	r6, r6, r4
  10b680:	d00a      	beq.n	10b698 <strcmp+0x70>
  10b682:	ea63 0304 	orn	r3, r3, r4
  10b686:	4662      	mov	r2, ip
  10b688:	ea67 0704 	orn	r7, r7, r4
  10b68c:	4666      	mov	r6, ip
  10b68e:	e003      	b.n	10b698 <strcmp+0x70>
  10b690:	e8f0 2304 	ldrd	r2, r3, [r0], #16
  10b694:	e8f1 6704 	ldrd	r6, r7, [r1], #16
  10b698:	fa82 f54c 	uadd8	r5, r2, ip
  10b69c:	ea82 0406 	eor.w	r4, r2, r6
  10b6a0:	faa4 f48c 	sel	r4, r4, ip
  10b6a4:	bb6c      	cbnz	r4, 10b702 <strcmp+0xda>
  10b6a6:	fa83 f54c 	uadd8	r5, r3, ip
  10b6aa:	ea83 0507 	eor.w	r5, r3, r7
  10b6ae:	faa5 f58c 	sel	r5, r5, ip
  10b6b2:	b995      	cbnz	r5, 10b6da <strcmp+0xb2>
  10b6b4:	e950 2302 	ldrd	r2, r3, [r0, #-8]
  10b6b8:	e951 6702 	ldrd	r6, r7, [r1, #-8]
  10b6bc:	fa82 f54c 	uadd8	r5, r2, ip
  10b6c0:	ea82 0406 	eor.w	r4, r2, r6
  10b6c4:	faa4 f48c 	sel	r4, r4, ip
  10b6c8:	fa83 f54c 	uadd8	r5, r3, ip
  10b6cc:	ea83 0507 	eor.w	r5, r3, r7
  10b6d0:	faa5 f58c 	sel	r5, r5, ip
  10b6d4:	4325      	orrs	r5, r4
  10b6d6:	d0db      	beq.n	10b690 <strcmp+0x68>
  10b6d8:	b99c      	cbnz	r4, 10b702 <strcmp+0xda>
  10b6da:	ba2d      	rev	r5, r5
  10b6dc:	fab5 f485 	clz	r4, r5
  10b6e0:	f024 0407 	bic.w	r4, r4, #7
  10b6e4:	fa27 f104 	lsr.w	r1, r7, r4
  10b6e8:	e9dd 6702 	ldrd	r6, r7, [sp, #8]
  10b6ec:	fa23 f304 	lsr.w	r3, r3, r4
  10b6f0:	f003 00ff 	and.w	r0, r3, #255	; 0xff
  10b6f4:	f001 01ff 	and.w	r1, r1, #255	; 0xff
  10b6f8:	e8fd 4504 	ldrd	r4, r5, [sp], #16
  10b6fc:	eba0 0001 	sub.w	r0, r0, r1
  10b700:	4770      	bx	lr
  10b702:	ba24      	rev	r4, r4
  10b704:	fab4 f484 	clz	r4, r4
  10b708:	f024 0407 	bic.w	r4, r4, #7
  10b70c:	fa26 f104 	lsr.w	r1, r6, r4
  10b710:	e9dd 6702 	ldrd	r6, r7, [sp, #8]
  10b714:	fa22 f204 	lsr.w	r2, r2, r4
  10b718:	f002 00ff 	and.w	r0, r2, #255	; 0xff
  10b71c:	f001 01ff 	and.w	r1, r1, #255	; 0xff
  10b720:	e8fd 4504 	ldrd	r4, r5, [sp], #16
  10b724:	eba0 0001 	sub.w	r0, r0, r1
  10b728:	4770      	bx	lr
  10b72a:	f014 0f03 	tst.w	r4, #3
  10b72e:	d13c      	bne.n	10b7aa <strcmp+0x182>
  10b730:	f010 0403 	ands.w	r4, r0, #3
  10b734:	d128      	bne.n	10b788 <strcmp+0x160>
  10b736:	f850 2b08 	ldr.w	r2, [r0], #8
  10b73a:	f851 3b08 	ldr.w	r3, [r1], #8
  10b73e:	fa82 f54c 	uadd8	r5, r2, ip
  10b742:	ea82 0503 	eor.w	r5, r2, r3
  10b746:	faa5 f58c 	sel	r5, r5, ip
  10b74a:	b95d      	cbnz	r5, 10b764 <strcmp+0x13c>
  10b74c:	f850 2c04 	ldr.w	r2, [r0, #-4]
  10b750:	f851 3c04 	ldr.w	r3, [r1, #-4]
  10b754:	fa82 f54c 	uadd8	r5, r2, ip
  10b758:	ea82 0503 	eor.w	r5, r2, r3
  10b75c:	faa5 f58c 	sel	r5, r5, ip
  10b760:	2d00      	cmp	r5, #0
  10b762:	d0e8      	beq.n	10b736 <strcmp+0x10e>
  10b764:	ba2d      	rev	r5, r5
  10b766:	fab5 f485 	clz	r4, r5
  10b76a:	f024 0407 	bic.w	r4, r4, #7
  10b76e:	fa23 f104 	lsr.w	r1, r3, r4
  10b772:	fa22 f204 	lsr.w	r2, r2, r4
  10b776:	f002 00ff 	and.w	r0, r2, #255	; 0xff
  10b77a:	f001 01ff 	and.w	r1, r1, #255	; 0xff
  10b77e:	e8fd 4504 	ldrd	r4, r5, [sp], #16
  10b782:	eba0 0001 	sub.w	r0, r0, r1
  10b786:	4770      	bx	lr
  10b788:	ea4f 04c4 	mov.w	r4, r4, lsl #3
  10b78c:	f020 0003 	bic.w	r0, r0, #3
  10b790:	f850 2b08 	ldr.w	r2, [r0], #8
  10b794:	f021 0103 	bic.w	r1, r1, #3
  10b798:	f851 3b08 	ldr.w	r3, [r1], #8
  10b79c:	fa0c f404 	lsl.w	r4, ip, r4
  10b7a0:	ea62 0204 	orn	r2, r2, r4
  10b7a4:	ea63 0304 	orn	r3, r3, r4
  10b7a8:	e7c9      	b.n	10b73e <strcmp+0x116>
  10b7aa:	f010 0403 	ands.w	r4, r0, #3
  10b7ae:	d01a      	beq.n	10b7e6 <strcmp+0x1be>
  10b7b0:	eba1 0104 	sub.w	r1, r1, r4
  10b7b4:	f020 0003 	bic.w	r0, r0, #3
  10b7b8:	07e4      	lsls	r4, r4, #31
  10b7ba:	f850 2b04 	ldr.w	r2, [r0], #4
  10b7be:	d006      	beq.n	10b7ce <strcmp+0x1a6>
  10b7c0:	d20f      	bcs.n	10b7e2 <strcmp+0x1ba>
  10b7c2:	788b      	ldrb	r3, [r1, #2]
  10b7c4:	fa5f f4a2 	uxtb.w	r4, r2, ror #16
  10b7c8:	1ae4      	subs	r4, r4, r3
  10b7ca:	d106      	bne.n	10b7da <strcmp+0x1b2>
  10b7cc:	b12b      	cbz	r3, 10b7da <strcmp+0x1b2>
  10b7ce:	78cb      	ldrb	r3, [r1, #3]
  10b7d0:	fa5f f4b2 	uxtb.w	r4, r2, ror #24
  10b7d4:	1ae4      	subs	r4, r4, r3
  10b7d6:	d100      	bne.n	10b7da <strcmp+0x1b2>
  10b7d8:	b91b      	cbnz	r3, 10b7e2 <strcmp+0x1ba>
  10b7da:	4620      	mov	r0, r4
  10b7dc:	f85d 4b10 	ldr.w	r4, [sp], #16
  10b7e0:	4770      	bx	lr
  10b7e2:	f101 0104 	add.w	r1, r1, #4
  10b7e6:	f850 2b04 	ldr.w	r2, [r0], #4
  10b7ea:	07cc      	lsls	r4, r1, #31
  10b7ec:	f021 0103 	bic.w	r1, r1, #3
  10b7f0:	f851 3b04 	ldr.w	r3, [r1], #4
  10b7f4:	d848      	bhi.n	10b888 <strcmp+0x260>
  10b7f6:	d224      	bcs.n	10b842 <strcmp+0x21a>
  10b7f8:	f022 447f 	bic.w	r4, r2, #4278190080	; 0xff000000
  10b7fc:	fa82 f54c 	uadd8	r5, r2, ip
  10b800:	ea94 2513 	eors.w	r5, r4, r3, lsr #8
  10b804:	faa5 f58c 	sel	r5, r5, ip
  10b808:	d10a      	bne.n	10b820 <strcmp+0x1f8>
  10b80a:	b965      	cbnz	r5, 10b826 <strcmp+0x1fe>
  10b80c:	f851 3b04 	ldr.w	r3, [r1], #4
  10b810:	ea84 0402 	eor.w	r4, r4, r2
  10b814:	ebb4 6f03 	cmp.w	r4, r3, lsl #24
  10b818:	d10e      	bne.n	10b838 <strcmp+0x210>
  10b81a:	f850 2b04 	ldr.w	r2, [r0], #4
  10b81e:	e7eb      	b.n	10b7f8 <strcmp+0x1d0>
  10b820:	ea4f 2313 	mov.w	r3, r3, lsr #8
  10b824:	e055      	b.n	10b8d2 <strcmp+0x2aa>
  10b826:	f035 457f 	bics.w	r5, r5, #4278190080	; 0xff000000
  10b82a:	d14d      	bne.n	10b8c8 <strcmp+0x2a0>
  10b82c:	7808      	ldrb	r0, [r1, #0]
  10b82e:	e8fd 4504 	ldrd	r4, r5, [sp], #16
  10b832:	f1c0 0000 	rsb	r0, r0, #0
  10b836:	4770      	bx	lr
  10b838:	ea4f 6212 	mov.w	r2, r2, lsr #24
  10b83c:	f003 03ff 	and.w	r3, r3, #255	; 0xff
  10b840:	e047      	b.n	10b8d2 <strcmp+0x2aa>
  10b842:	ea02 441c 	and.w	r4, r2, ip, lsr #16
  10b846:	fa82 f54c 	uadd8	r5, r2, ip
  10b84a:	ea94 4513 	eors.w	r5, r4, r3, lsr #16
  10b84e:	faa5 f58c 	sel	r5, r5, ip
  10b852:	d10a      	bne.n	10b86a <strcmp+0x242>
  10b854:	b965      	cbnz	r5, 10b870 <strcmp+0x248>
  10b856:	f851 3b04 	ldr.w	r3, [r1], #4
  10b85a:	ea84 0402 	eor.w	r4, r4, r2
  10b85e:	ebb4 4f03 	cmp.w	r4, r3, lsl #16
  10b862:	d10c      	bne.n	10b87e <strcmp+0x256>
  10b864:	f850 2b04 	ldr.w	r2, [r0], #4
  10b868:	e7eb      	b.n	10b842 <strcmp+0x21a>
  10b86a:	ea4f 4313 	mov.w	r3, r3, lsr #16
  10b86e:	e030      	b.n	10b8d2 <strcmp+0x2aa>
  10b870:	ea15 451c 	ands.w	r5, r5, ip, lsr #16
  10b874:	d128      	bne.n	10b8c8 <strcmp+0x2a0>
  10b876:	880b      	ldrh	r3, [r1, #0]
  10b878:	ea4f 4212 	mov.w	r2, r2, lsr #16
  10b87c:	e029      	b.n	10b8d2 <strcmp+0x2aa>
  10b87e:	ea4f 4212 	mov.w	r2, r2, lsr #16
  10b882:	ea03 431c 	and.w	r3, r3, ip, lsr #16
  10b886:	e024      	b.n	10b8d2 <strcmp+0x2aa>
  10b888:	f002 04ff 	and.w	r4, r2, #255	; 0xff
  10b88c:	fa82 f54c 	uadd8	r5, r2, ip
  10b890:	ea94 6513 	eors.w	r5, r4, r3, lsr #24
  10b894:	faa5 f58c 	sel	r5, r5, ip
  10b898:	d10a      	bne.n	10b8b0 <strcmp+0x288>
  10b89a:	b965      	cbnz	r5, 10b8b6 <strcmp+0x28e>
  10b89c:	f851 3b04 	ldr.w	r3, [r1], #4
  10b8a0:	ea84 0402 	eor.w	r4, r4, r2
  10b8a4:	ebb4 2f03 	cmp.w	r4, r3, lsl #8
  10b8a8:	d109      	bne.n	10b8be <strcmp+0x296>
  10b8aa:	f850 2b04 	ldr.w	r2, [r0], #4
  10b8ae:	e7eb      	b.n	10b888 <strcmp+0x260>
  10b8b0:	ea4f 6313 	mov.w	r3, r3, lsr #24
  10b8b4:	e00d      	b.n	10b8d2 <strcmp+0x2aa>
  10b8b6:	f015 0fff 	tst.w	r5, #255	; 0xff
  10b8ba:	d105      	bne.n	10b8c8 <strcmp+0x2a0>
  10b8bc:	680b      	ldr	r3, [r1, #0]
  10b8be:	ea4f 2212 	mov.w	r2, r2, lsr #8
  10b8c2:	f023 437f 	bic.w	r3, r3, #4278190080	; 0xff000000
  10b8c6:	e004      	b.n	10b8d2 <strcmp+0x2aa>
  10b8c8:	f04f 0000 	mov.w	r0, #0
  10b8cc:	e8fd 4504 	ldrd	r4, r5, [sp], #16
  10b8d0:	4770      	bx	lr
  10b8d2:	ba12      	rev	r2, r2
  10b8d4:	ba1b      	rev	r3, r3
  10b8d6:	fa82 f44c 	uadd8	r4, r2, ip
  10b8da:	ea82 0403 	eor.w	r4, r2, r3
  10b8de:	faa4 f58c 	sel	r5, r4, ip
  10b8e2:	fab5 f485 	clz	r4, r5
  10b8e6:	fa02 f204 	lsl.w	r2, r2, r4
  10b8ea:	fa03 f304 	lsl.w	r3, r3, r4
  10b8ee:	ea4f 6012 	mov.w	r0, r2, lsr #24
  10b8f2:	e8fd 4504 	ldrd	r4, r5, [sp], #16
  10b8f6:	eba0 6013 	sub.w	r0, r0, r3, lsr #24
  10b8fa:	4770      	bx	lr

0010b8fc <_wcrtomb_r>:
  10b8fc:	e92d40f0 	push	{r4, r5, r6, r7, lr}
  10b900:	e2516000 	subs	r6, r1, #0
  10b904:	e24dd014 	sub	sp, sp, #20
  10b908:	e1a04000 	mov	r4, r0
  10b90c:	e1a05003 	mov	r5, r3
  10b910:	0a000013 	beq	10b964 <_wcrtomb_r+0x68>
  10b914:	e1a07002 	mov	r7, r2
  10b918:	ebfff117 	bl	107d7c <__getreent>
  10b91c:	e590c034 	ldr	ip, [r0, #52]	; 0x34
  10b920:	e3080840 	movw	r0, #34880	; 0x8840
  10b924:	e3400011 	movt	r0, #17
  10b928:	e1a02007 	mov	r2, r7
  10b92c:	e1a01006 	mov	r1, r6
  10b930:	e1a03005 	mov	r3, r5
  10b934:	e35c0000 	cmp	ip, #0
  10b938:	01a0c000 	moveq	ip, r0
  10b93c:	e1a00004 	mov	r0, r4
  10b940:	e59c60e0 	ldr	r6, [ip, #224]	; 0xe0
  10b944:	e12fff36 	blx	r6
  10b948:	e3700001 	cmn	r0, #1
  10b94c:	03a02000 	moveq	r2, #0
  10b950:	03a0308a 	moveq	r3, #138	; 0x8a
  10b954:	05852000 	streq	r2, [r5]
  10b958:	05843000 	streq	r3, [r4]
  10b95c:	e28dd014 	add	sp, sp, #20
  10b960:	e8bd80f0 	pop	{r4, r5, r6, r7, pc}
  10b964:	ebfff104 	bl	107d7c <__getreent>
  10b968:	e590c034 	ldr	ip, [r0, #52]	; 0x34
  10b96c:	e3080840 	movw	r0, #34880	; 0x8840
  10b970:	e3400011 	movt	r0, #17
  10b974:	e1a02006 	mov	r2, r6
  10b978:	e1a03005 	mov	r3, r5
  10b97c:	e28d1004 	add	r1, sp, #4
  10b980:	eaffffeb 	b	10b934 <_wcrtomb_r+0x38>

0010b984 <wcrtomb>:
  10b984:	e92d40f0 	push	{r4, r5, r6, r7, lr}
  10b988:	e1a04000 	mov	r4, r0
  10b98c:	e24dd014 	sub	sp, sp, #20
  10b990:	e1a07001 	mov	r7, r1
  10b994:	e1a06002 	mov	r6, r2
  10b998:	ebfff0f7 	bl	107d7c <__getreent>
  10b99c:	e3540000 	cmp	r4, #0
  10b9a0:	e1a05000 	mov	r5, r0
  10b9a4:	0a000012 	beq	10b9f4 <wcrtomb+0x70>
  10b9a8:	ebfff0f3 	bl	107d7c <__getreent>
  10b9ac:	e590c034 	ldr	ip, [r0, #52]	; 0x34
  10b9b0:	e3080840 	movw	r0, #34880	; 0x8840
  10b9b4:	e3400011 	movt	r0, #17
  10b9b8:	e1a02007 	mov	r2, r7
  10b9bc:	e1a01004 	mov	r1, r4
  10b9c0:	e1a03006 	mov	r3, r6
  10b9c4:	e35c0000 	cmp	ip, #0
  10b9c8:	01a0c000 	moveq	ip, r0
  10b9cc:	e1a00005 	mov	r0, r5
  10b9d0:	e59c40e0 	ldr	r4, [ip, #224]	; 0xe0
  10b9d4:	e12fff34 	blx	r4
  10b9d8:	e3700001 	cmn	r0, #1
  10b9dc:	03a02000 	moveq	r2, #0
  10b9e0:	03a0308a 	moveq	r3, #138	; 0x8a
  10b9e4:	05862000 	streq	r2, [r6]
  10b9e8:	05853000 	streq	r3, [r5]
  10b9ec:	e28dd014 	add	sp, sp, #20
  10b9f0:	e8bd80f0 	pop	{r4, r5, r6, r7, pc}
  10b9f4:	ebfff0e0 	bl	107d7c <__getreent>
  10b9f8:	e590c034 	ldr	ip, [r0, #52]	; 0x34
  10b9fc:	e3080840 	movw	r0, #34880	; 0x8840
  10ba00:	e3400011 	movt	r0, #17
  10ba04:	e1a02004 	mov	r2, r4
  10ba08:	e1a03006 	mov	r3, r6
  10ba0c:	e28d1004 	add	r1, sp, #4
  10ba10:	eaffffeb 	b	10b9c4 <wcrtomb+0x40>

0010ba14 <_wctomb_r>:
  10ba14:	e92d41f0 	push	{r4, r5, r6, r7, r8, lr}
  10ba18:	e1a04000 	mov	r4, r0
  10ba1c:	e1a05001 	mov	r5, r1
  10ba20:	e1a06002 	mov	r6, r2
  10ba24:	e1a07003 	mov	r7, r3
  10ba28:	ebfff0d3 	bl	107d7c <__getreent>
  10ba2c:	e590c034 	ldr	ip, [r0, #52]	; 0x34
  10ba30:	e3080840 	movw	r0, #34880	; 0x8840
  10ba34:	e3400011 	movt	r0, #17
  10ba38:	e1a03007 	mov	r3, r7
  10ba3c:	e1a02006 	mov	r2, r6
  10ba40:	e1a01005 	mov	r1, r5
  10ba44:	e35c0000 	cmp	ip, #0
  10ba48:	01a0c000 	moveq	ip, r0
  10ba4c:	e1a00004 	mov	r0, r4
  10ba50:	e59ce0e0 	ldr	lr, [ip, #224]	; 0xe0
  10ba54:	e1a0c00e 	mov	ip, lr
  10ba58:	e8bd41f0 	pop	{r4, r5, r6, r7, r8, lr}
  10ba5c:	e12fff1c 	bx	ip

0010ba60 <__ascii_wctomb>:
  10ba60:	e3510000 	cmp	r1, #0
  10ba64:	0a000005 	beq	10ba80 <__ascii_wctomb+0x20>
  10ba68:	e35200ff 	cmp	r2, #255	; 0xff
  10ba6c:	95c12000 	strbls	r2, [r1]
  10ba70:	83e01000 	mvnhi	r1, #0
  10ba74:	93a01001 	movls	r1, #1
  10ba78:	83a0308a 	movhi	r3, #138	; 0x8a
  10ba7c:	85803000 	strhi	r3, [r0]
  10ba80:	e1a00001 	mov	r0, r1
  10ba84:	e12fff1e 	bx	lr

0010ba88 <__aeabi_idiv>:
  10ba88:	e3510000 	cmp	r1, #0
  10ba8c:	0a000081 	beq	10bc98 <.divsi3_skip_div0_test+0x208>

0010ba90 <.divsi3_skip_div0_test>:
  10ba90:	e020c001 	eor	ip, r0, r1
  10ba94:	42611000 	rsbmi	r1, r1, #0
  10ba98:	e2512001 	subs	r2, r1, #1
  10ba9c:	0a000070 	beq	10bc64 <.divsi3_skip_div0_test+0x1d4>
  10baa0:	e1b03000 	movs	r3, r0
  10baa4:	42603000 	rsbmi	r3, r0, #0
  10baa8:	e1530001 	cmp	r3, r1
  10baac:	9a00006f 	bls	10bc70 <.divsi3_skip_div0_test+0x1e0>
  10bab0:	e1110002 	tst	r1, r2
  10bab4:	0a000071 	beq	10bc80 <.divsi3_skip_div0_test+0x1f0>
  10bab8:	e16f2f13 	clz	r2, r3
  10babc:	e16f0f11 	clz	r0, r1
  10bac0:	e0402002 	sub	r2, r0, r2
  10bac4:	e272201f 	rsbs	r2, r2, #31
  10bac8:	10822082 	addne	r2, r2, r2, lsl #1
  10bacc:	e3a00000 	mov	r0, #0
  10bad0:	108ff102 	addne	pc, pc, r2, lsl #2
  10bad4:	e320f000 	nop	{0}
  10bad8:	e1530f81 	cmp	r3, r1, lsl #31
  10badc:	e0a00000 	adc	r0, r0, r0
  10bae0:	20433f81 	subcs	r3, r3, r1, lsl #31
  10bae4:	e1530f01 	cmp	r3, r1, lsl #30
  10bae8:	e0a00000 	adc	r0, r0, r0
  10baec:	20433f01 	subcs	r3, r3, r1, lsl #30
  10baf0:	e1530e81 	cmp	r3, r1, lsl #29
  10baf4:	e0a00000 	adc	r0, r0, r0
  10baf8:	20433e81 	subcs	r3, r3, r1, lsl #29
  10bafc:	e1530e01 	cmp	r3, r1, lsl #28
  10bb00:	e0a00000 	adc	r0, r0, r0
  10bb04:	20433e01 	subcs	r3, r3, r1, lsl #28
  10bb08:	e1530d81 	cmp	r3, r1, lsl #27
  10bb0c:	e0a00000 	adc	r0, r0, r0
  10bb10:	20433d81 	subcs	r3, r3, r1, lsl #27
  10bb14:	e1530d01 	cmp	r3, r1, lsl #26
  10bb18:	e0a00000 	adc	r0, r0, r0
  10bb1c:	20433d01 	subcs	r3, r3, r1, lsl #26
  10bb20:	e1530c81 	cmp	r3, r1, lsl #25
  10bb24:	e0a00000 	adc	r0, r0, r0
  10bb28:	20433c81 	subcs	r3, r3, r1, lsl #25
  10bb2c:	e1530c01 	cmp	r3, r1, lsl #24
  10bb30:	e0a00000 	adc	r0, r0, r0
  10bb34:	20433c01 	subcs	r3, r3, r1, lsl #24
  10bb38:	e1530b81 	cmp	r3, r1, lsl #23
  10bb3c:	e0a00000 	adc	r0, r0, r0
  10bb40:	20433b81 	subcs	r3, r3, r1, lsl #23
  10bb44:	e1530b01 	cmp	r3, r1, lsl #22
  10bb48:	e0a00000 	adc	r0, r0, r0
  10bb4c:	20433b01 	subcs	r3, r3, r1, lsl #22
  10bb50:	e1530a81 	cmp	r3, r1, lsl #21
  10bb54:	e0a00000 	adc	r0, r0, r0
  10bb58:	20433a81 	subcs	r3, r3, r1, lsl #21
  10bb5c:	e1530a01 	cmp	r3, r1, lsl #20
  10bb60:	e0a00000 	adc	r0, r0, r0
  10bb64:	20433a01 	subcs	r3, r3, r1, lsl #20
  10bb68:	e1530981 	cmp	r3, r1, lsl #19
  10bb6c:	e0a00000 	adc	r0, r0, r0
  10bb70:	20433981 	subcs	r3, r3, r1, lsl #19
  10bb74:	e1530901 	cmp	r3, r1, lsl #18
  10bb78:	e0a00000 	adc	r0, r0, r0
  10bb7c:	20433901 	subcs	r3, r3, r1, lsl #18
  10bb80:	e1530881 	cmp	r3, r1, lsl #17
  10bb84:	e0a00000 	adc	r0, r0, r0
  10bb88:	20433881 	subcs	r3, r3, r1, lsl #17
  10bb8c:	e1530801 	cmp	r3, r1, lsl #16
  10bb90:	e0a00000 	adc	r0, r0, r0
  10bb94:	20433801 	subcs	r3, r3, r1, lsl #16
  10bb98:	e1530781 	cmp	r3, r1, lsl #15
  10bb9c:	e0a00000 	adc	r0, r0, r0
  10bba0:	20433781 	subcs	r3, r3, r1, lsl #15
  10bba4:	e1530701 	cmp	r3, r1, lsl #14
  10bba8:	e0a00000 	adc	r0, r0, r0
  10bbac:	20433701 	subcs	r3, r3, r1, lsl #14
  10bbb0:	e1530681 	cmp	r3, r1, lsl #13
  10bbb4:	e0a00000 	adc	r0, r0, r0
  10bbb8:	20433681 	subcs	r3, r3, r1, lsl #13
  10bbbc:	e1530601 	cmp	r3, r1, lsl #12
  10bbc0:	e0a00000 	adc	r0, r0, r0
  10bbc4:	20433601 	subcs	r3, r3, r1, lsl #12
  10bbc8:	e1530581 	cmp	r3, r1, lsl #11
  10bbcc:	e0a00000 	adc	r0, r0, r0
  10bbd0:	20433581 	subcs	r3, r3, r1, lsl #11
  10bbd4:	e1530501 	cmp	r3, r1, lsl #10
  10bbd8:	e0a00000 	adc	r0, r0, r0
  10bbdc:	20433501 	subcs	r3, r3, r1, lsl #10
  10bbe0:	e1530481 	cmp	r3, r1, lsl #9
  10bbe4:	e0a00000 	adc	r0, r0, r0
  10bbe8:	20433481 	subcs	r3, r3, r1, lsl #9
  10bbec:	e1530401 	cmp	r3, r1, lsl #8
  10bbf0:	e0a00000 	adc	r0, r0, r0
  10bbf4:	20433401 	subcs	r3, r3, r1, lsl #8
  10bbf8:	e1530381 	cmp	r3, r1, lsl #7
  10bbfc:	e0a00000 	adc	r0, r0, r0
  10bc00:	20433381 	subcs	r3, r3, r1, lsl #7
  10bc04:	e1530301 	cmp	r3, r1, lsl #6
  10bc08:	e0a00000 	adc	r0, r0, r0
  10bc0c:	20433301 	subcs	r3, r3, r1, lsl #6
  10bc10:	e1530281 	cmp	r3, r1, lsl #5
  10bc14:	e0a00000 	adc	r0, r0, r0
  10bc18:	20433281 	subcs	r3, r3, r1, lsl #5
  10bc1c:	e1530201 	cmp	r3, r1, lsl #4
  10bc20:	e0a00000 	adc	r0, r0, r0
  10bc24:	20433201 	subcs	r3, r3, r1, lsl #4
  10bc28:	e1530181 	cmp	r3, r1, lsl #3
  10bc2c:	e0a00000 	adc	r0, r0, r0
  10bc30:	20433181 	subcs	r3, r3, r1, lsl #3
  10bc34:	e1530101 	cmp	r3, r1, lsl #2
  10bc38:	e0a00000 	adc	r0, r0, r0
  10bc3c:	20433101 	subcs	r3, r3, r1, lsl #2
  10bc40:	e1530081 	cmp	r3, r1, lsl #1
  10bc44:	e0a00000 	adc	r0, r0, r0
  10bc48:	20433081 	subcs	r3, r3, r1, lsl #1
  10bc4c:	e1530001 	cmp	r3, r1
  10bc50:	e0a00000 	adc	r0, r0, r0
  10bc54:	20433001 	subcs	r3, r3, r1
  10bc58:	e35c0000 	cmp	ip, #0
  10bc5c:	42600000 	rsbmi	r0, r0, #0
  10bc60:	e12fff1e 	bx	lr
  10bc64:	e13c0000 	teq	ip, r0
  10bc68:	42600000 	rsbmi	r0, r0, #0
  10bc6c:	e12fff1e 	bx	lr
  10bc70:	33a00000 	movcc	r0, #0
  10bc74:	01a00fcc 	asreq	r0, ip, #31
  10bc78:	03800001 	orreq	r0, r0, #1
  10bc7c:	e12fff1e 	bx	lr
  10bc80:	e16f2f11 	clz	r2, r1
  10bc84:	e262201f 	rsb	r2, r2, #31
  10bc88:	e35c0000 	cmp	ip, #0
  10bc8c:	e1a00233 	lsr	r0, r3, r2
  10bc90:	42600000 	rsbmi	r0, r0, #0
  10bc94:	e12fff1e 	bx	lr
  10bc98:	e3500000 	cmp	r0, #0
  10bc9c:	c3e00102 	mvngt	r0, #-2147483648	; 0x80000000
  10bca0:	b3a00102 	movlt	r0, #-2147483648	; 0x80000000
  10bca4:	eaffdbe3 	b	102c38 <__aeabi_idiv0>

0010bca8 <__aeabi_idivmod>:
  10bca8:	e3510000 	cmp	r1, #0
  10bcac:	0afffff9 	beq	10bc98 <.divsi3_skip_div0_test+0x208>
  10bcb0:	e92d4003 	push	{r0, r1, lr}
  10bcb4:	ebffff75 	bl	10ba90 <.divsi3_skip_div0_test>
  10bcb8:	e8bd4006 	pop	{r1, r2, lr}
  10bcbc:	e0030092 	mul	r3, r2, r0
  10bcc0:	e0411003 	sub	r1, r1, r3
  10bcc4:	e12fff1e 	bx	lr

0010bcc8 <__aeabi_uldivmod>:
  10bcc8:	e3530000 	cmp	r3, #0
  10bccc:	03520000 	cmpeq	r2, #0
  10bcd0:	1a000004 	bne	10bce8 <__aeabi_uldivmod+0x20>
  10bcd4:	e3510000 	cmp	r1, #0
  10bcd8:	03500000 	cmpeq	r0, #0
  10bcdc:	13e01000 	mvnne	r1, #0
  10bce0:	13e00000 	mvnne	r0, #0
  10bce4:	eaffdbd3 	b	102c38 <__aeabi_idiv0>
  10bce8:	e24dd008 	sub	sp, sp, #8
  10bcec:	e92d6000 	push	{sp, lr}
  10bcf0:	eb000004 	bl	10bd08 <__udivmoddi4>
  10bcf4:	e59de004 	ldr	lr, [sp, #4]
  10bcf8:	e28dd008 	add	sp, sp, #8
  10bcfc:	e8bd000c 	pop	{r2, r3}
  10bd00:	e12fff1e 	bx	lr
  10bd04:	00000000 	andeq	r0, r0, r0

0010bd08 <__udivmoddi4>:
  10bd08:	e1510003 	cmp	r1, r3
  10bd0c:	e92d4030 	push	{r4, r5, lr}
  10bd10:	01500002 	cmpeq	r0, r2
  10bd14:	e59de00c 	ldr	lr, [sp, #12]
  10bd18:	3a000032 	bcc	10bde8 <__udivmoddi4+0xe0>
  10bd1c:	e3530000 	cmp	r3, #0
  10bd20:	ec432b30 	vmov	d16, r2, r3
  10bd24:	016fcf12 	clzeq	ip, r2
  10bd28:	116f4f13 	clzne	r4, r3
  10bd2c:	028c4020 	addeq	r4, ip, #32
  10bd30:	e3510000 	cmp	r1, #0
  10bd34:	016fcf10 	clzeq	ip, r0
  10bd38:	116fcf11 	clzne	ip, r1
  10bd3c:	028cc020 	addeq	ip, ip, #32
  10bd40:	e044c00c 	sub	ip, r4, ip
  10bd44:	ee01cb90 	vmov.32	d17[0], ip
  10bd48:	f37104a0 	vshl.u64	d16, d16, d17
  10bd4c:	ec532b30 	vmov	r2, r3, d16
  10bd50:	e1510003 	cmp	r1, r3
  10bd54:	01500002 	cmpeq	r0, r2
  10bd58:	2a000027 	bcs	10bdfc <__udivmoddi4+0xf4>
  10bd5c:	f2c00010 	vmov.i32	d16, #0	; 0x00000000
  10bd60:	e35c0000 	cmp	ip, #0
  10bd64:	0a000020 	beq	10bdec <__udivmoddi4+0xe4>
  10bd68:	e1b050a3 	lsrs	r5, r3, #1
  10bd6c:	e1a04062 	rrx	r4, r2
  10bd70:	e1a0300c 	mov	r3, ip
  10bd74:	ea000007 	b	10bd98 <__udivmoddi4+0x90>
  10bd78:	e0500004 	subs	r0, r0, r4
  10bd7c:	e0c11005 	sbc	r1, r1, r5
  10bd80:	e0900000 	adds	r0, r0, r0
  10bd84:	e0a11001 	adc	r1, r1, r1
  10bd88:	e2900001 	adds	r0, r0, #1
  10bd8c:	e2a11000 	adc	r1, r1, #0
  10bd90:	e2533001 	subs	r3, r3, #1
  10bd94:	0a000006 	beq	10bdb4 <__udivmoddi4+0xac>
  10bd98:	e1510005 	cmp	r1, r5
  10bd9c:	01500004 	cmpeq	r0, r4
  10bda0:	2afffff4 	bcs	10bd78 <__udivmoddi4+0x70>
  10bda4:	e0900000 	adds	r0, r0, r0
  10bda8:	e0a11001 	adc	r1, r1, r1
  10bdac:	e2533001 	subs	r3, r3, #1
  10bdb0:	1afffff8 	bne	10bd98 <__udivmoddi4+0x90>
  10bdb4:	ec410b31 	vmov	d17, r0, r1
  10bdb8:	e1a00c30 	lsr	r0, r0, ip
  10bdbc:	e26c3020 	rsb	r3, ip, #32
  10bdc0:	ee02cb90 	vmov.32	d18[0], ip
  10bdc4:	e1800311 	orr	r0, r0, r1, lsl r3
  10bdc8:	e24c2020 	sub	r2, ip, #32
  10bdcc:	f27008a1 	vadd.i64	d16, d16, d17
  10bdd0:	e1800231 	orr	r0, r0, r1, lsr r2
  10bdd4:	e1a01c31 	lsr	r1, r1, ip
  10bdd8:	ec410b31 	vmov	d17, r0, r1
  10bddc:	f37214a1 	vshl.u64	d17, d17, d18
  10bde0:	f37008a1 	vsub.i64	d16, d16, d17
  10bde4:	ea000000 	b	10bdec <__udivmoddi4+0xe4>
  10bde8:	f2c00010 	vmov.i32	d16, #0	; 0x00000000
  10bdec:	e35e0000 	cmp	lr, #0
  10bdf0:	11ce00f0 	strdne	r0, [lr]
  10bdf4:	ec510b30 	vmov	r0, r1, d16
  10bdf8:	e8bd8030 	pop	{r4, r5, pc}
  10bdfc:	eddf0b05 	vldr	d16, [pc, #20]	; 10be18 <__udivmoddi4+0x110>
  10be00:	e0500002 	subs	r0, r0, r2
  10be04:	e0c11003 	sbc	r1, r1, r3
  10be08:	ee01cb90 	vmov.32	d17[0], ip
  10be0c:	f37104a0 	vshl.u64	d16, d16, d17
  10be10:	eaffffd2 	b	10bd60 <__udivmoddi4+0x58>
  10be14:	e320f000 	nop	{0}
  10be18:	00000001 	.word	0x00000001
  10be1c:	00000000 	.word	0x00000000

0010be20 <__generic_gxx_active_p>:
  10be20:	e3a00000 	mov	r0, #0
  10be24:	e12fff1e 	bx	lr

0010be28 <__generic_gxx_key_create>:
  10be28:	e3e00000 	mvn	r0, #0
  10be2c:	e12fff1e 	bx	lr

0010be30 <__generic_gxx_once>:
  10be30:	eafffffc 	b	10be28 <__generic_gxx_key_create>

0010be34 <__generic_gxx_key_delete>:
  10be34:	e3e00000 	mvn	r0, #0
  10be38:	e12fff1e 	bx	lr

0010be3c <__generic_gxx_getspecific>:
  10be3c:	e3a00000 	mov	r0, #0
  10be40:	e12fff1e 	bx	lr

0010be44 <__generic_gxx_setspecific>:
  10be44:	e3e00000 	mvn	r0, #0
  10be48:	e12fff1e 	bx	lr

0010be4c <__generic_gxx_recursive_mutex_init_function>:
  10be4c:	e12fff1e 	bx	lr

0010be50 <__generic_gxx_mutex_init_function>:
  10be50:	eafffffd 	b	10be4c <__generic_gxx_recursive_mutex_init_function>

0010be54 <__generic_gxx_recursive_mutex_destroy>:
  10be54:	e3a00000 	mov	r0, #0
  10be58:	e12fff1e 	bx	lr

0010be5c <__generic_gxx_recursive_mutex_unlock>:
  10be5c:	eafffffc 	b	10be54 <__generic_gxx_recursive_mutex_destroy>

0010be60 <__generic_gxx_recursive_mutex_trylock>:
  10be60:	eafffffb 	b	10be54 <__generic_gxx_recursive_mutex_destroy>

0010be64 <__generic_gxx_recursive_mutex_lock>:
  10be64:	eafffffa 	b	10be54 <__generic_gxx_recursive_mutex_destroy>

0010be68 <__generic_gxx_mutex_unlock>:
  10be68:	eafffff9 	b	10be54 <__generic_gxx_recursive_mutex_destroy>

0010be6c <__generic_gxx_mutex_trylock>:
  10be6c:	eafffff8 	b	10be54 <__generic_gxx_recursive_mutex_destroy>

0010be70 <__generic_gxx_mutex_lock>:
  10be70:	eafffff7 	b	10be54 <__generic_gxx_recursive_mutex_destroy>

0010be74 <__generic_gxx_mutex_destroy>:
  10be74:	eafffff6 	b	10be54 <__generic_gxx_recursive_mutex_destroy>

0010be78 <__cs3_premain>:
  10be78:	e92d4010 	push	{r4, lr}
  10be7c:	eb000054 	bl	10bfd4 <__libc_init_array>
  10be80:	e3003000 	movw	r3, #0
  10be84:	e3a02000 	mov	r2, #0
  10be88:	e3403000 	movt	r3, #0
  10be8c:	e3530000 	cmp	r3, #0
  10be90:	15930000 	ldrne	r0, [r3]
  10be94:	01a00003 	moveq	r0, r3
  10be98:	e3003000 	movw	r3, #0
  10be9c:	e3403000 	movt	r3, #0
  10bea0:	e3530000 	cmp	r3, #0
  10bea4:	15931000 	ldrne	r1, [r3]
  10bea8:	01a01003 	moveq	r1, r3
  10beac:	ebffd0dc 	bl	100224 <main>
  10beb0:	e3003000 	movw	r3, #0
  10beb4:	e3403000 	movt	r3, #0
  10beb8:	e3530000 	cmp	r3, #0
  10bebc:	0a000000 	beq	10bec4 <__cs3_premain+0x4c>
  10bec0:	e320f000 	nop	{0}
  10bec4:	eafffffe 	b	10bec4 <__cs3_premain+0x4c>

0010bec8 <__vfp_init>:
  10bec8:	ee100f10 	mrc	15, 0, r0, cr0, cr0, {0}
  10becc:	e3100702 	tst	r0, #524288	; 0x80000
  10bed0:	1a000006 	bne	10bef0 <__vfp_init+0x28>
  10bed4:	e2101a0f 	ands	r1, r0, #61440	; 0xf000
  10bed8:	0a000009 	beq	10bf04 <__vfp_init+0x3c>
  10bedc:	e3510a07 	cmp	r1, #28672	; 0x7000
  10bee0:	0a000007 	beq	10bf04 <__vfp_init+0x3c>
  10bee4:	e200180f 	and	r1, r0, #983040	; 0xf0000
  10bee8:	e3510807 	cmp	r1, #458752	; 0x70000
  10beec:	ba000004 	blt	10bf04 <__vfp_init+0x3c>
  10bef0:	ee110f50 	mrc	15, 0, r0, cr1, cr0, {2}
  10bef4:	e380060f 	orr	r0, r0, #15728640	; 0xf00000
  10bef8:	ee010f50 	mcr	15, 0, r0, cr1, cr0, {2}
  10befc:	e3a00000 	mov	r0, #0
  10bf00:	ee071f95 	mcr	15, 0, r1, cr7, cr5, {4}
  10bf04:	e3a00101 	mov	r0, #1073741824	; 0x40000000
  10bf08:	eee80a10 	vmsr	fpexc, r0
  10bf0c:	eef00a10 	vmrs	r0, fpsid
  10bf10:	e20014ff 	and	r1, r0, #-16777216	; 0xff000000
  10bf14:	e3510441 	cmp	r1, #1090519040	; 0x41000000
  10bf18:	1a000007 	bne	10bf3c <__vfp_init+0x74>
  10bf1c:	e200187f 	and	r1, r0, #8323072	; 0x7f0000
  10bf20:	e3510801 	cmp	r1, #65536	; 0x10000
  10bf24:	da000002 	ble	10bf34 <__vfp_init+0x6c>
  10bf28:	eef60a10 	vmrs	r0, mvfr1
  10bf2c:	e31000f0 	tst	r0, #240	; 0xf0
  10bf30:	1a000001 	bne	10bf3c <__vfp_init+0x74>
  10bf34:	e3a00403 	mov	r0, #50331648	; 0x3000000
  10bf38:	eee10a10 	vmsr	fpscr, r0
  10bf3c:	e12fff1e 	bx	lr

0010bf40 <_sbrk>:
  10bf40:	e30829ac 	movw	r2, #35244	; 0x89ac
  10bf44:	e30819b0 	movw	r1, #35248	; 0x89b0
  10bf48:	e3402011 	movt	r2, #17
  10bf4c:	e3401011 	movt	r1, #17
  10bf50:	e5923000 	ldr	r3, [r2]
  10bf54:	e5911000 	ldr	r1, [r1]
  10bf58:	e92d4010 	push	{r4, lr}
  10bf5c:	e0830000 	add	r0, r3, r0
  10bf60:	e3510000 	cmp	r1, #0
  10bf64:	11510000 	cmpne	r1, r0
  10bf68:	3a000009 	bcc	10bf94 <_sbrk+0x54>
  10bf6c:	e1a0100d 	mov	r1, sp
  10bf70:	e1530001 	cmp	r3, r1
  10bf74:	9a000002 	bls	10bf84 <_sbrk+0x44>
  10bf78:	e5820000 	str	r0, [r2]
  10bf7c:	e1a00003 	mov	r0, r3
  10bf80:	e8bd8010 	pop	{r4, pc}
  10bf84:	e2801c01 	add	r1, r0, #256	; 0x100
  10bf88:	e1a0c00d 	mov	ip, sp
  10bf8c:	e15c0001 	cmp	ip, r1
  10bf90:	2afffff8 	bcs	10bf78 <_sbrk+0x38>
  10bf94:	eb00000b 	bl	10bfc8 <__errno>
  10bf98:	e3a0200c 	mov	r2, #12
  10bf9c:	e3e03000 	mvn	r3, #0
  10bfa0:	e5802000 	str	r2, [r0]
  10bfa4:	e1a00003 	mov	r0, r3
  10bfa8:	e8bd8010 	pop	{r4, pc}

0010bfac <__cs3_isr_interrupt>:
  10bfac:	eafffffe 	b	10bfac <__cs3_isr_interrupt>

0010bfb0 <__cs3_isr_undef>:
  10bfb0:	eafffffe 	b	10bfb0 <__cs3_isr_undef>

0010bfb4 <__cs3_isr_swi>:
  10bfb4:	eafffffe 	b	10bfb4 <__cs3_isr_swi>

0010bfb8 <__cs3_isr_pabort>:
  10bfb8:	eafffffe 	b	10bfb8 <__cs3_isr_pabort>

0010bfbc <__cs3_isr_dabort>:
  10bfbc:	eafffffe 	b	10bfbc <__cs3_isr_dabort>

0010bfc0 <__cs3_isr_irq>:
  10bfc0:	eafffffe 	b	10bfc0 <__cs3_isr_irq>

0010bfc4 <__cs3_isr_fiq>:
  10bfc4:	eafffffe 	b	10bfc4 <__cs3_isr_fiq>

0010bfc8 <__errno>:
  10bfc8:	e92d4010 	push	{r4, lr}
  10bfcc:	ebffef6a 	bl	107d7c <__getreent>
  10bfd0:	e8bd8010 	pop	{r4, pc}

0010bfd4 <__libc_init_array>:
  10bfd4:	e92d4070 	push	{r4, r5, r6, lr}
  10bfd8:	e30c6af0 	movw	r6, #51952	; 0xcaf0
  10bfdc:	e30c5aec 	movw	r5, #51948	; 0xcaec
  10bfe0:	e3406010 	movt	r6, #16
  10bfe4:	e3405010 	movt	r5, #16
  10bfe8:	e0466005 	sub	r6, r6, r5
  10bfec:	e1b06146 	asrs	r6, r6, #2
  10bff0:	13a04000 	movne	r4, #0
  10bff4:	0a000004 	beq	10c00c <__libc_init_array+0x38>
  10bff8:	e2844001 	add	r4, r4, #1
  10bffc:	e4953004 	ldr	r3, [r5], #4
  10c000:	e12fff33 	blx	r3
  10c004:	e1560004 	cmp	r6, r4
  10c008:	1afffffa 	bne	10bff8 <__libc_init_array+0x24>
  10c00c:	e30c6b00 	movw	r6, #51968	; 0xcb00
  10c010:	e30c5af0 	movw	r5, #51952	; 0xcaf0
  10c014:	e3406010 	movt	r6, #16
  10c018:	e3405010 	movt	r5, #16
  10c01c:	e0466005 	sub	r6, r6, r5
  10c020:	eb0002ab 	bl	10cad4 <_init>
  10c024:	e1b06146 	asrs	r6, r6, #2
  10c028:	13a04000 	movne	r4, #0
  10c02c:	0a000005 	beq	10c048 <__libc_init_array+0x74>
  10c030:	e2844001 	add	r4, r4, #1
  10c034:	e4953004 	ldr	r3, [r5], #4
  10c038:	e12fff33 	blx	r3
  10c03c:	e1560004 	cmp	r6, r4
  10c040:	1afffffa 	bne	10c030 <__libc_init_array+0x5c>
  10c044:	e8bd8070 	pop	{r4, r5, r6, pc}
  10c048:	e8bd8070 	pop	{r4, r5, r6, pc}

Disassembly of section .rodata:

0010c058 <blanks.8421-0x7a4>:
  10c058:	2f2f2f2f 	.word	0x2f2f2f2f
  10c05c:	2f2f2f2f 	.word	0x2f2f2f2f
  10c060:	2f2f2f2f 	.word	0x2f2f2f2f
  10c064:	2f2f2f2f 	.word	0x2f2f2f2f
  10c068:	2f2f2f2f 	.word	0x2f2f2f2f
  10c06c:	2f2f2f2f 	.word	0x2f2f2f2f
  10c070:	2f2f2f2f 	.word	0x2f2f2f2f
  10c074:	2f2f2f2f 	.word	0x2f2f2f2f
  10c078:	2f2f2f2f 	.word	0x2f2f2f2f
  10c07c:	2f2f2f2f 	.word	0x2f2f2f2f
  10c080:	2f2f2f2f 	.word	0x2f2f2f2f
  10c084:	2f2f2f2f 	.word	0x2f2f2f2f
  10c088:	2f2f2f2f 	.word	0x2f2f2f2f
  10c08c:	0d0a2f2f 	.word	0x0d0a2f2f
  10c090:	00000000 	.word	0x00000000
  10c094:	2f2f2f2f 	.word	0x2f2f2f2f
  10c098:	2f2f2f2f 	.word	0x2f2f2f2f
  10c09c:	2f2f2f2f 	.word	0x2f2f2f2f
  10c0a0:	2f2f2f2f 	.word	0x2f2f2f2f
  10c0a4:	202f2f2f 	.word	0x202f2f2f
  10c0a8:	20202020 	.word	0x20202020
  10c0ac:	4a4f5250 	.word	0x4a4f5250
  10c0b0:	204f5445 	.word	0x204f5445
  10c0b4:	20434354 	.word	0x20434354
  10c0b8:	2f202020 	.word	0x2f202020
  10c0bc:	2f2f2f2f 	.word	0x2f2f2f2f
  10c0c0:	2f2f2f2f 	.word	0x2f2f2f2f
  10c0c4:	2f2f2f2f 	.word	0x2f2f2f2f
  10c0c8:	0d0a2f2f 	.word	0x0d0a2f2f
  10c0cc:	00000000 	.word	0x00000000
  10c0d0:	2f2f2f2f 	.word	0x2f2f2f2f
  10c0d4:	2f2f2f2f 	.word	0x2f2f2f2f
  10c0d8:	2f2f2f2f 	.word	0x2f2f2f2f
  10c0dc:	202f2f2f 	.word	0x202f2f2f
  10c0e0:	65646e41 	.word	0x65646e41
  10c0e4:	6e6f7372 	.word	0x6e6f7372
  10c0e8:	696f4320 	.word	0x696f4320
  10c0ec:	6172626d 	.word	0x6172626d
  10c0f0:	6e654d20 	.word	0x6e654d20
  10c0f4:	20736564 	.word	0x20736564
  10c0f8:	2f2f2f2f 	.word	0x2f2f2f2f
  10c0fc:	2f2f2f2f 	.word	0x2f2f2f2f
  10c100:	2f2f2f2f 	.word	0x2f2f2f2f
  10c104:	0d0a2f2f 	.word	0x0d0a2f2f
  10c108:	00000000 	.word	0x00000000
  10c10c:	2f2f2f2f 	.word	0x2f2f2f2f
  10c110:	2f2f2f2f 	.word	0x2f2f2f2f
  10c114:	2f2f2f2f 	.word	0x2f2f2f2f
  10c118:	2f2f2f2f 	.word	0x2f2f2f2f
  10c11c:	2f2f2f2f 	.word	0x2f2f2f2f
  10c120:	2f2f2f2f 	.word	0x2f2f2f2f
  10c124:	2f2f2f2f 	.word	0x2f2f2f2f
  10c128:	2f2f2f2f 	.word	0x2f2f2f2f
  10c12c:	2f2f2f2f 	.word	0x2f2f2f2f
  10c130:	2f2f2f2f 	.word	0x2f2f2f2f
  10c134:	2f2f2f2f 	.word	0x2f2f2f2f
  10c138:	2f2f2f2f 	.word	0x2f2f2f2f
  10c13c:	2f2f2f2f 	.word	0x2f2f2f2f
  10c140:	0a0a2f2f 	.word	0x0a0a2f2f
  10c144:	00000d0a 	.word	0x00000d0a
  10c148:	636f7250 	.word	0x636f7250
  10c14c:	6f737365 	.word	0x6f737365
  10c150:	20656420 	.word	0x20656420
  10c154:	6e617274 	.word	0x6e617274
  10c158:	72656673 	.word	0x72656673
  10c15c:	64206169 	.word	0x64206169
  10c160:	61642065 	.word	0x61642065
  10c164:	20736f64 	.word	0x20736f64
  10c168:	72746e65 	.word	0x72746e65
  10c16c:	50482065 	.word	0x50482065
  10c170:	20652053 	.word	0x20652053
  10c174:	41475046 	.word	0x41475046
  10c178:	0d0a203a 	.word	0x0d0a203a
  10c17c:	00000000 	.word	0x00000000
  10c180:	61726547 	.word	0x61726547
  10c184:	64616420 	.word	0x64616420
  10c188:	7220736f 	.word	0x7220736f
  10c18c:	6f646e61 	.word	0x6f646e61
  10c190:	6f63696d 	.word	0x6f63696d
  10c194:	20652073 	.word	0x20652073
  10c198:	636f6c61 	.word	0x636f6c61
  10c19c:	616e2061 	.word	0x616e2061
  10c1a0:	63616320 	.word	0x63616320
  10c1a4:	64206568 	.word	0x64206568
  10c1a8:	7270206f 	.word	0x7270206f
  10c1ac:	7365636f 	.word	0x7365636f
  10c1b0:	6f646173 	.word	0x6f646173
  10c1b4:	0a202e72 	.word	0x0a202e72
  10c1b8:	0000000d 	.word	0x0000000d
  10c1bc:	69706f43 	.word	0x69706f43
  10c1c0:	736f2061 	.word	0x736f2061
  10c1c4:	64616420 	.word	0x64616420
  10c1c8:	6420736f 	.word	0x6420736f
  10c1cc:	61632061 	.word	0x61632061
  10c1d0:	20656863 	.word	0x20656863
  10c1d4:	61726170 	.word	0x61726170
  10c1d8:	47504620 	.word	0x47504620
  10c1dc:	73752041 	.word	0x73752041
  10c1e0:	6f646e61 	.word	0x6f646e61
  10c1e4:	62206120 	.word	0x62206120
  10c1e8:	67646972 	.word	0x67646972
  10c1ec:	0d0a2065 	.word	0x0d0a2065
  10c1f0:	00000000 	.word	0x00000000
  10c1f4:	41475046 	.word	0x41475046
  10c1f8:	2d6f742d 	.word	0x2d6f742d
  10c1fc:	2e535048 	.word	0x2e535048
  10c200:	00000020 	.word	0x00000020
  10c204:	72637345 	.word	0x72637345
  10c208:	20657665 	.word	0x20657665
  10c20c:	6420736f 	.word	0x6420736f
  10c210:	736f6461 	.word	0x736f6461
  10c214:	20656420 	.word	0x20656420
  10c218:	746c6f76 	.word	0x746c6f76
  10c21c:	20282061 	.word	0x20282061
  10c220:	7263616d 	.word	0x7263616d
  10c224:	5257206f 	.word	0x5257206f
  10c228:	5f455449 	.word	0x5f455449
  10c22c:	5245504f 	.word	0x5245504f
  10c230:	4f495441 	.word	0x4f495441
  10c234:	0a29204e 	.word	0x0a29204e
  10c238:	0000000d 	.word	0x0000000d
  10c23c:	20504341 	.word	0x20504341
  10c240:	4d204449 	.word	0x4d204449
  10c244:	65707061 	.word	0x65707061
  10c248:	202d2072 	.word	0x202d2072
  10c24c:	2d204b4f 	.word	0x2d204b4f
  10c250:	73655420 	.word	0x73655420
  10c254:	0a206574 	.word	0x0a206574
  10c258:	0000000d 	.word	0x0000000d
  10c25c:	20504341 	.word	0x20504341
  10c260:	4d204449 	.word	0x4d204449
  10c264:	65707061 	.word	0x65707061
  10c268:	61662072 	.word	0x61662072
  10c26c:	0d0a6c69 	.word	0x0d0a6c69
  10c270:	00000000 	.word	0x00000000
  10c274:	414d4420 	.word	0x414d4420
  10c278:	6e692043 	.word	0x6e692043
  10c27c:	2e2e7469 	.word	0x2e2e7469
  10c280:	2e2e2e2e 	.word	0x2e2e2e2e
  10c284:	00002e2e 	.word	0x00002e2e
  10c288:	414d4420 	.word	0x414d4420
  10c28c:	6e492043 	.word	0x6e492043
  10c290:	65207469 	.word	0x65207469
  10c294:	6564646e 	.word	0x6564646e
  10c298:	0d0a2064 	.word	0x0d0a2064
  10c29c:	00000000 	.word	0x00000000
  10c2a0:	72655020 	.word	0x72655020
  10c2a4:	6d726f66 	.word	0x6d726f66
  10c2a8:	65636e61 	.word	0x65636e61
  10c2ac:	6e6f4d20 	.word	0x6e6f4d20
  10c2b0:	726f7469 	.word	0x726f7469
  10c2b4:	696e4920 	.word	0x696e4920
  10c2b8:	0d0a2074 	.word	0x0d0a2074
  10c2bc:	00000000 	.word	0x00000000
  10c2c0:	66726550 	.word	0x66726550
  10c2c4:	616d726f 	.word	0x616d726f
  10c2c8:	2065636e 	.word	0x2065636e
  10c2cc:	696e6f4d 	.word	0x696e6f4d
  10c2d0:	20726f74 	.word	0x20726f74
  10c2d4:	74696e55 	.word	0x74696e55
  10c2d8:	61686320 	.word	0x61686320
  10c2dc:	74636172 	.word	0x74636172
  10c2e0:	73697265 	.word	0x73697265
  10c2e4:	73636974 	.word	0x73636974
  10c2e8:	00000d0a 	.word	0x00000d0a
  10c2ec:	66726550 	.word	0x66726550
  10c2f0:	616d726f 	.word	0x616d726f
  10c2f4:	2065636e 	.word	0x2065636e
  10c2f8:	696e6f4d 	.word	0x696e6f4d
  10c2fc:	20726f74 	.word	0x20726f74
  10c300:	74696e55 	.word	0x74696e55
  10c304:	63796320 	.word	0x63796320
  10c308:	6320656c 	.word	0x6320656c
  10c30c:	746e756f 	.word	0x746e756f
  10c310:	72207265 	.word	0x72207265
  10c314:	6c6f7365 	.word	0x6c6f7365
  10c318:	6f697475 	.word	0x6f697475
  10c31c:	7369206e 	.word	0x7369206e
  10c320:	20662520 	.word	0x20662520
  10c324:	0d0a736e 	.word	0x0d0a736e
  10c328:	00000000 	.word	0x00000000
  10c32c:	0a0a0a0a 	.word	0x0a0a0a0a
  10c330:	7551200d 	.word	0x7551200d
  10c334:	69746e61 	.word	0x69746e61
  10c338:	65646164 	.word	0x65646164
  10c33c:	20656420 	.word	0x20656420
  10c340:	65747962 	.word	0x65747962
  10c344:	20612073 	.word	0x20612073
  10c348:	20726573 	.word	0x20726573
  10c34c:	6e617274 	.word	0x6e617274
  10c350:	72656673 	.word	0x72656673
  10c354:	206f6469 	.word	0x206f6469
  10c358:	0000203d 	.word	0x0000203d
  10c35c:	0a206425 	.word	0x0a206425
  10c360:	0000000d 	.word	0x0000000d
  10c364:	5f695841 	.word	0x5f695841
  10c368:	6e696773 	.word	0x6e696773
  10c36c:	20736c61 	.word	0x20736c61
  10c370:	6425203d 	.word	0x6425203d
  10c374:	00000a20 	.word	0x00000a20
  10c378:	61697243 	.word	0x61697243
  10c37c:	206f646e 	.word	0x206f646e
  10c380:	6f646164 	.word	0x6f646164
  10c384:	61722073 	.word	0x61722073
  10c388:	6d6f646e 	.word	0x6d6f646e
  10c38c:	736f6369 	.word	0x736f6369
  10c390:	0d0a203a 	.word	0x0d0a203a
  10c394:	00000000 	.word	0x00000000
  10c398:	74736574 	.word	0x74736574
  10c39c:	0d0a2031 	.word	0x0d0a2031
  10c3a0:	00000000 	.word	0x00000000
  10c3a4:	3a555043 	.word	0x3a555043
  10c3a8:	706f4320 	.word	0x706f4320
  10c3ac:	646e6169 	.word	0x646e6169
  10c3b0:	6564206f 	.word	0x6564206f
  10c3b4:	25783020 	.word	0x25783020
  10c3b8:	20783830 	.word	0x20783830
  10c3bc:	61726170 	.word	0x61726170
  10c3c0:	25783020 	.word	0x25783020
  10c3c4:	2c783830 	.word	0x2c783830
  10c3c8:	6d617420 	.word	0x6d617420
  10c3cc:	6f686e61 	.word	0x6f686e61
  10c3d0:	25203d20 	.word	0x25203d20
  10c3d4:	79622064 	.word	0x79622064
  10c3d8:	2e736574 	.word	0x2e736574
  10c3dc:	00000d0a 	.word	0x00000d0a
  10c3e0:	3a414d44 	.word	0x3a414d44
  10c3e4:	706f4320 	.word	0x706f4320
  10c3e8:	646e6169 	.word	0x646e6169
  10c3ec:	6564206f 	.word	0x6564206f
  10c3f0:	25783020 	.word	0x25783020
  10c3f4:	20783830 	.word	0x20783830
  10c3f8:	61726170 	.word	0x61726170
  10c3fc:	25783020 	.word	0x25783020
  10c400:	2c783830 	.word	0x2c783830
  10c404:	6d617420 	.word	0x6d617420
  10c408:	6f686e61 	.word	0x6f686e61
  10c40c:	25203d20 	.word	0x25203d20
  10c410:	79622064 	.word	0x79622064
  10c414:	2e736574 	.word	0x2e736574
  10c418:	00000d0a 	.word	0x00000d0a
  10c41c:	706d6554 	.word	0x706d6554
  10c420:	6564206f 	.word	0x6564206f
  10c424:	65786520 	.word	0x65786520
  10c428:	a7c37563 	.word	0xa7c37563
  10c42c:	25206f61 	.word	0x25206f61
  10c430:	20756c6c 	.word	0x20756c6c
  10c434:	6e616e28 	.word	0x6e616e28
  10c438:	6765736f 	.word	0x6765736f
  10c43c:	6f646e75 	.word	0x6f646e75
  10c440:	0a202029 	.word	0x0a202029
  10c444:	0000000d 	.word	0x0000000d
  10c448:	74696157 	.word	0x74696157
  10c44c:	000d0a20 	.word	0x000d0a20
  10c450:	61746164 	.word	0x61746164
  10c454:	3025203a 	.word	0x3025203a
  10c458:	20786c38 	.word	0x20786c38
  10c45c:	00000d0a 	.word	0x00000d0a
  10c460:	0a2e2e2e 	.word	0x0a2e2e2e
  10c464:	2e2e200d 	.word	0x2e2e200d
  10c468:	0d0a202e 	.word	0x0d0a202e
  10c46c:	2e2e2e20 	.word	0x2e2e2e20
  10c470:	200d0a20 	.word	0x200d0a20
  10c474:	75736552 	.word	0x75736552
  10c478:	6461746c 	.word	0x6461746c
  10c47c:	0d0a3a6f 	.word	0x0d0a3a6f
  10c480:	00000000 	.word	0x00000000
  10c484:	72540d0a 	.word	0x72540d0a
  10c488:	66736e61 	.word	0x66736e61
  10c48c:	6e657265 	.word	0x6e657265
  10c490:	20616963 	.word	0x20616963
  10c494:	74696566 	.word	0x74696566
  10c498:	6f632061 	.word	0x6f632061
  10c49c:	7573206d 	.word	0x7573206d
  10c4a0:	73736563 	.word	0x73736563
  10c4a4:	000d0a6f 	.word	0x000d0a6f
  10c4a8:	6e617254 	.word	0x6e617254
  10c4ac:	72656673 	.word	0x72656673
  10c4b0:	69636e65 	.word	0x69636e65
  10c4b4:	61662061 	.word	0x61662061
  10c4b8:	756f686c 	.word	0x756f686c
  10c4bc:	00000d0a 	.word	0x00000d0a
  10c4c0:	41430d0a 	.word	0x41430d0a
  10c4c4:	20454843 	.word	0x20454843
  10c4c8:	464e4f43 	.word	0x464e4f43
  10c4cc:	303a4749 	.word	0x303a4749
  10c4d0:	206f4e20 	.word	0x206f4e20
  10c4d4:	68636163 	.word	0x68636163
  10c4d8:	000d0a65 	.word	0x000d0a65
  10c4dc:	41430d0a 	.word	0x41430d0a
  10c4e0:	20454843 	.word	0x20454843
  10c4e4:	464e4f43 	.word	0x464e4f43
  10c4e8:	313a4749 	.word	0x313a4749
  10c4ec:	616e4520 	.word	0x616e4520
  10c4f0:	20656c62 	.word	0x20656c62
  10c4f4:	0a554d4d 	.word	0x0a554d4d
  10c4f8:	0000000d 	.word	0x0000000d
  10c4fc:	41430d0a 	.word	0x41430d0a
  10c500:	20454843 	.word	0x20454843
  10c504:	464e4f43 	.word	0x464e4f43
  10c508:	323a4749 	.word	0x323a4749
  10c50c:	616e4520 	.word	0x616e4520
  10c510:	20656c62 	.word	0x20656c62
  10c514:	20554d4d 	.word	0x20554d4d
  10c518:	20646e61 	.word	0x20646e61
  10c51c:	74696e69 	.word	0x74696e69
  10c520:	43324c20 	.word	0x43324c20
  10c524:	00000d0a 	.word	0x00000d0a
  10c528:	41430d0a 	.word	0x41430d0a
  10c52c:	20454843 	.word	0x20454843
  10c530:	464e4f43 	.word	0x464e4f43
  10c534:	333a4749 	.word	0x333a4749
  10c538:	616e4520 	.word	0x616e4520
  10c53c:	20656c62 	.word	0x20656c62
  10c540:	20554d4d 	.word	0x20554d4d
  10c544:	20646e61 	.word	0x20646e61
  10c548:	20554353 	.word	0x20554353
  10c54c:	20646e61 	.word	0x20646e61
  10c550:	74696e69 	.word	0x74696e69
  10c554:	43324c20 	.word	0x43324c20
  10c558:	00000d0a 	.word	0x00000d0a
  10c55c:	41430d0a 	.word	0x41430d0a
  10c560:	20454843 	.word	0x20454843
  10c564:	464e4f43 	.word	0x464e4f43
  10c568:	343a4749 	.word	0x343a4749
  10c56c:	5f314c20 	.word	0x5f314c20
  10c570:	000d0a49 	.word	0x000d0a49
  10c574:	41430d0a 	.word	0x41430d0a
  10c578:	20454843 	.word	0x20454843
  10c57c:	464e4f43 	.word	0x464e4f43
  10c580:	353a4749 	.word	0x353a4749
  10c584:	5f314c20 	.word	0x5f314c20
  10c588:	6e612049 	.word	0x6e612049
  10c58c:	72622064 	.word	0x72622064
  10c590:	68636e61 	.word	0x68636e61
  10c594:	65727020 	.word	0x65727020
  10c598:	74636964 	.word	0x74636964
  10c59c:	0a6e6f69 	.word	0x0a6e6f69
  10c5a0:	0000000d 	.word	0x0000000d
  10c5a4:	41430d0a 	.word	0x41430d0a
  10c5a8:	20454843 	.word	0x20454843
  10c5ac:	464e4f43 	.word	0x464e4f43
  10c5b0:	363a4749 	.word	0x363a4749
  10c5b4:	5f314c20 	.word	0x5f314c20
  10c5b8:	4c202c44 	.word	0x4c202c44
  10c5bc:	20495f31 	.word	0x20495f31
  10c5c0:	20646e61 	.word	0x20646e61
  10c5c4:	6e617262 	.word	0x6e617262
  10c5c8:	70206863 	.word	0x70206863
  10c5cc:	69646572 	.word	0x69646572
  10c5d0:	6f697463 	.word	0x6f697463
  10c5d4:	000d0a6e 	.word	0x000d0a6e
  10c5d8:	41430d0a 	.word	0x41430d0a
  10c5dc:	20454843 	.word	0x20454843
  10c5e0:	464e4f43 	.word	0x464e4f43
  10c5e4:	373a4749 	.word	0x373a4749
  10c5e8:	5f314c20 	.word	0x5f314c20
  10c5ec:	69772044 	.word	0x69772044
  10c5f0:	73206874 	.word	0x73206874
  10c5f4:	20656469 	.word	0x20656469
  10c5f8:	66657270 	.word	0x66657270
  10c5fc:	68637465 	.word	0x68637465
  10c600:	4c202c29 	.word	0x4c202c29
  10c604:	20495f31 	.word	0x20495f31
  10c608:	68746977 	.word	0x68746977
  10c60c:	61726220 	.word	0x61726220
  10c610:	2068636e 	.word	0x2068636e
  10c614:	64657270 	.word	0x64657270
  10c618:	69746369 	.word	0x69746369
  10c61c:	0d0a6e6f 	.word	0x0d0a6e6f
  10c620:	00000000 	.word	0x00000000
  10c624:	41430d0a 	.word	0x41430d0a
  10c628:	20454843 	.word	0x20454843
  10c62c:	464e4f43 	.word	0x464e4f43
  10c630:	383a4749 	.word	0x383a4749
  10c634:	5f314c20 	.word	0x5f314c20
  10c638:	69732044 	.word	0x69732044
  10c63c:	70206564 	.word	0x70206564
  10c640:	65666572 	.word	0x65666572
  10c644:	2c686374 	.word	0x2c686374
  10c648:	5f314c20 	.word	0x5f314c20
  10c64c:	69772049 	.word	0x69772049
  10c650:	62206874 	.word	0x62206874
  10c654:	636e6172 	.word	0x636e6172
  10c658:	72702068 	.word	0x72702068
  10c65c:	61202e65 	.word	0x61202e65
  10c660:	6520646e 	.word	0x6520646e
  10c664:	6c62616e 	.word	0x6c62616e
  10c668:	324c2065 	.word	0x324c2065
  10c66c:	00000d0a 	.word	0x00000d0a
  10c670:	41430d0a 	.word	0x41430d0a
  10c674:	20454843 	.word	0x20454843
  10c678:	464e4f43 	.word	0x464e4f43
  10c67c:	393a4749 	.word	0x393a4749
  10c680:	73616220 	.word	0x73616220
  10c684:	63206369 	.word	0x63206369
  10c688:	69666e6f 	.word	0x69666e6f
  10c68c:	2b202e67 	.word	0x2b202e67
  10c690:	20324c20 	.word	0x20324c20
  10c694:	66657270 	.word	0x66657270
  10c698:	68637465 	.word	0x68637465
  10c69c:	6e696820 	.word	0x6e696820
  10c6a0:	000d0a74 	.word	0x000d0a74
  10c6a4:	41430d0a 	.word	0x41430d0a
  10c6a8:	20454843 	.word	0x20454843
  10c6ac:	464e4f43 	.word	0x464e4f43
  10c6b0:	313a4749 	.word	0x313a4749
  10c6b4:	61622030 	.word	0x61622030
  10c6b8:	20636973 	.word	0x20636973
  10c6bc:	666e6f63 	.word	0x666e6f63
  10c6c0:	202e6769 	.word	0x202e6769
  10c6c4:	324c202b 	.word	0x324c202b
  10c6c8:	2b206870 	.word	0x2b206870
  10c6cc:	20727720 	.word	0x20727720
  10c6d0:	6c6c7566 	.word	0x6c6c7566
  10c6d4:	6e696c20 	.word	0x6e696c20
  10c6d8:	73302065 	.word	0x73302065
  10c6dc:	00000d0a 	.word	0x00000d0a
  10c6e0:	41430d0a 	.word	0x41430d0a
  10c6e4:	20454843 	.word	0x20454843
  10c6e8:	464e4f43 	.word	0x464e4f43
  10c6ec:	313a4749 	.word	0x313a4749
  10c6f0:	61622031 	.word	0x61622031
  10c6f4:	20636973 	.word	0x20636973
  10c6f8:	666e6f63 	.word	0x666e6f63
  10c6fc:	202e6769 	.word	0x202e6769
  10c700:	324c202b 	.word	0x324c202b
  10c704:	2b206870 	.word	0x2b206870
  10c708:	66727720 	.word	0x66727720
  10c70c:	2073306c 	.word	0x2073306c
  10c710:	7073202b 	.word	0x7073202b
  10c714:	6c756365 	.word	0x6c756365
  10c718:	76697461 	.word	0x76697461
  10c71c:	696c2065 	.word	0x696c2065
  10c720:	6966656e 	.word	0x6966656e
  10c724:	0a736c6c 	.word	0x0a736c6c
  10c728:	0000000d 	.word	0x0000000d
  10c72c:	41430d0a 	.word	0x41430d0a
  10c730:	20454843 	.word	0x20454843
  10c734:	464e4f43 	.word	0x464e4f43
  10c738:	313a4749 	.word	0x313a4749
  10c73c:	61622032 	.word	0x61622032
  10c740:	20636973 	.word	0x20636973
  10c744:	666e6f63 	.word	0x666e6f63
  10c748:	202e6769 	.word	0x202e6769
  10c74c:	324c202b 	.word	0x324c202b
  10c750:	2b206870 	.word	0x2b206870
  10c754:	66727720 	.word	0x66727720
  10c758:	2073306c 	.word	0x2073306c
  10c75c:	6c73202b 	.word	0x6c73202b
  10c760:	65202b20 	.word	0x65202b20
  10c764:	53455242 	.word	0x53455242
  10c768:	000d0a50 	.word	0x000d0a50
  10c76c:	41430d0a 	.word	0x41430d0a
  10c770:	20454843 	.word	0x20454843
  10c774:	464e4f43 	.word	0x464e4f43
  10c778:	313a4749 	.word	0x313a4749
  10c77c:	61622033 	.word	0x61622033
  10c780:	20636973 	.word	0x20636973
  10c784:	666e6f63 	.word	0x666e6f63
  10c788:	202e6769 	.word	0x202e6769
  10c78c:	324c202b 	.word	0x324c202b
  10c790:	2b206870 	.word	0x2b206870
  10c794:	66727720 	.word	0x66727720
  10c798:	2073306c 	.word	0x2073306c
  10c79c:	6c73202b 	.word	0x6c73202b
  10c7a0:	65202b20 	.word	0x65202b20
  10c7a4:	53455242 	.word	0x53455242
  10c7a8:	202b2050 	.word	0x202b2050
  10c7ac:	66667562 	.word	0x66667562
  10c7b0:	73207265 	.word	0x73207265
  10c7b4:	65726f74 	.word	0x65726f74
  10c7b8:	6d696c20 	.word	0x6d696c20
  10c7bc:	74617469 	.word	0x74617469
  10c7c0:	0a6e6f69 	.word	0x0a6e6f69
  10c7c4:	0000000d 	.word	0x0000000d
  10c7c8:	72756f53 	.word	0x72756f53
  10c7cc:	5b3d6563 	.word	0x5b3d6563
  10c7d0:	00000000 	.word	0x00000000
  10c7d4:	6c383025 	.word	0x6c383025
  10c7d8:	00206878 	.word	0x00206878
  10c7dc:	000d0a5d 	.word	0x000d0a5d
  10c7e0:	74736544 	.word	0x74736544
  10c7e4:	3d796e69 	.word	0x3d796e69
  10c7e8:	0000005b 	.word	0x0000005b
  10c7ec:	6c383025 	.word	0x6c383025
  10c7f0:	202c6878 	.word	0x202c6878
  10c7f4:	00000000 	.word	0x00000000
  10c7f8:	0000000a 	.word	0x0000000a

0010c7fc <blanks.8421>:
  10c7fc:	20202020 20202020 20202020 20202020                     

0010c80c <zeroes.8422>:
  10c80c:	30303030 30303030 30303030 30303030     0000000000000000
  10c81c:	00464e49 00666e69 004e414e 006e616e     INF.inf.NAN.nan.
  10c82c:	33323130 37363534 42413938 46454443     0123456789ABCDEF
  10c83c:	00000000 33323130 37363534 62613938     ....0123456789ab
  10c84c:	66656463 00000000 6c756e28 0000296c     cdef....(null)..
  10c85c:	00000030 69666e49 7974696e 00000000     0...Infinity....
  10c86c:	004e614e                                NaN.

0010c870 <_global_impure_ptr>:
  10c870:	00118418 00000000                       ........

0010c878 <p05.7236>:
  10c878:	00000005 00000019 0000007d 00000000     ........}.......

0010c888 <__mprec_tens>:
  10c888:	00000000 3ff00000 00000000 40240000     .......?......$@
  10c898:	00000000 40590000 00000000 408f4000     ......Y@.....@.@
  10c8a8:	00000000 40c38800 00000000 40f86a00     .......@.....j.@
  10c8b8:	00000000 412e8480 00000000 416312d0     .......A......cA
  10c8c8:	00000000 4197d784 00000000 41cdcd65     .......A....e..A
  10c8d8:	20000000 4202a05f e8000000 42374876     ... _..B....vH7B
  10c8e8:	a2000000 426d1a94 e5400000 42a2309c     ......mB..@..0.B
  10c8f8:	1e900000 42d6bcc4 26340000 430c6bf5     .......B..4&.k.C
  10c908:	37e08000 4341c379 85d8a000 43763457     ...7y.AC....W4vC
  10c918:	674ec800 43abc16d 60913d00 43e158e4     ..Ngm..C.=.`.X.C
  10c928:	78b58c40 4415af1d d6e2ef50 444b1ae4     @..x...DP.....KD
  10c938:	064dd592 4480f0cf c7e14af6 44b52d02     ..M....D.J...-.D
  10c948:	79d99db4 44ea7843                       ...yCx.D

0010c950 <__mprec_tinytens>:
  10c950:	97d889bc 3c9cd2b2 d5a8a733 3949f623     .......<3...#.I9
  10c960:	44f4a73d 32a50ffd cf8c979d 255bba08     =..D...2......[%
  10c970:	64ac6f43 0ac80628                       Co.d(...

0010c978 <__mprec_bigtens>:
  10c978:	37e08000 4341c379 b5056e17 4693b8b5     ...7y.AC.n.....F
  10c988:	e93ff9f5 4d384f03 f9301d32 5a827748     ..?..O8M2.0.Hw.Z
  10c998:	7f73bf3c 75154fdd                       <.s..O.u

0010c9a0 <blanks.8400>:
  10c9a0:	20202020 20202020 20202020 20202020                     

0010c9b0 <zeroes.8401>:
  10c9b0:	30303030 30303030 30303030 30303030     0000000000000000
  10c9c0:	00000043 49534f50 00000058 0000002e     C...POSIX.......

0010c9d0 <_ctype_>:
  10c9d0:	20202000 20202020 28282020 20282828     .         ((((( 
  10c9e0:	20202020 20202020 20202020 20202020                     
  10c9f0:	10108820 10101010 10101010 10101010      ...............
  10ca00:	04040410 04040404 10040404 10101010     ................
  10ca10:	41411010 41414141 01010101 01010101     ..AAAAAA........
  10ca20:	01010101 01010101 01010101 10101010     ................
  10ca30:	42421010 42424242 02020202 02020202     ..BBBBBB........
  10ca40:	02020202 02020202 02020202 10101010     ................
  10ca50:	00000020 00000000 00000000 00000000      ...............
	...

0010cad4 <_init>:
  10cad4:	e1a0c00d 	mov	ip, sp
  10cad8:	e92ddff8 	push	{r3, r4, r5, r6, r7, r8, r9, sl, fp, ip, lr, pc}
  10cadc:	e24cb004 	sub	fp, ip, #4
  10cae0:	e24bd028 	sub	sp, fp, #40	; 0x28
  10cae4:	e89d6ff0 	ldm	sp, {r4, r5, r6, r7, r8, r9, sl, fp, sp, lr}
  10cae8:	e12fff1e 	bx	lr

0010caec <__preinit_array_start>:
  10caec:	0010bec8 	.word	0x0010bec8

0010caf0 <__init_array_start>:
  10caf0:	00103534 	.word	0x00103534
  10caf4:	001073e0 	.word	0x001073e0
  10caf8:	001073ec 	.word	0x001073ec

0010cafc <__frame_dummy_init_array_entry>:
  10cafc:	001001c8                                ....

0010cb00 <_fini>:
  10cb00:	e1a0c00d 	mov	ip, sp
  10cb04:	e92ddff8 	push	{r3, r4, r5, r6, r7, r8, r9, sl, fp, ip, lr, pc}
  10cb08:	e24cb004 	sub	fp, ip, #4
  10cb0c:	e24bd028 	sub	sp, fp, #40	; 0x28
  10cb10:	e89d6ff0 	ldm	sp, {r4, r5, r6, r7, r8, r9, sl, fp, sp, lr}
  10cb14:	e12fff1e 	bx	lr

0010cb18 <__fini_array_start>:
  10cb18:	00100184 	.word	0x00100184

0010cb1c <__cs3_regions>:
  10cb1c:	00000000 	.word	0x00000000
  10cb20:	ffff0000 	.word	0xffff0000
  10cb24:	ffff0000 	.word	0xffff0000
	...
  10cb34:	00100040 	.word	0x00100040
  10cb38:	00100040 	.word	0x00100040
  10cb3c:	00018978 	.word	0x00018978
  10cb40:	00000070 	.word	0x00000070

0010cb44 <__cs3_regions_end>:
  10cb44:	00000000 	.word	0x00000000
