
soc_dma.axf:     file format elf32-littlearm


Disassembly of section .text:

00100040 <__cs3_interrupt_vector>:
  100040:	18 f0 9f e5 18 f0 9f e5 18 f0 9f e5 18 f0 9f e5     ................
  100050:	18 f0 9f e5 18 f0 9f e5 18 f0 9f e5 18 f0 9f e5     ................
  100060:	80 00 10 00 b0 bf 10 00 b4 bf 10 00 b8 bf 10 00     ................
  100070:	bc bf 10 00 ac bf 10 00 c0 bf 10 00 c4 bf 10 00     ................

00100080 <__cs3_reset>:
  100080:	ea000022 	b	100110 <_start>

00100084 <__cs3_start_c>:
  100084:	e3008002 	movw	r8, #2
  100088:	e92d4080 	push	{r7, lr}
  10008c:	e3408000 	movt	r8, #0
  100090:	e3580000 	cmp	r8, #0
  100094:	0a00001c 	beq	10010c <__cs3_start_c+0x88>
  100098:	e30ceb1c 	movw	lr, #51996	; 0xcb1c
  10009c:	e2488001 	sub	r8, r8, #1
  1000a0:	e3a04000 	mov	r4, #0
  1000a4:	e3a05000 	mov	r5, #0
  1000a8:	e340e010 	movt	lr, #16
  1000ac:	e99e1005 	ldmib	lr, {r0, r2, ip}
  1000b0:	e1500002 	cmp	r0, r2
  1000b4:	0082200c 	addeq	r2, r2, ip
  1000b8:	0a000007 	beq	1000dc <__cs3_start_c+0x58>
  1000bc:	e35c0000 	cmp	ip, #0
  1000c0:	0a000005 	beq	1000dc <__cs3_start_c+0x58>
  1000c4:	e1a03000 	mov	r3, r0
  1000c8:	e0c360d8 	ldrd	r6, [r3], #8
  1000cc:	e0431000 	sub	r1, r3, r0
  1000d0:	e0c260f8 	strd	r6, [r2], #8
  1000d4:	e151000c 	cmp	r1, ip
  1000d8:	1afffffa 	bne	1000c8 <__cs3_start_c+0x44>
  1000dc:	e59e0010 	ldr	r0, [lr, #16]
  1000e0:	e3500000 	cmp	r0, #0
  1000e4:	11a03002 	movne	r3, r2
  1000e8:	0a000003 	beq	1000fc <__cs3_start_c+0x78>
  1000ec:	e0c340f8 	strd	r4, [r3], #8
  1000f0:	e0431002 	sub	r1, r3, r2
  1000f4:	e1500001 	cmp	r0, r1
  1000f8:	1afffffb 	bne	1000ec <__cs3_start_c+0x68>
  1000fc:	e2488001 	sub	r8, r8, #1
  100100:	e28ee014 	add	lr, lr, #20
  100104:	e3780001 	cmn	r8, #1
  100108:	1affffe7 	bne	1000ac <__cs3_start_c+0x28>
  10010c:	eb002f59 	bl	10be78 <__cs3_premain>

00100110 <_start>:
  100110:	e51fd000 	ldr	sp, [pc, #-0]	; 100118 <_start+0x8>
  100114:	eaffffda 	b	100084 <__cs3_start_c>
  100118:	01100040 	.word	0x01100040

0010011c <deregister_tm_clones>:
  10011c:	e59f3024 	ldr	r3, [pc, #36]	; 100148 <deregister_tm_clones+0x2c>
  100120:	e30809b8 	movw	r0, #35256	; 0x89b8
  100124:	e3400011 	movt	r0, #17
  100128:	e0433000 	sub	r3, r3, r0
  10012c:	e3530006 	cmp	r3, #6
  100130:	912fff1e 	bxls	lr
  100134:	e3003000 	movw	r3, #0
  100138:	e3403000 	movt	r3, #0
  10013c:	e3530000 	cmp	r3, #0
  100140:	012fff1e 	bxeq	lr
  100144:	e12fff13 	bx	r3
  100148:	001189bb 	.word	0x001189bb

0010014c <register_tm_clones>:
  10014c:	e30839b8 	movw	r3, #35256	; 0x89b8
  100150:	e30809b8 	movw	r0, #35256	; 0x89b8
  100154:	e3403011 	movt	r3, #17
  100158:	e3400011 	movt	r0, #17
  10015c:	e0431000 	sub	r1, r3, r0
  100160:	e1a01141 	asr	r1, r1, #2
  100164:	e0811fa1 	add	r1, r1, r1, lsr #31
  100168:	e1b010c1 	asrs	r1, r1, #1
  10016c:	012fff1e 	bxeq	lr
  100170:	e3003000 	movw	r3, #0
  100174:	e3403000 	movt	r3, #0
  100178:	e3530000 	cmp	r3, #0
  10017c:	012fff1e 	bxeq	lr
  100180:	e12fff13 	bx	r3

00100184 <__do_global_dtors_aux>:
  100184:	e92d4010 	push	{r4, lr}
  100188:	e30849b8 	movw	r4, #35256	; 0x89b8
  10018c:	e3404011 	movt	r4, #17
  100190:	e5d43000 	ldrb	r3, [r4]
  100194:	e3530000 	cmp	r3, #0
  100198:	18bd8010 	popne	{r4, pc}
  10019c:	ebffffde 	bl	10011c <deregister_tm_clones>
  1001a0:	e3003000 	movw	r3, #0
  1001a4:	e3403000 	movt	r3, #0
  1001a8:	e3530000 	cmp	r3, #0
  1001ac:	0a000002 	beq	1001bc <__do_global_dtors_aux+0x38>
  1001b0:	e30c004c 	movw	r0, #49228	; 0xc04c
  1001b4:	e3400010 	movt	r0, #16
  1001b8:	e320f000 	nop	{0}
  1001bc:	e3a03001 	mov	r3, #1
  1001c0:	e5c43000 	strb	r3, [r4]
  1001c4:	e8bd8010 	pop	{r4, pc}

001001c8 <frame_dummy>:
  1001c8:	e3003000 	movw	r3, #0
  1001cc:	e92d4010 	push	{r4, lr}
  1001d0:	e3403000 	movt	r3, #0
  1001d4:	e3530000 	cmp	r3, #0
  1001d8:	0a000004 	beq	1001f0 <frame_dummy+0x28>
  1001dc:	e30819bc 	movw	r1, #35260	; 0x89bc
  1001e0:	e30c004c 	movw	r0, #49228	; 0xc04c
  1001e4:	e3401011 	movt	r1, #17
  1001e8:	e3400010 	movt	r0, #16
  1001ec:	e320f000 	nop	{0}
  1001f0:	e3000000 	movw	r0, #0
  1001f4:	e3400011 	movt	r0, #17
  1001f8:	e5903000 	ldr	r3, [r0]
  1001fc:	e3530000 	cmp	r3, #0
  100200:	1a000001 	bne	10020c <frame_dummy+0x44>
  100204:	e8bd4010 	pop	{r4, lr}
  100208:	eaffffcf 	b	10014c <register_tm_clones>
  10020c:	e3003000 	movw	r3, #0
  100210:	e3403000 	movt	r3, #0
  100214:	e3530000 	cmp	r3, #0
  100218:	0afffff9 	beq	100204 <frame_dummy+0x3c>
  10021c:	e12fff33 	blx	r3
  100220:	eafffff7 	b	100204 <frame_dummy+0x3c>

00100224 <main>:
  100224:	e92d4810 	push	{r4, fp, lr}
  100228:	e28db008 	add	fp, sp, #8
  10022c:	e24dd044 	sub	sp, sp, #68	; 0x44
  100230:	e30c0058 	movw	r0, #49240	; 0xc058
  100234:	e3400010 	movt	r0, #16
  100238:	eb000ccd 	bl	103574 <printf>
  10023c:	e30c0094 	movw	r0, #49300	; 0xc094
  100240:	e3400010 	movt	r0, #16
  100244:	eb000cca 	bl	103574 <printf>
  100248:	e30c00d0 	movw	r0, #49360	; 0xc0d0
  10024c:	e3400010 	movt	r0, #16
  100250:	eb000cc7 	bl	103574 <printf>
  100254:	e30c010c 	movw	r0, #49420	; 0xc10c
  100258:	e3400010 	movt	r0, #16
  10025c:	eb000cc4 	bl	103574 <printf>
  100260:	e30c0148 	movw	r0, #49480	; 0xc148
  100264:	e3400010 	movt	r0, #16
  100268:	eb000cc1 	bl	103574 <printf>
  10026c:	e30c0180 	movw	r0, #49536	; 0xc180
  100270:	e3400010 	movt	r0, #16
  100274:	eb000cbe 	bl	103574 <printf>
  100278:	e30c01bc 	movw	r0, #49596	; 0xc1bc
  10027c:	e3400010 	movt	r0, #16
  100280:	eb000cbb 	bl	103574 <printf>
  100284:	e30c01f4 	movw	r0, #49652	; 0xc1f4
  100288:	e3400010 	movt	r0, #16
  10028c:	eb000d0f 	bl	1036d0 <puts>
  100290:	e30c0204 	movw	r0, #49668	; 0xc204
  100294:	e3400010 	movt	r0, #16
  100298:	eb000cb5 	bl	103574 <printf>
  10029c:	e3a03000 	mov	r3, #0
  1002a0:	e50b3010 	str	r3, [fp, #-16]
  1002a4:	e3a03000 	mov	r3, #0
  1002a8:	e34c3002 	movt	r3, #49154	; 0xc002
  1002ac:	e50b3020 	str	r3, [fp, #-32]	; 0xffffffe0
  1002b0:	e3a00009 	mov	r0, #9
  1002b4:	eb0001c7 	bl	1009d8 <cache_configuration>
  1002b8:	e3a0301f 	mov	r3, #31
  1002bc:	e50b3024 	str	r3, [fp, #-36]	; 0xffffffdc
  1002c0:	e3a0301f 	mov	r3, #31
  1002c4:	e50b3028 	str	r3, [fp, #-40]	; 0xffffffd8
  1002c8:	e51b3010 	ldr	r3, [fp, #-16]
  1002cc:	e3530000 	cmp	r3, #0
  1002d0:	1a00000d 	bne	10030c <main+0xe8>
  1002d4:	e3a00003 	mov	r0, #3
  1002d8:	eb0005d0 	bl	101a20 <alt_acp_id_map_dynamic_read_set>
  1002dc:	e50b0010 	str	r0, [fp, #-16]
  1002e0:	e3a00004 	mov	r0, #4
  1002e4:	eb000632 	bl	101bb4 <alt_acp_id_map_dynamic_write_set>
  1002e8:	e50b0010 	str	r0, [fp, #-16]
  1002ec:	e51b1024 	ldr	r1, [fp, #-36]	; 0xffffffdc
  1002f0:	e3a00000 	mov	r0, #0
  1002f4:	eb000693 	bl	101d48 <alt_acp_id_map_dynamic_read_options_set>
  1002f8:	e50b0010 	str	r0, [fp, #-16]
  1002fc:	e51b1028 	ldr	r1, [fp, #-40]	; 0xffffffd8
  100300:	e3a00000 	mov	r0, #0
  100304:	eb0006a4 	bl	101d9c <alt_acp_id_map_dynamic_write_options_set>
  100308:	e50b0010 	str	r0, [fp, #-16]
  10030c:	e51b3010 	ldr	r3, [fp, #-16]
  100310:	e3530000 	cmp	r3, #0
  100314:	1a000047 	bne	100438 <main+0x214>
  100318:	e30c023c 	movw	r0, #49724	; 0xc23c
  10031c:	e3400010 	movt	r0, #16
  100320:	eb000c93 	bl	103574 <printf>
  100324:	e30c0274 	movw	r0, #49780	; 0xc274
  100328:	e3400010 	movt	r0, #16
  10032c:	eb000c90 	bl	103574 <printf>
  100330:	e3a01d22 	mov	r1, #2176	; 0x880
  100334:	e3a00000 	mov	r0, #0
  100338:	e34c0001 	movt	r0, #49153	; 0xc001
  10033c:	eb0008ad 	bl	1025f8 <fpga_dma_init>
  100340:	e30c0288 	movw	r0, #49800	; 0xc288
  100344:	e3400010 	movt	r0, #16
  100348:	eb000c89 	bl	103574 <printf>
  10034c:	e30c02a0 	movw	r0, #49824	; 0xc2a0
  100350:	e3400010 	movt	r0, #16
  100354:	eb000c86 	bl	103574 <printf>
  100358:	e3a01001 	mov	r1, #1
  10035c:	e3a00e32 	mov	r0, #800	; 0x320
  100360:	eb00092b 	bl	102814 <pmu_init_ns>
  100364:	eb000958 	bl	1028cc <pmu_counter_enable>
  100368:	eb00094e 	bl	1028a8 <pmu_getres_ns>
  10036c:	e50b002c 	str	r0, [fp, #-44]	; 0xffffffd4
  100370:	e30c02c0 	movw	r0, #49856	; 0xc2c0
  100374:	e3400010 	movt	r0, #16
  100378:	eb000c7d 	bl	103574 <printf>
  10037c:	ed5b7a0b 	vldr	s15, [fp, #-44]	; 0xffffffd4
  100380:	eef70ae7 	vcvt.f64.f32	d16, s15
  100384:	ec532b30 	vmov	r2, r3, d16
  100388:	e30c02ec 	movw	r0, #49900	; 0xc2ec
  10038c:	e3400010 	movt	r0, #16
  100390:	eb000c77 	bl	103574 <printf>
  100394:	e30c032c 	movw	r0, #49964	; 0xc32c
  100398:	e3400010 	movt	r0, #16
  10039c:	eb000c74 	bl	103574 <printf>
  1003a0:	e30839d4 	movw	r3, #35284	; 0x89d4
  1003a4:	e3403011 	movt	r3, #17
  1003a8:	e3a02b01 	mov	r2, #1024	; 0x400
  1003ac:	e5832000 	str	r2, [r3]
  1003b0:	e30839d4 	movw	r3, #35284	; 0x89d4
  1003b4:	e3403011 	movt	r3, #17
  1003b8:	e5933000 	ldr	r3, [r3]
  1003bc:	e1a01003 	mov	r1, r3
  1003c0:	e30c035c 	movw	r0, #50012	; 0xc35c
  1003c4:	e3400010 	movt	r0, #16
  1003c8:	eb000c69 	bl	103574 <printf>
  1003cc:	e30839d4 	movw	r3, #35284	; 0x89d4
  1003d0:	e3403011 	movt	r3, #17
  1003d4:	e5933000 	ldr	r3, [r3]
  1003d8:	e1a02003 	mov	r2, r3
  1003dc:	e24b3048 	sub	r3, fp, #72	; 0x48
  1003e0:	e1a01003 	mov	r1, r3
  1003e4:	e1a00002 	mov	r0, r2
  1003e8:	eb0008d6 	bl	102748 <align_malloc>
  1003ec:	e50b0030 	str	r0, [fp, #-48]	; 0xffffffd0
  1003f0:	e3a03087 	mov	r3, #135	; 0x87
  1003f4:	e3403087 	movt	r3, #135	; 0x87
  1003f8:	e50b3034 	str	r3, [fp, #-52]	; 0xffffffcc
  1003fc:	e51b3034 	ldr	r3, [fp, #-52]	; 0xffffffcc
  100400:	e1a01003 	mov	r1, r3
  100404:	e30c0364 	movw	r0, #50020	; 0xc364
  100408:	e3400010 	movt	r0, #16
  10040c:	eb000c58 	bl	103574 <printf>
  100410:	e51b3034 	ldr	r3, [fp, #-52]	; 0xffffffcc
  100414:	e6ef2073 	uxtb	r2, r3
  100418:	e51b3020 	ldr	r3, [fp, #-32]	; 0xffffffe0
  10041c:	e5c32000 	strb	r2, [r3]
  100420:	e30c0378 	movw	r0, #50040	; 0xc378
  100424:	e3400010 	movt	r0, #16
  100428:	eb000c51 	bl	103574 <printf>
  10042c:	e3a03000 	mov	r3, #0
  100430:	e50b3014 	str	r3, [fp, #-20]	; 0xffffffec
  100434:	ea0000a6 	b	1006d4 <main+0x4b0>
  100438:	e30c025c 	movw	r0, #49756	; 0xc25c
  10043c:	e3400010 	movt	r0, #16
  100440:	eb000c4b 	bl	103574 <printf>
  100444:	e3a03001 	mov	r3, #1
  100448:	ea00015f 	b	1009cc <main+0x7a8>
  10044c:	e3a03000 	mov	r3, #0
  100450:	e50b3018 	str	r3, [fp, #-24]	; 0xffffffe8
  100454:	ea000098 	b	1006bc <main+0x498>
  100458:	e51b3014 	ldr	r3, [fp, #-20]	; 0xffffffec
  10045c:	e3530000 	cmp	r3, #0
  100460:	ca000028 	bgt	100508 <main+0x2e4>
  100464:	e51b3018 	ldr	r3, [fp, #-24]	; 0xffffffe8
  100468:	e3530003 	cmp	r3, #3
  10046c:	1a000012 	bne	1004bc <main+0x298>
  100470:	e51b3014 	ldr	r3, [fp, #-20]	; 0xffffffec
  100474:	e1a02103 	lsl	r2, r3, #2
  100478:	e51b3018 	ldr	r3, [fp, #-24]	; 0xffffffe8
  10047c:	e0823003 	add	r3, r2, r3
  100480:	e1a02003 	mov	r2, r3
  100484:	e51b3030 	ldr	r3, [fp, #-48]	; 0xffffffd0
  100488:	e0833002 	add	r3, r3, r2
  10048c:	e3a0200c 	mov	r2, #12
  100490:	e5c32000 	strb	r2, [r3]
  100494:	e51b3014 	ldr	r3, [fp, #-20]	; 0xffffffec
  100498:	e1a02103 	lsl	r2, r3, #2
  10049c:	e51b3018 	ldr	r3, [fp, #-24]	; 0xffffffe8
  1004a0:	e0823003 	add	r3, r2, r3
  1004a4:	e2834103 	add	r4, r3, #-1073741824	; 0xc0000000
  1004a8:	eb000c95 	bl	103704 <rand>
  1004ac:	e1a03000 	mov	r3, r0
  1004b0:	e6ef3073 	uxtb	r3, r3
  1004b4:	e5c43000 	strb	r3, [r4]
  1004b8:	ea00007c 	b	1006b0 <main+0x48c>
  1004bc:	e51b3014 	ldr	r3, [fp, #-20]	; 0xffffffec
  1004c0:	e1a02103 	lsl	r2, r3, #2
  1004c4:	e51b3018 	ldr	r3, [fp, #-24]	; 0xffffffe8
  1004c8:	e0823003 	add	r3, r2, r3
  1004cc:	e1a02003 	mov	r2, r3
  1004d0:	e51b3030 	ldr	r3, [fp, #-48]	; 0xffffffd0
  1004d4:	e0833002 	add	r3, r3, r2
  1004d8:	e3a0200c 	mov	r2, #12
  1004dc:	e5c32000 	strb	r2, [r3]
  1004e0:	e51b3014 	ldr	r3, [fp, #-20]	; 0xffffffec
  1004e4:	e1a02103 	lsl	r2, r3, #2
  1004e8:	e51b3018 	ldr	r3, [fp, #-24]	; 0xffffffe8
  1004ec:	e0823003 	add	r3, r2, r3
  1004f0:	e2834103 	add	r4, r3, #-1073741824	; 0xc0000000
  1004f4:	eb000c82 	bl	103704 <rand>
  1004f8:	e1a03000 	mov	r3, r0
  1004fc:	e6ef3073 	uxtb	r3, r3
  100500:	e5c43000 	strb	r3, [r4]
  100504:	ea000069 	b	1006b0 <main+0x48c>
  100508:	e51b3014 	ldr	r3, [fp, #-20]	; 0xffffffec
  10050c:	e3530020 	cmp	r3, #32
  100510:	ca000028 	bgt	1005b8 <main+0x394>
  100514:	e51b3018 	ldr	r3, [fp, #-24]	; 0xffffffe8
  100518:	e3530003 	cmp	r3, #3
  10051c:	1a000012 	bne	10056c <main+0x348>
  100520:	e51b3014 	ldr	r3, [fp, #-20]	; 0xffffffec
  100524:	e1a02103 	lsl	r2, r3, #2
  100528:	e51b3018 	ldr	r3, [fp, #-24]	; 0xffffffe8
  10052c:	e0823003 	add	r3, r2, r3
  100530:	e1a02003 	mov	r2, r3
  100534:	e51b3030 	ldr	r3, [fp, #-48]	; 0xffffffd0
  100538:	e0833002 	add	r3, r3, r2
  10053c:	e3a02040 	mov	r2, #64	; 0x40
  100540:	e5c32000 	strb	r2, [r3]
  100544:	e51b3014 	ldr	r3, [fp, #-20]	; 0xffffffec
  100548:	e1a02103 	lsl	r2, r3, #2
  10054c:	e51b3018 	ldr	r3, [fp, #-24]	; 0xffffffe8
  100550:	e0823003 	add	r3, r2, r3
  100554:	e2834103 	add	r4, r3, #-1073741824	; 0xc0000000
  100558:	eb000c69 	bl	103704 <rand>
  10055c:	e1a03000 	mov	r3, r0
  100560:	e6ef3073 	uxtb	r3, r3
  100564:	e5c43000 	strb	r3, [r4]
  100568:	ea000050 	b	1006b0 <main+0x48c>
  10056c:	e51b3014 	ldr	r3, [fp, #-20]	; 0xffffffec
  100570:	e1a02103 	lsl	r2, r3, #2
  100574:	e51b3018 	ldr	r3, [fp, #-24]	; 0xffffffe8
  100578:	e0823003 	add	r3, r2, r3
  10057c:	e1a02003 	mov	r2, r3
  100580:	e51b3030 	ldr	r3, [fp, #-48]	; 0xffffffd0
  100584:	e0833002 	add	r3, r3, r2
  100588:	e3a02000 	mov	r2, #0
  10058c:	e5c32000 	strb	r2, [r3]
  100590:	e51b3014 	ldr	r3, [fp, #-20]	; 0xffffffec
  100594:	e1a02103 	lsl	r2, r3, #2
  100598:	e51b3018 	ldr	r3, [fp, #-24]	; 0xffffffe8
  10059c:	e0823003 	add	r3, r2, r3
  1005a0:	e2834103 	add	r4, r3, #-1073741824	; 0xc0000000
  1005a4:	eb000c56 	bl	103704 <rand>
  1005a8:	e1a03000 	mov	r3, r0
  1005ac:	e6ef3073 	uxtb	r3, r3
  1005b0:	e5c43000 	strb	r3, [r4]
  1005b4:	ea00003d 	b	1006b0 <main+0x48c>
  1005b8:	e51b3018 	ldr	r3, [fp, #-24]	; 0xffffffe8
  1005bc:	e3530003 	cmp	r3, #3
  1005c0:	1a000012 	bne	100610 <main+0x3ec>
  1005c4:	e51b3014 	ldr	r3, [fp, #-20]	; 0xffffffec
  1005c8:	e1a02103 	lsl	r2, r3, #2
  1005cc:	e51b3018 	ldr	r3, [fp, #-24]	; 0xffffffe8
  1005d0:	e0823003 	add	r3, r2, r3
  1005d4:	e1a02003 	mov	r2, r3
  1005d8:	e51b3030 	ldr	r3, [fp, #-48]	; 0xffffffd0
  1005dc:	e0833002 	add	r3, r3, r2
  1005e0:	e3a0203f 	mov	r2, #63	; 0x3f
  1005e4:	e5c32000 	strb	r2, [r3]
  1005e8:	e51b3014 	ldr	r3, [fp, #-20]	; 0xffffffec
  1005ec:	e1a02103 	lsl	r2, r3, #2
  1005f0:	e51b3018 	ldr	r3, [fp, #-24]	; 0xffffffe8
  1005f4:	e0823003 	add	r3, r2, r3
  1005f8:	e2834103 	add	r4, r3, #-1073741824	; 0xc0000000
  1005fc:	eb000c40 	bl	103704 <rand>
  100600:	e1a03000 	mov	r3, r0
  100604:	e6ef3073 	uxtb	r3, r3
  100608:	e5c43000 	strb	r3, [r4]
  10060c:	ea000027 	b	1006b0 <main+0x48c>
  100610:	e51b3018 	ldr	r3, [fp, #-24]	; 0xffffffe8
  100614:	e3530002 	cmp	r3, #2
  100618:	1a000012 	bne	100668 <main+0x444>
  10061c:	e51b3014 	ldr	r3, [fp, #-20]	; 0xffffffec
  100620:	e1a02103 	lsl	r2, r3, #2
  100624:	e51b3018 	ldr	r3, [fp, #-24]	; 0xffffffe8
  100628:	e0823003 	add	r3, r2, r3
  10062c:	e1a02003 	mov	r2, r3
  100630:	e51b3030 	ldr	r3, [fp, #-48]	; 0xffffffd0
  100634:	e0833002 	add	r3, r3, r2
  100638:	e3e0207f 	mvn	r2, #127	; 0x7f
  10063c:	e5c32000 	strb	r2, [r3]
  100640:	e51b3014 	ldr	r3, [fp, #-20]	; 0xffffffec
  100644:	e1a02103 	lsl	r2, r3, #2
  100648:	e51b3018 	ldr	r3, [fp, #-24]	; 0xffffffe8
  10064c:	e0823003 	add	r3, r2, r3
  100650:	e2834103 	add	r4, r3, #-1073741824	; 0xc0000000
  100654:	eb000c2a 	bl	103704 <rand>
  100658:	e1a03000 	mov	r3, r0
  10065c:	e6ef3073 	uxtb	r3, r3
  100660:	e5c43000 	strb	r3, [r4]
  100664:	ea000011 	b	1006b0 <main+0x48c>
  100668:	e51b3014 	ldr	r3, [fp, #-20]	; 0xffffffec
  10066c:	e1a02103 	lsl	r2, r3, #2
  100670:	e51b3018 	ldr	r3, [fp, #-24]	; 0xffffffe8
  100674:	e0823003 	add	r3, r2, r3
  100678:	e1a02003 	mov	r2, r3
  10067c:	e51b3030 	ldr	r3, [fp, #-48]	; 0xffffffd0
  100680:	e0833002 	add	r3, r3, r2
  100684:	e3a02000 	mov	r2, #0
  100688:	e5c32000 	strb	r2, [r3]
  10068c:	e51b3014 	ldr	r3, [fp, #-20]	; 0xffffffec
  100690:	e1a02103 	lsl	r2, r3, #2
  100694:	e51b3018 	ldr	r3, [fp, #-24]	; 0xffffffe8
  100698:	e0823003 	add	r3, r2, r3
  10069c:	e2834103 	add	r4, r3, #-1073741824	; 0xc0000000
  1006a0:	eb000c17 	bl	103704 <rand>
  1006a4:	e1a03000 	mov	r3, r0
  1006a8:	e6ef3073 	uxtb	r3, r3
  1006ac:	e5c43000 	strb	r3, [r4]
  1006b0:	e51b3018 	ldr	r3, [fp, #-24]	; 0xffffffe8
  1006b4:	e2833001 	add	r3, r3, #1
  1006b8:	e50b3018 	str	r3, [fp, #-24]	; 0xffffffe8
  1006bc:	e51b3018 	ldr	r3, [fp, #-24]	; 0xffffffe8
  1006c0:	e3530003 	cmp	r3, #3
  1006c4:	daffff63 	ble	100458 <main+0x234>
  1006c8:	e51b3014 	ldr	r3, [fp, #-20]	; 0xffffffec
  1006cc:	e2833001 	add	r3, r3, #1
  1006d0:	e50b3014 	str	r3, [fp, #-20]	; 0xffffffec
  1006d4:	e30839d4 	movw	r3, #35284	; 0x89d4
  1006d8:	e3403011 	movt	r3, #17
  1006dc:	e5933000 	ldr	r3, [r3]
  1006e0:	e2832003 	add	r2, r3, #3
  1006e4:	e3530000 	cmp	r3, #0
  1006e8:	b1a03002 	movlt	r3, r2
  1006ec:	a1a03003 	movge	r3, r3
  1006f0:	e1a03143 	asr	r3, r3, #2
  1006f4:	e1a02003 	mov	r2, r3
  1006f8:	e51b3014 	ldr	r3, [fp, #-20]	; 0xffffffec
  1006fc:	e1520003 	cmp	r2, r3
  100700:	caffff51 	bgt	10044c <main+0x228>
  100704:	e30c0398 	movw	r0, #50072	; 0xc398
  100708:	e3400010 	movt	r0, #16
  10070c:	eb000b98 	bl	103574 <printf>
  100710:	e30839d4 	movw	r3, #35284	; 0x89d4
  100714:	e3403011 	movt	r3, #17
  100718:	e5933000 	ldr	r3, [r3]
  10071c:	e1a02003 	mov	r2, r3
  100720:	e3a01103 	mov	r1, #-1073741824	; 0xc0000000
  100724:	e51b0030 	ldr	r0, [fp, #-48]	; 0xffffffd0
  100728:	eb00015b 	bl	100c9c <print_src_dst>
  10072c:	e51b1030 	ldr	r1, [fp, #-48]	; 0xffffffd0
  100730:	e30839d4 	movw	r3, #35284	; 0x89d4
  100734:	e3403011 	movt	r3, #17
  100738:	e5933000 	ldr	r3, [r3]
  10073c:	e3a02103 	mov	r2, #-1073741824	; 0xc0000000
  100740:	e30c03a4 	movw	r0, #50084	; 0xc3a4
  100744:	e3400010 	movt	r0, #16
  100748:	eb000b89 	bl	103574 <printf>
  10074c:	e51b3030 	ldr	r3, [fp, #-48]	; 0xffffffd0
  100750:	e2833102 	add	r3, r3, #-2147483648	; 0x80000000
  100754:	e1a01003 	mov	r1, r3
  100758:	e30839d4 	movw	r3, #35284	; 0x89d4
  10075c:	e3403011 	movt	r3, #17
  100760:	e5933000 	ldr	r3, [r3]
  100764:	e3a02000 	mov	r2, #0
  100768:	e30c03e0 	movw	r0, #50144	; 0xc3e0
  10076c:	e3400010 	movt	r0, #16
  100770:	eb000b7f 	bl	103574 <printf>
  100774:	e51b3030 	ldr	r3, [fp, #-48]	; 0xffffffd0
  100778:	e2831102 	add	r1, r3, #-2147483648	; 0x80000000
  10077c:	e30839d4 	movw	r3, #35284	; 0x89d4
  100780:	e3403011 	movt	r3, #17
  100784:	e5933000 	ldr	r3, [r3]
  100788:	e3a02000 	mov	r2, #0
  10078c:	e3a00000 	mov	r0, #0
  100790:	e34c0001 	movt	r0, #49153	; 0xc001
  100794:	eb0007a3 	bl	102628 <fpga_dma_config_transfer>
  100798:	eb00085e 	bl	102918 <pmu_counter_reset>
  10079c:	e3a00000 	mov	r0, #0
  1007a0:	e34c0001 	movt	r0, #49153	; 0xc001
  1007a4:	eb0007cf 	bl	1026e8 <fpga_dma_start_transfer>
  1007a8:	e320f000 	nop	{0}
  1007ac:	e3a00103 	mov	r0, #-1073741824	; 0xc0000000
  1007b0:	eb00018e 	bl	100df0 <ukf_transfer_done>
  1007b4:	e1a02000 	mov	r2, r0
  1007b8:	e30a3d11 	movw	r3, #44305	; 0xad11
  1007bc:	e34030de 	movt	r3, #222	; 0xde
  1007c0:	e1520003 	cmp	r2, r3
  1007c4:	1afffff8 	bne	1007ac <main+0x588>
  1007c8:	e24b3044 	sub	r3, fp, #68	; 0x44
  1007cc:	e1a00003 	mov	r0, r3
  1007d0:	eb00087c 	bl	1029c8 <pmu_counter_read_ns>
  1007d4:	e3a00103 	mov	r0, #-1073741824	; 0xc0000000
  1007d8:	eb000184 	bl	100df0 <ukf_transfer_done>
  1007dc:	e50b0038 	str	r0, [fp, #-56]	; 0xffffffc8
  1007e0:	e14b24d4 	ldrd	r2, [fp, #-68]	; 0xffffffbc
  1007e4:	e30c041c 	movw	r0, #50204	; 0xc41c
  1007e8:	e3400010 	movt	r0, #16
  1007ec:	eb000b60 	bl	103574 <printf>
  1007f0:	e30c0448 	movw	r0, #50248	; 0xc448
  1007f4:	e3400010 	movt	r0, #16
  1007f8:	eb000b5d 	bl	103574 <printf>
  1007fc:	e3a03000 	mov	r3, #0
  100800:	e50b301c 	str	r3, [fp, #-28]	; 0xffffffe4
  100804:	ea000002 	b	100814 <main+0x5f0>
  100808:	e51b301c 	ldr	r3, [fp, #-28]	; 0xffffffe4
  10080c:	e2833001 	add	r3, r3, #1
  100810:	e50b301c 	str	r3, [fp, #-28]	; 0xffffffe4
  100814:	e51b201c 	ldr	r2, [fp, #-28]	; 0xffffffe4
  100818:	e309367f 	movw	r3, #38527	; 0x967f
  10081c:	e3403098 	movt	r3, #152	; 0x98
  100820:	e1520003 	cmp	r2, r3
  100824:	dafffff7 	ble	100808 <main+0x5e4>
  100828:	e51b1038 	ldr	r1, [fp, #-56]	; 0xffffffc8
  10082c:	e30c0450 	movw	r0, #50256	; 0xc450
  100830:	e3400010 	movt	r0, #16
  100834:	eb000b4e 	bl	103574 <printf>
  100838:	e3a00103 	mov	r0, #-1073741824	; 0xc0000000
  10083c:	eb00016b 	bl	100df0 <ukf_transfer_done>
  100840:	e50b0038 	str	r0, [fp, #-56]	; 0xffffffc8
  100844:	e51b1038 	ldr	r1, [fp, #-56]	; 0xffffffc8
  100848:	e30c0450 	movw	r0, #50256	; 0xc450
  10084c:	e3400010 	movt	r0, #16
  100850:	eb000b47 	bl	103574 <printf>
  100854:	e3a00113 	mov	r0, #-1073741820	; 0xc0000004
  100858:	eb000164 	bl	100df0 <ukf_transfer_done>
  10085c:	e50b0038 	str	r0, [fp, #-56]	; 0xffffffc8
  100860:	e51b1038 	ldr	r1, [fp, #-56]	; 0xffffffc8
  100864:	e30c0450 	movw	r0, #50256	; 0xc450
  100868:	e3400010 	movt	r0, #16
  10086c:	eb000b40 	bl	103574 <printf>
  100870:	e3a00123 	mov	r0, #-1073741816	; 0xc0000008
  100874:	eb00015d 	bl	100df0 <ukf_transfer_done>
  100878:	e50b0038 	str	r0, [fp, #-56]	; 0xffffffc8
  10087c:	e51b1038 	ldr	r1, [fp, #-56]	; 0xffffffc8
  100880:	e30c0450 	movw	r0, #50256	; 0xc450
  100884:	e3400010 	movt	r0, #16
  100888:	eb000b39 	bl	103574 <printf>
  10088c:	e3a00133 	mov	r0, #-1073741812	; 0xc000000c
  100890:	eb000156 	bl	100df0 <ukf_transfer_done>
  100894:	e50b0038 	str	r0, [fp, #-56]	; 0xffffffc8
  100898:	e51b1038 	ldr	r1, [fp, #-56]	; 0xffffffc8
  10089c:	e30c0450 	movw	r0, #50256	; 0xc450
  1008a0:	e3400010 	movt	r0, #16
  1008a4:	eb000b32 	bl	103574 <printf>
  1008a8:	e3a00143 	mov	r0, #-1073741808	; 0xc0000010
  1008ac:	eb00014f 	bl	100df0 <ukf_transfer_done>
  1008b0:	e50b0038 	str	r0, [fp, #-56]	; 0xffffffc8
  1008b4:	e51b1038 	ldr	r1, [fp, #-56]	; 0xffffffc8
  1008b8:	e30c0450 	movw	r0, #50256	; 0xc450
  1008bc:	e3400010 	movt	r0, #16
  1008c0:	eb000b2b 	bl	103574 <printf>
  1008c4:	e3a00153 	mov	r0, #-1073741804	; 0xc0000014
  1008c8:	eb000148 	bl	100df0 <ukf_transfer_done>
  1008cc:	e50b0038 	str	r0, [fp, #-56]	; 0xffffffc8
  1008d0:	e51b1038 	ldr	r1, [fp, #-56]	; 0xffffffc8
  1008d4:	e30c0450 	movw	r0, #50256	; 0xc450
  1008d8:	e3400010 	movt	r0, #16
  1008dc:	eb000b24 	bl	103574 <printf>
  1008e0:	e3a00163 	mov	r0, #-1073741800	; 0xc0000018
  1008e4:	eb000141 	bl	100df0 <ukf_transfer_done>
  1008e8:	e50b0038 	str	r0, [fp, #-56]	; 0xffffffc8
  1008ec:	e51b1038 	ldr	r1, [fp, #-56]	; 0xffffffc8
  1008f0:	e30c0450 	movw	r0, #50256	; 0xc450
  1008f4:	e3400010 	movt	r0, #16
  1008f8:	eb000b1d 	bl	103574 <printf>
  1008fc:	e3a00173 	mov	r0, #-1073741796	; 0xc000001c
  100900:	eb00013a 	bl	100df0 <ukf_transfer_done>
  100904:	e50b0038 	str	r0, [fp, #-56]	; 0xffffffc8
  100908:	e51b1038 	ldr	r1, [fp, #-56]	; 0xffffffc8
  10090c:	e30c0450 	movw	r0, #50256	; 0xc450
  100910:	e3400010 	movt	r0, #16
  100914:	eb000b16 	bl	103574 <printf>
  100918:	e3a00183 	mov	r0, #-1073741792	; 0xc0000020
  10091c:	eb000133 	bl	100df0 <ukf_transfer_done>
  100920:	e50b0038 	str	r0, [fp, #-56]	; 0xffffffc8
  100924:	e51b1038 	ldr	r1, [fp, #-56]	; 0xffffffc8
  100928:	e30c0450 	movw	r0, #50256	; 0xc450
  10092c:	e3400010 	movt	r0, #16
  100930:	eb000b0f 	bl	103574 <printf>
  100934:	e3a00193 	mov	r0, #-1073741788	; 0xc0000024
  100938:	eb00012c 	bl	100df0 <ukf_transfer_done>
  10093c:	e50b0038 	str	r0, [fp, #-56]	; 0xffffffc8
  100940:	e51b1038 	ldr	r1, [fp, #-56]	; 0xffffffc8
  100944:	e30c0450 	movw	r0, #50256	; 0xc450
  100948:	e3400010 	movt	r0, #16
  10094c:	eb000b08 	bl	103574 <printf>
  100950:	e30c0460 	movw	r0, #50272	; 0xc460
  100954:	e3400010 	movt	r0, #16
  100958:	eb000b05 	bl	103574 <printf>
  10095c:	e30839d4 	movw	r3, #35284	; 0x89d4
  100960:	e3403011 	movt	r3, #17
  100964:	e5933000 	ldr	r3, [r3]
  100968:	e1a02003 	mov	r2, r3
  10096c:	e3a01103 	mov	r1, #-1073741824	; 0xc0000000
  100970:	e51b0030 	ldr	r0, [fp, #-48]	; 0xffffffd0
  100974:	eb0000c8 	bl	100c9c <print_src_dst>
  100978:	e30839d4 	movw	r3, #35284	; 0x89d4
  10097c:	e3403011 	movt	r3, #17
  100980:	e5933000 	ldr	r3, [r3]
  100984:	e1a02003 	mov	r2, r3
  100988:	e3a01103 	mov	r1, #-1073741824	; 0xc0000000
  10098c:	e51b0030 	ldr	r0, [fp, #-48]	; 0xffffffd0
  100990:	eb000aa7 	bl	103434 <memcmp>
  100994:	e1a03000 	mov	r3, r0
  100998:	e3530000 	cmp	r3, #0
  10099c:	1a000003 	bne	1009b0 <main+0x78c>
  1009a0:	e30c0484 	movw	r0, #50308	; 0xc484
  1009a4:	e3400010 	movt	r0, #16
  1009a8:	eb000af1 	bl	103574 <printf>
  1009ac:	ea000002 	b	1009bc <main+0x798>
  1009b0:	e30c04a8 	movw	r0, #50344	; 0xc4a8
  1009b4:	e3400010 	movt	r0, #16
  1009b8:	eb000aed 	bl	103574 <printf>
  1009bc:	e51b3048 	ldr	r3, [fp, #-72]	; 0xffffffb8
  1009c0:	e1a00003 	mov	r0, r3
  1009c4:	eb0008b9 	bl	102cb0 <free>
  1009c8:	e3a03000 	mov	r3, #0
  1009cc:	e1a00003 	mov	r0, r3
  1009d0:	e24bd008 	sub	sp, fp, #8
  1009d4:	e8bd8810 	pop	{r4, fp, pc}

001009d8 <cache_configuration>:
  1009d8:	e92d4800 	push	{fp, lr}
  1009dc:	e28db004 	add	fp, sp, #4
  1009e0:	e24dd008 	sub	sp, sp, #8
  1009e4:	e50b0008 	str	r0, [fp, #-8]
  1009e8:	e51b3008 	ldr	r3, [fp, #-8]
  1009ec:	e3530000 	cmp	r3, #0
  1009f0:	ca000003 	bgt	100a04 <cache_configuration+0x2c>
  1009f4:	e30c04c0 	movw	r0, #50368	; 0xc4c0
  1009f8:	e3400010 	movt	r0, #16
  1009fc:	eb000adc 	bl	103574 <printf>
  100a00:	ea0000a2 	b	100c90 <cache_configuration+0x2b8>
  100a04:	e51b3008 	ldr	r3, [fp, #-8]
  100a08:	e3530001 	cmp	r3, #1
  100a0c:	ca000004 	bgt	100a24 <cache_configuration+0x4c>
  100a10:	e30c04dc 	movw	r0, #50396	; 0xc4dc
  100a14:	e3400010 	movt	r0, #16
  100a18:	eb000ad5 	bl	103574 <printf>
  100a1c:	eb00017f 	bl	101020 <enable_MMU>
  100a20:	ea00009a 	b	100c90 <cache_configuration+0x2b8>
  100a24:	e51b3008 	ldr	r3, [fp, #-8]
  100a28:	e3530002 	cmp	r3, #2
  100a2c:	ca000005 	bgt	100a48 <cache_configuration+0x70>
  100a30:	e30c04fc 	movw	r0, #50428	; 0xc4fc
  100a34:	e3400010 	movt	r0, #16
  100a38:	eb000acd 	bl	103574 <printf>
  100a3c:	eb000177 	bl	101020 <enable_MMU>
  100a40:	eb0001c2 	bl	101150 <initialize_L2C>
  100a44:	ea000091 	b	100c90 <cache_configuration+0x2b8>
  100a48:	e51b3008 	ldr	r3, [fp, #-8]
  100a4c:	e3530003 	cmp	r3, #3
  100a50:	ca000006 	bgt	100a70 <cache_configuration+0x98>
  100a54:	e30c0528 	movw	r0, #50472	; 0xc528
  100a58:	e3400010 	movt	r0, #16
  100a5c:	eb000ac4 	bl	103574 <printf>
  100a60:	eb00016e 	bl	101020 <enable_MMU>
  100a64:	eb0001b9 	bl	101150 <initialize_L2C>
  100a68:	eb00021c 	bl	1012e0 <enable_SCU>
  100a6c:	ea000087 	b	100c90 <cache_configuration+0x2b8>
  100a70:	e51b3008 	ldr	r3, [fp, #-8]
  100a74:	e3530004 	cmp	r3, #4
  100a78:	ca000007 	bgt	100a9c <cache_configuration+0xc4>
  100a7c:	e30c055c 	movw	r0, #50524	; 0xc55c
  100a80:	e3400010 	movt	r0, #16
  100a84:	eb000aba 	bl	103574 <printf>
  100a88:	eb000164 	bl	101020 <enable_MMU>
  100a8c:	eb0001af 	bl	101150 <initialize_L2C>
  100a90:	eb000212 	bl	1012e0 <enable_SCU>
  100a94:	eb0001d3 	bl	1011e8 <enable_L1_I>
  100a98:	ea00007c 	b	100c90 <cache_configuration+0x2b8>
  100a9c:	e51b3008 	ldr	r3, [fp, #-8]
  100aa0:	e3530005 	cmp	r3, #5
  100aa4:	ca000008 	bgt	100acc <cache_configuration+0xf4>
  100aa8:	e30c0574 	movw	r0, #50548	; 0xc574
  100aac:	e3400010 	movt	r0, #16
  100ab0:	eb000aaf 	bl	103574 <printf>
  100ab4:	eb000159 	bl	101020 <enable_MMU>
  100ab8:	eb0001a4 	bl	101150 <initialize_L2C>
  100abc:	eb000207 	bl	1012e0 <enable_SCU>
  100ac0:	eb0001c8 	bl	1011e8 <enable_L1_I>
  100ac4:	eb0001cb 	bl	1011f8 <enable_branch_prediction>
  100ac8:	ea000070 	b	100c90 <cache_configuration+0x2b8>
  100acc:	e51b3008 	ldr	r3, [fp, #-8]
  100ad0:	e3530006 	cmp	r3, #6
  100ad4:	ca000009 	bgt	100b00 <cache_configuration+0x128>
  100ad8:	e30c05a4 	movw	r0, #50596	; 0xc5a4
  100adc:	e3400010 	movt	r0, #16
  100ae0:	eb000aa3 	bl	103574 <printf>
  100ae4:	eb00014d 	bl	101020 <enable_MMU>
  100ae8:	eb000198 	bl	101150 <initialize_L2C>
  100aec:	eb0001fb 	bl	1012e0 <enable_SCU>
  100af0:	eb0001b8 	bl	1011d8 <enable_L1_D>
  100af4:	eb0001bb 	bl	1011e8 <enable_L1_I>
  100af8:	eb0001be 	bl	1011f8 <enable_branch_prediction>
  100afc:	ea000063 	b	100c90 <cache_configuration+0x2b8>
  100b00:	e51b3008 	ldr	r3, [fp, #-8]
  100b04:	e3530007 	cmp	r3, #7
  100b08:	ca00000a 	bgt	100b38 <cache_configuration+0x160>
  100b0c:	e30c05d8 	movw	r0, #50648	; 0xc5d8
  100b10:	e3400010 	movt	r0, #16
  100b14:	eb000a96 	bl	103574 <printf>
  100b18:	eb000140 	bl	101020 <enable_MMU>
  100b1c:	eb00018b 	bl	101150 <initialize_L2C>
  100b20:	eb0001da 	bl	101290 <enable_L1_D_side_prefetch>
  100b24:	eb0001ed 	bl	1012e0 <enable_SCU>
  100b28:	eb0001aa 	bl	1011d8 <enable_L1_D>
  100b2c:	eb0001ad 	bl	1011e8 <enable_L1_I>
  100b30:	eb0001b0 	bl	1011f8 <enable_branch_prediction>
  100b34:	ea000055 	b	100c90 <cache_configuration+0x2b8>
  100b38:	e51b3008 	ldr	r3, [fp, #-8]
  100b3c:	e3530008 	cmp	r3, #8
  100b40:	ca000008 	bgt	100b68 <cache_configuration+0x190>
  100b44:	e30c0624 	movw	r0, #50724	; 0xc624
  100b48:	e3400010 	movt	r0, #16
  100b4c:	eb000a88 	bl	103574 <printf>
  100b50:	eb000132 	bl	101020 <enable_MMU>
  100b54:	eb00017d 	bl	101150 <initialize_L2C>
  100b58:	eb0001cc 	bl	101290 <enable_L1_D_side_prefetch>
  100b5c:	eb0001df 	bl	1012e0 <enable_SCU>
  100b60:	eb000193 	bl	1011b4 <enable_caches>
  100b64:	ea000049 	b	100c90 <cache_configuration+0x2b8>
  100b68:	e51b3008 	ldr	r3, [fp, #-8]
  100b6c:	e3530009 	cmp	r3, #9
  100b70:	ca000009 	bgt	100b9c <cache_configuration+0x1c4>
  100b74:	e30c0670 	movw	r0, #50800	; 0xc670
  100b78:	e3400010 	movt	r0, #16
  100b7c:	eb000a7c 	bl	103574 <printf>
  100b80:	eb000126 	bl	101020 <enable_MMU>
  100b84:	eb000171 	bl	101150 <initialize_L2C>
  100b88:	eb0001c0 	bl	101290 <enable_L1_D_side_prefetch>
  100b8c:	eb0001c3 	bl	1012a0 <enable_L2_prefetch_hint>
  100b90:	eb0001d2 	bl	1012e0 <enable_SCU>
  100b94:	eb000186 	bl	1011b4 <enable_caches>
  100b98:	ea00003c 	b	100c90 <cache_configuration+0x2b8>
  100b9c:	e51b3008 	ldr	r3, [fp, #-8]
  100ba0:	e353000a 	cmp	r3, #10
  100ba4:	ca00000a 	bgt	100bd4 <cache_configuration+0x1fc>
  100ba8:	e30c06a4 	movw	r0, #50852	; 0xc6a4
  100bac:	e3400010 	movt	r0, #16
  100bb0:	eb000a6f 	bl	103574 <printf>
  100bb4:	eb000119 	bl	101020 <enable_MMU>
  100bb8:	eb000164 	bl	101150 <initialize_L2C>
  100bbc:	eb0001b3 	bl	101290 <enable_L1_D_side_prefetch>
  100bc0:	eb0001b6 	bl	1012a0 <enable_L2_prefetch_hint>
  100bc4:	eb0001c5 	bl	1012e0 <enable_SCU>
  100bc8:	eb0001a4 	bl	101260 <enable_write_full_line_zeros>
  100bcc:	eb000178 	bl	1011b4 <enable_caches>
  100bd0:	ea00002e 	b	100c90 <cache_configuration+0x2b8>
  100bd4:	e51b3008 	ldr	r3, [fp, #-8]
  100bd8:	e353000b 	cmp	r3, #11
  100bdc:	ca00000b 	bgt	100c10 <cache_configuration+0x238>
  100be0:	e30c06e0 	movw	r0, #50912	; 0xc6e0
  100be4:	e3400010 	movt	r0, #16
  100be8:	eb000a61 	bl	103574 <printf>
  100bec:	eb00010b 	bl	101020 <enable_MMU>
  100bf0:	eb000156 	bl	101150 <initialize_L2C>
  100bf4:	eb0001a5 	bl	101290 <enable_L1_D_side_prefetch>
  100bf8:	eb0001a8 	bl	1012a0 <enable_L2_prefetch_hint>
  100bfc:	eb0001b7 	bl	1012e0 <enable_SCU>
  100c00:	eb0001bb 	bl	1012f4 <enable_L2_speculative_linefill>
  100c04:	eb000195 	bl	101260 <enable_write_full_line_zeros>
  100c08:	eb000169 	bl	1011b4 <enable_caches>
  100c0c:	ea00001f 	b	100c90 <cache_configuration+0x2b8>
  100c10:	e51b3008 	ldr	r3, [fp, #-8]
  100c14:	e353000c 	cmp	r3, #12
  100c18:	ca00000c 	bgt	100c50 <cache_configuration+0x278>
  100c1c:	e30c072c 	movw	r0, #50988	; 0xc72c
  100c20:	e3400010 	movt	r0, #16
  100c24:	eb000a52 	bl	103574 <printf>
  100c28:	eb0000fc 	bl	101020 <enable_MMU>
  100c2c:	eb000147 	bl	101150 <initialize_L2C>
  100c30:	eb000196 	bl	101290 <enable_L1_D_side_prefetch>
  100c34:	eb000199 	bl	1012a0 <enable_L2_prefetch_hint>
  100c38:	eb0001a8 	bl	1012e0 <enable_SCU>
  100c3c:	eb0001ac 	bl	1012f4 <enable_L2_speculative_linefill>
  100c40:	eb000186 	bl	101260 <enable_write_full_line_zeros>
  100c44:	eb00017c 	bl	10123c <enable_early_BRESP>
  100c48:	eb000159 	bl	1011b4 <enable_caches>
  100c4c:	ea00000f 	b	100c90 <cache_configuration+0x2b8>
  100c50:	e51b3008 	ldr	r3, [fp, #-8]
  100c54:	e353000d 	cmp	r3, #13
  100c58:	ca00000c 	bgt	100c90 <cache_configuration+0x2b8>
  100c5c:	e30c076c 	movw	r0, #51052	; 0xc76c
  100c60:	e3400010 	movt	r0, #16
  100c64:	eb000a42 	bl	103574 <printf>
  100c68:	eb0000ec 	bl	101020 <enable_MMU>
  100c6c:	eb000137 	bl	101150 <initialize_L2C>
  100c70:	eb000186 	bl	101290 <enable_L1_D_side_prefetch>
  100c74:	eb000189 	bl	1012a0 <enable_L2_prefetch_hint>
  100c78:	eb000198 	bl	1012e0 <enable_SCU>
  100c7c:	eb00019c 	bl	1012f4 <enable_L2_speculative_linefill>
  100c80:	eb000176 	bl	101260 <enable_write_full_line_zeros>
  100c84:	eb00016c 	bl	10123c <enable_early_BRESP>
  100c88:	eb000162 	bl	101218 <enable_store_buffer_device_limitation>
  100c8c:	eb000148 	bl	1011b4 <enable_caches>
  100c90:	e320f000 	nop	{0}
  100c94:	e24bd004 	sub	sp, fp, #4
  100c98:	e8bd8800 	pop	{fp, pc}

00100c9c <print_src_dst>:
  100c9c:	e92d4800 	push	{fp, lr}
  100ca0:	e28db004 	add	fp, sp, #4
  100ca4:	e24dd018 	sub	sp, sp, #24
  100ca8:	e50b0010 	str	r0, [fp, #-16]
  100cac:	e50b1014 	str	r1, [fp, #-20]	; 0xffffffec
  100cb0:	e50b2018 	str	r2, [fp, #-24]	; 0xffffffe8
  100cb4:	e30c07c8 	movw	r0, #51144	; 0xc7c8
  100cb8:	e3400010 	movt	r0, #16
  100cbc:	eb000a2c 	bl	103574 <printf>
  100cc0:	e3a03000 	mov	r3, #0
  100cc4:	e50b3008 	str	r3, [fp, #-8]
  100cc8:	ea000018 	b	100d30 <print_src_dst+0x94>
  100ccc:	e51b3008 	ldr	r3, [fp, #-8]
  100cd0:	e1a03103 	lsl	r3, r3, #2
  100cd4:	e1a02003 	mov	r2, r3
  100cd8:	e51b3010 	ldr	r3, [fp, #-16]
  100cdc:	e0833002 	add	r3, r3, r2
  100ce0:	e5933000 	ldr	r3, [r3]
  100ce4:	e1a01003 	mov	r1, r3
  100ce8:	e30c07d4 	movw	r0, #51156	; 0xc7d4
  100cec:	e3400010 	movt	r0, #16
  100cf0:	eb000a1f 	bl	103574 <printf>
  100cf4:	e51b3018 	ldr	r3, [fp, #-24]	; 0xffffffe8
  100cf8:	e2832003 	add	r2, r3, #3
  100cfc:	e3530000 	cmp	r3, #0
  100d00:	b1a03002 	movlt	r3, r2
  100d04:	a1a03003 	movge	r3, r3
  100d08:	e1a03143 	asr	r3, r3, #2
  100d0c:	e2432001 	sub	r2, r3, #1
  100d10:	e51b3008 	ldr	r3, [fp, #-8]
  100d14:	e1520003 	cmp	r2, r3
  100d18:	da000001 	ble	100d24 <print_src_dst+0x88>
  100d1c:	e3a0002c 	mov	r0, #44	; 0x2c
  100d20:	eb000a23 	bl	1035b4 <putchar>
  100d24:	e51b3008 	ldr	r3, [fp, #-8]
  100d28:	e2833001 	add	r3, r3, #1
  100d2c:	e50b3008 	str	r3, [fp, #-8]
  100d30:	e51b3018 	ldr	r3, [fp, #-24]	; 0xffffffe8
  100d34:	e2832003 	add	r2, r3, #3
  100d38:	e3530000 	cmp	r3, #0
  100d3c:	b1a03002 	movlt	r3, r2
  100d40:	a1a03003 	movge	r3, r3
  100d44:	e1a03143 	asr	r3, r3, #2
  100d48:	e1a02003 	mov	r2, r3
  100d4c:	e51b3008 	ldr	r3, [fp, #-8]
  100d50:	e1520003 	cmp	r2, r3
  100d54:	caffffdc 	bgt	100ccc <print_src_dst+0x30>
  100d58:	e30c07dc 	movw	r0, #51164	; 0xc7dc
  100d5c:	e3400010 	movt	r0, #16
  100d60:	eb000a03 	bl	103574 <printf>
  100d64:	e30c07e0 	movw	r0, #51168	; 0xc7e0
  100d68:	e3400010 	movt	r0, #16
  100d6c:	eb000a00 	bl	103574 <printf>
  100d70:	e3a03000 	mov	r3, #0
  100d74:	e50b3008 	str	r3, [fp, #-8]
  100d78:	ea00000c 	b	100db0 <print_src_dst+0x114>
  100d7c:	e51b3008 	ldr	r3, [fp, #-8]
  100d80:	e1a03103 	lsl	r3, r3, #2
  100d84:	e1a02003 	mov	r2, r3
  100d88:	e51b3014 	ldr	r3, [fp, #-20]	; 0xffffffec
  100d8c:	e0833002 	add	r3, r3, r2
  100d90:	e5933000 	ldr	r3, [r3]
  100d94:	e1a01003 	mov	r1, r3
  100d98:	e30c07ec 	movw	r0, #51180	; 0xc7ec
  100d9c:	e3400010 	movt	r0, #16
  100da0:	eb0009f3 	bl	103574 <printf>
  100da4:	e51b3008 	ldr	r3, [fp, #-8]
  100da8:	e2833001 	add	r3, r3, #1
  100dac:	e50b3008 	str	r3, [fp, #-8]
  100db0:	e51b3018 	ldr	r3, [fp, #-24]	; 0xffffffe8
  100db4:	e2832003 	add	r2, r3, #3
  100db8:	e3530000 	cmp	r3, #0
  100dbc:	b1a03002 	movlt	r3, r2
  100dc0:	a1a03003 	movge	r3, r3
  100dc4:	e1a03143 	asr	r3, r3, #2
  100dc8:	e1a02003 	mov	r2, r3
  100dcc:	e51b3008 	ldr	r3, [fp, #-8]
  100dd0:	e1520003 	cmp	r2, r3
  100dd4:	caffffe8 	bgt	100d7c <print_src_dst+0xe0>
  100dd8:	e30c07dc 	movw	r0, #51164	; 0xc7dc
  100ddc:	e3400010 	movt	r0, #16
  100de0:	eb0009e3 	bl	103574 <printf>
  100de4:	e320f000 	nop	{0}
  100de8:	e24bd004 	sub	sp, fp, #4
  100dec:	e8bd8800 	pop	{fp, pc}

00100df0 <ukf_transfer_done>:
  100df0:	e92d4800 	push	{fp, lr}
  100df4:	e28db004 	add	fp, sp, #4
  100df8:	e24dd008 	sub	sp, sp, #8
  100dfc:	e50b0008 	str	r0, [fp, #-8]
  100e00:	e51b0008 	ldr	r0, [fp, #-8]
  100e04:	eb000003 	bl	100e18 <ukf_read_reg>
  100e08:	e1a03000 	mov	r3, r0
  100e0c:	e1a00003 	mov	r0, r3
  100e10:	e24bd004 	sub	sp, fp, #4
  100e14:	e8bd8800 	pop	{fp, pc}

00100e18 <ukf_read_reg>:
  100e18:	e52db004 	push	{fp}		; (str fp, [sp, #-4]!)
  100e1c:	e28db000 	add	fp, sp, #0
  100e20:	e24dd00c 	sub	sp, sp, #12
  100e24:	e50b0008 	str	r0, [fp, #-8]
  100e28:	e51b3008 	ldr	r3, [fp, #-8]
  100e2c:	e5933000 	ldr	r3, [r3]
  100e30:	e1a00003 	mov	r0, r3
  100e34:	e24bd000 	sub	sp, fp, #0
  100e38:	e49db004 	pop	{fp}		; (ldr fp, [sp], #4)
  100e3c:	e12fff1e 	bx	lr

00100e40 <_close>:
  100e40:	e52db004 	push	{fp}		; (str fp, [sp, #-4]!)
  100e44:	e28db000 	add	fp, sp, #0
  100e48:	e24dd00c 	sub	sp, sp, #12
  100e4c:	e50b0008 	str	r0, [fp, #-8]
  100e50:	e51b3008 	ldr	r3, [fp, #-8]
  100e54:	e3530001 	cmp	r3, #1
  100e58:	1a000001 	bne	100e64 <_close+0x24>
  100e5c:	e3a03000 	mov	r3, #0
  100e60:	ea000000 	b	100e68 <_close+0x28>
  100e64:	e3e03000 	mvn	r3, #0
  100e68:	e1a00003 	mov	r0, r3
  100e6c:	e24bd000 	sub	sp, fp, #0
  100e70:	e49db004 	pop	{fp}		; (ldr fp, [sp], #4)
  100e74:	e12fff1e 	bx	lr

00100e78 <_fstat>:
  100e78:	e52db004 	push	{fp}		; (str fp, [sp, #-4]!)
  100e7c:	e28db000 	add	fp, sp, #0
  100e80:	e24dd00c 	sub	sp, sp, #12
  100e84:	e50b0008 	str	r0, [fp, #-8]
  100e88:	e50b100c 	str	r1, [fp, #-12]
  100e8c:	e51b3008 	ldr	r3, [fp, #-8]
  100e90:	e3530001 	cmp	r3, #1
  100e94:	1a000001 	bne	100ea0 <_fstat+0x28>
  100e98:	e3a03000 	mov	r3, #0
  100e9c:	ea000000 	b	100ea4 <_fstat+0x2c>
  100ea0:	e3e03000 	mvn	r3, #0
  100ea4:	e1a00003 	mov	r0, r3
  100ea8:	e24bd000 	sub	sp, fp, #0
  100eac:	e49db004 	pop	{fp}		; (ldr fp, [sp], #4)
  100eb0:	e12fff1e 	bx	lr

00100eb4 <_isatty>:
  100eb4:	e52db004 	push	{fp}		; (str fp, [sp, #-4]!)
  100eb8:	e28db000 	add	fp, sp, #0
  100ebc:	e24dd00c 	sub	sp, sp, #12
  100ec0:	e50b0008 	str	r0, [fp, #-8]
  100ec4:	e51b3008 	ldr	r3, [fp, #-8]
  100ec8:	e3530001 	cmp	r3, #1
  100ecc:	1a000001 	bne	100ed8 <_isatty+0x24>
  100ed0:	e3a03001 	mov	r3, #1
  100ed4:	ea000000 	b	100edc <_isatty+0x28>
  100ed8:	e3e03000 	mvn	r3, #0
  100edc:	e1a00003 	mov	r0, r3
  100ee0:	e24bd000 	sub	sp, fp, #0
  100ee4:	e49db004 	pop	{fp}		; (ldr fp, [sp], #4)
  100ee8:	e12fff1e 	bx	lr

00100eec <_lseek>:
  100eec:	e52db004 	push	{fp}		; (str fp, [sp, #-4]!)
  100ef0:	e28db000 	add	fp, sp, #0
  100ef4:	e24dd014 	sub	sp, sp, #20
  100ef8:	e50b0008 	str	r0, [fp, #-8]
  100efc:	e50b100c 	str	r1, [fp, #-12]
  100f00:	e50b2010 	str	r2, [fp, #-16]
  100f04:	e51b3008 	ldr	r3, [fp, #-8]
  100f08:	e3530001 	cmp	r3, #1
  100f0c:	1a000001 	bne	100f18 <_lseek+0x2c>
  100f10:	e3a03000 	mov	r3, #0
  100f14:	ea000000 	b	100f1c <_lseek+0x30>
  100f18:	e3e03000 	mvn	r3, #0
  100f1c:	e1a00003 	mov	r0, r3
  100f20:	e24bd000 	sub	sp, fp, #0
  100f24:	e49db004 	pop	{fp}		; (ldr fp, [sp], #4)
  100f28:	e12fff1e 	bx	lr

00100f2c <_read>:
  100f2c:	e52db004 	push	{fp}		; (str fp, [sp, #-4]!)
  100f30:	e28db000 	add	fp, sp, #0
  100f34:	e24dd014 	sub	sp, sp, #20
  100f38:	e50b0008 	str	r0, [fp, #-8]
  100f3c:	e50b100c 	str	r1, [fp, #-12]
  100f40:	e50b2010 	str	r2, [fp, #-16]
  100f44:	e3e03000 	mvn	r3, #0
  100f48:	e1a00003 	mov	r0, r3
  100f4c:	e24bd000 	sub	sp, fp, #0
  100f50:	e49db004 	pop	{fp}		; (ldr fp, [sp], #4)
  100f54:	e12fff1e 	bx	lr

00100f58 <_write>:
  100f58:	e52db004 	push	{fp}		; (str fp, [sp, #-4]!)
  100f5c:	e28db000 	add	fp, sp, #0
  100f60:	e24dd01c 	sub	sp, sp, #28
  100f64:	e50b0010 	str	r0, [fp, #-16]
  100f68:	e50b1014 	str	r1, [fp, #-20]	; 0xffffffec
  100f6c:	e50b2018 	str	r2, [fp, #-24]	; 0xffffffe8
  100f70:	e50b301c 	str	r3, [fp, #-28]	; 0xffffffe4
  100f74:	e51b3010 	ldr	r3, [fp, #-16]
  100f78:	e3530001 	cmp	r3, #1
  100f7c:	0a000001 	beq	100f88 <_write+0x30>
  100f80:	e3e03000 	mvn	r3, #0
  100f84:	ea000019 	b	100ff0 <_write+0x98>
  100f88:	e3a03000 	mov	r3, #0
  100f8c:	e50b3008 	str	r3, [fp, #-8]
  100f90:	ea000011 	b	100fdc <_write+0x84>
  100f94:	e320f000 	nop	{0}
  100f98:	e3023014 	movw	r3, #8212	; 0x2014
  100f9c:	e34f3fc0 	movt	r3, #65472	; 0xffc0
  100fa0:	e5933000 	ldr	r3, [r3]
  100fa4:	e1a032a3 	lsr	r3, r3, #5
  100fa8:	e2033001 	and	r3, r3, #1
  100fac:	e3530001 	cmp	r3, #1
  100fb0:	1afffff8 	bne	100f98 <_write+0x40>
  100fb4:	e3a03a02 	mov	r3, #8192	; 0x2000
  100fb8:	e34f3fc0 	movt	r3, #65472	; 0xffc0
  100fbc:	e51b2008 	ldr	r2, [fp, #-8]
  100fc0:	e51b1014 	ldr	r1, [fp, #-20]	; 0xffffffec
  100fc4:	e0812002 	add	r2, r1, r2
  100fc8:	e5d22000 	ldrb	r2, [r2]
  100fcc:	e5832000 	str	r2, [r3]
  100fd0:	e51b3008 	ldr	r3, [fp, #-8]
  100fd4:	e2833001 	add	r3, r3, #1
  100fd8:	e50b3008 	str	r3, [fp, #-8]
  100fdc:	e51b2008 	ldr	r2, [fp, #-8]
  100fe0:	e51b3018 	ldr	r3, [fp, #-24]	; 0xffffffe8
  100fe4:	e1520003 	cmp	r2, r3
  100fe8:	3affffe9 	bcc	100f94 <_write+0x3c>
  100fec:	e51b3018 	ldr	r3, [fp, #-24]	; 0xffffffe8
  100ff0:	e1a00003 	mov	r0, r3
  100ff4:	e24bd000 	sub	sp, fp, #0
  100ff8:	e49db004 	pop	{fp}		; (ldr fp, [sp], #4)
  100ffc:	e12fff1e 	bx	lr

00101000 <enable_all_caches>:
  101000:	e52de004 	push	{lr}		; (str lr, [sp, #-4]!)
  101004:	eb000005 	bl	101020 <enable_MMU>
  101008:	eb000050 	bl	101150 <initialize_L2C>
  10100c:	eb00009f 	bl	101290 <enable_L1_D_side_prefetch>
  101010:	eb0000a2 	bl	1012a0 <enable_L2_prefetch_hint>
  101014:	eb0000b1 	bl	1012e0 <enable_SCU>
  101018:	eb000065 	bl	1011b4 <enable_caches>
  10101c:	e49df004 	pop	{pc}		; (ldr pc, [sp], #4)

00101020 <enable_MMU>:
  101020:	e92d4eb0 	push	{r4, r5, r7, r9, sl, fp, lr}
  101024:	e59f0378 	ldr	r0, [pc, #888]	; 1013a4 <invalidate_and_flush+0x9c>
  101028:	e3a01000 	mov	r1, #0
  10102c:	e5801100 	str	r1, [r0, #256]	; 0x100
  101030:	ee110f10 	mrc	15, 0, r0, cr1, cr0, {0}
  101034:	e3c00a01 	bic	r0, r0, #4096	; 0x1000
  101038:	e3c00004 	bic	r0, r0, #4
  10103c:	e3c00001 	bic	r0, r0, #1
  101040:	e3c00b02 	bic	r0, r0, #2048	; 0x800
  101044:	ee010f10 	mcr	15, 0, r0, cr1, cr0, {0}
  101048:	e3a00000 	mov	r0, #0
  10104c:	ee080f17 	mcr	15, 0, r0, cr8, cr7, {0}
  101050:	ee070fd5 	mcr	15, 0, r0, cr7, cr5, {6}
  101054:	ee300f30 	mrc	15, 1, r0, cr0, cr0, {1}
  101058:	e3100003 	tst	r0, #3
  10105c:	e3a00000 	mov	r0, #0
  101060:	1e070f15 	mcrne	15, 0, r0, cr7, cr5, {0}
  101064:	ee300f30 	mrc	15, 1, r0, cr0, cr0, {1}
  101068:	e2103407 	ands	r3, r0, #117440512	; 0x7000000
  10106c:	e1a03ba3 	lsr	r3, r3, #23
  101070:	0a00001a 	beq	1010e0 <Finished>
  101074:	e3a0a000 	mov	sl, #0

00101078 <Loop1>:
  101078:	e08a20aa 	add	r2, sl, sl, lsr #1
  10107c:	e1a01230 	lsr	r1, r0, r2
  101080:	e2011007 	and	r1, r1, #7
  101084:	e3510002 	cmp	r1, #2
  101088:	ba000011 	blt	1010d4 <Skip>
  10108c:	ee40af10 	mcr	15, 2, sl, cr0, cr0, {0}
  101090:	f57ff06f 	isb	sy
  101094:	ee301f10 	mrc	15, 1, r1, cr0, cr0, {0}
  101098:	e2012007 	and	r2, r1, #7
  10109c:	e2822004 	add	r2, r2, #4
  1010a0:	e59f4300 	ldr	r4, [pc, #768]	; 1013a8 <invalidate_and_flush+0xa0>
  1010a4:	e01441a1 	ands	r4, r4, r1, lsr #3
  1010a8:	e16f5f14 	clz	r5, r4
  1010ac:	e59f72f8 	ldr	r7, [pc, #760]	; 1013ac <invalidate_and_flush+0xa4>
  1010b0:	e01776a1 	ands	r7, r7, r1, lsr #13

001010b4 <Loop2>:
  1010b4:	e1a09004 	mov	r9, r4

001010b8 <Loop3>:
  1010b8:	e18ab519 	orr	fp, sl, r9, lsl r5
  1010bc:	e18bb217 	orr	fp, fp, r7, lsl r2
  1010c0:	ee07bf56 	mcr	15, 0, fp, cr7, cr6, {2}
  1010c4:	e2599001 	subs	r9, r9, #1
  1010c8:	aafffffa 	bge	1010b8 <Loop3>
  1010cc:	e2577001 	subs	r7, r7, #1
  1010d0:	aafffff7 	bge	1010b4 <Loop2>

001010d4 <Skip>:
  1010d4:	e28aa002 	add	sl, sl, #2
  1010d8:	e153000a 	cmp	r3, sl
  1010dc:	caffffe5 	bgt	101078 <Loop1>

001010e0 <Finished>:
  1010e0:	e3a00000 	mov	r0, #0
  1010e4:	ee070fd5 	mcr	15, 0, r0, cr7, cr5, {6}
  1010e8:	e3a00000 	mov	r0, #0
  1010ec:	ee020f50 	mcr	15, 0, r0, cr2, cr0, {2}
  1010f0:	e59f02b8 	ldr	r0, [pc, #696]	; 1013b0 <invalidate_and_flush+0xa8>
  1010f4:	e3a01008 	mov	r1, #8
  1010f8:	e3811040 	orr	r1, r1, #64	; 0x40
  1010fc:	e1800001 	orr	r0, r0, r1
  101100:	ee020f10 	mcr	15, 0, r0, cr2, cr0, {0}
  101104:	e59f02a4 	ldr	r0, [pc, #676]	; 1013b0 <invalidate_and_flush+0xa8>
  101108:	e59f12a4 	ldr	r1, [pc, #676]	; 1013b4 <invalidate_and_flush+0xac>

0010110c <init_ttb_1>:
  10110c:	e3510b02 	cmp	r1, #2048	; 0x800
  101110:	459f22a0 	ldrmi	r2, [pc, #672]	; 1013b8 <invalidate_and_flush+0xb0>
  101114:	559f22a0 	ldrpl	r2, [pc, #672]	; 1013bc <invalidate_and_flush+0xb4>
  101118:	e1823a01 	orr	r3, r2, r1, lsl #20
  10111c:	e7803101 	str	r3, [r0, r1, lsl #2]
  101120:	e2511001 	subs	r1, r1, #1
  101124:	5afffff8 	bpl	10110c <init_ttb_1>
  101128:	ee130f10 	mrc	15, 0, r0, cr3, cr0, {0}
  10112c:	e3e00000 	mvn	r0, #0
  101130:	ee030f10 	mcr	15, 0, r0, cr3, cr0, {0}
  101134:	ee110f10 	mrc	15, 0, r0, cr1, cr0, {0}
  101138:	e3c00a01 	bic	r0, r0, #4096	; 0x1000
  10113c:	e3c00004 	bic	r0, r0, #4
  101140:	e3c00002 	bic	r0, r0, #2
  101144:	e3800001 	orr	r0, r0, #1
  101148:	ee010f10 	mcr	15, 0, r0, cr1, cr0, {0}
  10114c:	e8bd8eb0 	pop	{r4, r5, r7, r9, sl, fp, pc}

00101150 <initialize_L2C>:
  101150:	e59f024c 	ldr	r0, [pc, #588]	; 1013a4 <invalidate_and_flush+0x9c>
  101154:	e3a01000 	mov	r1, #0
  101158:	e5801100 	str	r1, [r0, #256]	; 0x100
  10115c:	e3a01806 	mov	r1, #393216	; 0x60000
  101160:	e3811202 	orr	r1, r1, #536870912	; 0x20000000
  101164:	e3811201 	orr	r1, r1, #268435456	; 0x10000000
  101168:	e5801104 	str	r1, [r0, #260]	; 0x104
  10116c:	e3a01000 	mov	r1, #0
  101170:	e5801108 	str	r1, [r0, #264]	; 0x108
  101174:	e3a01000 	mov	r1, #0
  101178:	e580110c 	str	r1, [r0, #268]	; 0x10c
  10117c:	e3a010ff 	mov	r1, #255	; 0xff
  101180:	e580177c 	str	r1, [r0, #1916]	; 0x77c

00101184 <poll_invalidate>:
  101184:	e590177c 	ldr	r1, [r0, #1916]	; 0x77c
  101188:	e3110001 	tst	r1, #1
  10118c:	1afffffc 	bne	101184 <poll_invalidate>
  101190:	e3a01007 	mov	r1, #7
  101194:	e5801200 	str	r1, [r0, #512]	; 0x200
  101198:	e3a01008 	mov	r1, #8
  10119c:	e5801204 	str	r1, [r0, #516]	; 0x204
  1011a0:	e3a0100c 	mov	r1, #12
  1011a4:	e5801208 	str	r1, [r0, #520]	; 0x208
  1011a8:	e3a01000 	mov	r1, #0
  1011ac:	e5801100 	str	r1, [r0, #256]	; 0x100
  1011b0:	e12fff1e 	bx	lr

001011b4 <enable_caches>:
  1011b4:	ee110f10 	mrc	15, 0, r0, cr1, cr0, {0}
  1011b8:	e3800a01 	orr	r0, r0, #4096	; 0x1000
  1011bc:	e3800004 	orr	r0, r0, #4
  1011c0:	e3800b02 	orr	r0, r0, #2048	; 0x800
  1011c4:	ee010f10 	mcr	15, 0, r0, cr1, cr0, {0}
  1011c8:	e59f01d4 	ldr	r0, [pc, #468]	; 1013a4 <invalidate_and_flush+0x9c>
  1011cc:	e3a01001 	mov	r1, #1
  1011d0:	e5801100 	str	r1, [r0, #256]	; 0x100
  1011d4:	e12fff1e 	bx	lr

001011d8 <enable_L1_D>:
  1011d8:	ee110f10 	mrc	15, 0, r0, cr1, cr0, {0}
  1011dc:	e3800004 	orr	r0, r0, #4
  1011e0:	ee010f10 	mcr	15, 0, r0, cr1, cr0, {0}
  1011e4:	e12fff1e 	bx	lr

001011e8 <enable_L1_I>:
  1011e8:	ee110f10 	mrc	15, 0, r0, cr1, cr0, {0}
  1011ec:	e3800a01 	orr	r0, r0, #4096	; 0x1000
  1011f0:	ee010f10 	mcr	15, 0, r0, cr1, cr0, {0}
  1011f4:	e12fff1e 	bx	lr

001011f8 <enable_branch_prediction>:
  1011f8:	ee110f10 	mrc	15, 0, r0, cr1, cr0, {0}
  1011fc:	e3800b02 	orr	r0, r0, #2048	; 0x800
  101200:	ee010f10 	mcr	15, 0, r0, cr1, cr0, {0}
  101204:	e12fff1e 	bx	lr

00101208 <enable_L2>:
  101208:	e59f0194 	ldr	r0, [pc, #404]	; 1013a4 <invalidate_and_flush+0x9c>
  10120c:	e3a01001 	mov	r1, #1
  101210:	e5801100 	str	r1, [r0, #256]	; 0x100
  101214:	e12fff1e 	bx	lr

00101218 <enable_store_buffer_device_limitation>:
  101218:	e59f0184 	ldr	r0, [pc, #388]	; 1013a4 <invalidate_and_flush+0x9c>
  10121c:	e3a01000 	mov	r1, #0
  101220:	e5801100 	str	r1, [r0, #256]	; 0x100
  101224:	e5901104 	ldr	r1, [r0, #260]	; 0x104
  101228:	e3811b02 	orr	r1, r1, #2048	; 0x800
  10122c:	e5801104 	str	r1, [r0, #260]	; 0x104
  101230:	e3a01001 	mov	r1, #1
  101234:	e5801100 	str	r1, [r0, #256]	; 0x100
  101238:	e12fff1e 	bx	lr

0010123c <enable_early_BRESP>:
  10123c:	e59f0160 	ldr	r0, [pc, #352]	; 1013a4 <invalidate_and_flush+0x9c>
  101240:	e3a01000 	mov	r1, #0
  101244:	e5801100 	str	r1, [r0, #256]	; 0x100
  101248:	e5901104 	ldr	r1, [r0, #260]	; 0x104
  10124c:	e3811101 	orr	r1, r1, #1073741824	; 0x40000000
  101250:	e5801104 	str	r1, [r0, #260]	; 0x104
  101254:	e3a01001 	mov	r1, #1
  101258:	e5801100 	str	r1, [r0, #256]	; 0x100
  10125c:	e12fff1e 	bx	lr

00101260 <enable_write_full_line_zeros>:
  101260:	e59f013c 	ldr	r0, [pc, #316]	; 1013a4 <invalidate_and_flush+0x9c>
  101264:	e3a01000 	mov	r1, #0
  101268:	e5801100 	str	r1, [r0, #256]	; 0x100
  10126c:	e5901104 	ldr	r1, [r0, #260]	; 0x104
  101270:	e3811101 	orr	r1, r1, #1073741824	; 0x40000000
  101274:	e5801104 	str	r1, [r0, #260]	; 0x104
  101278:	e3a01001 	mov	r1, #1
  10127c:	e5801100 	str	r1, [r0, #256]	; 0x100
  101280:	ee110f30 	mrc	15, 0, r0, cr1, cr0, {1}
  101284:	e3800008 	orr	r0, r0, #8
  101288:	ee010f30 	mcr	15, 0, r0, cr1, cr0, {1}
  10128c:	e12fff1e 	bx	lr

00101290 <enable_L1_D_side_prefetch>:
  101290:	ee110f30 	mrc	15, 0, r0, cr1, cr0, {1}
  101294:	e3800004 	orr	r0, r0, #4
  101298:	ee010f30 	mcr	15, 0, r0, cr1, cr0, {1}
  10129c:	e12fff1e 	bx	lr

001012a0 <enable_L2_prefetch_hint>:
  1012a0:	ee110f30 	mrc	15, 0, r0, cr1, cr0, {1}
  1012a4:	e3800002 	orr	r0, r0, #2
  1012a8:	ee010f30 	mcr	15, 0, r0, cr1, cr0, {1}
  1012ac:	e12fff1e 	bx	lr

001012b0 <enable_exclusive_caching>:
  1012b0:	e59f00ec 	ldr	r0, [pc, #236]	; 1013a4 <invalidate_and_flush+0x9c>
  1012b4:	e3a01000 	mov	r1, #0
  1012b8:	e5801100 	str	r1, [r0, #256]	; 0x100
  1012bc:	e5901104 	ldr	r1, [r0, #260]	; 0x104
  1012c0:	e3811a01 	orr	r1, r1, #4096	; 0x1000
  1012c4:	e5801104 	str	r1, [r0, #260]	; 0x104
  1012c8:	e3a01001 	mov	r1, #1
  1012cc:	e5801100 	str	r1, [r0, #256]	; 0x100
  1012d0:	ee110f30 	mrc	15, 0, r0, cr1, cr0, {1}
  1012d4:	e3800080 	orr	r0, r0, #128	; 0x80
  1012d8:	ee010f30 	mcr	15, 0, r0, cr1, cr0, {1}
  1012dc:	e12fff1e 	bx	lr

001012e0 <enable_SCU>:
  1012e0:	ee9f0f10 	mrc	15, 4, r0, cr15, cr0, {0}
  1012e4:	e5901000 	ldr	r1, [r0]
  1012e8:	e3811001 	orr	r1, r1, #1
  1012ec:	e5801000 	str	r1, [r0]
  1012f0:	e12fff1e 	bx	lr

001012f4 <enable_L2_speculative_linefill>:
  1012f4:	ee9f0f10 	mrc	15, 4, r0, cr15, cr0, {0}
  1012f8:	e5901000 	ldr	r1, [r0]
  1012fc:	e3811008 	orr	r1, r1, #8
  101300:	e5801000 	str	r1, [r0]
  101304:	e12fff1e 	bx	lr

00101308 <invalidate_and_flush>:
  101308:	e92d4eb0 	push	{r4, r5, r7, r9, sl, fp, lr}
  10130c:	e3a00000 	mov	r0, #0
  101310:	ee070fd5 	mcr	15, 0, r0, cr7, cr5, {6}
  101314:	ee300f30 	mrc	15, 1, r0, cr0, cr0, {1}
  101318:	e3a00000 	mov	r0, #0
  10131c:	ee070f15 	mcr	15, 0, r0, cr7, cr5, {0}
  101320:	ee300f30 	mrc	15, 1, r0, cr0, cr0, {1}
  101324:	e2103407 	ands	r3, r0, #117440512	; 0x7000000
  101328:	e1a03ba3 	lsr	r3, r3, #23
  10132c:	0a00001a 	beq	10139c <invalidate_and_flush+0x94>
  101330:	e3a0a000 	mov	sl, #0
  101334:	e08a20aa 	add	r2, sl, sl, lsr #1
  101338:	e1a01230 	lsr	r1, r0, r2
  10133c:	e2011007 	and	r1, r1, #7
  101340:	e3510002 	cmp	r1, #2
  101344:	ba000011 	blt	101390 <invalidate_and_flush+0x88>
  101348:	ee40af10 	mcr	15, 2, sl, cr0, cr0, {0}
  10134c:	f57ff06f 	isb	sy
  101350:	ee301f10 	mrc	15, 1, r1, cr0, cr0, {0}
  101354:	e2012007 	and	r2, r1, #7
  101358:	e2822004 	add	r2, r2, #4
  10135c:	e59f4044 	ldr	r4, [pc, #68]	; 1013a8 <invalidate_and_flush+0xa0>
  101360:	e01441a1 	ands	r4, r4, r1, lsr #3
  101364:	e16f5f14 	clz	r5, r4
  101368:	e59f703c 	ldr	r7, [pc, #60]	; 1013ac <invalidate_and_flush+0xa4>
  10136c:	e01776a1 	ands	r7, r7, r1, lsr #13
  101370:	e1a09004 	mov	r9, r4
  101374:	e18ab519 	orr	fp, sl, r9, lsl r5
  101378:	e18bb217 	orr	fp, fp, r7, lsl r2
  10137c:	ee07bf56 	mcr	15, 0, fp, cr7, cr6, {2}
  101380:	e2599001 	subs	r9, r9, #1
  101384:	aafffffa 	bge	101374 <invalidate_and_flush+0x6c>
  101388:	e2577001 	subs	r7, r7, #1
  10138c:	aafffff7 	bge	101370 <invalidate_and_flush+0x68>
  101390:	e28aa002 	add	sl, sl, #2
  101394:	e153000a 	cmp	r3, sl
  101398:	caffffe5 	bgt	101334 <invalidate_and_flush+0x2c>
  10139c:	f57ff04f 	dsb	sy
  1013a0:	e8bd8eb0 	pop	{r4, r5, r7, r9, sl, fp, pc}
  1013a4:	fffef000 	.word	0xfffef000
  1013a8:	000003ff 	.word	0x000003ff
  1013ac:	00007fff 	.word	0x00007fff
  1013b0:	00114000 	.word	0x00114000
  1013b4:	00000fff 	.word	0x00000fff
  1013b8:	00017c0e 	.word	0x00017c0e
  1013bc:	00002c02 	.word	0x00002c02

001013c0 <alt_addr_space_remap>:
  1013c0:	e52db004 	push	{fp}		; (str fp, [sp, #-4]!)
  1013c4:	e28db000 	add	fp, sp, #0
  1013c8:	e24dd014 	sub	sp, sp, #20
  1013cc:	e1a0c000 	mov	ip, r0
  1013d0:	e1a00001 	mov	r0, r1
  1013d4:	e1a01002 	mov	r1, r2
  1013d8:	e1a02003 	mov	r2, r3
  1013dc:	e1a0300c 	mov	r3, ip
  1013e0:	e54b300d 	strb	r3, [fp, #-13]
  1013e4:	e1a03000 	mov	r3, r0
  1013e8:	e54b300e 	strb	r3, [fp, #-14]
  1013ec:	e1a03001 	mov	r3, r1
  1013f0:	e54b300f 	strb	r3, [fp, #-15]
  1013f4:	e1a03002 	mov	r3, r2
  1013f8:	e54b3010 	strb	r3, [fp, #-16]
  1013fc:	e3a03000 	mov	r3, #0
  101400:	e50b3008 	str	r3, [fp, #-8]
  101404:	e55b300d 	ldrb	r3, [fp, #-13]
  101408:	e3530000 	cmp	r3, #0
  10140c:	0a000008 	beq	101434 <alt_addr_space_remap+0x74>
  101410:	e55b300d 	ldrb	r3, [fp, #-13]
  101414:	e3530001 	cmp	r3, #1
  101418:	1a000003 	bne	10142c <alt_addr_space_remap+0x6c>
  10141c:	e51b3008 	ldr	r3, [fp, #-8]
  101420:	e3833001 	orr	r3, r3, #1
  101424:	e50b3008 	str	r3, [fp, #-8]
  101428:	ea000001 	b	101434 <alt_addr_space_remap+0x74>
  10142c:	e3e0300a 	mvn	r3, #10
  101430:	ea000028 	b	1014d8 <alt_addr_space_remap+0x118>
  101434:	e55b300e 	ldrb	r3, [fp, #-14]
  101438:	e3530000 	cmp	r3, #0
  10143c:	0a000008 	beq	101464 <alt_addr_space_remap+0xa4>
  101440:	e55b300e 	ldrb	r3, [fp, #-14]
  101444:	e3530001 	cmp	r3, #1
  101448:	1a000003 	bne	10145c <alt_addr_space_remap+0x9c>
  10144c:	e51b3008 	ldr	r3, [fp, #-8]
  101450:	e3833002 	orr	r3, r3, #2
  101454:	e50b3008 	str	r3, [fp, #-8]
  101458:	ea000001 	b	101464 <alt_addr_space_remap+0xa4>
  10145c:	e3e0300a 	mvn	r3, #10
  101460:	ea00001c 	b	1014d8 <alt_addr_space_remap+0x118>
  101464:	e55b300f 	ldrb	r3, [fp, #-15]
  101468:	e3530000 	cmp	r3, #0
  10146c:	0a000008 	beq	101494 <alt_addr_space_remap+0xd4>
  101470:	e55b300f 	ldrb	r3, [fp, #-15]
  101474:	e3530001 	cmp	r3, #1
  101478:	1a000003 	bne	10148c <alt_addr_space_remap+0xcc>
  10147c:	e51b3008 	ldr	r3, [fp, #-8]
  101480:	e3833008 	orr	r3, r3, #8
  101484:	e50b3008 	str	r3, [fp, #-8]
  101488:	ea000001 	b	101494 <alt_addr_space_remap+0xd4>
  10148c:	e3e0300a 	mvn	r3, #10
  101490:	ea000010 	b	1014d8 <alt_addr_space_remap+0x118>
  101494:	e55b3010 	ldrb	r3, [fp, #-16]
  101498:	e3530000 	cmp	r3, #0
  10149c:	0a000008 	beq	1014c4 <alt_addr_space_remap+0x104>
  1014a0:	e55b3010 	ldrb	r3, [fp, #-16]
  1014a4:	e3530001 	cmp	r3, #1
  1014a8:	1a000003 	bne	1014bc <alt_addr_space_remap+0xfc>
  1014ac:	e51b3008 	ldr	r3, [fp, #-8]
  1014b0:	e3833010 	orr	r3, r3, #16
  1014b4:	e50b3008 	str	r3, [fp, #-8]
  1014b8:	ea000001 	b	1014c4 <alt_addr_space_remap+0x104>
  1014bc:	e3e0300a 	mvn	r3, #10
  1014c0:	ea000004 	b	1014d8 <alt_addr_space_remap+0x118>
  1014c4:	e3a03000 	mov	r3, #0
  1014c8:	e34f3f80 	movt	r3, #65408	; 0xff80
  1014cc:	e51b2008 	ldr	r2, [fp, #-8]
  1014d0:	e5832000 	str	r2, [r3]
  1014d4:	e3a03000 	mov	r3, #0
  1014d8:	e1a00003 	mov	r0, r3
  1014dc:	e24bd000 	sub	sp, fp, #0
  1014e0:	e49db004 	pop	{fp}		; (ldr fp, [sp], #4)
  1014e4:	e12fff1e 	bx	lr

001014e8 <alt_mpu_addr_space_remap_0_to_sdram>:
  1014e8:	e92d4800 	push	{fp, lr}
  1014ec:	e28db004 	add	fp, sp, #4
  1014f0:	e24dd008 	sub	sp, sp, #8
  1014f4:	e30f3c04 	movw	r3, #64516	; 0xfc04
  1014f8:	e34f3ffe 	movt	r3, #65534	; 0xfffe
  1014fc:	e5933000 	ldr	r3, [r3]
  101500:	e1a03a23 	lsr	r3, r3, #20
  101504:	e1a03a03 	lsl	r3, r3, #20
  101508:	e50b3008 	str	r3, [fp, #-8]
  10150c:	e51b1008 	ldr	r1, [fp, #-8]
  101510:	e3a00000 	mov	r0, #0
  101514:	eb000027 	bl	1015b8 <alt_l2_addr_filter_cfg_set>
  101518:	e1a03000 	mov	r3, r0
  10151c:	e1a00003 	mov	r0, r3
  101520:	e24bd004 	sub	sp, fp, #4
  101524:	e8bd8800 	pop	{fp, pc}

00101528 <alt_l2_addr_filter_cfg_get>:
  101528:	e52db004 	push	{fp}		; (str fp, [sp, #-4]!)
  10152c:	e28db000 	add	fp, sp, #0
  101530:	e24dd014 	sub	sp, sp, #20
  101534:	e50b0010 	str	r0, [fp, #-16]
  101538:	e50b1014 	str	r1, [fp, #-20]	; 0xffffffec
  10153c:	e3a03b3f 	mov	r3, #64512	; 0xfc00
  101540:	e34f3ffe 	movt	r3, #65534	; 0xfffe
  101544:	e5933000 	ldr	r3, [r3]
  101548:	e50b3008 	str	r3, [fp, #-8]
  10154c:	e30f3c04 	movw	r3, #64516	; 0xfc04
  101550:	e34f3ffe 	movt	r3, #65534	; 0xfffe
  101554:	e5933000 	ldr	r3, [r3]
  101558:	e50b300c 	str	r3, [fp, #-12]
  10155c:	e51b3010 	ldr	r3, [fp, #-16]
  101560:	e3530000 	cmp	r3, #0
  101564:	0a000002 	beq	101574 <alt_l2_addr_filter_cfg_get+0x4c>
  101568:	e51b3014 	ldr	r3, [fp, #-20]	; 0xffffffec
  10156c:	e3530000 	cmp	r3, #0
  101570:	1a000001 	bne	10157c <alt_l2_addr_filter_cfg_get+0x54>
  101574:	e3e03008 	mvn	r3, #8
  101578:	ea00000a 	b	1015a8 <alt_l2_addr_filter_cfg_get+0x80>
  10157c:	e51b3008 	ldr	r3, [fp, #-8]
  101580:	e1a03a23 	lsr	r3, r3, #20
  101584:	e1a03a03 	lsl	r3, r3, #20
  101588:	e51b2010 	ldr	r2, [fp, #-16]
  10158c:	e5823000 	str	r3, [r2]
  101590:	e51b300c 	ldr	r3, [fp, #-12]
  101594:	e1a03a23 	lsr	r3, r3, #20
  101598:	e1a03a03 	lsl	r3, r3, #20
  10159c:	e51b2014 	ldr	r2, [fp, #-20]	; 0xffffffec
  1015a0:	e5823000 	str	r3, [r2]
  1015a4:	e3a03000 	mov	r3, #0
  1015a8:	e1a00003 	mov	r0, r3
  1015ac:	e24bd000 	sub	sp, fp, #0
  1015b0:	e49db004 	pop	{fp}		; (ldr fp, [sp], #4)
  1015b4:	e12fff1e 	bx	lr

001015b8 <alt_l2_addr_filter_cfg_set>:
  1015b8:	e52db004 	push	{fp}		; (str fp, [sp, #-4]!)
  1015bc:	e28db000 	add	fp, sp, #0
  1015c0:	e24dd00c 	sub	sp, sp, #12
  1015c4:	e50b0008 	str	r0, [fp, #-8]
  1015c8:	e50b100c 	str	r1, [fp, #-12]
  1015cc:	e51b3008 	ldr	r3, [fp, #-8]
  1015d0:	e7f33053 	ubfx	r3, r3, #0, #20
  1015d4:	e3530000 	cmp	r3, #0
  1015d8:	1a000003 	bne	1015ec <alt_l2_addr_filter_cfg_set+0x34>
  1015dc:	e51b300c 	ldr	r3, [fp, #-12]
  1015e0:	e7f33053 	ubfx	r3, r3, #0, #20
  1015e4:	e3530000 	cmp	r3, #0
  1015e8:	0a000001 	beq	1015f4 <alt_l2_addr_filter_cfg_set+0x3c>
  1015ec:	e3e03007 	mvn	r3, #7
  1015f0:	ea000010 	b	101638 <alt_l2_addr_filter_cfg_set+0x80>
  1015f4:	e51b300c 	ldr	r3, [fp, #-12]
  1015f8:	e3530103 	cmp	r3, #-1073741824	; 0xc0000000
  1015fc:	9a000001 	bls	101608 <alt_l2_addr_filter_cfg_set+0x50>
  101600:	e3e03007 	mvn	r3, #7
  101604:	ea00000b 	b	101638 <alt_l2_addr_filter_cfg_set+0x80>
  101608:	e30f3c04 	movw	r3, #64516	; 0xfc04
  10160c:	e34f3ffe 	movt	r3, #65534	; 0xfffe
  101610:	e51b200c 	ldr	r2, [fp, #-12]
  101614:	e5832000 	str	r2, [r3]
  101618:	e51b3008 	ldr	r3, [fp, #-8]
  10161c:	e3833001 	orr	r3, r3, #1
  101620:	e50b3008 	str	r3, [fp, #-8]
  101624:	e3a03b3f 	mov	r3, #64512	; 0xfc00
  101628:	e34f3ffe 	movt	r3, #65534	; 0xfffe
  10162c:	e51b2008 	ldr	r2, [fp, #-8]
  101630:	e5832000 	str	r2, [r3]
  101634:	e3a03000 	mov	r3, #0
  101638:	e1a00003 	mov	r0, r3
  10163c:	e24bd000 	sub	sp, fp, #0
  101640:	e49db004 	pop	{fp}		; (ldr fp, [sp], #4)
  101644:	e12fff1e 	bx	lr

00101648 <alt_acp_id_map_fixed_read_set>:
  101648:	e52db004 	push	{fp}		; (str fp, [sp, #-4]!)
  10164c:	e28db000 	add	fp, sp, #0
  101650:	e24dd014 	sub	sp, sp, #20
  101654:	e50b0008 	str	r0, [fp, #-8]
  101658:	e50b100c 	str	r1, [fp, #-12]
  10165c:	e50b3014 	str	r3, [fp, #-20]	; 0xffffffec
  101660:	e1a03002 	mov	r3, r2
  101664:	e54b300d 	strb	r3, [fp, #-13]
  101668:	e51b3008 	ldr	r3, [fp, #-8]
  10166c:	e3530a01 	cmp	r3, #4096	; 0x1000
  101670:	2a000002 	bcs	101680 <alt_acp_id_map_fixed_read_set+0x38>
  101674:	e51b300c 	ldr	r3, [fp, #-12]
  101678:	e3530007 	cmp	r3, #7
  10167c:	9a000001 	bls	101688 <alt_acp_id_map_fixed_read_set+0x40>
  101680:	e3e03008 	mvn	r3, #8
  101684:	ea000066 	b	101824 <alt_acp_id_map_fixed_read_set+0x1dc>
  101688:	e51b300c 	ldr	r3, [fp, #-12]
  10168c:	e2433002 	sub	r3, r3, #2
  101690:	e3530004 	cmp	r3, #4
  101694:	979ff103 	ldrls	pc, [pc, r3, lsl #2]
  101698:	ea00005e 	b	101818 <alt_acp_id_map_fixed_read_set+0x1d0>
  10169c:	001016b0 	.word	0x001016b0
  1016a0:	001016f8 	.word	0x001016f8
  1016a4:	00101740 	.word	0x00101740
  1016a8:	00101788 	.word	0x00101788
  1016ac:	001017d0 	.word	0x001017d0
  1016b0:	e3a02a07 	mov	r2, #28672	; 0x7000
  1016b4:	e34f2f70 	movt	r2, #65392	; 0xff70
  1016b8:	e51b3008 	ldr	r3, [fp, #-8]
  1016bc:	e1a01803 	lsl	r1, r3, #16
  1016c0:	e3a03000 	mov	r3, #0
  1016c4:	e3403fff 	movt	r3, #4095	; 0xfff
  1016c8:	e0033001 	and	r3, r3, r1
  1016cc:	e55b100d 	ldrb	r1, [fp, #-13]
  1016d0:	e1a01601 	lsl	r1, r1, #12
  1016d4:	e2011a03 	and	r1, r1, #12288	; 0x3000
  1016d8:	e1831001 	orr	r1, r3, r1
  1016dc:	e51b3014 	ldr	r3, [fp, #-20]	; 0xffffffec
  1016e0:	e1a03203 	lsl	r3, r3, #4
  1016e4:	e2033e1f 	and	r3, r3, #496	; 0x1f0
  1016e8:	e1813003 	orr	r3, r1, r3
  1016ec:	e3833102 	orr	r3, r3, #-2147483648	; 0x80000000
  1016f0:	e5823000 	str	r3, [r2]
  1016f4:	ea000049 	b	101820 <alt_acp_id_map_fixed_read_set+0x1d8>
  1016f8:	e3072008 	movw	r2, #28680	; 0x7008
  1016fc:	e34f2f70 	movt	r2, #65392	; 0xff70
  101700:	e51b3008 	ldr	r3, [fp, #-8]
  101704:	e1a01803 	lsl	r1, r3, #16
  101708:	e3a03000 	mov	r3, #0
  10170c:	e3403fff 	movt	r3, #4095	; 0xfff
  101710:	e0033001 	and	r3, r3, r1
  101714:	e55b100d 	ldrb	r1, [fp, #-13]
  101718:	e1a01601 	lsl	r1, r1, #12
  10171c:	e2011a03 	and	r1, r1, #12288	; 0x3000
  101720:	e1831001 	orr	r1, r3, r1
  101724:	e51b3014 	ldr	r3, [fp, #-20]	; 0xffffffec
  101728:	e1a03203 	lsl	r3, r3, #4
  10172c:	e2033e1f 	and	r3, r3, #496	; 0x1f0
  101730:	e1813003 	orr	r3, r1, r3
  101734:	e3833102 	orr	r3, r3, #-2147483648	; 0x80000000
  101738:	e5823000 	str	r3, [r2]
  10173c:	ea000037 	b	101820 <alt_acp_id_map_fixed_read_set+0x1d8>
  101740:	e3072010 	movw	r2, #28688	; 0x7010
  101744:	e34f2f70 	movt	r2, #65392	; 0xff70
  101748:	e51b3008 	ldr	r3, [fp, #-8]
  10174c:	e1a01803 	lsl	r1, r3, #16
  101750:	e3a03000 	mov	r3, #0
  101754:	e3403fff 	movt	r3, #4095	; 0xfff
  101758:	e0033001 	and	r3, r3, r1
  10175c:	e55b100d 	ldrb	r1, [fp, #-13]
  101760:	e1a01601 	lsl	r1, r1, #12
  101764:	e2011a03 	and	r1, r1, #12288	; 0x3000
  101768:	e1831001 	orr	r1, r3, r1
  10176c:	e51b3014 	ldr	r3, [fp, #-20]	; 0xffffffec
  101770:	e1a03203 	lsl	r3, r3, #4
  101774:	e2033e1f 	and	r3, r3, #496	; 0x1f0
  101778:	e1813003 	orr	r3, r1, r3
  10177c:	e3833102 	orr	r3, r3, #-2147483648	; 0x80000000
  101780:	e5823000 	str	r3, [r2]
  101784:	ea000025 	b	101820 <alt_acp_id_map_fixed_read_set+0x1d8>
  101788:	e3072018 	movw	r2, #28696	; 0x7018
  10178c:	e34f2f70 	movt	r2, #65392	; 0xff70
  101790:	e51b3008 	ldr	r3, [fp, #-8]
  101794:	e1a01803 	lsl	r1, r3, #16
  101798:	e3a03000 	mov	r3, #0
  10179c:	e3403fff 	movt	r3, #4095	; 0xfff
  1017a0:	e0033001 	and	r3, r3, r1
  1017a4:	e55b100d 	ldrb	r1, [fp, #-13]
  1017a8:	e1a01601 	lsl	r1, r1, #12
  1017ac:	e2011a03 	and	r1, r1, #12288	; 0x3000
  1017b0:	e1831001 	orr	r1, r3, r1
  1017b4:	e51b3014 	ldr	r3, [fp, #-20]	; 0xffffffec
  1017b8:	e1a03203 	lsl	r3, r3, #4
  1017bc:	e2033e1f 	and	r3, r3, #496	; 0x1f0
  1017c0:	e1813003 	orr	r3, r1, r3
  1017c4:	e3833102 	orr	r3, r3, #-2147483648	; 0x80000000
  1017c8:	e5823000 	str	r3, [r2]
  1017cc:	ea000013 	b	101820 <alt_acp_id_map_fixed_read_set+0x1d8>
  1017d0:	e3072020 	movw	r2, #28704	; 0x7020
  1017d4:	e34f2f70 	movt	r2, #65392	; 0xff70
  1017d8:	e51b3008 	ldr	r3, [fp, #-8]
  1017dc:	e1a01803 	lsl	r1, r3, #16
  1017e0:	e3a03000 	mov	r3, #0
  1017e4:	e3403fff 	movt	r3, #4095	; 0xfff
  1017e8:	e0033001 	and	r3, r3, r1
  1017ec:	e55b100d 	ldrb	r1, [fp, #-13]
  1017f0:	e1a01601 	lsl	r1, r1, #12
  1017f4:	e2011a03 	and	r1, r1, #12288	; 0x3000
  1017f8:	e1831001 	orr	r1, r3, r1
  1017fc:	e51b3014 	ldr	r3, [fp, #-20]	; 0xffffffec
  101800:	e1a03203 	lsl	r3, r3, #4
  101804:	e2033e1f 	and	r3, r3, #496	; 0x1f0
  101808:	e1813003 	orr	r3, r1, r3
  10180c:	e3833102 	orr	r3, r3, #-2147483648	; 0x80000000
  101810:	e5823000 	str	r3, [r2]
  101814:	ea000001 	b	101820 <alt_acp_id_map_fixed_read_set+0x1d8>
  101818:	e3e03008 	mvn	r3, #8
  10181c:	ea000000 	b	101824 <alt_acp_id_map_fixed_read_set+0x1dc>
  101820:	e3a03000 	mov	r3, #0
  101824:	e1a00003 	mov	r0, r3
  101828:	e24bd000 	sub	sp, fp, #0
  10182c:	e49db004 	pop	{fp}		; (ldr fp, [sp], #4)
  101830:	e12fff1e 	bx	lr

00101834 <alt_acp_id_map_fixed_write_set>:
  101834:	e52db004 	push	{fp}		; (str fp, [sp, #-4]!)
  101838:	e28db000 	add	fp, sp, #0
  10183c:	e24dd014 	sub	sp, sp, #20
  101840:	e50b0008 	str	r0, [fp, #-8]
  101844:	e50b100c 	str	r1, [fp, #-12]
  101848:	e50b3014 	str	r3, [fp, #-20]	; 0xffffffec
  10184c:	e1a03002 	mov	r3, r2
  101850:	e54b300d 	strb	r3, [fp, #-13]
  101854:	e51b3008 	ldr	r3, [fp, #-8]
  101858:	e3530a01 	cmp	r3, #4096	; 0x1000
  10185c:	2a000002 	bcs	10186c <alt_acp_id_map_fixed_write_set+0x38>
  101860:	e51b300c 	ldr	r3, [fp, #-12]
  101864:	e3530007 	cmp	r3, #7
  101868:	9a000001 	bls	101874 <alt_acp_id_map_fixed_write_set+0x40>
  10186c:	e3e03008 	mvn	r3, #8
  101870:	ea000066 	b	101a10 <alt_acp_id_map_fixed_write_set+0x1dc>
  101874:	e51b300c 	ldr	r3, [fp, #-12]
  101878:	e2433002 	sub	r3, r3, #2
  10187c:	e3530004 	cmp	r3, #4
  101880:	979ff103 	ldrls	pc, [pc, r3, lsl #2]
  101884:	ea00005e 	b	101a04 <alt_acp_id_map_fixed_write_set+0x1d0>
  101888:	0010189c 	.word	0x0010189c
  10188c:	001018e4 	.word	0x001018e4
  101890:	0010192c 	.word	0x0010192c
  101894:	00101974 	.word	0x00101974
  101898:	001019bc 	.word	0x001019bc
  10189c:	e3072004 	movw	r2, #28676	; 0x7004
  1018a0:	e34f2f70 	movt	r2, #65392	; 0xff70
  1018a4:	e51b3008 	ldr	r3, [fp, #-8]
  1018a8:	e1a01803 	lsl	r1, r3, #16
  1018ac:	e3a03000 	mov	r3, #0
  1018b0:	e3403fff 	movt	r3, #4095	; 0xfff
  1018b4:	e0033001 	and	r3, r3, r1
  1018b8:	e55b100d 	ldrb	r1, [fp, #-13]
  1018bc:	e1a01601 	lsl	r1, r1, #12
  1018c0:	e2011a03 	and	r1, r1, #12288	; 0x3000
  1018c4:	e1831001 	orr	r1, r3, r1
  1018c8:	e51b3014 	ldr	r3, [fp, #-20]	; 0xffffffec
  1018cc:	e1a03203 	lsl	r3, r3, #4
  1018d0:	e2033e1f 	and	r3, r3, #496	; 0x1f0
  1018d4:	e1813003 	orr	r3, r1, r3
  1018d8:	e3833102 	orr	r3, r3, #-2147483648	; 0x80000000
  1018dc:	e5823000 	str	r3, [r2]
  1018e0:	ea000049 	b	101a0c <alt_acp_id_map_fixed_write_set+0x1d8>
  1018e4:	e307200c 	movw	r2, #28684	; 0x700c
  1018e8:	e34f2f70 	movt	r2, #65392	; 0xff70
  1018ec:	e51b3008 	ldr	r3, [fp, #-8]
  1018f0:	e1a01803 	lsl	r1, r3, #16
  1018f4:	e3a03000 	mov	r3, #0
  1018f8:	e3403fff 	movt	r3, #4095	; 0xfff
  1018fc:	e0033001 	and	r3, r3, r1
  101900:	e55b100d 	ldrb	r1, [fp, #-13]
  101904:	e1a01601 	lsl	r1, r1, #12
  101908:	e2011a03 	and	r1, r1, #12288	; 0x3000
  10190c:	e1831001 	orr	r1, r3, r1
  101910:	e51b3014 	ldr	r3, [fp, #-20]	; 0xffffffec
  101914:	e1a03203 	lsl	r3, r3, #4
  101918:	e2033e1f 	and	r3, r3, #496	; 0x1f0
  10191c:	e1813003 	orr	r3, r1, r3
  101920:	e3833102 	orr	r3, r3, #-2147483648	; 0x80000000
  101924:	e5823000 	str	r3, [r2]
  101928:	ea000037 	b	101a0c <alt_acp_id_map_fixed_write_set+0x1d8>
  10192c:	e3072014 	movw	r2, #28692	; 0x7014
  101930:	e34f2f70 	movt	r2, #65392	; 0xff70
  101934:	e51b3008 	ldr	r3, [fp, #-8]
  101938:	e1a01803 	lsl	r1, r3, #16
  10193c:	e3a03000 	mov	r3, #0
  101940:	e3403fff 	movt	r3, #4095	; 0xfff
  101944:	e0033001 	and	r3, r3, r1
  101948:	e55b100d 	ldrb	r1, [fp, #-13]
  10194c:	e1a01601 	lsl	r1, r1, #12
  101950:	e2011a03 	and	r1, r1, #12288	; 0x3000
  101954:	e1831001 	orr	r1, r3, r1
  101958:	e51b3014 	ldr	r3, [fp, #-20]	; 0xffffffec
  10195c:	e1a03203 	lsl	r3, r3, #4
  101960:	e2033e1f 	and	r3, r3, #496	; 0x1f0
  101964:	e1813003 	orr	r3, r1, r3
  101968:	e3833102 	orr	r3, r3, #-2147483648	; 0x80000000
  10196c:	e5823000 	str	r3, [r2]
  101970:	ea000025 	b	101a0c <alt_acp_id_map_fixed_write_set+0x1d8>
  101974:	e307201c 	movw	r2, #28700	; 0x701c
  101978:	e34f2f70 	movt	r2, #65392	; 0xff70
  10197c:	e51b3008 	ldr	r3, [fp, #-8]
  101980:	e1a01803 	lsl	r1, r3, #16
  101984:	e3a03000 	mov	r3, #0
  101988:	e3403fff 	movt	r3, #4095	; 0xfff
  10198c:	e0033001 	and	r3, r3, r1
  101990:	e55b100d 	ldrb	r1, [fp, #-13]
  101994:	e1a01601 	lsl	r1, r1, #12
  101998:	e2011a03 	and	r1, r1, #12288	; 0x3000
  10199c:	e1831001 	orr	r1, r3, r1
  1019a0:	e51b3014 	ldr	r3, [fp, #-20]	; 0xffffffec
  1019a4:	e1a03203 	lsl	r3, r3, #4
  1019a8:	e2033e1f 	and	r3, r3, #496	; 0x1f0
  1019ac:	e1813003 	orr	r3, r1, r3
  1019b0:	e3833102 	orr	r3, r3, #-2147483648	; 0x80000000
  1019b4:	e5823000 	str	r3, [r2]
  1019b8:	ea000013 	b	101a0c <alt_acp_id_map_fixed_write_set+0x1d8>
  1019bc:	e3072024 	movw	r2, #28708	; 0x7024
  1019c0:	e34f2f70 	movt	r2, #65392	; 0xff70
  1019c4:	e51b3008 	ldr	r3, [fp, #-8]
  1019c8:	e1a01803 	lsl	r1, r3, #16
  1019cc:	e3a03000 	mov	r3, #0
  1019d0:	e3403fff 	movt	r3, #4095	; 0xfff
  1019d4:	e0033001 	and	r3, r3, r1
  1019d8:	e55b100d 	ldrb	r1, [fp, #-13]
  1019dc:	e1a01601 	lsl	r1, r1, #12
  1019e0:	e2011a03 	and	r1, r1, #12288	; 0x3000
  1019e4:	e1831001 	orr	r1, r3, r1
  1019e8:	e51b3014 	ldr	r3, [fp, #-20]	; 0xffffffec
  1019ec:	e1a03203 	lsl	r3, r3, #4
  1019f0:	e2033e1f 	and	r3, r3, #496	; 0x1f0
  1019f4:	e1813003 	orr	r3, r1, r3
  1019f8:	e3833102 	orr	r3, r3, #-2147483648	; 0x80000000
  1019fc:	e5823000 	str	r3, [r2]
  101a00:	ea000001 	b	101a0c <alt_acp_id_map_fixed_write_set+0x1d8>
  101a04:	e3e03008 	mvn	r3, #8
  101a08:	ea000000 	b	101a10 <alt_acp_id_map_fixed_write_set+0x1dc>
  101a0c:	e3a03000 	mov	r3, #0
  101a10:	e1a00003 	mov	r0, r3
  101a14:	e24bd000 	sub	sp, fp, #0
  101a18:	e49db004 	pop	{fp}		; (ldr fp, [sp], #4)
  101a1c:	e12fff1e 	bx	lr

00101a20 <alt_acp_id_map_dynamic_read_set>:
  101a20:	e52db004 	push	{fp}		; (str fp, [sp, #-4]!)
  101a24:	e28db000 	add	fp, sp, #0
  101a28:	e24dd014 	sub	sp, sp, #20
  101a2c:	e50b0010 	str	r0, [fp, #-16]
  101a30:	e51b3010 	ldr	r3, [fp, #-16]
  101a34:	e3530007 	cmp	r3, #7
  101a38:	9a000001 	bls	101a44 <alt_acp_id_map_dynamic_read_set+0x24>
  101a3c:	e3e03008 	mvn	r3, #8
  101a40:	ea000057 	b	101ba4 <alt_acp_id_map_dynamic_read_set+0x184>
  101a44:	e51b3010 	ldr	r3, [fp, #-16]
  101a48:	e2433002 	sub	r3, r3, #2
  101a4c:	e3530004 	cmp	r3, #4
  101a50:	979ff103 	ldrls	pc, [pc, r3, lsl #2]
  101a54:	ea000045 	b	101b70 <alt_acp_id_map_dynamic_read_set+0x150>
  101a58:	00101a6c 	.word	0x00101a6c
  101a5c:	00101aa0 	.word	0x00101aa0
  101a60:	00101ad4 	.word	0x00101ad4
  101a64:	00101b08 	.word	0x00101b08
  101a68:	00101b3c 	.word	0x00101b3c
  101a6c:	e3a03a07 	mov	r3, #28672	; 0x7000
  101a70:	e34f3f70 	movt	r3, #65392	; 0xff70
  101a74:	e5933000 	ldr	r3, [r3]
  101a78:	e1a03223 	lsr	r3, r3, #4
  101a7c:	e203301f 	and	r3, r3, #31
  101a80:	e50b3008 	str	r3, [fp, #-8]
  101a84:	e3a03a07 	mov	r3, #28672	; 0x7000
  101a88:	e34f3f70 	movt	r3, #65392	; 0xff70
  101a8c:	e5933000 	ldr	r3, [r3]
  101a90:	e1a03623 	lsr	r3, r3, #12
  101a94:	e2033003 	and	r3, r3, #3
  101a98:	e50b300c 	str	r3, [fp, #-12]
  101a9c:	ea000035 	b	101b78 <alt_acp_id_map_dynamic_read_set+0x158>
  101aa0:	e3073008 	movw	r3, #28680	; 0x7008
  101aa4:	e34f3f70 	movt	r3, #65392	; 0xff70
  101aa8:	e5933000 	ldr	r3, [r3]
  101aac:	e1a03223 	lsr	r3, r3, #4
  101ab0:	e203301f 	and	r3, r3, #31
  101ab4:	e50b3008 	str	r3, [fp, #-8]
  101ab8:	e3073008 	movw	r3, #28680	; 0x7008
  101abc:	e34f3f70 	movt	r3, #65392	; 0xff70
  101ac0:	e5933000 	ldr	r3, [r3]
  101ac4:	e1a03623 	lsr	r3, r3, #12
  101ac8:	e2033003 	and	r3, r3, #3
  101acc:	e50b300c 	str	r3, [fp, #-12]
  101ad0:	ea000028 	b	101b78 <alt_acp_id_map_dynamic_read_set+0x158>
  101ad4:	e3073010 	movw	r3, #28688	; 0x7010
  101ad8:	e34f3f70 	movt	r3, #65392	; 0xff70
  101adc:	e5933000 	ldr	r3, [r3]
  101ae0:	e1a03223 	lsr	r3, r3, #4
  101ae4:	e203301f 	and	r3, r3, #31
  101ae8:	e50b3008 	str	r3, [fp, #-8]
  101aec:	e3073010 	movw	r3, #28688	; 0x7010
  101af0:	e34f3f70 	movt	r3, #65392	; 0xff70
  101af4:	e5933000 	ldr	r3, [r3]
  101af8:	e1a03623 	lsr	r3, r3, #12
  101afc:	e2033003 	and	r3, r3, #3
  101b00:	e50b300c 	str	r3, [fp, #-12]
  101b04:	ea00001b 	b	101b78 <alt_acp_id_map_dynamic_read_set+0x158>
  101b08:	e3073018 	movw	r3, #28696	; 0x7018
  101b0c:	e34f3f70 	movt	r3, #65392	; 0xff70
  101b10:	e5933000 	ldr	r3, [r3]
  101b14:	e1a03223 	lsr	r3, r3, #4
  101b18:	e203301f 	and	r3, r3, #31
  101b1c:	e50b3008 	str	r3, [fp, #-8]
  101b20:	e3073018 	movw	r3, #28696	; 0x7018
  101b24:	e34f3f70 	movt	r3, #65392	; 0xff70
  101b28:	e5933000 	ldr	r3, [r3]
  101b2c:	e1a03623 	lsr	r3, r3, #12
  101b30:	e2033003 	and	r3, r3, #3
  101b34:	e50b300c 	str	r3, [fp, #-12]
  101b38:	ea00000e 	b	101b78 <alt_acp_id_map_dynamic_read_set+0x158>
  101b3c:	e3073020 	movw	r3, #28704	; 0x7020
  101b40:	e34f3f70 	movt	r3, #65392	; 0xff70
  101b44:	e5933000 	ldr	r3, [r3]
  101b48:	e1a03223 	lsr	r3, r3, #4
  101b4c:	e203301f 	and	r3, r3, #31
  101b50:	e50b3008 	str	r3, [fp, #-8]
  101b54:	e3073020 	movw	r3, #28704	; 0x7020
  101b58:	e34f3f70 	movt	r3, #65392	; 0xff70
  101b5c:	e5933000 	ldr	r3, [r3]
  101b60:	e1a03623 	lsr	r3, r3, #12
  101b64:	e2033003 	and	r3, r3, #3
  101b68:	e50b300c 	str	r3, [fp, #-12]
  101b6c:	ea000001 	b	101b78 <alt_acp_id_map_dynamic_read_set+0x158>
  101b70:	e3e03008 	mvn	r3, #8
  101b74:	ea00000a 	b	101ba4 <alt_acp_id_map_dynamic_read_set+0x184>
  101b78:	e3073028 	movw	r3, #28712	; 0x7028
  101b7c:	e34f3f70 	movt	r3, #65392	; 0xff70
  101b80:	e51b200c 	ldr	r2, [fp, #-12]
  101b84:	e1a02602 	lsl	r2, r2, #12
  101b88:	e2021a03 	and	r1, r2, #12288	; 0x3000
  101b8c:	e51b2008 	ldr	r2, [fp, #-8]
  101b90:	e1a02202 	lsl	r2, r2, #4
  101b94:	e2022e1f 	and	r2, r2, #496	; 0x1f0
  101b98:	e1812002 	orr	r2, r1, r2
  101b9c:	e5832000 	str	r2, [r3]
  101ba0:	e3a03000 	mov	r3, #0
  101ba4:	e1a00003 	mov	r0, r3
  101ba8:	e24bd000 	sub	sp, fp, #0
  101bac:	e49db004 	pop	{fp}		; (ldr fp, [sp], #4)
  101bb0:	e12fff1e 	bx	lr

00101bb4 <alt_acp_id_map_dynamic_write_set>:
  101bb4:	e52db004 	push	{fp}		; (str fp, [sp, #-4]!)
  101bb8:	e28db000 	add	fp, sp, #0
  101bbc:	e24dd014 	sub	sp, sp, #20
  101bc0:	e50b0010 	str	r0, [fp, #-16]
  101bc4:	e51b3010 	ldr	r3, [fp, #-16]
  101bc8:	e3530007 	cmp	r3, #7
  101bcc:	9a000001 	bls	101bd8 <alt_acp_id_map_dynamic_write_set+0x24>
  101bd0:	e3e03008 	mvn	r3, #8
  101bd4:	ea000057 	b	101d38 <alt_acp_id_map_dynamic_write_set+0x184>
  101bd8:	e51b3010 	ldr	r3, [fp, #-16]
  101bdc:	e2433002 	sub	r3, r3, #2
  101be0:	e3530004 	cmp	r3, #4
  101be4:	979ff103 	ldrls	pc, [pc, r3, lsl #2]
  101be8:	ea000045 	b	101d04 <alt_acp_id_map_dynamic_write_set+0x150>
  101bec:	00101c00 	.word	0x00101c00
  101bf0:	00101c34 	.word	0x00101c34
  101bf4:	00101c68 	.word	0x00101c68
  101bf8:	00101c9c 	.word	0x00101c9c
  101bfc:	00101cd0 	.word	0x00101cd0
  101c00:	e3073004 	movw	r3, #28676	; 0x7004
  101c04:	e34f3f70 	movt	r3, #65392	; 0xff70
  101c08:	e5933000 	ldr	r3, [r3]
  101c0c:	e1a03223 	lsr	r3, r3, #4
  101c10:	e203301f 	and	r3, r3, #31
  101c14:	e50b3008 	str	r3, [fp, #-8]
  101c18:	e3073004 	movw	r3, #28676	; 0x7004
  101c1c:	e34f3f70 	movt	r3, #65392	; 0xff70
  101c20:	e5933000 	ldr	r3, [r3]
  101c24:	e1a03623 	lsr	r3, r3, #12
  101c28:	e2033003 	and	r3, r3, #3
  101c2c:	e50b300c 	str	r3, [fp, #-12]
  101c30:	ea000035 	b	101d0c <alt_acp_id_map_dynamic_write_set+0x158>
  101c34:	e307300c 	movw	r3, #28684	; 0x700c
  101c38:	e34f3f70 	movt	r3, #65392	; 0xff70
  101c3c:	e5933000 	ldr	r3, [r3]
  101c40:	e1a03223 	lsr	r3, r3, #4
  101c44:	e203301f 	and	r3, r3, #31
  101c48:	e50b3008 	str	r3, [fp, #-8]
  101c4c:	e307300c 	movw	r3, #28684	; 0x700c
  101c50:	e34f3f70 	movt	r3, #65392	; 0xff70
  101c54:	e5933000 	ldr	r3, [r3]
  101c58:	e1a03623 	lsr	r3, r3, #12
  101c5c:	e2033003 	and	r3, r3, #3
  101c60:	e50b300c 	str	r3, [fp, #-12]
  101c64:	ea000028 	b	101d0c <alt_acp_id_map_dynamic_write_set+0x158>
  101c68:	e3073014 	movw	r3, #28692	; 0x7014
  101c6c:	e34f3f70 	movt	r3, #65392	; 0xff70
  101c70:	e5933000 	ldr	r3, [r3]
  101c74:	e1a03223 	lsr	r3, r3, #4
  101c78:	e203301f 	and	r3, r3, #31
  101c7c:	e50b3008 	str	r3, [fp, #-8]
  101c80:	e3073014 	movw	r3, #28692	; 0x7014
  101c84:	e34f3f70 	movt	r3, #65392	; 0xff70
  101c88:	e5933000 	ldr	r3, [r3]
  101c8c:	e1a03623 	lsr	r3, r3, #12
  101c90:	e2033003 	and	r3, r3, #3
  101c94:	e50b300c 	str	r3, [fp, #-12]
  101c98:	ea00001b 	b	101d0c <alt_acp_id_map_dynamic_write_set+0x158>
  101c9c:	e307301c 	movw	r3, #28700	; 0x701c
  101ca0:	e34f3f70 	movt	r3, #65392	; 0xff70
  101ca4:	e5933000 	ldr	r3, [r3]
  101ca8:	e1a03223 	lsr	r3, r3, #4
  101cac:	e203301f 	and	r3, r3, #31
  101cb0:	e50b3008 	str	r3, [fp, #-8]
  101cb4:	e307301c 	movw	r3, #28700	; 0x701c
  101cb8:	e34f3f70 	movt	r3, #65392	; 0xff70
  101cbc:	e5933000 	ldr	r3, [r3]
  101cc0:	e1a03623 	lsr	r3, r3, #12
  101cc4:	e2033003 	and	r3, r3, #3
  101cc8:	e50b300c 	str	r3, [fp, #-12]
  101ccc:	ea00000e 	b	101d0c <alt_acp_id_map_dynamic_write_set+0x158>
  101cd0:	e3073024 	movw	r3, #28708	; 0x7024
  101cd4:	e34f3f70 	movt	r3, #65392	; 0xff70
  101cd8:	e5933000 	ldr	r3, [r3]
  101cdc:	e1a03223 	lsr	r3, r3, #4
  101ce0:	e203301f 	and	r3, r3, #31
  101ce4:	e50b3008 	str	r3, [fp, #-8]
  101ce8:	e3073024 	movw	r3, #28708	; 0x7024
  101cec:	e34f3f70 	movt	r3, #65392	; 0xff70
  101cf0:	e5933000 	ldr	r3, [r3]
  101cf4:	e1a03623 	lsr	r3, r3, #12
  101cf8:	e2033003 	and	r3, r3, #3
  101cfc:	e50b300c 	str	r3, [fp, #-12]
  101d00:	ea000001 	b	101d0c <alt_acp_id_map_dynamic_write_set+0x158>
  101d04:	e3e03008 	mvn	r3, #8
  101d08:	ea00000a 	b	101d38 <alt_acp_id_map_dynamic_write_set+0x184>
  101d0c:	e307302c 	movw	r3, #28716	; 0x702c
  101d10:	e34f3f70 	movt	r3, #65392	; 0xff70
  101d14:	e51b200c 	ldr	r2, [fp, #-12]
  101d18:	e1a02602 	lsl	r2, r2, #12
  101d1c:	e2021a03 	and	r1, r2, #12288	; 0x3000
  101d20:	e51b2008 	ldr	r2, [fp, #-8]
  101d24:	e1a02202 	lsl	r2, r2, #4
  101d28:	e2022e1f 	and	r2, r2, #496	; 0x1f0
  101d2c:	e1812002 	orr	r2, r1, r2
  101d30:	e5832000 	str	r2, [r3]
  101d34:	e3a03000 	mov	r3, #0
  101d38:	e1a00003 	mov	r0, r3
  101d3c:	e24bd000 	sub	sp, fp, #0
  101d40:	e49db004 	pop	{fp}		; (ldr fp, [sp], #4)
  101d44:	e12fff1e 	bx	lr

00101d48 <alt_acp_id_map_dynamic_read_options_set>:
  101d48:	e52db004 	push	{fp}		; (str fp, [sp, #-4]!)
  101d4c:	e28db000 	add	fp, sp, #0
  101d50:	e24dd00c 	sub	sp, sp, #12
  101d54:	e1a03000 	mov	r3, r0
  101d58:	e50b100c 	str	r1, [fp, #-12]
  101d5c:	e54b3005 	strb	r3, [fp, #-5]
  101d60:	e3073028 	movw	r3, #28712	; 0x7028
  101d64:	e34f3f70 	movt	r3, #65392	; 0xff70
  101d68:	e55b2005 	ldrb	r2, [fp, #-5]
  101d6c:	e1a02602 	lsl	r2, r2, #12
  101d70:	e2021a03 	and	r1, r2, #12288	; 0x3000
  101d74:	e51b200c 	ldr	r2, [fp, #-12]
  101d78:	e1a02202 	lsl	r2, r2, #4
  101d7c:	e2022e1f 	and	r2, r2, #496	; 0x1f0
  101d80:	e1812002 	orr	r2, r1, r2
  101d84:	e5832000 	str	r2, [r3]
  101d88:	e3a03000 	mov	r3, #0
  101d8c:	e1a00003 	mov	r0, r3
  101d90:	e24bd000 	sub	sp, fp, #0
  101d94:	e49db004 	pop	{fp}		; (ldr fp, [sp], #4)
  101d98:	e12fff1e 	bx	lr

00101d9c <alt_acp_id_map_dynamic_write_options_set>:
  101d9c:	e52db004 	push	{fp}		; (str fp, [sp, #-4]!)
  101da0:	e28db000 	add	fp, sp, #0
  101da4:	e24dd00c 	sub	sp, sp, #12
  101da8:	e1a03000 	mov	r3, r0
  101dac:	e50b100c 	str	r1, [fp, #-12]
  101db0:	e54b3005 	strb	r3, [fp, #-5]
  101db4:	e307302c 	movw	r3, #28716	; 0x702c
  101db8:	e34f3f70 	movt	r3, #65392	; 0xff70
  101dbc:	e55b2005 	ldrb	r2, [fp, #-5]
  101dc0:	e1a02602 	lsl	r2, r2, #12
  101dc4:	e2021a03 	and	r1, r2, #12288	; 0x3000
  101dc8:	e51b200c 	ldr	r2, [fp, #-12]
  101dcc:	e1a02202 	lsl	r2, r2, #4
  101dd0:	e2022e1f 	and	r2, r2, #496	; 0x1f0
  101dd4:	e1812002 	orr	r2, r1, r2
  101dd8:	e5832000 	str	r2, [r3]
  101ddc:	e3a03000 	mov	r3, #0
  101de0:	e1a00003 	mov	r0, r3
  101de4:	e24bd000 	sub	sp, fp, #0
  101de8:	e49db004 	pop	{fp}		; (ldr fp, [sp], #4)
  101dec:	e12fff1e 	bx	lr

00101df0 <alt_acp_id_map_read_options_get>:
  101df0:	e52db004 	push	{fp}		; (str fp, [sp, #-4]!)
  101df4:	e28db000 	add	fp, sp, #0
  101df8:	e24dd014 	sub	sp, sp, #20
  101dfc:	e50b0008 	str	r0, [fp, #-8]
  101e00:	e50b100c 	str	r1, [fp, #-12]
  101e04:	e50b2010 	str	r2, [fp, #-16]
  101e08:	e50b3014 	str	r3, [fp, #-20]	; 0xffffffec
  101e0c:	e51b3008 	ldr	r3, [fp, #-8]
  101e10:	e3530007 	cmp	r3, #7
  101e14:	9a000001 	bls	101e20 <alt_acp_id_map_read_options_get+0x30>
  101e18:	e3e03008 	mvn	r3, #8
  101e1c:	ea0000c7 	b	102140 <alt_acp_id_map_read_options_get+0x350>
  101e20:	e51b3008 	ldr	r3, [fp, #-8]
  101e24:	e2433002 	sub	r3, r3, #2
  101e28:	e3530005 	cmp	r3, #5
  101e2c:	979ff103 	ldrls	pc, [pc, r3, lsl #2]
  101e30:	ea0000bf 	b	102134 <alt_acp_id_map_read_options_get+0x344>
  101e34:	00101e4c 	.word	0x00101e4c
  101e38:	00101ed4 	.word	0x00101ed4
  101e3c:	00101f5c 	.word	0x00101f5c
  101e40:	00101fe4 	.word	0x00101fe4
  101e44:	0010206c 	.word	0x0010206c
  101e48:	001020f4 	.word	0x001020f4
  101e4c:	e3073030 	movw	r3, #28720	; 0x7030
  101e50:	e34f3f70 	movt	r3, #65392	; 0xff70
  101e54:	e5933000 	ldr	r3, [r3]
  101e58:	e1a03223 	lsr	r3, r3, #4
  101e5c:	e203201f 	and	r2, r3, #31
  101e60:	e59b3004 	ldr	r3, [fp, #4]
  101e64:	e5832000 	str	r2, [r3]
  101e68:	e3073030 	movw	r3, #28720	; 0x7030
  101e6c:	e34f3f70 	movt	r3, #65392	; 0xff70
  101e70:	e5933000 	ldr	r3, [r3]
  101e74:	e1a03623 	lsr	r3, r3, #12
  101e78:	e2033003 	and	r3, r3, #3
  101e7c:	e6ef2073 	uxtb	r2, r3
  101e80:	e51b3014 	ldr	r3, [fp, #-20]	; 0xffffffec
  101e84:	e5c32000 	strb	r2, [r3]
  101e88:	e3073030 	movw	r3, #28720	; 0x7030
  101e8c:	e34f3f70 	movt	r3, #65392	; 0xff70
  101e90:	e5933000 	ldr	r3, [r3]
  101e94:	e1a03823 	lsr	r3, r3, #16
  101e98:	e7eb2053 	ubfx	r2, r3, #0, #12
  101e9c:	e51b3010 	ldr	r3, [fp, #-16]
  101ea0:	e5832000 	str	r2, [r3]
  101ea4:	e3073030 	movw	r3, #28720	; 0x7030
  101ea8:	e34f3f70 	movt	r3, #65392	; 0xff70
  101eac:	e5933000 	ldr	r3, [r3]
  101eb0:	e1a03fa3 	lsr	r3, r3, #31
  101eb4:	e2033001 	and	r3, r3, #1
  101eb8:	e3530000 	cmp	r3, #0
  101ebc:	13a03001 	movne	r3, #1
  101ec0:	03a03000 	moveq	r3, #0
  101ec4:	e6ef2073 	uxtb	r2, r3
  101ec8:	e51b300c 	ldr	r3, [fp, #-12]
  101ecc:	e5c32000 	strb	r2, [r3]
  101ed0:	ea000099 	b	10213c <alt_acp_id_map_read_options_get+0x34c>
  101ed4:	e3073038 	movw	r3, #28728	; 0x7038
  101ed8:	e34f3f70 	movt	r3, #65392	; 0xff70
  101edc:	e5933000 	ldr	r3, [r3]
  101ee0:	e1a03223 	lsr	r3, r3, #4
  101ee4:	e203201f 	and	r2, r3, #31
  101ee8:	e59b3004 	ldr	r3, [fp, #4]
  101eec:	e5832000 	str	r2, [r3]
  101ef0:	e3073038 	movw	r3, #28728	; 0x7038
  101ef4:	e34f3f70 	movt	r3, #65392	; 0xff70
  101ef8:	e5933000 	ldr	r3, [r3]
  101efc:	e1a03623 	lsr	r3, r3, #12
  101f00:	e2033003 	and	r3, r3, #3
  101f04:	e6ef2073 	uxtb	r2, r3
  101f08:	e51b3014 	ldr	r3, [fp, #-20]	; 0xffffffec
  101f0c:	e5c32000 	strb	r2, [r3]
  101f10:	e3073038 	movw	r3, #28728	; 0x7038
  101f14:	e34f3f70 	movt	r3, #65392	; 0xff70
  101f18:	e5933000 	ldr	r3, [r3]
  101f1c:	e1a03823 	lsr	r3, r3, #16
  101f20:	e7eb2053 	ubfx	r2, r3, #0, #12
  101f24:	e51b3010 	ldr	r3, [fp, #-16]
  101f28:	e5832000 	str	r2, [r3]
  101f2c:	e3073038 	movw	r3, #28728	; 0x7038
  101f30:	e34f3f70 	movt	r3, #65392	; 0xff70
  101f34:	e5933000 	ldr	r3, [r3]
  101f38:	e1a03fa3 	lsr	r3, r3, #31
  101f3c:	e2033001 	and	r3, r3, #1
  101f40:	e3530000 	cmp	r3, #0
  101f44:	13a03001 	movne	r3, #1
  101f48:	03a03000 	moveq	r3, #0
  101f4c:	e6ef2073 	uxtb	r2, r3
  101f50:	e51b300c 	ldr	r3, [fp, #-12]
  101f54:	e5c32000 	strb	r2, [r3]
  101f58:	ea000077 	b	10213c <alt_acp_id_map_read_options_get+0x34c>
  101f5c:	e3073040 	movw	r3, #28736	; 0x7040
  101f60:	e34f3f70 	movt	r3, #65392	; 0xff70
  101f64:	e5933000 	ldr	r3, [r3]
  101f68:	e1a03223 	lsr	r3, r3, #4
  101f6c:	e203201f 	and	r2, r3, #31
  101f70:	e59b3004 	ldr	r3, [fp, #4]
  101f74:	e5832000 	str	r2, [r3]
  101f78:	e3073040 	movw	r3, #28736	; 0x7040
  101f7c:	e34f3f70 	movt	r3, #65392	; 0xff70
  101f80:	e5933000 	ldr	r3, [r3]
  101f84:	e1a03623 	lsr	r3, r3, #12
  101f88:	e2033003 	and	r3, r3, #3
  101f8c:	e6ef2073 	uxtb	r2, r3
  101f90:	e51b3014 	ldr	r3, [fp, #-20]	; 0xffffffec
  101f94:	e5c32000 	strb	r2, [r3]
  101f98:	e3073040 	movw	r3, #28736	; 0x7040
  101f9c:	e34f3f70 	movt	r3, #65392	; 0xff70
  101fa0:	e5933000 	ldr	r3, [r3]
  101fa4:	e1a03823 	lsr	r3, r3, #16
  101fa8:	e7eb2053 	ubfx	r2, r3, #0, #12
  101fac:	e51b3010 	ldr	r3, [fp, #-16]
  101fb0:	e5832000 	str	r2, [r3]
  101fb4:	e3073040 	movw	r3, #28736	; 0x7040
  101fb8:	e34f3f70 	movt	r3, #65392	; 0xff70
  101fbc:	e5933000 	ldr	r3, [r3]
  101fc0:	e1a03fa3 	lsr	r3, r3, #31
  101fc4:	e2033001 	and	r3, r3, #1
  101fc8:	e3530000 	cmp	r3, #0
  101fcc:	13a03001 	movne	r3, #1
  101fd0:	03a03000 	moveq	r3, #0
  101fd4:	e6ef2073 	uxtb	r2, r3
  101fd8:	e51b300c 	ldr	r3, [fp, #-12]
  101fdc:	e5c32000 	strb	r2, [r3]
  101fe0:	ea000055 	b	10213c <alt_acp_id_map_read_options_get+0x34c>
  101fe4:	e3073048 	movw	r3, #28744	; 0x7048
  101fe8:	e34f3f70 	movt	r3, #65392	; 0xff70
  101fec:	e5933000 	ldr	r3, [r3]
  101ff0:	e1a03223 	lsr	r3, r3, #4
  101ff4:	e203201f 	and	r2, r3, #31
  101ff8:	e59b3004 	ldr	r3, [fp, #4]
  101ffc:	e5832000 	str	r2, [r3]
  102000:	e3073048 	movw	r3, #28744	; 0x7048
  102004:	e34f3f70 	movt	r3, #65392	; 0xff70
  102008:	e5933000 	ldr	r3, [r3]
  10200c:	e1a03623 	lsr	r3, r3, #12
  102010:	e2033003 	and	r3, r3, #3
  102014:	e6ef2073 	uxtb	r2, r3
  102018:	e51b3014 	ldr	r3, [fp, #-20]	; 0xffffffec
  10201c:	e5c32000 	strb	r2, [r3]
  102020:	e3073048 	movw	r3, #28744	; 0x7048
  102024:	e34f3f70 	movt	r3, #65392	; 0xff70
  102028:	e5933000 	ldr	r3, [r3]
  10202c:	e1a03823 	lsr	r3, r3, #16
  102030:	e7eb2053 	ubfx	r2, r3, #0, #12
  102034:	e51b3010 	ldr	r3, [fp, #-16]
  102038:	e5832000 	str	r2, [r3]
  10203c:	e3073048 	movw	r3, #28744	; 0x7048
  102040:	e34f3f70 	movt	r3, #65392	; 0xff70
  102044:	e5933000 	ldr	r3, [r3]
  102048:	e1a03fa3 	lsr	r3, r3, #31
  10204c:	e2033001 	and	r3, r3, #1
  102050:	e3530000 	cmp	r3, #0
  102054:	13a03001 	movne	r3, #1
  102058:	03a03000 	moveq	r3, #0
  10205c:	e6ef2073 	uxtb	r2, r3
  102060:	e51b300c 	ldr	r3, [fp, #-12]
  102064:	e5c32000 	strb	r2, [r3]
  102068:	ea000033 	b	10213c <alt_acp_id_map_read_options_get+0x34c>
  10206c:	e3073050 	movw	r3, #28752	; 0x7050
  102070:	e34f3f70 	movt	r3, #65392	; 0xff70
  102074:	e5933000 	ldr	r3, [r3]
  102078:	e1a03223 	lsr	r3, r3, #4
  10207c:	e203201f 	and	r2, r3, #31
  102080:	e59b3004 	ldr	r3, [fp, #4]
  102084:	e5832000 	str	r2, [r3]
  102088:	e3073050 	movw	r3, #28752	; 0x7050
  10208c:	e34f3f70 	movt	r3, #65392	; 0xff70
  102090:	e5933000 	ldr	r3, [r3]
  102094:	e1a03623 	lsr	r3, r3, #12
  102098:	e2033003 	and	r3, r3, #3
  10209c:	e6ef2073 	uxtb	r2, r3
  1020a0:	e51b3014 	ldr	r3, [fp, #-20]	; 0xffffffec
  1020a4:	e5c32000 	strb	r2, [r3]
  1020a8:	e3073050 	movw	r3, #28752	; 0x7050
  1020ac:	e34f3f70 	movt	r3, #65392	; 0xff70
  1020b0:	e5933000 	ldr	r3, [r3]
  1020b4:	e1a03823 	lsr	r3, r3, #16
  1020b8:	e7eb2053 	ubfx	r2, r3, #0, #12
  1020bc:	e51b3010 	ldr	r3, [fp, #-16]
  1020c0:	e5832000 	str	r2, [r3]
  1020c4:	e3073050 	movw	r3, #28752	; 0x7050
  1020c8:	e34f3f70 	movt	r3, #65392	; 0xff70
  1020cc:	e5933000 	ldr	r3, [r3]
  1020d0:	e1a03fa3 	lsr	r3, r3, #31
  1020d4:	e2033001 	and	r3, r3, #1
  1020d8:	e3530000 	cmp	r3, #0
  1020dc:	13a03001 	movne	r3, #1
  1020e0:	03a03000 	moveq	r3, #0
  1020e4:	e6ef2073 	uxtb	r2, r3
  1020e8:	e51b300c 	ldr	r3, [fp, #-12]
  1020ec:	e5c32000 	strb	r2, [r3]
  1020f0:	ea000011 	b	10213c <alt_acp_id_map_read_options_get+0x34c>
  1020f4:	e3073058 	movw	r3, #28760	; 0x7058
  1020f8:	e34f3f70 	movt	r3, #65392	; 0xff70
  1020fc:	e5933000 	ldr	r3, [r3]
  102100:	e1a03223 	lsr	r3, r3, #4
  102104:	e203201f 	and	r2, r3, #31
  102108:	e59b3004 	ldr	r3, [fp, #4]
  10210c:	e5832000 	str	r2, [r3]
  102110:	e3073058 	movw	r3, #28760	; 0x7058
  102114:	e34f3f70 	movt	r3, #65392	; 0xff70
  102118:	e5933000 	ldr	r3, [r3]
  10211c:	e1a03623 	lsr	r3, r3, #12
  102120:	e2033003 	and	r3, r3, #3
  102124:	e6ef2073 	uxtb	r2, r3
  102128:	e51b3014 	ldr	r3, [fp, #-20]	; 0xffffffec
  10212c:	e5c32000 	strb	r2, [r3]
  102130:	ea000001 	b	10213c <alt_acp_id_map_read_options_get+0x34c>
  102134:	e3e03008 	mvn	r3, #8
  102138:	ea000000 	b	102140 <alt_acp_id_map_read_options_get+0x350>
  10213c:	e3a03000 	mov	r3, #0
  102140:	e1a00003 	mov	r0, r3
  102144:	e24bd000 	sub	sp, fp, #0
  102148:	e49db004 	pop	{fp}		; (ldr fp, [sp], #4)
  10214c:	e12fff1e 	bx	lr

00102150 <alt_acp_id_map_write_options_get>:
  102150:	e52db004 	push	{fp}		; (str fp, [sp, #-4]!)
  102154:	e28db000 	add	fp, sp, #0
  102158:	e24dd014 	sub	sp, sp, #20
  10215c:	e50b0008 	str	r0, [fp, #-8]
  102160:	e50b100c 	str	r1, [fp, #-12]
  102164:	e50b2010 	str	r2, [fp, #-16]
  102168:	e50b3014 	str	r3, [fp, #-20]	; 0xffffffec
  10216c:	e51b3008 	ldr	r3, [fp, #-8]
  102170:	e3530007 	cmp	r3, #7
  102174:	9a000001 	bls	102180 <alt_acp_id_map_write_options_get+0x30>
  102178:	e3e03008 	mvn	r3, #8
  10217c:	ea0000c7 	b	1024a0 <alt_acp_id_map_write_options_get+0x350>
  102180:	e51b3008 	ldr	r3, [fp, #-8]
  102184:	e2433002 	sub	r3, r3, #2
  102188:	e3530005 	cmp	r3, #5
  10218c:	979ff103 	ldrls	pc, [pc, r3, lsl #2]
  102190:	ea0000bf 	b	102494 <alt_acp_id_map_write_options_get+0x344>
  102194:	001021ac 	.word	0x001021ac
  102198:	00102234 	.word	0x00102234
  10219c:	001022bc 	.word	0x001022bc
  1021a0:	00102344 	.word	0x00102344
  1021a4:	001023cc 	.word	0x001023cc
  1021a8:	00102454 	.word	0x00102454
  1021ac:	e3073034 	movw	r3, #28724	; 0x7034
  1021b0:	e34f3f70 	movt	r3, #65392	; 0xff70
  1021b4:	e5933000 	ldr	r3, [r3]
  1021b8:	e1a03223 	lsr	r3, r3, #4
  1021bc:	e203201f 	and	r2, r3, #31
  1021c0:	e59b3004 	ldr	r3, [fp, #4]
  1021c4:	e5832000 	str	r2, [r3]
  1021c8:	e3073034 	movw	r3, #28724	; 0x7034
  1021cc:	e34f3f70 	movt	r3, #65392	; 0xff70
  1021d0:	e5933000 	ldr	r3, [r3]
  1021d4:	e1a03623 	lsr	r3, r3, #12
  1021d8:	e2033003 	and	r3, r3, #3
  1021dc:	e6ef2073 	uxtb	r2, r3
  1021e0:	e51b3014 	ldr	r3, [fp, #-20]	; 0xffffffec
  1021e4:	e5c32000 	strb	r2, [r3]
  1021e8:	e3073034 	movw	r3, #28724	; 0x7034
  1021ec:	e34f3f70 	movt	r3, #65392	; 0xff70
  1021f0:	e5933000 	ldr	r3, [r3]
  1021f4:	e1a03823 	lsr	r3, r3, #16
  1021f8:	e7eb2053 	ubfx	r2, r3, #0, #12
  1021fc:	e51b3010 	ldr	r3, [fp, #-16]
  102200:	e5832000 	str	r2, [r3]
  102204:	e3073034 	movw	r3, #28724	; 0x7034
  102208:	e34f3f70 	movt	r3, #65392	; 0xff70
  10220c:	e5933000 	ldr	r3, [r3]
  102210:	e1a03fa3 	lsr	r3, r3, #31
  102214:	e2033001 	and	r3, r3, #1
  102218:	e3530000 	cmp	r3, #0
  10221c:	13a03001 	movne	r3, #1
  102220:	03a03000 	moveq	r3, #0
  102224:	e6ef2073 	uxtb	r2, r3
  102228:	e51b300c 	ldr	r3, [fp, #-12]
  10222c:	e5c32000 	strb	r2, [r3]
  102230:	ea000099 	b	10249c <alt_acp_id_map_write_options_get+0x34c>
  102234:	e307303c 	movw	r3, #28732	; 0x703c
  102238:	e34f3f70 	movt	r3, #65392	; 0xff70
  10223c:	e5933000 	ldr	r3, [r3]
  102240:	e1a03223 	lsr	r3, r3, #4
  102244:	e203201f 	and	r2, r3, #31
  102248:	e59b3004 	ldr	r3, [fp, #4]
  10224c:	e5832000 	str	r2, [r3]
  102250:	e307303c 	movw	r3, #28732	; 0x703c
  102254:	e34f3f70 	movt	r3, #65392	; 0xff70
  102258:	e5933000 	ldr	r3, [r3]
  10225c:	e1a03623 	lsr	r3, r3, #12
  102260:	e2033003 	and	r3, r3, #3
  102264:	e6ef2073 	uxtb	r2, r3
  102268:	e51b3014 	ldr	r3, [fp, #-20]	; 0xffffffec
  10226c:	e5c32000 	strb	r2, [r3]
  102270:	e307303c 	movw	r3, #28732	; 0x703c
  102274:	e34f3f70 	movt	r3, #65392	; 0xff70
  102278:	e5933000 	ldr	r3, [r3]
  10227c:	e1a03823 	lsr	r3, r3, #16
  102280:	e7eb2053 	ubfx	r2, r3, #0, #12
  102284:	e51b3010 	ldr	r3, [fp, #-16]
  102288:	e5832000 	str	r2, [r3]
  10228c:	e307303c 	movw	r3, #28732	; 0x703c
  102290:	e34f3f70 	movt	r3, #65392	; 0xff70
  102294:	e5933000 	ldr	r3, [r3]
  102298:	e1a03fa3 	lsr	r3, r3, #31
  10229c:	e2033001 	and	r3, r3, #1
  1022a0:	e3530000 	cmp	r3, #0
  1022a4:	13a03001 	movne	r3, #1
  1022a8:	03a03000 	moveq	r3, #0
  1022ac:	e6ef2073 	uxtb	r2, r3
  1022b0:	e51b300c 	ldr	r3, [fp, #-12]
  1022b4:	e5c32000 	strb	r2, [r3]
  1022b8:	ea000077 	b	10249c <alt_acp_id_map_write_options_get+0x34c>
  1022bc:	e3073044 	movw	r3, #28740	; 0x7044
  1022c0:	e34f3f70 	movt	r3, #65392	; 0xff70
  1022c4:	e5933000 	ldr	r3, [r3]
  1022c8:	e1a03223 	lsr	r3, r3, #4
  1022cc:	e203201f 	and	r2, r3, #31
  1022d0:	e59b3004 	ldr	r3, [fp, #4]
  1022d4:	e5832000 	str	r2, [r3]
  1022d8:	e3073044 	movw	r3, #28740	; 0x7044
  1022dc:	e34f3f70 	movt	r3, #65392	; 0xff70
  1022e0:	e5933000 	ldr	r3, [r3]
  1022e4:	e1a03623 	lsr	r3, r3, #12
  1022e8:	e2033003 	and	r3, r3, #3
  1022ec:	e6ef2073 	uxtb	r2, r3
  1022f0:	e51b3014 	ldr	r3, [fp, #-20]	; 0xffffffec
  1022f4:	e5c32000 	strb	r2, [r3]
  1022f8:	e3073044 	movw	r3, #28740	; 0x7044
  1022fc:	e34f3f70 	movt	r3, #65392	; 0xff70
  102300:	e5933000 	ldr	r3, [r3]
  102304:	e1a03823 	lsr	r3, r3, #16
  102308:	e7eb2053 	ubfx	r2, r3, #0, #12
  10230c:	e51b3010 	ldr	r3, [fp, #-16]
  102310:	e5832000 	str	r2, [r3]
  102314:	e3073044 	movw	r3, #28740	; 0x7044
  102318:	e34f3f70 	movt	r3, #65392	; 0xff70
  10231c:	e5933000 	ldr	r3, [r3]
  102320:	e1a03fa3 	lsr	r3, r3, #31
  102324:	e2033001 	and	r3, r3, #1
  102328:	e3530000 	cmp	r3, #0
  10232c:	13a03001 	movne	r3, #1
  102330:	03a03000 	moveq	r3, #0
  102334:	e6ef2073 	uxtb	r2, r3
  102338:	e51b300c 	ldr	r3, [fp, #-12]
  10233c:	e5c32000 	strb	r2, [r3]
  102340:	ea000055 	b	10249c <alt_acp_id_map_write_options_get+0x34c>
  102344:	e307304c 	movw	r3, #28748	; 0x704c
  102348:	e34f3f70 	movt	r3, #65392	; 0xff70
  10234c:	e5933000 	ldr	r3, [r3]
  102350:	e1a03223 	lsr	r3, r3, #4
  102354:	e203201f 	and	r2, r3, #31
  102358:	e59b3004 	ldr	r3, [fp, #4]
  10235c:	e5832000 	str	r2, [r3]
  102360:	e307304c 	movw	r3, #28748	; 0x704c
  102364:	e34f3f70 	movt	r3, #65392	; 0xff70
  102368:	e5933000 	ldr	r3, [r3]
  10236c:	e1a03623 	lsr	r3, r3, #12
  102370:	e2033003 	and	r3, r3, #3
  102374:	e6ef2073 	uxtb	r2, r3
  102378:	e51b3014 	ldr	r3, [fp, #-20]	; 0xffffffec
  10237c:	e5c32000 	strb	r2, [r3]
  102380:	e307304c 	movw	r3, #28748	; 0x704c
  102384:	e34f3f70 	movt	r3, #65392	; 0xff70
  102388:	e5933000 	ldr	r3, [r3]
  10238c:	e1a03823 	lsr	r3, r3, #16
  102390:	e7eb2053 	ubfx	r2, r3, #0, #12
  102394:	e51b3010 	ldr	r3, [fp, #-16]
  102398:	e5832000 	str	r2, [r3]
  10239c:	e307304c 	movw	r3, #28748	; 0x704c
  1023a0:	e34f3f70 	movt	r3, #65392	; 0xff70
  1023a4:	e5933000 	ldr	r3, [r3]
  1023a8:	e1a03fa3 	lsr	r3, r3, #31
  1023ac:	e2033001 	and	r3, r3, #1
  1023b0:	e3530000 	cmp	r3, #0
  1023b4:	13a03001 	movne	r3, #1
  1023b8:	03a03000 	moveq	r3, #0
  1023bc:	e6ef2073 	uxtb	r2, r3
  1023c0:	e51b300c 	ldr	r3, [fp, #-12]
  1023c4:	e5c32000 	strb	r2, [r3]
  1023c8:	ea000033 	b	10249c <alt_acp_id_map_write_options_get+0x34c>
  1023cc:	e3073054 	movw	r3, #28756	; 0x7054
  1023d0:	e34f3f70 	movt	r3, #65392	; 0xff70
  1023d4:	e5933000 	ldr	r3, [r3]
  1023d8:	e1a03223 	lsr	r3, r3, #4
  1023dc:	e203201f 	and	r2, r3, #31
  1023e0:	e59b3004 	ldr	r3, [fp, #4]
  1023e4:	e5832000 	str	r2, [r3]
  1023e8:	e3073054 	movw	r3, #28756	; 0x7054
  1023ec:	e34f3f70 	movt	r3, #65392	; 0xff70
  1023f0:	e5933000 	ldr	r3, [r3]
  1023f4:	e1a03623 	lsr	r3, r3, #12
  1023f8:	e2033003 	and	r3, r3, #3
  1023fc:	e6ef2073 	uxtb	r2, r3
  102400:	e51b3014 	ldr	r3, [fp, #-20]	; 0xffffffec
  102404:	e5c32000 	strb	r2, [r3]
  102408:	e3073054 	movw	r3, #28756	; 0x7054
  10240c:	e34f3f70 	movt	r3, #65392	; 0xff70
  102410:	e5933000 	ldr	r3, [r3]
  102414:	e1a03823 	lsr	r3, r3, #16
  102418:	e7eb2053 	ubfx	r2, r3, #0, #12
  10241c:	e51b3010 	ldr	r3, [fp, #-16]
  102420:	e5832000 	str	r2, [r3]
  102424:	e3073054 	movw	r3, #28756	; 0x7054
  102428:	e34f3f70 	movt	r3, #65392	; 0xff70
  10242c:	e5933000 	ldr	r3, [r3]
  102430:	e1a03fa3 	lsr	r3, r3, #31
  102434:	e2033001 	and	r3, r3, #1
  102438:	e3530000 	cmp	r3, #0
  10243c:	13a03001 	movne	r3, #1
  102440:	03a03000 	moveq	r3, #0
  102444:	e6ef2073 	uxtb	r2, r3
  102448:	e51b300c 	ldr	r3, [fp, #-12]
  10244c:	e5c32000 	strb	r2, [r3]
  102450:	ea000011 	b	10249c <alt_acp_id_map_write_options_get+0x34c>
  102454:	e307305c 	movw	r3, #28764	; 0x705c
  102458:	e34f3f70 	movt	r3, #65392	; 0xff70
  10245c:	e5933000 	ldr	r3, [r3]
  102460:	e1a03223 	lsr	r3, r3, #4
  102464:	e203201f 	and	r2, r3, #31
  102468:	e59b3004 	ldr	r3, [fp, #4]
  10246c:	e5832000 	str	r2, [r3]
  102470:	e307305c 	movw	r3, #28764	; 0x705c
  102474:	e34f3f70 	movt	r3, #65392	; 0xff70
  102478:	e5933000 	ldr	r3, [r3]
  10247c:	e1a03623 	lsr	r3, r3, #12
  102480:	e2033003 	and	r3, r3, #3
  102484:	e6ef2073 	uxtb	r2, r3
  102488:	e51b3014 	ldr	r3, [fp, #-20]	; 0xffffffec
  10248c:	e5c32000 	strb	r2, [r3]
  102490:	ea000001 	b	10249c <alt_acp_id_map_write_options_get+0x34c>
  102494:	e3e03008 	mvn	r3, #8
  102498:	ea000000 	b	1024a0 <alt_acp_id_map_write_options_get+0x350>
  10249c:	e3a03000 	mov	r3, #0
  1024a0:	e1a00003 	mov	r0, r3
  1024a4:	e24bd000 	sub	sp, fp, #0
  1024a8:	e49db004 	pop	{fp}		; (ldr fp, [sp], #4)
  1024ac:	e12fff1e 	bx	lr

001024b0 <fpga_dma_read_reg>:
  1024b0:	e52db004 	push	{fp}		; (str fp, [sp, #-4]!)
  1024b4:	e28db000 	add	fp, sp, #0
  1024b8:	e24dd00c 	sub	sp, sp, #12
  1024bc:	e50b0008 	str	r0, [fp, #-8]
  1024c0:	e50b100c 	str	r1, [fp, #-12]
  1024c4:	e51b300c 	ldr	r3, [fp, #-12]
  1024c8:	e1a03103 	lsl	r3, r3, #2
  1024cc:	e51b2008 	ldr	r2, [fp, #-8]
  1024d0:	e0823003 	add	r3, r2, r3
  1024d4:	e5933000 	ldr	r3, [r3]
  1024d8:	e1a00003 	mov	r0, r3
  1024dc:	e24bd000 	sub	sp, fp, #0
  1024e0:	e49db004 	pop	{fp}		; (ldr fp, [sp], #4)
  1024e4:	e12fff1e 	bx	lr

001024e8 <fpga_dma_write_reg>:
  1024e8:	e52db004 	push	{fp}		; (str fp, [sp, #-4]!)
  1024ec:	e28db000 	add	fp, sp, #0
  1024f0:	e24dd014 	sub	sp, sp, #20
  1024f4:	e50b0008 	str	r0, [fp, #-8]
  1024f8:	e50b100c 	str	r1, [fp, #-12]
  1024fc:	e50b2010 	str	r2, [fp, #-16]
  102500:	e51b300c 	ldr	r3, [fp, #-12]
  102504:	e1a03103 	lsl	r3, r3, #2
  102508:	e51b2008 	ldr	r2, [fp, #-8]
  10250c:	e0823003 	add	r3, r2, r3
  102510:	e51b2010 	ldr	r2, [fp, #-16]
  102514:	e5832000 	str	r2, [r3]
  102518:	e320f000 	nop	{0}
  10251c:	e24bd000 	sub	sp, fp, #0
  102520:	e49db004 	pop	{fp}		; (ldr fp, [sp], #4)
  102524:	e12fff1e 	bx	lr

00102528 <fpga_dma_read_bit>:
  102528:	e92d4800 	push	{fp, lr}
  10252c:	e28db004 	add	fp, sp, #4
  102530:	e24dd010 	sub	sp, sp, #16
  102534:	e50b0008 	str	r0, [fp, #-8]
  102538:	e50b100c 	str	r1, [fp, #-12]
  10253c:	e50b2010 	str	r2, [fp, #-16]
  102540:	e51b100c 	ldr	r1, [fp, #-12]
  102544:	e51b0008 	ldr	r0, [fp, #-8]
  102548:	ebffffd8 	bl	1024b0 <fpga_dma_read_reg>
  10254c:	e1a02000 	mov	r2, r0
  102550:	e51b3010 	ldr	r3, [fp, #-16]
  102554:	e0033002 	and	r3, r3, r2
  102558:	e1a00003 	mov	r0, r3
  10255c:	e24bd004 	sub	sp, fp, #4
  102560:	e8bd8800 	pop	{fp, pc}

00102564 <fpga_dma_write_bit>:
  102564:	e92d4800 	push	{fp, lr}
  102568:	e28db004 	add	fp, sp, #4
  10256c:	e24dd018 	sub	sp, sp, #24
  102570:	e50b0010 	str	r0, [fp, #-16]
  102574:	e50b1014 	str	r1, [fp, #-20]	; 0xffffffec
  102578:	e50b2018 	str	r2, [fp, #-24]	; 0xffffffe8
  10257c:	e50b301c 	str	r3, [fp, #-28]	; 0xffffffe4
  102580:	e51b1014 	ldr	r1, [fp, #-20]	; 0xffffffec
  102584:	e51b0010 	ldr	r0, [fp, #-16]
  102588:	ebffffc8 	bl	1024b0 <fpga_dma_read_reg>
  10258c:	e50b0008 	str	r0, [fp, #-8]
  102590:	e51b301c 	ldr	r3, [fp, #-28]	; 0xffffffe4
  102594:	e3530000 	cmp	r3, #0
  102598:	1a000008 	bne	1025c0 <fpga_dma_write_bit+0x5c>
  10259c:	e51b3018 	ldr	r3, [fp, #-24]	; 0xffffffe8
  1025a0:	e1e02003 	mvn	r2, r3
  1025a4:	e51b3008 	ldr	r3, [fp, #-8]
  1025a8:	e0033002 	and	r3, r3, r2
  1025ac:	e1a02003 	mov	r2, r3
  1025b0:	e51b1014 	ldr	r1, [fp, #-20]	; 0xffffffec
  1025b4:	e51b0010 	ldr	r0, [fp, #-16]
  1025b8:	ebffffca 	bl	1024e8 <fpga_dma_write_reg>
  1025bc:	ea00000a 	b	1025ec <fpga_dma_write_bit+0x88>
  1025c0:	e51b301c 	ldr	r3, [fp, #-28]	; 0xffffffe4
  1025c4:	e3530001 	cmp	r3, #1
  1025c8:	1a000007 	bne	1025ec <fpga_dma_write_bit+0x88>
  1025cc:	e51b2008 	ldr	r2, [fp, #-8]
  1025d0:	e51b3018 	ldr	r3, [fp, #-24]	; 0xffffffe8
  1025d4:	e1823003 	orr	r3, r2, r3
  1025d8:	e1a02003 	mov	r2, r3
  1025dc:	e51b1014 	ldr	r1, [fp, #-20]	; 0xffffffec
  1025e0:	e51b0010 	ldr	r0, [fp, #-16]
  1025e4:	ebffffbf 	bl	1024e8 <fpga_dma_write_reg>
  1025e8:	e320f000 	nop	{0}
  1025ec:	e320f000 	nop	{0}
  1025f0:	e24bd004 	sub	sp, fp, #4
  1025f4:	e8bd8800 	pop	{fp, pc}

001025f8 <fpga_dma_init>:
  1025f8:	e92d4800 	push	{fp, lr}
  1025fc:	e28db004 	add	fp, sp, #4
  102600:	e24dd008 	sub	sp, sp, #8
  102604:	e50b0008 	str	r0, [fp, #-8]
  102608:	e50b100c 	str	r1, [fp, #-12]
  10260c:	e51b200c 	ldr	r2, [fp, #-12]
  102610:	e3a01006 	mov	r1, #6
  102614:	e51b0008 	ldr	r0, [fp, #-8]
  102618:	ebffffb2 	bl	1024e8 <fpga_dma_write_reg>
  10261c:	e320f000 	nop	{0}
  102620:	e24bd004 	sub	sp, fp, #4
  102624:	e8bd8800 	pop	{fp, pc}

00102628 <fpga_dma_config_transfer>:
  102628:	e92d4800 	push	{fp, lr}
  10262c:	e28db004 	add	fp, sp, #4
  102630:	e24dd018 	sub	sp, sp, #24
  102634:	e50b0010 	str	r0, [fp, #-16]
  102638:	e50b1014 	str	r1, [fp, #-20]	; 0xffffffec
  10263c:	e50b2018 	str	r2, [fp, #-24]	; 0xffffffe8
  102640:	e50b301c 	str	r3, [fp, #-28]	; 0xffffffe4
  102644:	e3a03000 	mov	r3, #0
  102648:	e3a02008 	mov	r2, #8
  10264c:	e3a01006 	mov	r1, #6
  102650:	e51b0010 	ldr	r0, [fp, #-16]
  102654:	ebffffc2 	bl	102564 <fpga_dma_write_bit>
  102658:	e3a03000 	mov	r3, #0
  10265c:	e3a02001 	mov	r2, #1
  102660:	e3a01000 	mov	r1, #0
  102664:	e51b0010 	ldr	r0, [fp, #-16]
  102668:	ebffffbd 	bl	102564 <fpga_dma_write_bit>
  10266c:	e51b3014 	ldr	r3, [fp, #-20]	; 0xffffffec
  102670:	e1a02003 	mov	r2, r3
  102674:	e3a01001 	mov	r1, #1
  102678:	e51b0010 	ldr	r0, [fp, #-16]
  10267c:	ebffff99 	bl	1024e8 <fpga_dma_write_reg>
  102680:	e51b3018 	ldr	r3, [fp, #-24]	; 0xffffffe8
  102684:	e1a02003 	mov	r2, r3
  102688:	e3a01002 	mov	r1, #2
  10268c:	e51b0010 	ldr	r0, [fp, #-16]
  102690:	ebffff94 	bl	1024e8 <fpga_dma_write_reg>
  102694:	e51b201c 	ldr	r2, [fp, #-28]	; 0xffffffe4
  102698:	e3a01003 	mov	r1, #3
  10269c:	e51b0010 	ldr	r0, [fp, #-16]
  1026a0:	ebffff90 	bl	1024e8 <fpga_dma_write_reg>
  1026a4:	e3a03000 	mov	r3, #0
  1026a8:	e50b3008 	str	r3, [fp, #-8]
  1026ac:	e3a03000 	mov	r3, #0
  1026b0:	e50b300c 	str	r3, [fp, #-12]
  1026b4:	ea000005 	b	1026d0 <fpga_dma_config_transfer+0xa8>
  1026b8:	e51b3008 	ldr	r3, [fp, #-8]
  1026bc:	e2833001 	add	r3, r3, #1
  1026c0:	e50b3008 	str	r3, [fp, #-8]
  1026c4:	e51b300c 	ldr	r3, [fp, #-12]
  1026c8:	e2833001 	add	r3, r3, #1
  1026cc:	e50b300c 	str	r3, [fp, #-12]
  1026d0:	e51b300c 	ldr	r3, [fp, #-12]
  1026d4:	e3530009 	cmp	r3, #9
  1026d8:	dafffff6 	ble	1026b8 <fpga_dma_config_transfer+0x90>
  1026dc:	e320f000 	nop	{0}
  1026e0:	e24bd004 	sub	sp, fp, #4
  1026e4:	e8bd8800 	pop	{fp, pc}

001026e8 <fpga_dma_start_transfer>:
  1026e8:	e92d4800 	push	{fp, lr}
  1026ec:	e28db004 	add	fp, sp, #4
  1026f0:	e24dd008 	sub	sp, sp, #8
  1026f4:	e50b0008 	str	r0, [fp, #-8]
  1026f8:	e3a03001 	mov	r3, #1
  1026fc:	e3a02008 	mov	r2, #8
  102700:	e3a01006 	mov	r1, #6
  102704:	e51b0008 	ldr	r0, [fp, #-8]
  102708:	ebffff95 	bl	102564 <fpga_dma_write_bit>
  10270c:	e320f000 	nop	{0}
  102710:	e24bd004 	sub	sp, fp, #4
  102714:	e8bd8800 	pop	{fp, pc}

00102718 <fpga_dma_transfer_done>:
  102718:	e92d4800 	push	{fp, lr}
  10271c:	e28db004 	add	fp, sp, #4
  102720:	e24dd008 	sub	sp, sp, #8
  102724:	e50b0008 	str	r0, [fp, #-8]
  102728:	e3a02001 	mov	r2, #1
  10272c:	e3a01000 	mov	r1, #0
  102730:	e51b0008 	ldr	r0, [fp, #-8]
  102734:	ebffff7b 	bl	102528 <fpga_dma_read_bit>
  102738:	e1a03000 	mov	r3, r0
  10273c:	e1a00003 	mov	r0, r3
  102740:	e24bd004 	sub	sp, fp, #4
  102744:	e8bd8800 	pop	{fp, pc}

00102748 <align_malloc>:
  102748:	e92d4800 	push	{fp, lr}
  10274c:	e28db004 	add	fp, sp, #4
  102750:	e24dd018 	sub	sp, sp, #24
  102754:	e50b0018 	str	r0, [fp, #-24]	; 0xffffffe8
  102758:	e50b101c 	str	r1, [fp, #-28]	; 0xffffffe4
  10275c:	e51b3018 	ldr	r3, [fp, #-24]	; 0xffffffe8
  102760:	e1a03083 	lsl	r3, r3, #1
  102764:	e1a00003 	mov	r0, r3
  102768:	eb00014a 	bl	102c98 <malloc>
  10276c:	e1a03000 	mov	r3, r0
  102770:	e50b3010 	str	r3, [fp, #-16]
  102774:	e51b301c 	ldr	r3, [fp, #-28]	; 0xffffffe4
  102778:	e51b2010 	ldr	r2, [fp, #-16]
  10277c:	e5832000 	str	r2, [r3]
  102780:	e51b3010 	ldr	r3, [fp, #-16]
  102784:	e50b3008 	str	r3, [fp, #-8]
  102788:	e3a03000 	mov	r3, #0
  10278c:	e50b300c 	str	r3, [fp, #-12]
  102790:	ea00000e 	b	1027d0 <align_malloc+0x88>
  102794:	e51b3008 	ldr	r3, [fp, #-8]
  102798:	e51b1018 	ldr	r1, [fp, #-24]	; 0xffffffe8
  10279c:	e1a00003 	mov	r0, r3
  1027a0:	eb00011c 	bl	102c18 <__aeabi_uidivmod>
  1027a4:	e1a03001 	mov	r3, r1
  1027a8:	e3530000 	cmp	r3, #0
  1027ac:	1a000001 	bne	1027b8 <align_malloc+0x70>
  1027b0:	e51b3008 	ldr	r3, [fp, #-8]
  1027b4:	ea00000a 	b	1027e4 <align_malloc+0x9c>
  1027b8:	e51b3008 	ldr	r3, [fp, #-8]
  1027bc:	e2833001 	add	r3, r3, #1
  1027c0:	e50b3008 	str	r3, [fp, #-8]
  1027c4:	e51b300c 	ldr	r3, [fp, #-12]
  1027c8:	e2833001 	add	r3, r3, #1
  1027cc:	e50b300c 	str	r3, [fp, #-12]
  1027d0:	e51b200c 	ldr	r2, [fp, #-12]
  1027d4:	e51b3018 	ldr	r3, [fp, #-24]	; 0xffffffe8
  1027d8:	e1520003 	cmp	r2, r3
  1027dc:	3affffec 	bcc	102794 <align_malloc+0x4c>
  1027e0:	e3a03000 	mov	r3, #0
  1027e4:	e1a00003 	mov	r0, r3
  1027e8:	e24bd004 	sub	sp, fp, #4
  1027ec:	e8bd8800 	pop	{fp, pc}

001027f0 <pmu_init>:
  1027f0:	e52db004 	push	{fp}		; (str fp, [sp, #-4]!)
  1027f4:	e28db000 	add	fp, sp, #0
  1027f8:	ee190f1c 	mrc	15, 0, r0, cr9, cr12, {0}
  1027fc:	e3800001 	orr	r0, r0, #1
  102800:	ee090f1c 	mcr	15, 0, r0, cr9, cr12, {0}
  102804:	e320f000 	nop	{0}
  102808:	e24bd000 	sub	sp, fp, #0
  10280c:	e49db004 	pop	{fp}		; (ldr fp, [sp], #4)
  102810:	e12fff1e 	bx	lr

00102814 <pmu_init_ns>:
  102814:	e92d4800 	push	{fp, lr}
  102818:	e28db004 	add	fp, sp, #4
  10281c:	e24dd008 	sub	sp, sp, #8
  102820:	e50b0008 	str	r0, [fp, #-8]
  102824:	e50b100c 	str	r1, [fp, #-12]
  102828:	ebfffff0 	bl	1027f0 <pmu_init>
  10282c:	ee190f1c 	mrc	15, 0, r0, cr9, cr12, {0}
  102830:	e51b300c 	ldr	r3, [fp, #-12]
  102834:	e3530001 	cmp	r3, #1
  102838:	1a000001 	bne	102844 <pmu_init_ns+0x30>
  10283c:	e3c00008 	bic	r0, r0, #8
  102840:	ea000003 	b	102854 <pmu_init_ns+0x40>
  102844:	e51b300c 	ldr	r3, [fp, #-12]
  102848:	e3530040 	cmp	r3, #64	; 0x40
  10284c:	1a000000 	bne	102854 <pmu_init_ns+0x40>
  102850:	e3800008 	orr	r0, r0, #8
  102854:	ee090f1c 	mcr	15, 0, r0, cr9, cr12, {0}
  102858:	e51b300c 	ldr	r3, [fp, #-12]
  10285c:	ee073a90 	vmov	s15, r3
  102860:	eef87ae7 	vcvt.f32.s32	s15, s15
  102864:	eef70ae7 	vcvt.f64.f32	d16, s15
  102868:	eddf1b0c 	vldr	d17, [pc, #48]	; 1028a0 <pmu_init_ns+0x8c>
  10286c:	ee602ba1 	vmul.f64	d18, d16, d17
  102870:	e51b3008 	ldr	r3, [fp, #-8]
  102874:	ee073a90 	vmov	s15, r3
  102878:	eef87ae7 	vcvt.f32.s32	s15, s15
  10287c:	eef71ae7 	vcvt.f64.f32	d17, s15
  102880:	eec20ba1 	vdiv.f64	d16, d18, d17
  102884:	eef77be0 	vcvt.f32.f64	s15, d16
  102888:	e30839d8 	movw	r3, #35288	; 0x89d8
  10288c:	e3403011 	movt	r3, #17
  102890:	edc37a00 	vstr	s15, [r3]
  102894:	e320f000 	nop	{0}
  102898:	e24bd004 	sub	sp, fp, #4
  10289c:	e8bd8800 	pop	{fp, pc}
  1028a0:	00000000 	.word	0x00000000
  1028a4:	408f4000 	.word	0x408f4000

001028a8 <pmu_getres_ns>:
  1028a8:	e52db004 	push	{fp}		; (str fp, [sp, #-4]!)
  1028ac:	e28db000 	add	fp, sp, #0
  1028b0:	e30839d8 	movw	r3, #35288	; 0x89d8
  1028b4:	e3403011 	movt	r3, #17
  1028b8:	e5933000 	ldr	r3, [r3]
  1028bc:	e1a00003 	mov	r0, r3
  1028c0:	e24bd000 	sub	sp, fp, #0
  1028c4:	e49db004 	pop	{fp}		; (ldr fp, [sp], #4)
  1028c8:	e12fff1e 	bx	lr

001028cc <pmu_counter_enable>:
  1028cc:	e52db004 	push	{fp}		; (str fp, [sp, #-4]!)
  1028d0:	e28db000 	add	fp, sp, #0
  1028d4:	ee190f3c 	mrc	15, 0, r0, cr9, cr12, {1}
  1028d8:	e3800102 	orr	r0, r0, #-2147483648	; 0x80000000
  1028dc:	ee090f3c 	mcr	15, 0, r0, cr9, cr12, {1}
  1028e0:	e320f000 	nop	{0}
  1028e4:	e24bd000 	sub	sp, fp, #0
  1028e8:	e49db004 	pop	{fp}		; (ldr fp, [sp], #4)
  1028ec:	e12fff1e 	bx	lr

001028f0 <pmu_counter_disable>:
  1028f0:	e52db004 	push	{fp}		; (str fp, [sp, #-4]!)
  1028f4:	e28db000 	add	fp, sp, #0
  1028f8:	ee190f3c 	mrc	15, 0, r0, cr9, cr12, {1}
  1028fc:	e3e01102 	mvn	r1, #-2147483648	; 0x80000000
  102900:	e0000001 	and	r0, r0, r1
  102904:	ee090f3c 	mcr	15, 0, r0, cr9, cr12, {1}
  102908:	e320f000 	nop	{0}
  10290c:	e24bd000 	sub	sp, fp, #0
  102910:	e49db004 	pop	{fp}		; (ldr fp, [sp], #4)
  102914:	e12fff1e 	bx	lr

00102918 <pmu_counter_reset>:
  102918:	e52db004 	push	{fp}		; (str fp, [sp, #-4]!)
  10291c:	e28db000 	add	fp, sp, #0
  102920:	ee190f1c 	mrc	15, 0, r0, cr9, cr12, {0}
  102924:	e3800004 	orr	r0, r0, #4
  102928:	ee090f1c 	mcr	15, 0, r0, cr9, cr12, {0}
  10292c:	ee190f7c 	mrc	15, 0, r0, cr9, cr12, {3}
  102930:	e3800102 	orr	r0, r0, #-2147483648	; 0x80000000
  102934:	ee090f7c 	mcr	15, 0, r0, cr9, cr12, {3}
  102938:	ee190f1c 	mrc	15, 0, r0, cr9, cr12, {0}
  10293c:	e3800004 	orr	r0, r0, #4
  102940:	ee090f1c 	mcr	15, 0, r0, cr9, cr12, {0}
  102944:	e320f000 	nop	{0}
  102948:	e24bd000 	sub	sp, fp, #0
  10294c:	e49db004 	pop	{fp}		; (ldr fp, [sp], #4)
  102950:	e12fff1e 	bx	lr

00102954 <pmu_counter_read>:
  102954:	e52db004 	push	{fp}		; (str fp, [sp, #-4]!)
  102958:	e28db000 	add	fp, sp, #0
  10295c:	e24dd014 	sub	sp, sp, #20
  102960:	e50b0010 	str	r0, [fp, #-16]
  102964:	e3a03000 	mov	r3, #0
  102968:	e50b3008 	str	r3, [fp, #-8]
  10296c:	e3a03000 	mov	r3, #0
  102970:	e50b300c 	str	r3, [fp, #-12]
  102974:	e51b3008 	ldr	r3, [fp, #-8]
  102978:	ee193f1d 	mrc	15, 0, r3, cr9, cr13, {0}
  10297c:	e50b3008 	str	r3, [fp, #-8]
  102980:	e51b2008 	ldr	r2, [fp, #-8]
  102984:	e51b3010 	ldr	r3, [fp, #-16]
  102988:	e5832000 	str	r2, [r3]
  10298c:	ee190f7c 	mrc	15, 0, r0, cr9, cr12, {3}
  102990:	e2000102 	and	r0, r0, #-2147483648	; 0x80000000
  102994:	e51b300c 	ldr	r3, [fp, #-12]
  102998:	e1a03000 	mov	r3, r0
  10299c:	e50b300c 	str	r3, [fp, #-12]
  1029a0:	e51b300c 	ldr	r3, [fp, #-12]
  1029a4:	e3530000 	cmp	r3, #0
  1029a8:	1a000001 	bne	1029b4 <pmu_counter_read+0x60>
  1029ac:	e3a03000 	mov	r3, #0
  1029b0:	ea000000 	b	1029b8 <pmu_counter_read+0x64>
  1029b4:	e3a03001 	mov	r3, #1
  1029b8:	e1a00003 	mov	r0, r3
  1029bc:	e24bd000 	sub	sp, fp, #0
  1029c0:	e49db004 	pop	{fp}		; (ldr fp, [sp], #4)
  1029c4:	e12fff1e 	bx	lr

001029c8 <pmu_counter_read_ns>:
  1029c8:	e92d4800 	push	{fp, lr}
  1029cc:	e28db004 	add	fp, sp, #4
  1029d0:	e24dd010 	sub	sp, sp, #16
  1029d4:	e50b0010 	str	r0, [fp, #-16]
  1029d8:	e24b300c 	sub	r3, fp, #12
  1029dc:	e1a00003 	mov	r0, r3
  1029e0:	ebffffdb 	bl	102954 <pmu_counter_read>
  1029e4:	e50b0008 	str	r0, [fp, #-8]
  1029e8:	e51b300c 	ldr	r3, [fp, #-12]
  1029ec:	ee073a90 	vmov	s15, r3
  1029f0:	eeb87a67 	vcvt.f32.u32	s14, s15
  1029f4:	e30839d8 	movw	r3, #35288	; 0x89d8
  1029f8:	e3403011 	movt	r3, #17
  1029fc:	edd37a00 	vldr	s15, [r3]
  102a00:	ee677a27 	vmul.f32	s15, s14, s15
  102a04:	ee170a90 	vmov	r0, s15
  102a08:	eb00008c 	bl	102c40 <__aeabi_f2ulz>
  102a0c:	e1a02000 	mov	r2, r0
  102a10:	e1a03001 	mov	r3, r1
  102a14:	e51b1010 	ldr	r1, [fp, #-16]
  102a18:	e1c120f0 	strd	r2, [r1]
  102a1c:	e51b3008 	ldr	r3, [fp, #-8]
  102a20:	e1a00003 	mov	r0, r3
  102a24:	e24bd004 	sub	sp, fp, #4
  102a28:	e8bd8800 	pop	{fp, pc}

00102a2c <__aeabi_uidiv>:
  102a2c:	e2512001 	subs	r2, r1, #1
  102a30:	012fff1e 	bxeq	lr
  102a34:	3a000074 	bcc	102c0c <__aeabi_uidiv+0x1e0>
  102a38:	e1500001 	cmp	r0, r1
  102a3c:	9a00006b 	bls	102bf0 <__aeabi_uidiv+0x1c4>
  102a40:	e1110002 	tst	r1, r2
  102a44:	0a00006c 	beq	102bfc <__aeabi_uidiv+0x1d0>
  102a48:	e16f3f10 	clz	r3, r0
  102a4c:	e16f2f11 	clz	r2, r1
  102a50:	e0423003 	sub	r3, r2, r3
  102a54:	e273301f 	rsbs	r3, r3, #31
  102a58:	10833083 	addne	r3, r3, r3, lsl #1
  102a5c:	e3a02000 	mov	r2, #0
  102a60:	108ff103 	addne	pc, pc, r3, lsl #2
  102a64:	e320f000 	nop	{0}
  102a68:	e1500f81 	cmp	r0, r1, lsl #31
  102a6c:	e0a22002 	adc	r2, r2, r2
  102a70:	20400f81 	subcs	r0, r0, r1, lsl #31
  102a74:	e1500f01 	cmp	r0, r1, lsl #30
  102a78:	e0a22002 	adc	r2, r2, r2
  102a7c:	20400f01 	subcs	r0, r0, r1, lsl #30
  102a80:	e1500e81 	cmp	r0, r1, lsl #29
  102a84:	e0a22002 	adc	r2, r2, r2
  102a88:	20400e81 	subcs	r0, r0, r1, lsl #29
  102a8c:	e1500e01 	cmp	r0, r1, lsl #28
  102a90:	e0a22002 	adc	r2, r2, r2
  102a94:	20400e01 	subcs	r0, r0, r1, lsl #28
  102a98:	e1500d81 	cmp	r0, r1, lsl #27
  102a9c:	e0a22002 	adc	r2, r2, r2
  102aa0:	20400d81 	subcs	r0, r0, r1, lsl #27
  102aa4:	e1500d01 	cmp	r0, r1, lsl #26
  102aa8:	e0a22002 	adc	r2, r2, r2
  102aac:	20400d01 	subcs	r0, r0, r1, lsl #26
  102ab0:	e1500c81 	cmp	r0, r1, lsl #25
  102ab4:	e0a22002 	adc	r2, r2, r2
  102ab8:	20400c81 	subcs	r0, r0, r1, lsl #25
  102abc:	e1500c01 	cmp	r0, r1, lsl #24
  102ac0:	e0a22002 	adc	r2, r2, r2
  102ac4:	20400c01 	subcs	r0, r0, r1, lsl #24
  102ac8:	e1500b81 	cmp	r0, r1, lsl #23
  102acc:	e0a22002 	adc	r2, r2, r2
  102ad0:	20400b81 	subcs	r0, r0, r1, lsl #23
  102ad4:	e1500b01 	cmp	r0, r1, lsl #22
  102ad8:	e0a22002 	adc	r2, r2, r2
  102adc:	20400b01 	subcs	r0, r0, r1, lsl #22
  102ae0:	e1500a81 	cmp	r0, r1, lsl #21
  102ae4:	e0a22002 	adc	r2, r2, r2
  102ae8:	20400a81 	subcs	r0, r0, r1, lsl #21
  102aec:	e1500a01 	cmp	r0, r1, lsl #20
  102af0:	e0a22002 	adc	r2, r2, r2
  102af4:	20400a01 	subcs	r0, r0, r1, lsl #20
  102af8:	e1500981 	cmp	r0, r1, lsl #19
  102afc:	e0a22002 	adc	r2, r2, r2
  102b00:	20400981 	subcs	r0, r0, r1, lsl #19
  102b04:	e1500901 	cmp	r0, r1, lsl #18
  102b08:	e0a22002 	adc	r2, r2, r2
  102b0c:	20400901 	subcs	r0, r0, r1, lsl #18
  102b10:	e1500881 	cmp	r0, r1, lsl #17
  102b14:	e0a22002 	adc	r2, r2, r2
  102b18:	20400881 	subcs	r0, r0, r1, lsl #17
  102b1c:	e1500801 	cmp	r0, r1, lsl #16
  102b20:	e0a22002 	adc	r2, r2, r2
  102b24:	20400801 	subcs	r0, r0, r1, lsl #16
  102b28:	e1500781 	cmp	r0, r1, lsl #15
  102b2c:	e0a22002 	adc	r2, r2, r2
  102b30:	20400781 	subcs	r0, r0, r1, lsl #15
  102b34:	e1500701 	cmp	r0, r1, lsl #14
  102b38:	e0a22002 	adc	r2, r2, r2
  102b3c:	20400701 	subcs	r0, r0, r1, lsl #14
  102b40:	e1500681 	cmp	r0, r1, lsl #13
  102b44:	e0a22002 	adc	r2, r2, r2
  102b48:	20400681 	subcs	r0, r0, r1, lsl #13
  102b4c:	e1500601 	cmp	r0, r1, lsl #12
  102b50:	e0a22002 	adc	r2, r2, r2
  102b54:	20400601 	subcs	r0, r0, r1, lsl #12
  102b58:	e1500581 	cmp	r0, r1, lsl #11
  102b5c:	e0a22002 	adc	r2, r2, r2
  102b60:	20400581 	subcs	r0, r0, r1, lsl #11
  102b64:	e1500501 	cmp	r0, r1, lsl #10
  102b68:	e0a22002 	adc	r2, r2, r2
  102b6c:	20400501 	subcs	r0, r0, r1, lsl #10
  102b70:	e1500481 	cmp	r0, r1, lsl #9
  102b74:	e0a22002 	adc	r2, r2, r2
  102b78:	20400481 	subcs	r0, r0, r1, lsl #9
  102b7c:	e1500401 	cmp	r0, r1, lsl #8
  102b80:	e0a22002 	adc	r2, r2, r2
  102b84:	20400401 	subcs	r0, r0, r1, lsl #8
  102b88:	e1500381 	cmp	r0, r1, lsl #7
  102b8c:	e0a22002 	adc	r2, r2, r2
  102b90:	20400381 	subcs	r0, r0, r1, lsl #7
  102b94:	e1500301 	cmp	r0, r1, lsl #6
  102b98:	e0a22002 	adc	r2, r2, r2
  102b9c:	20400301 	subcs	r0, r0, r1, lsl #6
  102ba0:	e1500281 	cmp	r0, r1, lsl #5
  102ba4:	e0a22002 	adc	r2, r2, r2
  102ba8:	20400281 	subcs	r0, r0, r1, lsl #5
  102bac:	e1500201 	cmp	r0, r1, lsl #4
  102bb0:	e0a22002 	adc	r2, r2, r2
  102bb4:	20400201 	subcs	r0, r0, r1, lsl #4
  102bb8:	e1500181 	cmp	r0, r1, lsl #3
  102bbc:	e0a22002 	adc	r2, r2, r2
  102bc0:	20400181 	subcs	r0, r0, r1, lsl #3
  102bc4:	e1500101 	cmp	r0, r1, lsl #2
  102bc8:	e0a22002 	adc	r2, r2, r2
  102bcc:	20400101 	subcs	r0, r0, r1, lsl #2
  102bd0:	e1500081 	cmp	r0, r1, lsl #1
  102bd4:	e0a22002 	adc	r2, r2, r2
  102bd8:	20400081 	subcs	r0, r0, r1, lsl #1
  102bdc:	e1500001 	cmp	r0, r1
  102be0:	e0a22002 	adc	r2, r2, r2
  102be4:	20400001 	subcs	r0, r0, r1
  102be8:	e1a00002 	mov	r0, r2
  102bec:	e12fff1e 	bx	lr
  102bf0:	03a00001 	moveq	r0, #1
  102bf4:	13a00000 	movne	r0, #0
  102bf8:	e12fff1e 	bx	lr
  102bfc:	e16f2f11 	clz	r2, r1
  102c00:	e262201f 	rsb	r2, r2, #31
  102c04:	e1a00230 	lsr	r0, r0, r2
  102c08:	e12fff1e 	bx	lr
  102c0c:	e3500000 	cmp	r0, #0
  102c10:	13e00000 	mvnne	r0, #0
  102c14:	ea000007 	b	102c38 <__aeabi_idiv0>

00102c18 <__aeabi_uidivmod>:
  102c18:	e3510000 	cmp	r1, #0
  102c1c:	0afffffa 	beq	102c0c <__aeabi_uidiv+0x1e0>
  102c20:	e92d4003 	push	{r0, r1, lr}
  102c24:	ebffff80 	bl	102a2c <__aeabi_uidiv>
  102c28:	e8bd4006 	pop	{r1, r2, lr}
  102c2c:	e0030092 	mul	r3, r2, r0
  102c30:	e0411003 	sub	r1, r1, r3
  102c34:	e12fff1e 	bx	lr

00102c38 <__aeabi_idiv0>:
  102c38:	e12fff1e 	bx	lr
  102c3c:	00000000 	andeq	r0, r0, r0

00102c40 <__aeabi_f2ulz>:
  102c40:	ee070a90 	vmov	s15, r0
  102c44:	e3a02000 	mov	r2, #0
  102c48:	eef70ae7 	vcvt.f64.f32	d16, s15
  102c4c:	eddf1b0d 	vldr	d17, [pc, #52]	; 102c88 <__aeabi_f2ulz+0x48>
  102c50:	ed9f7b0e 	vldr	d7, [pc, #56]	; 102c90 <__aeabi_f2ulz+0x50>
  102c54:	ee207b87 	vmul.f64	d7, d16, d7
  102c58:	eebc7bc7 	vcvt.u32.f64	s14, d7
  102c5c:	eef82b47 	vcvt.f64.u32	d18, s14
  102c60:	ee173a10 	vmov	r3, s14
  102c64:	ee420be1 	vmls.f64	d16, d18, d17
  102c68:	eeb07b60 	vmov.f64	d7, d16
  102c6c:	eefc7bc7 	vcvt.u32.f64	s15, d7
  102c70:	ee170a90 	vmov	r0, s15
  102c74:	e1822000 	orr	r2, r2, r0
  102c78:	e1a00002 	mov	r0, r2
  102c7c:	e1a01003 	mov	r1, r3
  102c80:	e12fff1e 	bx	lr
  102c84:	e320f000 	nop	{0}
  102c88:	00000000 	.word	0x00000000
  102c8c:	41f00000 	.word	0x41f00000
  102c90:	00000000 	.word	0x00000000
  102c94:	3df00000 	.word	0x3df00000

00102c98 <malloc>:
  102c98:	e92d4010 	push	{r4, lr}
  102c9c:	e1a04000 	mov	r4, r0
  102ca0:	eb001435 	bl	107d7c <__getreent>
  102ca4:	e1a01004 	mov	r1, r4
  102ca8:	e8bd4010 	pop	{r4, lr}
  102cac:	ea000005 	b	102cc8 <_malloc_r>

00102cb0 <free>:
  102cb0:	e92d4010 	push	{r4, lr}
  102cb4:	e1a04000 	mov	r4, r0
  102cb8:	eb00142f 	bl	107d7c <__getreent>
  102cbc:	e1a01004 	mov	r1, r4
  102cc0:	e8bd4010 	pop	{r4, lr}
  102cc4:	ea00120a 	b	1074f4 <_free_r>

00102cc8 <_malloc_r>:
  102cc8:	e92d4ff8 	push	{r3, r4, r5, r6, r7, r8, r9, sl, fp, lr}
  102ccc:	e281500b 	add	r5, r1, #11
  102cd0:	e3550016 	cmp	r5, #22
  102cd4:	e1a06000 	mov	r6, r0
  102cd8:	9a000073 	bls	102eac <_malloc_r+0x1e4>
  102cdc:	e3c55007 	bic	r5, r5, #7
  102ce0:	e1510005 	cmp	r1, r5
  102ce4:	93a01000 	movls	r1, #0
  102ce8:	83a01001 	movhi	r1, #1
  102cec:	e1913fa5 	orrs	r3, r1, r5, lsr #31
  102cf0:	1a000089 	bne	102f1c <_malloc_r+0x254>
  102cf4:	eb000208 	bl	10351c <__malloc_lock>
  102cf8:	e3550f7e 	cmp	r5, #504	; 0x1f8
  102cfc:	3a0001c8 	bcc	103424 <_malloc_r+0x75c>
  102d00:	e1b034a5 	lsrs	r3, r5, #9
  102d04:	0a000089 	beq	102f30 <_malloc_r+0x268>
  102d08:	e3530004 	cmp	r3, #4
  102d0c:	8a0000db 	bhi	103080 <_malloc_r+0x3b8>
  102d10:	e1a03325 	lsr	r3, r5, #6
  102d14:	e283c039 	add	ip, r3, #57	; 0x39
  102d18:	e283e038 	add	lr, r3, #56	; 0x38
  102d1c:	e1a0018c 	lsl	r0, ip, #3
  102d20:	e3087000 	movw	r7, #32768	; 0x8000
  102d24:	e3407011 	movt	r7, #17
  102d28:	e0870000 	add	r0, r7, r0
  102d2c:	e5903004 	ldr	r3, [r0, #4]
  102d30:	e2400008 	sub	r0, r0, #8
  102d34:	e1500003 	cmp	r0, r3
  102d38:	1a000005 	bne	102d54 <_malloc_r+0x8c>
  102d3c:	ea00000a 	b	102d6c <_malloc_r+0xa4>
  102d40:	e3510000 	cmp	r1, #0
  102d44:	aa00007d 	bge	102f40 <_malloc_r+0x278>
  102d48:	e593300c 	ldr	r3, [r3, #12]
  102d4c:	e1500003 	cmp	r0, r3
  102d50:	0a000005 	beq	102d6c <_malloc_r+0xa4>
  102d54:	e5932004 	ldr	r2, [r3, #4]
  102d58:	e3c22003 	bic	r2, r2, #3
  102d5c:	e0421005 	sub	r1, r2, r5
  102d60:	e351000f 	cmp	r1, #15
  102d64:	dafffff5 	ble	102d40 <_malloc_r+0x78>
  102d68:	e1a0c00e 	mov	ip, lr
  102d6c:	e5978010 	ldr	r8, [r7, #16]
  102d70:	e59fe6b8 	ldr	lr, [pc, #1720]	; 103430 <_malloc_r+0x768>
  102d74:	e158000e 	cmp	r8, lr
  102d78:	05973004 	ldreq	r3, [r7, #4]
  102d7c:	0a000018 	beq	102de4 <_malloc_r+0x11c>
  102d80:	e5983004 	ldr	r3, [r8, #4]
  102d84:	e3c33003 	bic	r3, r3, #3
  102d88:	e0432005 	sub	r2, r3, r5
  102d8c:	e352000f 	cmp	r2, #15
  102d90:	ca0000de 	bgt	103110 <_malloc_r+0x448>
  102d94:	e3520000 	cmp	r2, #0
  102d98:	e587e014 	str	lr, [r7, #20]
  102d9c:	e587e010 	str	lr, [r7, #16]
  102da0:	aa000073 	bge	102f74 <_malloc_r+0x2ac>
  102da4:	e3530c02 	cmp	r3, #512	; 0x200
  102da8:	2a0000bd 	bcs	1030a4 <_malloc_r+0x3dc>
  102dac:	e5972004 	ldr	r2, [r7, #4]
  102db0:	e1a031a3 	lsr	r3, r3, #3
  102db4:	e3a09001 	mov	r9, #1
  102db8:	e0831009 	add	r1, r3, r9
  102dbc:	e1a03143 	asr	r3, r3, #2
  102dc0:	e7974181 	ldr	r4, [r7, r1, lsl #3]
  102dc4:	e0870181 	add	r0, r7, r1, lsl #3
  102dc8:	e1823319 	orr	r3, r2, r9, lsl r3
  102dcc:	e2402008 	sub	r2, r0, #8
  102dd0:	e588200c 	str	r2, [r8, #12]
  102dd4:	e5884008 	str	r4, [r8, #8]
  102dd8:	e5873004 	str	r3, [r7, #4]
  102ddc:	e7878181 	str	r8, [r7, r1, lsl #3]
  102de0:	e584800c 	str	r8, [r4, #12]
  102de4:	e1a0214c 	asr	r2, ip, #2
  102de8:	e3a01001 	mov	r1, #1
  102dec:	e1a00211 	lsl	r0, r1, r2
  102df0:	e1500003 	cmp	r0, r3
  102df4:	8a000067 	bhi	102f98 <_malloc_r+0x2d0>
  102df8:	e1100003 	tst	r0, r3
  102dfc:	1a000008 	bne	102e24 <_malloc_r+0x15c>
  102e00:	e1a00110 	lsl	r0, r0, r1
  102e04:	e3ccc003 	bic	ip, ip, #3
  102e08:	e28cc004 	add	ip, ip, #4
  102e0c:	e1100003 	tst	r0, r3
  102e10:	1a000003 	bne	102e24 <_malloc_r+0x15c>
  102e14:	e1a00080 	lsl	r0, r0, #1
  102e18:	e28cc004 	add	ip, ip, #4
  102e1c:	e1100003 	tst	r0, r3
  102e20:	0afffffb 	beq	102e14 <_malloc_r+0x14c>
  102e24:	e087918c 	add	r9, r7, ip, lsl #3
  102e28:	e1a0400c 	mov	r4, ip
  102e2c:	e1a01009 	mov	r1, r9
  102e30:	e591300c 	ldr	r3, [r1, #12]
  102e34:	e1510003 	cmp	r1, r3
  102e38:	1a000005 	bne	102e54 <_malloc_r+0x18c>
  102e3c:	ea0000c0 	b	103144 <_malloc_r+0x47c>
  102e40:	e3580000 	cmp	r8, #0
  102e44:	aa0000c8 	bge	10316c <_malloc_r+0x4a4>
  102e48:	e593300c 	ldr	r3, [r3, #12]
  102e4c:	e1510003 	cmp	r1, r3
  102e50:	0a0000bb 	beq	103144 <_malloc_r+0x47c>
  102e54:	e5932004 	ldr	r2, [r3, #4]
  102e58:	e3c22003 	bic	r2, r2, #3
  102e5c:	e0428005 	sub	r8, r2, r5
  102e60:	e358000f 	cmp	r8, #15
  102e64:	dafffff5 	ble	102e40 <_malloc_r+0x178>
  102e68:	e593100c 	ldr	r1, [r3, #12]
  102e6c:	e3854001 	orr	r4, r5, #1
  102e70:	e593c008 	ldr	ip, [r3, #8]
  102e74:	e0835005 	add	r5, r3, r5
  102e78:	e1a00006 	mov	r0, r6
  102e7c:	e3886001 	orr	r6, r8, #1
  102e80:	e5834004 	str	r4, [r3, #4]
  102e84:	e2834008 	add	r4, r3, #8
  102e88:	e58c100c 	str	r1, [ip, #12]
  102e8c:	e581c008 	str	ip, [r1, #8]
  102e90:	e5875014 	str	r5, [r7, #20]
  102e94:	e5875010 	str	r5, [r7, #16]
  102e98:	e585e00c 	str	lr, [r5, #12]
  102e9c:	e9854040 	stmib	r5, {r6, lr}
  102ea0:	e7838002 	str	r8, [r3, r2]
  102ea4:	eb00019f 	bl	103528 <__malloc_unlock>
  102ea8:	ea000019 	b	102f14 <_malloc_r+0x24c>
  102eac:	e3510010 	cmp	r1, #16
  102eb0:	8a000019 	bhi	102f1c <_malloc_r+0x254>
  102eb4:	eb000198 	bl	10351c <__malloc_lock>
  102eb8:	e3a05010 	mov	r5, #16
  102ebc:	e3a02018 	mov	r2, #24
  102ec0:	e3a0c002 	mov	ip, #2
  102ec4:	e3087000 	movw	r7, #32768	; 0x8000
  102ec8:	e3407011 	movt	r7, #17
  102ecc:	e0872002 	add	r2, r7, r2
  102ed0:	e5923004 	ldr	r3, [r2, #4]
  102ed4:	e2421008 	sub	r1, r2, #8
  102ed8:	e1530001 	cmp	r3, r1
  102edc:	0a00009d 	beq	103158 <_malloc_r+0x490>
  102ee0:	e5932004 	ldr	r2, [r3, #4]
  102ee4:	e2834008 	add	r4, r3, #8
  102ee8:	e593100c 	ldr	r1, [r3, #12]
  102eec:	e1a00006 	mov	r0, r6
  102ef0:	e593c008 	ldr	ip, [r3, #8]
  102ef4:	e3c22003 	bic	r2, r2, #3
  102ef8:	e0833002 	add	r3, r3, r2
  102efc:	e5932004 	ldr	r2, [r3, #4]
  102f00:	e58c100c 	str	r1, [ip, #12]
  102f04:	e581c008 	str	ip, [r1, #8]
  102f08:	e3822001 	orr	r2, r2, #1
  102f0c:	e5832004 	str	r2, [r3, #4]
  102f10:	eb000184 	bl	103528 <__malloc_unlock>
  102f14:	e1a00004 	mov	r0, r4
  102f18:	e8bd8ff8 	pop	{r3, r4, r5, r6, r7, r8, r9, sl, fp, pc}
  102f1c:	e3a0300c 	mov	r3, #12
  102f20:	e3a04000 	mov	r4, #0
  102f24:	e5863000 	str	r3, [r6]
  102f28:	e1a00004 	mov	r0, r4
  102f2c:	e8bd8ff8 	pop	{r3, r4, r5, r6, r7, r8, r9, sl, fp, pc}
  102f30:	e3a00c02 	mov	r0, #512	; 0x200
  102f34:	e3a0c040 	mov	ip, #64	; 0x40
  102f38:	e3a0e03f 	mov	lr, #63	; 0x3f
  102f3c:	eaffff77 	b	102d20 <_malloc_r+0x58>
  102f40:	e0832002 	add	r2, r3, r2
  102f44:	e593c00c 	ldr	ip, [r3, #12]
  102f48:	e5921004 	ldr	r1, [r2, #4]
  102f4c:	e2834008 	add	r4, r3, #8
  102f50:	e593e008 	ldr	lr, [r3, #8]
  102f54:	e1a00006 	mov	r0, r6
  102f58:	e3813001 	orr	r3, r1, #1
  102f5c:	e58ec00c 	str	ip, [lr, #12]
  102f60:	e58ce008 	str	lr, [ip, #8]
  102f64:	e5823004 	str	r3, [r2, #4]
  102f68:	eb00016e 	bl	103528 <__malloc_unlock>
  102f6c:	e1a00004 	mov	r0, r4
  102f70:	e8bd8ff8 	pop	{r3, r4, r5, r6, r7, r8, r9, sl, fp, pc}
  102f74:	e0883003 	add	r3, r8, r3
  102f78:	e1a00006 	mov	r0, r6
  102f7c:	e5932004 	ldr	r2, [r3, #4]
  102f80:	e2884008 	add	r4, r8, #8
  102f84:	e3822001 	orr	r2, r2, #1
  102f88:	e5832004 	str	r2, [r3, #4]
  102f8c:	eb000165 	bl	103528 <__malloc_unlock>
  102f90:	e1a00004 	mov	r0, r4
  102f94:	e8bd8ff8 	pop	{r3, r4, r5, r6, r7, r8, r9, sl, fp, pc}
  102f98:	e5974008 	ldr	r4, [r7, #8]
  102f9c:	e5948004 	ldr	r8, [r4, #4]
  102fa0:	e3c88003 	bic	r8, r8, #3
  102fa4:	e0482005 	sub	r2, r8, r5
  102fa8:	e352000f 	cmp	r2, #15
  102fac:	c3a03000 	movgt	r3, #0
  102fb0:	d3a03001 	movle	r3, #1
  102fb4:	e1580005 	cmp	r8, r5
  102fb8:	33833001 	orrcc	r3, r3, #1
  102fbc:	e3530000 	cmp	r3, #0
  102fc0:	0a000023 	beq	103054 <_malloc_r+0x38c>
  102fc4:	e30899dc 	movw	r9, #35292	; 0x89dc
  102fc8:	e5973408 	ldr	r3, [r7, #1032]	; 0x408
  102fcc:	e3409011 	movt	r9, #17
  102fd0:	e1a00006 	mov	r0, r6
  102fd4:	e5992000 	ldr	r2, [r9]
  102fd8:	e3730001 	cmn	r3, #1
  102fdc:	e0852002 	add	r2, r5, r2
  102fe0:	12822a01 	addne	r2, r2, #4096	; 0x1000
  102fe4:	0282b010 	addeq	fp, r2, #16
  102fe8:	1282200f 	addne	r2, r2, #15
  102fec:	13c2beff 	bicne	fp, r2, #4080	; 0xff0
  102ff0:	13cbb00f 	bicne	fp, fp, #15
  102ff4:	e1a0100b 	mov	r1, fp
  102ff8:	eb0001d2 	bl	103748 <_sbrk_r>
  102ffc:	e3700001 	cmn	r0, #1
  103000:	e1a0a000 	mov	sl, r0
  103004:	0a000003 	beq	103018 <_malloc_r+0x350>
  103008:	e0843008 	add	r3, r4, r8
  10300c:	e1540007 	cmp	r4, r7
  103010:	11530000 	cmpne	r3, r0
  103014:	9a000082 	bls	103224 <_malloc_r+0x55c>
  103018:	e5974008 	ldr	r4, [r7, #8]
  10301c:	e5943004 	ldr	r3, [r4, #4]
  103020:	e3c33003 	bic	r3, r3, #3
  103024:	e1550003 	cmp	r5, r3
  103028:	e0432005 	sub	r2, r3, r5
  10302c:	93a03000 	movls	r3, #0
  103030:	83a03001 	movhi	r3, #1
  103034:	e352000f 	cmp	r2, #15
  103038:	d3833001 	orrle	r3, r3, #1
  10303c:	e3530000 	cmp	r3, #0
  103040:	0a000003 	beq	103054 <_malloc_r+0x38c>
  103044:	e1a00006 	mov	r0, r6
  103048:	e3a04000 	mov	r4, #0
  10304c:	eb000135 	bl	103528 <__malloc_unlock>
  103050:	eaffffaf 	b	102f14 <_malloc_r+0x24c>
  103054:	e3853001 	orr	r3, r5, #1
  103058:	e3822001 	orr	r2, r2, #1
  10305c:	e0845005 	add	r5, r4, r5
  103060:	e5843004 	str	r3, [r4, #4]
  103064:	e1a00006 	mov	r0, r6
  103068:	e5875008 	str	r5, [r7, #8]
  10306c:	e2844008 	add	r4, r4, #8
  103070:	e5852004 	str	r2, [r5, #4]
  103074:	eb00012b 	bl	103528 <__malloc_unlock>
  103078:	e1a00004 	mov	r0, r4
  10307c:	e8bd8ff8 	pop	{r3, r4, r5, r6, r7, r8, r9, sl, fp, pc}
  103080:	e3530014 	cmp	r3, #20
  103084:	9a000044 	bls	10319c <_malloc_r+0x4d4>
  103088:	e3530054 	cmp	r3, #84	; 0x54
  10308c:	8a0000a4 	bhi	103324 <_malloc_r+0x65c>
  103090:	e1a03625 	lsr	r3, r5, #12
  103094:	e283c06f 	add	ip, r3, #111	; 0x6f
  103098:	e283e06e 	add	lr, r3, #110	; 0x6e
  10309c:	e1a0018c 	lsl	r0, ip, #3
  1030a0:	eaffff1e 	b	102d20 <_malloc_r+0x58>
  1030a4:	e1a014a3 	lsr	r1, r3, #9
  1030a8:	e3510004 	cmp	r1, #4
  1030ac:	9a00003e 	bls	1031ac <_malloc_r+0x4e4>
  1030b0:	e3510014 	cmp	r1, #20
  1030b4:	8a0000b0 	bhi	10337c <_malloc_r+0x6b4>
  1030b8:	e281005c 	add	r0, r1, #92	; 0x5c
  1030bc:	e281105b 	add	r1, r1, #91	; 0x5b
  1030c0:	e1a00180 	lsl	r0, r0, #3
  1030c4:	e7972000 	ldr	r2, [r7, r0]
  1030c8:	e0870000 	add	r0, r7, r0
  1030cc:	e2400008 	sub	r0, r0, #8
  1030d0:	e1500002 	cmp	r0, r2
  1030d4:	0a000099 	beq	103340 <_malloc_r+0x678>
  1030d8:	e5921004 	ldr	r1, [r2, #4]
  1030dc:	e3c11003 	bic	r1, r1, #3
  1030e0:	e1530001 	cmp	r3, r1
  1030e4:	2a00008c 	bcs	10331c <_malloc_r+0x654>
  1030e8:	e5922008 	ldr	r2, [r2, #8]
  1030ec:	e1500002 	cmp	r0, r2
  1030f0:	1afffff8 	bne	1030d8 <_malloc_r+0x410>
  1030f4:	e590200c 	ldr	r2, [r0, #12]
  1030f8:	e5973004 	ldr	r3, [r7, #4]
  1030fc:	e588200c 	str	r2, [r8, #12]
  103100:	e5880008 	str	r0, [r8, #8]
  103104:	e5828008 	str	r8, [r2, #8]
  103108:	e580800c 	str	r8, [r0, #12]
  10310c:	eaffff34 	b	102de4 <_malloc_r+0x11c>
  103110:	e385c001 	orr	ip, r5, #1
  103114:	e3821001 	orr	r1, r2, #1
  103118:	e0885005 	add	r5, r8, r5
  10311c:	e588c004 	str	ip, [r8, #4]
  103120:	e1a00006 	mov	r0, r6
  103124:	e5875014 	str	r5, [r7, #20]
  103128:	e5875010 	str	r5, [r7, #16]
  10312c:	e2884008 	add	r4, r8, #8
  103130:	e585e00c 	str	lr, [r5, #12]
  103134:	e9854002 	stmib	r5, {r1, lr}
  103138:	e7882003 	str	r2, [r8, r3]
  10313c:	eb0000f9 	bl	103528 <__malloc_unlock>
  103140:	eaffff73 	b	102f14 <_malloc_r+0x24c>
  103144:	e2844001 	add	r4, r4, #1
  103148:	e2811008 	add	r1, r1, #8
  10314c:	e3140003 	tst	r4, #3
  103150:	1affff36 	bne	102e30 <_malloc_r+0x168>
  103154:	ea00001c 	b	1031cc <_malloc_r+0x504>
  103158:	e592300c 	ldr	r3, [r2, #12]
  10315c:	e1520003 	cmp	r2, r3
  103160:	028cc002 	addeq	ip, ip, #2
  103164:	0affff00 	beq	102d6c <_malloc_r+0xa4>
  103168:	eaffff5c 	b	102ee0 <_malloc_r+0x218>
  10316c:	e0832002 	add	r2, r3, r2
  103170:	e1a04003 	mov	r4, r3
  103174:	e5921004 	ldr	r1, [r2, #4]
  103178:	e1a00006 	mov	r0, r6
  10317c:	e593c00c 	ldr	ip, [r3, #12]
  103180:	e5b4e008 	ldr	lr, [r4, #8]!
  103184:	e3813001 	orr	r3, r1, #1
  103188:	e5823004 	str	r3, [r2, #4]
  10318c:	e58ec00c 	str	ip, [lr, #12]
  103190:	e58ce008 	str	lr, [ip, #8]
  103194:	eb0000e3 	bl	103528 <__malloc_unlock>
  103198:	eaffff5d 	b	102f14 <_malloc_r+0x24c>
  10319c:	e283c05c 	add	ip, r3, #92	; 0x5c
  1031a0:	e283e05b 	add	lr, r3, #91	; 0x5b
  1031a4:	e1a0018c 	lsl	r0, ip, #3
  1031a8:	eafffedc 	b	102d20 <_malloc_r+0x58>
  1031ac:	e1a01323 	lsr	r1, r3, #6
  1031b0:	e2810039 	add	r0, r1, #57	; 0x39
  1031b4:	e2811038 	add	r1, r1, #56	; 0x38
  1031b8:	e1a00180 	lsl	r0, r0, #3
  1031bc:	eaffffc0 	b	1030c4 <_malloc_r+0x3fc>
  1031c0:	e4193008 	ldr	r3, [r9], #-8
  1031c4:	e1590003 	cmp	r9, r3
  1031c8:	1a000093 	bne	10341c <_malloc_r+0x754>
  1031cc:	e31c0003 	tst	ip, #3
  1031d0:	e24cc001 	sub	ip, ip, #1
  1031d4:	1afffff9 	bne	1031c0 <_malloc_r+0x4f8>
  1031d8:	e5973004 	ldr	r3, [r7, #4]
  1031dc:	e1c33000 	bic	r3, r3, r0
  1031e0:	e5873004 	str	r3, [r7, #4]
  1031e4:	e1b00080 	lsls	r0, r0, #1
  1031e8:	13a02001 	movne	r2, #1
  1031ec:	03a02000 	moveq	r2, #0
  1031f0:	e1500003 	cmp	r0, r3
  1031f4:	83a02000 	movhi	r2, #0
  1031f8:	92022001 	andls	r2, r2, #1
  1031fc:	e3520000 	cmp	r2, #0
  103200:	0affff64 	beq	102f98 <_malloc_r+0x2d0>
  103204:	e1100003 	tst	r0, r3
  103208:	e1a0c004 	mov	ip, r4
  10320c:	1affff04 	bne	102e24 <_malloc_r+0x15c>
  103210:	e1a00080 	lsl	r0, r0, #1
  103214:	e28cc004 	add	ip, ip, #4
  103218:	e1100003 	tst	r0, r3
  10321c:	0afffffb 	beq	103210 <_malloc_r+0x548>
  103220:	eafffeff 	b	102e24 <_malloc_r+0x15c>
  103224:	e5991004 	ldr	r1, [r9, #4]
  103228:	e1530000 	cmp	r3, r0
  10322c:	e08b1001 	add	r1, fp, r1
  103230:	e5891004 	str	r1, [r9, #4]
  103234:	0a00005b 	beq	1033a8 <_malloc_r+0x6e0>
  103238:	e5972408 	ldr	r2, [r7, #1032]	; 0x408
  10323c:	e1a00006 	mov	r0, r6
  103240:	e3720001 	cmn	r2, #1
  103244:	104a3003 	subne	r3, sl, r3
  103248:	0587a408 	streq	sl, [r7, #1032]	; 0x408
  10324c:	10831001 	addne	r1, r3, r1
  103250:	15891004 	strne	r1, [r9, #4]
  103254:	e21a1007 	ands	r1, sl, #7
  103258:	12613008 	rsbne	r3, r1, #8
  10325c:	12611a01 	rsbne	r1, r1, #4096	; 0x1000
  103260:	108aa003 	addne	sl, sl, r3
  103264:	12811008 	addne	r1, r1, #8
  103268:	e08a300b 	add	r3, sl, fp
  10326c:	03a01a01 	moveq	r1, #4096	; 0x1000
  103270:	e7eb3053 	ubfx	r3, r3, #0, #12
  103274:	e041b003 	sub	fp, r1, r3
  103278:	e1a0100b 	mov	r1, fp
  10327c:	eb000131 	bl	103748 <_sbrk_r>
  103280:	e3700001 	cmn	r0, #1
  103284:	e5991004 	ldr	r1, [r9, #4]
  103288:	1040300a 	subne	r3, r0, sl
  10328c:	03a03001 	moveq	r3, #1
  103290:	1083300b 	addne	r3, r3, fp
  103294:	03a0b000 	moveq	fp, #0
  103298:	13833001 	orrne	r3, r3, #1
  10329c:	e1540007 	cmp	r4, r7
  1032a0:	e08b1001 	add	r1, fp, r1
  1032a4:	e587a008 	str	sl, [r7, #8]
  1032a8:	e5891004 	str	r1, [r9, #4]
  1032ac:	e58a3004 	str	r3, [sl, #4]
  1032b0:	0a00000f 	beq	1032f4 <_malloc_r+0x62c>
  1032b4:	e358000f 	cmp	r8, #15
  1032b8:	93a03001 	movls	r3, #1
  1032bc:	958a3004 	strls	r3, [sl, #4]
  1032c0:	9affff5f 	bls	103044 <_malloc_r+0x37c>
  1032c4:	e5942004 	ldr	r2, [r4, #4]
  1032c8:	e248300c 	sub	r3, r8, #12
  1032cc:	e3c33007 	bic	r3, r3, #7
  1032d0:	e3a0c005 	mov	ip, #5
  1032d4:	e353000f 	cmp	r3, #15
  1032d8:	e0840003 	add	r0, r4, r3
  1032dc:	e2022001 	and	r2, r2, #1
  1032e0:	e1823003 	orr	r3, r2, r3
  1032e4:	e5843004 	str	r3, [r4, #4]
  1032e8:	e580c004 	str	ip, [r0, #4]
  1032ec:	e580c008 	str	ip, [r0, #8]
  1032f0:	8a000034 	bhi	1033c8 <_malloc_r+0x700>
  1032f4:	e599302c 	ldr	r3, [r9, #44]	; 0x2c
  1032f8:	e5974008 	ldr	r4, [r7, #8]
  1032fc:	e1510003 	cmp	r1, r3
  103300:	e5993030 	ldr	r3, [r9, #48]	; 0x30
  103304:	8589102c 	strhi	r1, [r9, #44]	; 0x2c
  103308:	e1510003 	cmp	r1, r3
  10330c:	e5943004 	ldr	r3, [r4, #4]
  103310:	85891030 	strhi	r1, [r9, #48]	; 0x30
  103314:	e3c33003 	bic	r3, r3, #3
  103318:	eaffff41 	b	103024 <_malloc_r+0x35c>
  10331c:	e1a00002 	mov	r0, r2
  103320:	eaffff73 	b	1030f4 <_malloc_r+0x42c>
  103324:	e3530f55 	cmp	r3, #340	; 0x154
  103328:	8a00000b 	bhi	10335c <_malloc_r+0x694>
  10332c:	e1a037a5 	lsr	r3, r5, #15
  103330:	e283c078 	add	ip, r3, #120	; 0x78
  103334:	e283e077 	add	lr, r3, #119	; 0x77
  103338:	e1a0018c 	lsl	r0, ip, #3
  10333c:	eafffe77 	b	102d20 <_malloc_r+0x58>
  103340:	e5973004 	ldr	r3, [r7, #4]
  103344:	e1a01141 	asr	r1, r1, #2
  103348:	e3a04001 	mov	r4, #1
  10334c:	e1a02000 	mov	r2, r0
  103350:	e1833114 	orr	r3, r3, r4, lsl r1
  103354:	e5873004 	str	r3, [r7, #4]
  103358:	eaffff67 	b	1030fc <_malloc_r+0x434>
  10335c:	e3002554 	movw	r2, #1364	; 0x554
  103360:	e1530002 	cmp	r3, r2
  103364:	8a00000b 	bhi	103398 <_malloc_r+0x6d0>
  103368:	e1a03925 	lsr	r3, r5, #18
  10336c:	e283c07d 	add	ip, r3, #125	; 0x7d
  103370:	e283e07c 	add	lr, r3, #124	; 0x7c
  103374:	e1a0018c 	lsl	r0, ip, #3
  103378:	eafffe68 	b	102d20 <_malloc_r+0x58>
  10337c:	e3510054 	cmp	r1, #84	; 0x54
  103380:	8a000015 	bhi	1033dc <_malloc_r+0x714>
  103384:	e1a01623 	lsr	r1, r3, #12
  103388:	e281006f 	add	r0, r1, #111	; 0x6f
  10338c:	e281106e 	add	r1, r1, #110	; 0x6e
  103390:	e1a00180 	lsl	r0, r0, #3
  103394:	eaffff4a 	b	1030c4 <_malloc_r+0x3fc>
  103398:	e3a00ffe 	mov	r0, #1016	; 0x3f8
  10339c:	e3a0c07f 	mov	ip, #127	; 0x7f
  1033a0:	e3a0e07e 	mov	lr, #126	; 0x7e
  1033a4:	eafffe5d 	b	102d20 <_malloc_r+0x58>
  1033a8:	e7eb2053 	ubfx	r2, r3, #0, #12
  1033ac:	e3520000 	cmp	r2, #0
  1033b0:	1affffa0 	bne	103238 <_malloc_r+0x570>
  1033b4:	e5972008 	ldr	r2, [r7, #8]
  1033b8:	e088300b 	add	r3, r8, fp
  1033bc:	e3833001 	orr	r3, r3, #1
  1033c0:	e5823004 	str	r3, [r2, #4]
  1033c4:	eaffffca 	b	1032f4 <_malloc_r+0x62c>
  1033c8:	e2841008 	add	r1, r4, #8
  1033cc:	e1a00006 	mov	r0, r6
  1033d0:	eb001047 	bl	1074f4 <_free_r>
  1033d4:	e5991004 	ldr	r1, [r9, #4]
  1033d8:	eaffffc5 	b	1032f4 <_malloc_r+0x62c>
  1033dc:	e3510f55 	cmp	r1, #340	; 0x154
  1033e0:	8a000004 	bhi	1033f8 <_malloc_r+0x730>
  1033e4:	e1a017a3 	lsr	r1, r3, #15
  1033e8:	e2810078 	add	r0, r1, #120	; 0x78
  1033ec:	e2811077 	add	r1, r1, #119	; 0x77
  1033f0:	e1a00180 	lsl	r0, r0, #3
  1033f4:	eaffff32 	b	1030c4 <_malloc_r+0x3fc>
  1033f8:	e3002554 	movw	r2, #1364	; 0x554
  1033fc:	e1510002 	cmp	r1, r2
  103400:	91a01923 	lsrls	r1, r3, #18
  103404:	83a00ffe 	movhi	r0, #1016	; 0x3f8
  103408:	83a0107e 	movhi	r1, #126	; 0x7e
  10340c:	9281007d 	addls	r0, r1, #125	; 0x7d
  103410:	9281107c 	addls	r1, r1, #124	; 0x7c
  103414:	91a00180 	lslls	r0, r0, #3
  103418:	eaffff29 	b	1030c4 <_malloc_r+0x3fc>
  10341c:	e5973004 	ldr	r3, [r7, #4]
  103420:	eaffff6f 	b	1031e4 <_malloc_r+0x51c>
  103424:	e1a0c1a5 	lsr	ip, r5, #3
  103428:	e2852008 	add	r2, r5, #8
  10342c:	eafffea4 	b	102ec4 <_malloc_r+0x1fc>
  103430:	00118008 	.word	0x00118008

00103434 <memcmp>:
  103434:	e3520003 	cmp	r2, #3
  103438:	8a000010 	bhi	103480 <memcmp+0x4c>
  10343c:	e3520000 	cmp	r2, #0
  103440:	0a00000c 	beq	103478 <memcmp+0x44>
  103444:	e5d1c000 	ldrb	ip, [r1]
  103448:	e5d03000 	ldrb	r3, [r0]
  10344c:	e153000c 	cmp	r3, ip
  103450:	00812002 	addeq	r2, r1, r2
  103454:	02811001 	addeq	r1, r1, #1
  103458:	0a000004 	beq	103470 <memcmp+0x3c>
  10345c:	ea000027 	b	103500 <memcmp+0xcc>
  103460:	e5f03001 	ldrb	r3, [r0, #1]!
  103464:	e4d1c001 	ldrb	ip, [r1], #1
  103468:	e153000c 	cmp	r3, ip
  10346c:	1a000023 	bne	103500 <memcmp+0xcc>
  103470:	e1510002 	cmp	r1, r2
  103474:	1afffff9 	bne	103460 <memcmp+0x2c>
  103478:	e3a00000 	mov	r0, #0
  10347c:	e12fff1e 	bx	lr
  103480:	e1803001 	orr	r3, r0, r1
  103484:	e3130003 	tst	r3, #3
  103488:	1affffed 	bne	103444 <memcmp+0x10>
  10348c:	e92d4010 	push	{r4, lr}
  103490:	e591e000 	ldr	lr, [r1]
  103494:	e1a0c001 	mov	ip, r1
  103498:	e1a03000 	mov	r3, r0
  10349c:	e2811004 	add	r1, r1, #4
  1034a0:	e5904000 	ldr	r4, [r0]
  1034a4:	e2800004 	add	r0, r0, #4
  1034a8:	e154000e 	cmp	r4, lr
  1034ac:	1a000017 	bne	103510 <memcmp+0xdc>
  1034b0:	e2422004 	sub	r2, r2, #4
  1034b4:	e3520003 	cmp	r2, #3
  1034b8:	8afffff4 	bhi	103490 <memcmp+0x5c>
  1034bc:	e3520000 	cmp	r2, #0
  1034c0:	0a00000c 	beq	1034f8 <memcmp+0xc4>
  1034c4:	e5d1c000 	ldrb	ip, [r1]
  1034c8:	e5d03000 	ldrb	r3, [r0]
  1034cc:	e153000c 	cmp	r3, ip
  1034d0:	00812002 	addeq	r2, r1, r2
  1034d4:	02811001 	addeq	r1, r1, #1
  1034d8:	0a000004 	beq	1034f0 <memcmp+0xbc>
  1034dc:	ea000009 	b	103508 <memcmp+0xd4>
  1034e0:	e5f03001 	ldrb	r3, [r0, #1]!
  1034e4:	e4d1c001 	ldrb	ip, [r1], #1
  1034e8:	e153000c 	cmp	r3, ip
  1034ec:	1a000005 	bne	103508 <memcmp+0xd4>
  1034f0:	e1510002 	cmp	r1, r2
  1034f4:	1afffff9 	bne	1034e0 <memcmp+0xac>
  1034f8:	e3a00000 	mov	r0, #0
  1034fc:	e8bd8010 	pop	{r4, pc}
  103500:	e043000c 	sub	r0, r3, ip
  103504:	e12fff1e 	bx	lr
  103508:	e043000c 	sub	r0, r3, ip
  10350c:	e8bd8010 	pop	{r4, pc}
  103510:	e1a0100c 	mov	r1, ip
  103514:	e1a00003 	mov	r0, r3
  103518:	eaffffe9 	b	1034c4 <memcmp+0x90>

0010351c <__malloc_lock>:
  10351c:	e3080a10 	movw	r0, #35344	; 0x8a10
  103520:	e3400011 	movt	r0, #17
  103524:	ea00224e 	b	10be64 <__generic_gxx_recursive_mutex_lock>

00103528 <__malloc_unlock>:
  103528:	e3080a10 	movw	r0, #35344	; 0x8a10
  10352c:	e3400011 	movt	r0, #17
  103530:	ea002249 	b	10be5c <__generic_gxx_recursive_mutex_unlock>

00103534 <__init___malloc_lock_object>:
  103534:	e3080a10 	movw	r0, #35344	; 0x8a10
  103538:	e3400011 	movt	r0, #17
  10353c:	ea002242 	b	10be4c <__generic_gxx_recursive_mutex_init_function>

00103540 <_printf_r>:
  103540:	e92d000e 	push	{r1, r2, r3}
  103544:	e52de004 	push	{lr}		; (str lr, [sp, #-4]!)
  103548:	e24dd008 	sub	sp, sp, #8
  10354c:	e28dc010 	add	ip, sp, #16
  103550:	e1a0300c 	mov	r3, ip
  103554:	e59d200c 	ldr	r2, [sp, #12]
  103558:	e5901008 	ldr	r1, [r0, #8]
  10355c:	e58dc004 	str	ip, [sp, #4]
  103560:	eb0000be 	bl	103860 <_vfprintf_r>
  103564:	e28dd008 	add	sp, sp, #8
  103568:	e49de004 	pop	{lr}		; (ldr lr, [sp], #4)
  10356c:	e28dd00c 	add	sp, sp, #12
  103570:	e12fff1e 	bx	lr

00103574 <printf>:
  103574:	e92d000f 	push	{r0, r1, r2, r3}
  103578:	e52de004 	push	{lr}		; (str lr, [sp, #-4]!)
  10357c:	e24dd00c 	sub	sp, sp, #12
  103580:	eb0011fd 	bl	107d7c <__getreent>
  103584:	e28dc014 	add	ip, sp, #20
  103588:	e5901008 	ldr	r1, [r0, #8]
  10358c:	e59d2010 	ldr	r2, [sp, #16]
  103590:	e1a0300c 	mov	r3, ip
  103594:	e58dc004 	str	ip, [sp, #4]
  103598:	eb0000b0 	bl	103860 <_vfprintf_r>
  10359c:	e28dd00c 	add	sp, sp, #12
  1035a0:	e49de004 	pop	{lr}		; (ldr lr, [sp], #4)
  1035a4:	e28dd010 	add	sp, sp, #16
  1035a8:	e12fff1e 	bx	lr

001035ac <_putchar_r>:
  1035ac:	e5902008 	ldr	r2, [r0, #8]
  1035b0:	ea0016a8 	b	109058 <_putc_r>

001035b4 <putchar>:
  1035b4:	e92d4010 	push	{r4, lr}
  1035b8:	e1a04000 	mov	r4, r0
  1035bc:	eb0011ee 	bl	107d7c <__getreent>
  1035c0:	e1a01004 	mov	r1, r4
  1035c4:	e5902008 	ldr	r2, [r0, #8]
  1035c8:	e8bd4010 	pop	{r4, lr}
  1035cc:	ea0016a1 	b	109058 <_putc_r>

001035d0 <_puts_r>:
  1035d0:	e92d4030 	push	{r4, r5, lr}
  1035d4:	e1a05000 	mov	r5, r0
  1035d8:	e24dd024 	sub	sp, sp, #36	; 0x24
  1035dc:	e1a00001 	mov	r0, r1
  1035e0:	e1a04001 	mov	r4, r1
  1035e4:	fa000065 	blx	103780 <strlen>
  1035e8:	e5952038 	ldr	r2, [r5, #56]	; 0x38
  1035ec:	e30c37f8 	movw	r3, #51192	; 0xc7f8
  1035f0:	e280e001 	add	lr, r0, #1
  1035f4:	e3403010 	movt	r3, #16
  1035f8:	e3a0c001 	mov	ip, #1
  1035fc:	e28d1010 	add	r1, sp, #16
  103600:	e3520000 	cmp	r2, #0
  103604:	e3a02002 	mov	r2, #2
  103608:	e58d4010 	str	r4, [sp, #16]
  10360c:	e58d0014 	str	r0, [sp, #20]
  103610:	e58de00c 	str	lr, [sp, #12]
  103614:	e58d3018 	str	r3, [sp, #24]
  103618:	e5954008 	ldr	r4, [r5, #8]
  10361c:	e58dc01c 	str	ip, [sp, #28]
  103620:	e98d0006 	stmib	sp, {r1, r2}
  103624:	0a000021 	beq	1036b0 <_puts_r+0xe0>
  103628:	e5943064 	ldr	r3, [r4, #100]	; 0x64
  10362c:	e3130001 	tst	r3, #1
  103630:	e1d430fc 	ldrsh	r3, [r4, #12]
  103634:	e6ff2073 	uxth	r2, r3
  103638:	1a000001 	bne	103644 <_puts_r+0x74>
  10363c:	e3120c02 	tst	r2, #512	; 0x200
  103640:	0a00001d 	beq	1036bc <_puts_r+0xec>
  103644:	e3120a02 	tst	r2, #8192	; 0x2000
  103648:	e1a00005 	mov	r0, r5
  10364c:	05942064 	ldreq	r2, [r4, #100]	; 0x64
  103650:	03833a02 	orreq	r3, r3, #8192	; 0x2000
  103654:	01c430bc 	strheq	r3, [r4, #12]
  103658:	e1a01004 	mov	r1, r4
  10365c:	03c23a02 	biceq	r3, r2, #8192	; 0x2000
  103660:	e28d2004 	add	r2, sp, #4
  103664:	05843064 	streq	r3, [r4, #100]	; 0x64
  103668:	eb001059 	bl	1077d4 <__sfvwrite_r>
  10366c:	e5943064 	ldr	r3, [r4, #100]	; 0x64
  103670:	e3500000 	cmp	r0, #0
  103674:	03a0500a 	moveq	r5, #10
  103678:	13e05000 	mvnne	r5, #0
  10367c:	e3130001 	tst	r3, #1
  103680:	1a000002 	bne	103690 <_puts_r+0xc0>
  103684:	e1d430bc 	ldrh	r3, [r4, #12]
  103688:	e3130c02 	tst	r3, #512	; 0x200
  10368c:	0a000002 	beq	10369c <_puts_r+0xcc>
  103690:	e1a00005 	mov	r0, r5
  103694:	e28dd024 	add	sp, sp, #36	; 0x24
  103698:	e8bd8030 	pop	{r4, r5, pc}
  10369c:	e2840058 	add	r0, r4, #88	; 0x58
  1036a0:	eb0021ed 	bl	10be5c <__generic_gxx_recursive_mutex_unlock>
  1036a4:	e1a00005 	mov	r0, r5
  1036a8:	e28dd024 	add	sp, sp, #36	; 0x24
  1036ac:	e8bd8030 	pop	{r4, r5, pc}
  1036b0:	e1a00005 	mov	r0, r5
  1036b4:	eb000ec1 	bl	1071c0 <__sinit>
  1036b8:	eaffffda 	b	103628 <_puts_r+0x58>
  1036bc:	e2840058 	add	r0, r4, #88	; 0x58
  1036c0:	eb0021e7 	bl	10be64 <__generic_gxx_recursive_mutex_lock>
  1036c4:	e1d430fc 	ldrsh	r3, [r4, #12]
  1036c8:	e6ff2073 	uxth	r2, r3
  1036cc:	eaffffdc 	b	103644 <_puts_r+0x74>

001036d0 <puts>:
  1036d0:	e92d4010 	push	{r4, lr}
  1036d4:	e1a04000 	mov	r4, r0
  1036d8:	eb0011a7 	bl	107d7c <__getreent>
  1036dc:	e1a01004 	mov	r1, r4
  1036e0:	e8bd4010 	pop	{r4, lr}
  1036e4:	eaffffb9 	b	1035d0 <_puts_r>

001036e8 <srand>:
  1036e8:	e92d4010 	push	{r4, lr}
  1036ec:	e1a04000 	mov	r4, r0
  1036f0:	eb0011a1 	bl	107d7c <__getreent>
  1036f4:	e3a03000 	mov	r3, #0
  1036f8:	e58040a8 	str	r4, [r0, #168]	; 0xa8
  1036fc:	e58030ac 	str	r3, [r0, #172]	; 0xac
  103700:	e8bd8010 	pop	{r4, pc}

00103704 <rand>:
  103704:	e92d4010 	push	{r4, lr}
  103708:	eb00119b 	bl	107d7c <__getreent>
  10370c:	e30f342d 	movw	r3, #62509	; 0xf42d
  103710:	e307ef2d 	movw	lr, #32557	; 0x7f2d
  103714:	e59020a8 	ldr	r2, [r0, #168]	; 0xa8
  103718:	e3453851 	movt	r3, #22609	; 0x5851
  10371c:	e590c0ac 	ldr	ip, [r0, #172]	; 0xac
  103720:	e344ec95 	movt	lr, #19605	; 0x4c95
  103724:	e0010293 	mul	r1, r3, r2
  103728:	e0832e92 	umull	r2, r3, r2, lr
  10372c:	e0211c9e 	mla	r1, lr, ip, r1
  103730:	e2922001 	adds	r2, r2, #1
  103734:	e0813003 	add	r3, r1, r3
  103738:	e2a33000 	adc	r3, r3, #0
  10373c:	e1c02af8 	strd	r2, [r0, #168]	; 0xa8
  103740:	e3c30102 	bic	r0, r3, #-2147483648	; 0x80000000
  103744:	e8bd8010 	pop	{r4, pc}

00103748 <_sbrk_r>:
  103748:	e92d4070 	push	{r4, r5, r6, lr}
  10374c:	e3084a1c 	movw	r4, #35356	; 0x8a1c
  103750:	e3a03000 	mov	r3, #0
  103754:	e1a05000 	mov	r5, r0
  103758:	e3404011 	movt	r4, #17
  10375c:	e1a00001 	mov	r0, r1
  103760:	e5843000 	str	r3, [r4]
  103764:	eb0021f5 	bl	10bf40 <_sbrk>
  103768:	e3700001 	cmn	r0, #1
  10376c:	18bd8070 	popne	{r4, r5, r6, pc}
  103770:	e5943000 	ldr	r3, [r4]
  103774:	e3530000 	cmp	r3, #0
  103778:	15853000 	strne	r3, [r5]
  10377c:	e8bd8070 	pop	{r4, r5, r6, pc}

00103780 <strlen>:
  103780:	f890 f000 	pld	[r0]
  103784:	e96d 4502 	strd	r4, r5, [sp, #-8]!
  103788:	f020 0107 	bic.w	r1, r0, #7
  10378c:	f06f 0c00 	mvn.w	ip, #0
  103790:	f010 0407 	ands.w	r4, r0, #7
  103794:	f891 f020 	pld	[r1, #32]
  103798:	f040 8049 	bne.w	10382e <strlen+0xae>
  10379c:	f04f 0400 	mov.w	r4, #0
  1037a0:	f06f 0007 	mvn.w	r0, #7
  1037a4:	e9d1 2300 	ldrd	r2, r3, [r1]
  1037a8:	f891 f040 	pld	[r1, #64]	; 0x40
  1037ac:	f100 0008 	add.w	r0, r0, #8
  1037b0:	fa82 f24c 	uadd8	r2, r2, ip
  1037b4:	faa4 f28c 	sel	r2, r4, ip
  1037b8:	fa83 f34c 	uadd8	r3, r3, ip
  1037bc:	faa2 f38c 	sel	r3, r2, ip
  1037c0:	bb4b      	cbnz	r3, 103816 <strlen+0x96>
  1037c2:	e9d1 2302 	ldrd	r2, r3, [r1, #8]
  1037c6:	fa82 f24c 	uadd8	r2, r2, ip
  1037ca:	f100 0008 	add.w	r0, r0, #8
  1037ce:	faa4 f28c 	sel	r2, r4, ip
  1037d2:	fa83 f34c 	uadd8	r3, r3, ip
  1037d6:	faa2 f38c 	sel	r3, r2, ip
  1037da:	b9e3      	cbnz	r3, 103816 <strlen+0x96>
  1037dc:	e9d1 2304 	ldrd	r2, r3, [r1, #16]
  1037e0:	fa82 f24c 	uadd8	r2, r2, ip
  1037e4:	f100 0008 	add.w	r0, r0, #8
  1037e8:	faa4 f28c 	sel	r2, r4, ip
  1037ec:	fa83 f34c 	uadd8	r3, r3, ip
  1037f0:	faa2 f38c 	sel	r3, r2, ip
  1037f4:	b97b      	cbnz	r3, 103816 <strlen+0x96>
  1037f6:	e9d1 2306 	ldrd	r2, r3, [r1, #24]
  1037fa:	f101 0120 	add.w	r1, r1, #32
  1037fe:	fa82 f24c 	uadd8	r2, r2, ip
  103802:	f100 0008 	add.w	r0, r0, #8
  103806:	faa4 f28c 	sel	r2, r4, ip
  10380a:	fa83 f34c 	uadd8	r3, r3, ip
  10380e:	faa2 f38c 	sel	r3, r2, ip
  103812:	2b00      	cmp	r3, #0
  103814:	d0c6      	beq.n	1037a4 <strlen+0x24>
  103816:	2a00      	cmp	r2, #0
  103818:	bf04      	itt	eq
  10381a:	3004      	addeq	r0, #4
  10381c:	461a      	moveq	r2, r3
  10381e:	ba12      	rev	r2, r2
  103820:	fab2 f282 	clz	r2, r2
  103824:	e8fd 4502 	ldrd	r4, r5, [sp], #8
  103828:	eb00 00d2 	add.w	r0, r0, r2, lsr #3
  10382c:	4770      	bx	lr
  10382e:	e9d1 2300 	ldrd	r2, r3, [r1]
  103832:	f004 0503 	and.w	r5, r4, #3
  103836:	f1c4 0000 	rsb	r0, r4, #0
  10383a:	ea4f 05c5 	mov.w	r5, r5, lsl #3
  10383e:	f014 0f04 	tst.w	r4, #4
  103842:	f891 f040 	pld	[r1, #64]	; 0x40
  103846:	fa0c f505 	lsl.w	r5, ip, r5
  10384a:	ea62 0205 	orn	r2, r2, r5
  10384e:	bf1c      	itt	ne
  103850:	ea63 0305 	ornne	r3, r3, r5
  103854:	4662      	movne	r2, ip
  103856:	f04f 0400 	mov.w	r4, #0
  10385a:	e7a9      	b.n	1037b0 <strlen+0x30>
  10385c:	0000      	movs	r0, r0
	...

00103860 <_vfprintf_r>:
  103860:	e92d4ff0 	push	{r4, r5, r6, r7, r8, r9, sl, fp, lr}
  103864:	e1a05003 	mov	r5, r3
  103868:	ed2d8b06 	vpush	{d8-d10}
  10386c:	e24ddf41 	sub	sp, sp, #260	; 0x104
  103870:	e1a0a001 	mov	sl, r1
  103874:	e1a09002 	mov	r9, r2
  103878:	e1a04000 	mov	r4, r0
  10387c:	e58d001c 	str	r0, [sp, #28]
  103880:	eb001143 	bl	107d94 <_localeconv_r>
  103884:	e5903000 	ldr	r3, [r0]
  103888:	e58d5030 	str	r5, [sp, #48]	; 0x30
  10388c:	e1a00003 	mov	r0, r3
  103890:	e58d304c 	str	r3, [sp, #76]	; 0x4c
  103894:	faffffb9 	blx	103780 <strlen>
  103898:	e3540000 	cmp	r4, #0
  10389c:	e58d0048 	str	r0, [sp, #72]	; 0x48
  1038a0:	0a000002 	beq	1038b0 <_vfprintf_r+0x50>
  1038a4:	e5943038 	ldr	r3, [r4, #56]	; 0x38
  1038a8:	e3530000 	cmp	r3, #0
  1038ac:	0a00014e 	beq	103dec <_vfprintf_r+0x58c>
  1038b0:	e59a3064 	ldr	r3, [sl, #100]	; 0x64
  1038b4:	e3130001 	tst	r3, #1
  1038b8:	e1da30fc 	ldrsh	r3, [sl, #12]
  1038bc:	e6ff1073 	uxth	r1, r3
  1038c0:	1a000001 	bne	1038cc <_vfprintf_r+0x6c>
  1038c4:	e3110c02 	tst	r1, #512	; 0x200
  1038c8:	0a000156 	beq	103e28 <_vfprintf_r+0x5c8>
  1038cc:	e3110a02 	tst	r1, #8192	; 0x2000
  1038d0:	1a000005 	bne	1038ec <_vfprintf_r+0x8c>
  1038d4:	e59a2064 	ldr	r2, [sl, #100]	; 0x64
  1038d8:	e3833a02 	orr	r3, r3, #8192	; 0x2000
  1038dc:	e6ff1073 	uxth	r1, r3
  1038e0:	e1ca30bc 	strh	r3, [sl, #12]
  1038e4:	e3c23a02 	bic	r3, r2, #8192	; 0x2000
  1038e8:	e58a3064 	str	r3, [sl, #100]	; 0x64
  1038ec:	e3110008 	tst	r1, #8
  1038f0:	0a000118 	beq	103d58 <_vfprintf_r+0x4f8>
  1038f4:	e59a3010 	ldr	r3, [sl, #16]
  1038f8:	e3530000 	cmp	r3, #0
  1038fc:	0a000115 	beq	103d58 <_vfprintf_r+0x4f8>
  103900:	e201301a 	and	r3, r1, #26
  103904:	e353000a 	cmp	r3, #10
  103908:	0a00011b 	beq	103d7c <_vfprintf_r+0x51c>
  10390c:	ed9f8be7 	vldr	d8, [pc, #924]	; 103cb0 <_vfprintf_r+0x450>
  103910:	e30c17fc 	movw	r1, #51196	; 0xc7fc
  103914:	ed9f9be7 	vldr	d9, [pc, #924]	; 103cb8 <_vfprintf_r+0x458>
  103918:	e3060667 	movw	r0, #26215	; 0x6667
  10391c:	e3a03000 	mov	r3, #0
  103920:	e3401010 	movt	r1, #16
  103924:	e3460666 	movt	r0, #26214	; 0x6666
  103928:	e28d80c0 	add	r8, sp, #192	; 0xc0
  10392c:	e58d3044 	str	r3, [sp, #68]	; 0x44
  103930:	e58d3050 	str	r3, [sp, #80]	; 0x50
  103934:	e58d3060 	str	r3, [sp, #96]	; 0x60
  103938:	e58d3020 	str	r3, [sp, #32]
  10393c:	e58d103c 	str	r1, [sp, #60]	; 0x3c
  103940:	e58d0064 	str	r0, [sp, #100]	; 0x64
  103944:	e58d3094 	str	r3, [sp, #148]	; 0x94
  103948:	e58d3090 	str	r3, [sp, #144]	; 0x90
  10394c:	e58d808c 	str	r8, [sp, #140]	; 0x8c
  103950:	e58da024 	str	sl, [sp, #36]	; 0x24
  103954:	e5d93000 	ldrb	r3, [r9]
  103958:	e1a05009 	mov	r5, r9
  10395c:	e3530025 	cmp	r3, #37	; 0x25
  103960:	13530000 	cmpne	r3, #0
  103964:	0a000013 	beq	1039b8 <_vfprintf_r+0x158>
  103968:	e5f53001 	ldrb	r3, [r5, #1]!
  10396c:	e3530000 	cmp	r3, #0
  103970:	13530025 	cmpne	r3, #37	; 0x25
  103974:	1afffffb 	bne	103968 <_vfprintf_r+0x108>
  103978:	e0554009 	subs	r4, r5, r9
  10397c:	0a00000d 	beq	1039b8 <_vfprintf_r+0x158>
  103980:	e59d3090 	ldr	r3, [sp, #144]	; 0x90
  103984:	e59d2094 	ldr	r2, [sp, #148]	; 0x94
  103988:	e5889000 	str	r9, [r8]
  10398c:	e2833001 	add	r3, r3, #1
  103990:	e5884004 	str	r4, [r8, #4]
  103994:	e3530007 	cmp	r3, #7
  103998:	e0822004 	add	r2, r2, r4
  10399c:	e58d3090 	str	r3, [sp, #144]	; 0x90
  1039a0:	d2888008 	addle	r8, r8, #8
  1039a4:	e58d2094 	str	r2, [sp, #148]	; 0x94
  1039a8:	ca000107 	bgt	103dcc <_vfprintf_r+0x56c>
  1039ac:	e59d3020 	ldr	r3, [sp, #32]
  1039b0:	e0833004 	add	r3, r3, r4
  1039b4:	e58d3020 	str	r3, [sp, #32]
  1039b8:	e5d53000 	ldrb	r3, [r5]
  1039bc:	e3530000 	cmp	r3, #0
  1039c0:	0a0002f9 	beq	1045ac <_vfprintf_r+0xd4c>
  1039c4:	e2859001 	add	r9, r5, #1
  1039c8:	e5d55001 	ldrb	r5, [r5, #1]
  1039cc:	e3a03000 	mov	r3, #0
  1039d0:	e3e04000 	mvn	r4, #0
  1039d4:	e1a02003 	mov	r2, r3
  1039d8:	e1a01003 	mov	r1, r3
  1039dc:	e1a0a003 	mov	sl, r3
  1039e0:	e1a00004 	mov	r0, r4
  1039e4:	e5cd306f 	strb	r3, [sp, #111]	; 0x6f
  1039e8:	e58d3028 	str	r3, [sp, #40]	; 0x28
  1039ec:	e2899001 	add	r9, r9, #1
  1039f0:	e2453020 	sub	r3, r5, #32
  1039f4:	e3530058 	cmp	r3, #88	; 0x58
  1039f8:	979ff103 	ldrls	pc, [pc, r3, lsl #2]
  1039fc:	ea000221 	b	104288 <_vfprintf_r+0xa28>
  103a00:	0010408c 	.word	0x0010408c
  103a04:	00104288 	.word	0x00104288
  103a08:	00104288 	.word	0x00104288
  103a0c:	001041b8 	.word	0x001041b8
  103a10:	00104288 	.word	0x00104288
  103a14:	00104288 	.word	0x00104288
  103a18:	00104288 	.word	0x00104288
  103a1c:	00104288 	.word	0x00104288
  103a20:	00104288 	.word	0x00104288
  103a24:	00104288 	.word	0x00104288
  103a28:	0010415c 	.word	0x0010415c
  103a2c:	001040f8 	.word	0x001040f8
  103a30:	00104288 	.word	0x00104288
  103a34:	00103e4c 	.word	0x00103e4c
  103a38:	001040ac 	.word	0x001040ac
  103a3c:	00104288 	.word	0x00104288
  103a40:	001040ec 	.word	0x001040ec
  103a44:	00104180 	.word	0x00104180
  103a48:	00104180 	.word	0x00104180
  103a4c:	00104180 	.word	0x00104180
  103a50:	00104180 	.word	0x00104180
  103a54:	00104180 	.word	0x00104180
  103a58:	00104180 	.word	0x00104180
  103a5c:	00104180 	.word	0x00104180
  103a60:	00104180 	.word	0x00104180
  103a64:	00104180 	.word	0x00104180
  103a68:	00104288 	.word	0x00104288
  103a6c:	00104288 	.word	0x00104288
  103a70:	00104288 	.word	0x00104288
  103a74:	00104288 	.word	0x00104288
  103a78:	00104288 	.word	0x00104288
  103a7c:	00104288 	.word	0x00104288
  103a80:	00104288 	.word	0x00104288
  103a84:	00104288 	.word	0x00104288
  103a88:	00104288 	.word	0x00104288
  103a8c:	00104288 	.word	0x00104288
  103a90:	001041a8 	.word	0x001041a8
  103a94:	001041c4 	.word	0x001041c4
  103a98:	00104288 	.word	0x00104288
  103a9c:	001041c4 	.word	0x001041c4
  103aa0:	00104288 	.word	0x00104288
  103aa4:	00104288 	.word	0x00104288
  103aa8:	00104288 	.word	0x00104288
  103aac:	00104288 	.word	0x00104288
  103ab0:	001040a0 	.word	0x001040a0
  103ab4:	00104288 	.word	0x00104288
  103ab8:	00104288 	.word	0x00104288
  103abc:	00103b9c 	.word	0x00103b9c
  103ac0:	00104288 	.word	0x00104288
  103ac4:	00104288 	.word	0x00104288
  103ac8:	00104288 	.word	0x00104288
  103acc:	00104288 	.word	0x00104288
  103ad0:	00104288 	.word	0x00104288
  103ad4:	00103b64 	.word	0x00103b64
  103ad8:	00104288 	.word	0x00104288
  103adc:	00104288 	.word	0x00104288
  103ae0:	00104144 	.word	0x00104144
  103ae4:	00104288 	.word	0x00104288
  103ae8:	00104288 	.word	0x00104288
  103aec:	00104288 	.word	0x00104288
  103af0:	00104288 	.word	0x00104288
  103af4:	00104288 	.word	0x00104288
  103af8:	00104288 	.word	0x00104288
  103afc:	00104288 	.word	0x00104288
  103b00:	00104288 	.word	0x00104288
  103b04:	00104288 	.word	0x00104288
  103b08:	00104288 	.word	0x00104288
  103b0c:	00103e58 	.word	0x00103e58
  103b10:	00103e98 	.word	0x00103e98
  103b14:	001041c4 	.word	0x001041c4
  103b18:	001041c4 	.word	0x001041c4
  103b1c:	001041c4 	.word	0x001041c4
  103b20:	00103f44 	.word	0x00103f44
  103b24:	00103e98 	.word	0x00103e98
  103b28:	00104288 	.word	0x00104288
  103b2c:	00104288 	.word	0x00104288
  103b30:	00103f50 	.word	0x00103f50
  103b34:	00104288 	.word	0x00104288
  103b38:	00103f6c 	.word	0x00103f6c
  103b3c:	00103ba0 	.word	0x00103ba0
  103b40:	00104108 	.word	0x00104108
  103b44:	00103fa8 	.word	0x00103fa8
  103b48:	00104288 	.word	0x00104288
  103b4c:	00103fb4 	.word	0x00103fb4
  103b50:	00104288 	.word	0x00104288
  103b54:	00103b68 	.word	0x00103b68
  103b58:	00104288 	.word	0x00104288
  103b5c:	00104288 	.word	0x00104288
  103b60:	00104024 	.word	0x00104024
  103b64:	e38aa010 	orr	sl, sl, #16
  103b68:	e31a0020 	tst	sl, #32
  103b6c:	e59d3030 	ldr	r3, [sp, #48]	; 0x30
  103b70:	1a0001b5 	bne	10424c <_vfprintf_r+0x9ec>
  103b74:	e31a0010 	tst	sl, #16
  103b78:	1a000412 	bne	104bc8 <_vfprintf_r+0x1368>
  103b7c:	e31a0040 	tst	sl, #64	; 0x40
  103b80:	0a000410 	beq	104bc8 <_vfprintf_r+0x1368>
  103b84:	e1d360b0 	ldrh	r6, [r3]
  103b88:	e2833004 	add	r3, r3, #4
  103b8c:	e3a07000 	mov	r7, #0
  103b90:	e3a02001 	mov	r2, #1
  103b94:	e58d3030 	str	r3, [sp, #48]	; 0x30
  103b98:	ea00000c 	b	103bd0 <_vfprintf_r+0x370>
  103b9c:	e38aa010 	orr	sl, sl, #16
  103ba0:	e21a7020 	ands	r7, sl, #32
  103ba4:	1a0001af 	bne	104268 <_vfprintf_r+0xa08>
  103ba8:	e21a3010 	ands	r3, sl, #16
  103bac:	1a0003f2 	bne	104b7c <_vfprintf_r+0x131c>
  103bb0:	e21a7040 	ands	r7, sl, #64	; 0x40
  103bb4:	0a0003f0 	beq	104b7c <_vfprintf_r+0x131c>
  103bb8:	e1a02003 	mov	r2, r3
  103bbc:	e59d3030 	ldr	r3, [sp, #48]	; 0x30
  103bc0:	e3a07000 	mov	r7, #0
  103bc4:	e1d360b0 	ldrh	r6, [r3]
  103bc8:	e2833004 	add	r3, r3, #4
  103bcc:	e58d3030 	str	r3, [sp, #48]	; 0x30
  103bd0:	e3a03000 	mov	r3, #0
  103bd4:	e1a0b003 	mov	fp, r3
  103bd8:	e5cd306f 	strb	r3, [sp, #111]	; 0x6f
  103bdc:	e3740001 	cmn	r4, #1
  103be0:	0a0000c2 	beq	103ef0 <_vfprintf_r+0x690>
  103be4:	e1863007 	orr	r3, r6, r7
  103be8:	e3ca1080 	bic	r1, sl, #128	; 0x80
  103bec:	e3530000 	cmp	r3, #0
  103bf0:	03540000 	cmpeq	r4, #0
  103bf4:	e58d1018 	str	r1, [sp, #24]
  103bf8:	13a03001 	movne	r3, #1
  103bfc:	03a03000 	moveq	r3, #0
  103c00:	1a000361 	bne	10498c <_vfprintf_r+0x112c>
  103c04:	e3520000 	cmp	r2, #0
  103c08:	1a00035b 	bne	10497c <_vfprintf_r+0x111c>
  103c0c:	e21a3001 	ands	r3, sl, #1
  103c10:	e58d302c 	str	r3, [sp, #44]	; 0x2c
  103c14:	028d30c0 	addeq	r3, sp, #192	; 0xc0
  103c18:	058d3038 	streq	r3, [sp, #56]	; 0x38
  103c1c:	128d2c01 	addne	r2, sp, #256	; 0x100
  103c20:	13a03030 	movne	r3, #48	; 0x30
  103c24:	15623041 	strbne	r3, [r2, #-65]!	; 0xffffffbf
  103c28:	158d2038 	strne	r2, [sp, #56]	; 0x38
  103c2c:	e59d302c 	ldr	r3, [sp, #44]	; 0x2c
  103c30:	e3a02000 	mov	r2, #0
  103c34:	e58d2040 	str	r2, [sp, #64]	; 0x40
  103c38:	e1540003 	cmp	r4, r3
  103c3c:	a1a07004 	movge	r7, r4
  103c40:	b1a07003 	movlt	r7, r3
  103c44:	e35b0000 	cmp	fp, #0
  103c48:	0a000000 	beq	103c50 <_vfprintf_r+0x3f0>
  103c4c:	e2877001 	add	r7, r7, #1
  103c50:	e59d3018 	ldr	r3, [sp, #24]
  103c54:	e213a002 	ands	sl, r3, #2
  103c58:	e59d3018 	ldr	r3, [sp, #24]
  103c5c:	12877002 	addne	r7, r7, #2
  103c60:	e2133084 	ands	r3, r3, #132	; 0x84
  103c64:	e58d3034 	str	r3, [sp, #52]	; 0x34
  103c68:	1a0001a5 	bne	104304 <_vfprintf_r+0xaa4>
  103c6c:	e59d3028 	ldr	r3, [sp, #40]	; 0x28
  103c70:	e0436007 	sub	r6, r3, r7
  103c74:	e3560000 	cmp	r6, #0
  103c78:	da0001a1 	ble	104304 <_vfprintf_r+0xaa4>
  103c7c:	e3560010 	cmp	r6, #16
  103c80:	e59d2094 	ldr	r2, [sp, #148]	; 0x94
  103c84:	d59d1090 	ldrle	r1, [sp, #144]	; 0x90
  103c88:	da000027 	ble	103d2c <_vfprintf_r+0x4cc>
  103c8c:	e58d5054 	str	r5, [sp, #84]	; 0x54
  103c90:	e3a0b010 	mov	fp, #16
  103c94:	e58d4058 	str	r4, [sp, #88]	; 0x58
  103c98:	e58d705c 	str	r7, [sp, #92]	; 0x5c
  103c9c:	e59d1090 	ldr	r1, [sp, #144]	; 0x90
  103ca0:	e59d401c 	ldr	r4, [sp, #28]
  103ca4:	e59d5024 	ldr	r5, [sp, #36]	; 0x24
  103ca8:	e59d703c 	ldr	r7, [sp, #60]	; 0x3c
  103cac:	ea000007 	b	103cd0 <_vfprintf_r+0x470>
	...
  103cb8:	ffffffff 	.word	0xffffffff
  103cbc:	7fefffff 	.word	0x7fefffff
  103cc0:	0010c80c 	.word	0x0010c80c
  103cc4:	e2466010 	sub	r6, r6, #16
  103cc8:	e3560010 	cmp	r6, #16
  103ccc:	da000013 	ble	103d20 <_vfprintf_r+0x4c0>
  103cd0:	e2811001 	add	r1, r1, #1
  103cd4:	e2822010 	add	r2, r2, #16
  103cd8:	e3510007 	cmp	r1, #7
  103cdc:	e8880880 	stm	r8, {r7, fp}
  103ce0:	e58d1090 	str	r1, [sp, #144]	; 0x90
  103ce4:	d2888008 	addle	r8, r8, #8
  103ce8:	e58d2094 	str	r2, [sp, #148]	; 0x94
  103cec:	dafffff4 	ble	103cc4 <_vfprintf_r+0x464>
  103cf0:	e28d208c 	add	r2, sp, #140	; 0x8c
  103cf4:	e1a01005 	mov	r1, r5
  103cf8:	e1a00004 	mov	r0, r4
  103cfc:	e28d80c0 	add	r8, sp, #192	; 0xc0
  103d00:	eb00173b 	bl	1099f4 <__sprint_r>
  103d04:	e3500000 	cmp	r0, #0
  103d08:	1a00029a 	bne	104778 <_vfprintf_r+0xf18>
  103d0c:	e2466010 	sub	r6, r6, #16
  103d10:	e59d2094 	ldr	r2, [sp, #148]	; 0x94
  103d14:	e3560010 	cmp	r6, #16
  103d18:	e59d1090 	ldr	r1, [sp, #144]	; 0x90
  103d1c:	caffffeb 	bgt	103cd0 <_vfprintf_r+0x470>
  103d20:	e59d5054 	ldr	r5, [sp, #84]	; 0x54
  103d24:	e59d4058 	ldr	r4, [sp, #88]	; 0x58
  103d28:	e59d705c 	ldr	r7, [sp, #92]	; 0x5c
  103d2c:	e2811001 	add	r1, r1, #1
  103d30:	e59d303c 	ldr	r3, [sp, #60]	; 0x3c
  103d34:	e3510007 	cmp	r1, #7
  103d38:	e0862002 	add	r2, r6, r2
  103d3c:	e58d1090 	str	r1, [sp, #144]	; 0x90
  103d40:	e58d2094 	str	r2, [sp, #148]	; 0x94
  103d44:	e8880048 	stm	r8, {r3, r6}
  103d48:	ca000165 	bgt	1042e4 <_vfprintf_r+0xa84>
  103d4c:	e2888008 	add	r8, r8, #8
  103d50:	e5ddb06f 	ldrb	fp, [sp, #111]	; 0x6f
  103d54:	ea00016b 	b	104308 <_vfprintf_r+0xaa8>
  103d58:	e1a0100a 	mov	r1, sl
  103d5c:	e59d001c 	ldr	r0, [sp, #28]
  103d60:	eb0006c7 	bl	105884 <__swsetup_r>
  103d64:	e3500000 	cmp	r0, #0
  103d68:	1a000022 	bne	103df8 <_vfprintf_r+0x598>
  103d6c:	e1da10bc 	ldrh	r1, [sl, #12]
  103d70:	e201301a 	and	r3, r1, #26
  103d74:	e353000a 	cmp	r3, #10
  103d78:	1afffee3 	bne	10390c <_vfprintf_r+0xac>
  103d7c:	e1da30fe 	ldrsh	r3, [sl, #14]
  103d80:	e3530000 	cmp	r3, #0
  103d84:	bafffee0 	blt	10390c <_vfprintf_r+0xac>
  103d88:	e59a3064 	ldr	r3, [sl, #100]	; 0x64
  103d8c:	e3130001 	tst	r3, #1
  103d90:	1a000003 	bne	103da4 <_vfprintf_r+0x544>
  103d94:	e3110c02 	tst	r1, #512	; 0x200
  103d98:	1a000001 	bne	103da4 <_vfprintf_r+0x544>
  103d9c:	e28a0058 	add	r0, sl, #88	; 0x58
  103da0:	eb00202d 	bl	10be5c <__generic_gxx_recursive_mutex_unlock>
  103da4:	e1a03005 	mov	r3, r5
  103da8:	e1a02009 	mov	r2, r9
  103dac:	e1a0100a 	mov	r1, sl
  103db0:	e59d001c 	ldr	r0, [sp, #28]
  103db4:	eb00067f 	bl	1057b8 <__sbprintf>
  103db8:	e58d0020 	str	r0, [sp, #32]
  103dbc:	e59d0020 	ldr	r0, [sp, #32]
  103dc0:	e28ddf41 	add	sp, sp, #260	; 0x104
  103dc4:	ecbd8b06 	vpop	{d8-d10}
  103dc8:	e8bd8ff0 	pop	{r4, r5, r6, r7, r8, r9, sl, fp, pc}
  103dcc:	e28d208c 	add	r2, sp, #140	; 0x8c
  103dd0:	e59d1024 	ldr	r1, [sp, #36]	; 0x24
  103dd4:	e59d001c 	ldr	r0, [sp, #28]
  103dd8:	eb001705 	bl	1099f4 <__sprint_r>
  103ddc:	e3500000 	cmp	r0, #0
  103de0:	1a0002e3 	bne	104974 <_vfprintf_r+0x1114>
  103de4:	e28d80c0 	add	r8, sp, #192	; 0xc0
  103de8:	eafffeef 	b	1039ac <_vfprintf_r+0x14c>
  103dec:	e59d001c 	ldr	r0, [sp, #28]
  103df0:	eb000cf2 	bl	1071c0 <__sinit>
  103df4:	eafffead 	b	1038b0 <_vfprintf_r+0x50>
  103df8:	e59a3064 	ldr	r3, [sl, #100]	; 0x64
  103dfc:	e3130001 	tst	r3, #1
  103e00:	1a000002 	bne	103e10 <_vfprintf_r+0x5b0>
  103e04:	e1da30bc 	ldrh	r3, [sl, #12]
  103e08:	e3130c02 	tst	r3, #512	; 0x200
  103e0c:	0a0004cd 	beq	105148 <_vfprintf_r+0x18e8>
  103e10:	e3e03000 	mvn	r3, #0
  103e14:	e58d3020 	str	r3, [sp, #32]
  103e18:	e59d0020 	ldr	r0, [sp, #32]
  103e1c:	e28ddf41 	add	sp, sp, #260	; 0x104
  103e20:	ecbd8b06 	vpop	{d8-d10}
  103e24:	e8bd8ff0 	pop	{r4, r5, r6, r7, r8, r9, sl, fp, pc}
  103e28:	e28a0058 	add	r0, sl, #88	; 0x58
  103e2c:	eb00200c 	bl	10be64 <__generic_gxx_recursive_mutex_lock>
  103e30:	e1da30fc 	ldrsh	r3, [sl, #12]
  103e34:	e6ff1073 	uxth	r1, r3
  103e38:	eafffea3 	b	1038cc <_vfprintf_r+0x6c>
  103e3c:	e59dc028 	ldr	ip, [sp, #40]	; 0x28
  103e40:	e58d3030 	str	r3, [sp, #48]	; 0x30
  103e44:	e26cc000 	rsb	ip, ip, #0
  103e48:	e58dc028 	str	ip, [sp, #40]	; 0x28
  103e4c:	e38aa004 	orr	sl, sl, #4
  103e50:	e5d95000 	ldrb	r5, [r9]
  103e54:	eafffee4 	b	1039ec <_vfprintf_r+0x18c>
  103e58:	e59d1030 	ldr	r1, [sp, #48]	; 0x30
  103e5c:	e3a03000 	mov	r3, #0
  103e60:	e1a0b003 	mov	fp, r3
  103e64:	e5cd306f 	strb	r3, [sp, #111]	; 0x6f
  103e68:	e1a04003 	mov	r4, r3
  103e6c:	e58d3040 	str	r3, [sp, #64]	; 0x40
  103e70:	e5912000 	ldr	r2, [r1]
  103e74:	e2813004 	add	r3, r1, #4
  103e78:	e3a07001 	mov	r7, #1
  103e7c:	e58d3030 	str	r3, [sp, #48]	; 0x30
  103e80:	e28d3098 	add	r3, sp, #152	; 0x98
  103e84:	e58da018 	str	sl, [sp, #24]
  103e88:	e5cd2098 	strb	r2, [sp, #152]	; 0x98
  103e8c:	e58d702c 	str	r7, [sp, #44]	; 0x2c
  103e90:	e58d3038 	str	r3, [sp, #56]	; 0x38
  103e94:	eaffff6d 	b	103c50 <_vfprintf_r+0x3f0>
  103e98:	e3520000 	cmp	r2, #0
  103e9c:	15cd106f 	strbne	r1, [sp, #111]	; 0x6f
  103ea0:	e31a0020 	tst	sl, #32
  103ea4:	e59d3030 	ldr	r3, [sp, #48]	; 0x30
  103ea8:	1a0003d4 	bne	104e00 <_vfprintf_r+0x15a0>
  103eac:	e31a0010 	tst	sl, #16
  103eb0:	1a000338 	bne	104b98 <_vfprintf_r+0x1338>
  103eb4:	e31a0040 	tst	sl, #64	; 0x40
  103eb8:	0a000336 	beq	104b98 <_vfprintf_r+0x1338>
  103ebc:	e1d360f0 	ldrsh	r6, [r3]
  103ec0:	e2833004 	add	r3, r3, #4
  103ec4:	e58d3030 	str	r3, [sp, #48]	; 0x30
  103ec8:	e1a02006 	mov	r2, r6
  103ecc:	e1a07fc6 	asr	r7, r6, #31
  103ed0:	e1a03007 	mov	r3, r7
  103ed4:	e3520000 	cmp	r2, #0
  103ed8:	e2d33000 	sbcs	r3, r3, #0
  103edc:	ba000409 	blt	104f08 <_vfprintf_r+0x16a8>
  103ee0:	e3740001 	cmn	r4, #1
  103ee4:	e5ddb06f 	ldrb	fp, [sp, #111]	; 0x6f
  103ee8:	e3a02001 	mov	r2, #1
  103eec:	1affff3c 	bne	103be4 <_vfprintf_r+0x384>
  103ef0:	e3520001 	cmp	r2, #1
  103ef4:	0a0002a7 	beq	104998 <_vfprintf_r+0x1138>
  103ef8:	e3520002 	cmp	r2, #2
  103efc:	128d20c0 	addne	r2, sp, #192	; 0xc0
  103f00:	1a000204 	bne	104718 <_vfprintf_r+0xeb8>
  103f04:	e59d1050 	ldr	r1, [sp, #80]	; 0x50
  103f08:	e28d30c0 	add	r3, sp, #192	; 0xc0
  103f0c:	e206200f 	and	r2, r6, #15
  103f10:	e1a06226 	lsr	r6, r6, #4
  103f14:	e7d12002 	ldrb	r2, [r1, r2]
  103f18:	e1866e07 	orr	r6, r6, r7, lsl #28
  103f1c:	e1a07227 	lsr	r7, r7, #4
  103f20:	e1960007 	orrs	r0, r6, r7
  103f24:	e5632001 	strb	r2, [r3, #-1]!
  103f28:	1afffff7 	bne	103f0c <_vfprintf_r+0x6ac>
  103f2c:	e28d20c0 	add	r2, sp, #192	; 0xc0
  103f30:	e58d3038 	str	r3, [sp, #56]	; 0x38
  103f34:	e0423003 	sub	r3, r2, r3
  103f38:	e58da018 	str	sl, [sp, #24]
  103f3c:	e58d302c 	str	r3, [sp, #44]	; 0x2c
  103f40:	eaffff39 	b	103c2c <_vfprintf_r+0x3cc>
  103f44:	e38aa040 	orr	sl, sl, #64	; 0x40
  103f48:	e5d95000 	ldrb	r5, [r9]
  103f4c:	eafffea6 	b	1039ec <_vfprintf_r+0x18c>
  103f50:	e5d95000 	ldrb	r5, [r9]
  103f54:	e355006c 	cmp	r5, #108	; 0x6c
  103f58:	05d95001 	ldrbeq	r5, [r9, #1]
  103f5c:	038aa020 	orreq	sl, sl, #32
  103f60:	02899001 	addeq	r9, r9, #1
  103f64:	138aa010 	orrne	sl, sl, #16
  103f68:	eafffe9f 	b	1039ec <_vfprintf_r+0x18c>
  103f6c:	e3520000 	cmp	r2, #0
  103f70:	15cd106f 	strbne	r1, [sp, #111]	; 0x6f
  103f74:	e31a0020 	tst	sl, #32
  103f78:	1a0004f8 	bne	105360 <_vfprintf_r+0x1b00>
  103f7c:	e31a0010 	tst	sl, #16
  103f80:	1a0000d0 	bne	1042c8 <_vfprintf_r+0xa68>
  103f84:	e31a0040 	tst	sl, #64	; 0x40
  103f88:	0a0000ce 	beq	1042c8 <_vfprintf_r+0xa68>
  103f8c:	e59d2030 	ldr	r2, [sp, #48]	; 0x30
  103f90:	e5923000 	ldr	r3, [r2]
  103f94:	e2822004 	add	r2, r2, #4
  103f98:	e58d2030 	str	r2, [sp, #48]	; 0x30
  103f9c:	e1dd22b0 	ldrh	r2, [sp, #32]
  103fa0:	e1c320b0 	strh	r2, [r3]
  103fa4:	eafffe6a 	b	103954 <_vfprintf_r+0xf4>
  103fa8:	e38aa020 	orr	sl, sl, #32
  103fac:	e5d95000 	ldrb	r5, [r9]
  103fb0:	eafffe8d 	b	1039ec <_vfprintf_r+0x18c>
  103fb4:	e59d3030 	ldr	r3, [sp, #48]	; 0x30
  103fb8:	e3a06000 	mov	r6, #0
  103fbc:	e5cd606f 	strb	r6, [sp, #111]	; 0x6f
  103fc0:	e5932000 	ldr	r2, [r3]
  103fc4:	e2833004 	add	r3, r3, #4
  103fc8:	e1520006 	cmp	r2, r6
  103fcc:	e58d2038 	str	r2, [sp, #56]	; 0x38
  103fd0:	0a000540 	beq	1054d8 <_vfprintf_r+0x1c78>
  103fd4:	e3740001 	cmn	r4, #1
  103fd8:	e58d3018 	str	r3, [sp, #24]
  103fdc:	0a0004f1 	beq	1053a8 <_vfprintf_r+0x1b48>
  103fe0:	e1a02004 	mov	r2, r4
  103fe4:	e1a01006 	mov	r1, r6
  103fe8:	e59d0038 	ldr	r0, [sp, #56]	; 0x38
  103fec:	fa000fdb 	blx	107f60 <memchr>
  103ff0:	e3500000 	cmp	r0, #0
  103ff4:	e59d3018 	ldr	r3, [sp, #24]
  103ff8:	0a000569 	beq	1055a4 <_vfprintf_r+0x1d44>
  103ffc:	e59d2038 	ldr	r2, [sp, #56]	; 0x38
  104000:	e1a04006 	mov	r4, r6
  104004:	e58d3030 	str	r3, [sp, #48]	; 0x30
  104008:	e58da018 	str	sl, [sp, #24]
  10400c:	e0402002 	sub	r2, r0, r2
  104010:	e58d6040 	str	r6, [sp, #64]	; 0x40
  104014:	e58d202c 	str	r2, [sp, #44]	; 0x2c
  104018:	e1c27fc2 	bic	r7, r2, r2, asr #31
  10401c:	e5ddb06f 	ldrb	fp, [sp, #111]	; 0x6f
  104020:	eaffff07 	b	103c44 <_vfprintf_r+0x3e4>
  104024:	e30c3840 	movw	r3, #51264	; 0xc840
  104028:	e3520000 	cmp	r2, #0
  10402c:	e3403010 	movt	r3, #16
  104030:	15cd106f 	strbne	r1, [sp, #111]	; 0x6f
  104034:	e58d3050 	str	r3, [sp, #80]	; 0x50
  104038:	e31a0020 	tst	sl, #32
  10403c:	e59d3030 	ldr	r3, [sp, #48]	; 0x30
  104040:	1a000376 	bne	104e20 <_vfprintf_r+0x15c0>
  104044:	e31a0010 	tst	sl, #16
  104048:	1a0002d9 	bne	104bb4 <_vfprintf_r+0x1354>
  10404c:	e31a0040 	tst	sl, #64	; 0x40
  104050:	0a0002d7 	beq	104bb4 <_vfprintf_r+0x1354>
  104054:	e3a07000 	mov	r7, #0
  104058:	e1d360b0 	ldrh	r6, [r3]
  10405c:	e2833004 	add	r3, r3, #4
  104060:	e58d3030 	str	r3, [sp, #48]	; 0x30
  104064:	e31a0001 	tst	sl, #1
  104068:	0a000266 	beq	104a08 <_vfprintf_r+0x11a8>
  10406c:	e1963007 	orrs	r3, r6, r7
  104070:	0a000264 	beq	104a08 <_vfprintf_r+0x11a8>
  104074:	e3a03030 	mov	r3, #48	; 0x30
  104078:	e5cd5071 	strb	r5, [sp, #113]	; 0x71
  10407c:	e38aa002 	orr	sl, sl, #2
  104080:	e5cd3070 	strb	r3, [sp, #112]	; 0x70
  104084:	e3a02002 	mov	r2, #2
  104088:	eafffed0 	b	103bd0 <_vfprintf_r+0x370>
  10408c:	e3510000 	cmp	r1, #0
  104090:	e5d95000 	ldrb	r5, [r9]
  104094:	03a02001 	moveq	r2, #1
  104098:	03a01020 	moveq	r1, #32
  10409c:	eafffe52 	b	1039ec <_vfprintf_r+0x18c>
  1040a0:	e38aa008 	orr	sl, sl, #8
  1040a4:	e5d95000 	ldrb	r5, [r9]
  1040a8:	eafffe4f 	b	1039ec <_vfprintf_r+0x18c>
  1040ac:	e5d95000 	ldrb	r5, [r9]
  1040b0:	e289c001 	add	ip, r9, #1
  1040b4:	e355002a 	cmp	r5, #42	; 0x2a
  1040b8:	0a0005a6 	beq	105758 <_vfprintf_r+0x1ef8>
  1040bc:	e2453030 	sub	r3, r5, #48	; 0x30
  1040c0:	e1a0900c 	mov	r9, ip
  1040c4:	e3530009 	cmp	r3, #9
  1040c8:	e3a04000 	mov	r4, #0
  1040cc:	8afffe47 	bhi	1039f0 <_vfprintf_r+0x190>
  1040d0:	e4d95001 	ldrb	r5, [r9], #1
  1040d4:	e0844104 	add	r4, r4, r4, lsl #2
  1040d8:	e0834084 	add	r4, r3, r4, lsl #1
  1040dc:	e2453030 	sub	r3, r5, #48	; 0x30
  1040e0:	e3530009 	cmp	r3, #9
  1040e4:	9afffff9 	bls	1040d0 <_vfprintf_r+0x870>
  1040e8:	eafffe40 	b	1039f0 <_vfprintf_r+0x190>
  1040ec:	e38aa080 	orr	sl, sl, #128	; 0x80
  1040f0:	e5d95000 	ldrb	r5, [r9]
  1040f4:	eafffe3c 	b	1039ec <_vfprintf_r+0x18c>
  1040f8:	e5d95000 	ldrb	r5, [r9]
  1040fc:	e3a02001 	mov	r2, #1
  104100:	e3a0102b 	mov	r1, #43	; 0x2b
  104104:	eafffe38 	b	1039ec <_vfprintf_r+0x18c>
  104108:	e59d2030 	ldr	r2, [sp, #48]	; 0x30
  10410c:	e30c1840 	movw	r1, #51264	; 0xc840
  104110:	e3a03030 	mov	r3, #48	; 0x30
  104114:	e3a05078 	mov	r5, #120	; 0x78
  104118:	e3401010 	movt	r1, #16
  10411c:	e38aa002 	orr	sl, sl, #2
  104120:	e5926000 	ldr	r6, [r2]
  104124:	e2822004 	add	r2, r2, #4
  104128:	e58d2030 	str	r2, [sp, #48]	; 0x30
  10412c:	e3a07000 	mov	r7, #0
  104130:	e5cd3070 	strb	r3, [sp, #112]	; 0x70
  104134:	e3a02002 	mov	r2, #2
  104138:	e5cd5071 	strb	r5, [sp, #113]	; 0x71
  10413c:	e58d1050 	str	r1, [sp, #80]	; 0x50
  104140:	eafffea2 	b	103bd0 <_vfprintf_r+0x370>
  104144:	e30c382c 	movw	r3, #51244	; 0xc82c
  104148:	e3520000 	cmp	r2, #0
  10414c:	e3403010 	movt	r3, #16
  104150:	15cd106f 	strbne	r1, [sp, #111]	; 0x6f
  104154:	e58d3050 	str	r3, [sp, #80]	; 0x50
  104158:	eaffffb6 	b	104038 <_vfprintf_r+0x7d8>
  10415c:	e59d3030 	ldr	r3, [sp, #48]	; 0x30
  104160:	e593c000 	ldr	ip, [r3]
  104164:	e2833004 	add	r3, r3, #4
  104168:	e35c0000 	cmp	ip, #0
  10416c:	e58dc028 	str	ip, [sp, #40]	; 0x28
  104170:	baffff31 	blt	103e3c <_vfprintf_r+0x5dc>
  104174:	e58d3030 	str	r3, [sp, #48]	; 0x30
  104178:	e5d95000 	ldrb	r5, [r9]
  10417c:	eafffe1a 	b	1039ec <_vfprintf_r+0x18c>
  104180:	e2453030 	sub	r3, r5, #48	; 0x30
  104184:	e3a0c000 	mov	ip, #0
  104188:	e4d95001 	ldrb	r5, [r9], #1
  10418c:	e08cc10c 	add	ip, ip, ip, lsl #2
  104190:	e083c08c 	add	ip, r3, ip, lsl #1
  104194:	e2453030 	sub	r3, r5, #48	; 0x30
  104198:	e3530009 	cmp	r3, #9
  10419c:	9afffff9 	bls	104188 <_vfprintf_r+0x928>
  1041a0:	e58dc028 	str	ip, [sp, #40]	; 0x28
  1041a4:	eafffe11 	b	1039f0 <_vfprintf_r+0x190>
  1041a8:	e3520000 	cmp	r2, #0
  1041ac:	e38aa010 	orr	sl, sl, #16
  1041b0:	15cd106f 	strbne	r1, [sp, #111]	; 0x6f
  1041b4:	eaffff39 	b	103ea0 <_vfprintf_r+0x640>
  1041b8:	e38aa001 	orr	sl, sl, #1
  1041bc:	e5d95000 	ldrb	r5, [r9]
  1041c0:	eafffe09 	b	1039ec <_vfprintf_r+0x18c>
  1041c4:	e59d3030 	ldr	r3, [sp, #48]	; 0x30
  1041c8:	e3520000 	cmp	r2, #0
  1041cc:	15cd106f 	strbne	r1, [sp, #111]	; 0x6f
  1041d0:	e31a0008 	tst	sl, #8
  1041d4:	e2833007 	add	r3, r3, #7
  1041d8:	e3c33007 	bic	r3, r3, #7
  1041dc:	0d938b00 	vldreq	d8, [r3]
  1041e0:	12832008 	addne	r2, r3, #8
  1041e4:	1d938b00 	vldrne	d8, [r3]
  1041e8:	02833008 	addeq	r3, r3, #8
  1041ec:	158d2030 	strne	r2, [sp, #48]	; 0x30
  1041f0:	058d3030 	streq	r3, [sp, #48]	; 0x30
  1041f4:	eef00bc8 	vabs.f64	d16, d8
  1041f8:	eef40b49 	vcmp.f64	d16, d9
  1041fc:	eef1fa10 	vmrs	APSR_nzcv, fpscr
  104200:	da000346 	ble	104f20 <_vfprintf_r+0x16c0>
  104204:	eeb58bc0 	vcmpe.f64	d8, #0.0
  104208:	eef1fa10 	vmrs	APSR_nzcv, fpscr
  10420c:	4a000415 	bmi	105268 <_vfprintf_r+0x1a08>
  104210:	e5ddb06f 	ldrb	fp, [sp, #111]	; 0x6f
  104214:	e30c381c 	movw	r3, #51228	; 0xc81c
  104218:	e30c2820 	movw	r2, #51232	; 0xc820
  10421c:	e3403010 	movt	r3, #16
  104220:	e3550047 	cmp	r5, #71	; 0x47
  104224:	e3402010 	movt	r2, #16
  104228:	e3a07003 	mov	r7, #3
  10422c:	e3a04000 	mov	r4, #0
  104230:	e3ca1080 	bic	r1, sl, #128	; 0x80
  104234:	d1a02003 	movle	r2, r3
  104238:	e58d1018 	str	r1, [sp, #24]
  10423c:	e58d2038 	str	r2, [sp, #56]	; 0x38
  104240:	e58d702c 	str	r7, [sp, #44]	; 0x2c
  104244:	e58d4040 	str	r4, [sp, #64]	; 0x40
  104248:	eafffe7d 	b	103c44 <_vfprintf_r+0x3e4>
  10424c:	e2833007 	add	r3, r3, #7
  104250:	e3a02001 	mov	r2, #1
  104254:	e3c33007 	bic	r3, r3, #7
  104258:	e2831008 	add	r1, r3, #8
  10425c:	e1c360d0 	ldrd	r6, [r3]
  104260:	e58d1030 	str	r1, [sp, #48]	; 0x30
  104264:	eafffe59 	b	103bd0 <_vfprintf_r+0x370>
  104268:	e59d3030 	ldr	r3, [sp, #48]	; 0x30
  10426c:	e3a02000 	mov	r2, #0
  104270:	e2833007 	add	r3, r3, #7
  104274:	e3c33007 	bic	r3, r3, #7
  104278:	e2831008 	add	r1, r3, #8
  10427c:	e1c360d0 	ldrd	r6, [r3]
  104280:	e58d1030 	str	r1, [sp, #48]	; 0x30
  104284:	eafffe51 	b	103bd0 <_vfprintf_r+0x370>
  104288:	e3520000 	cmp	r2, #0
  10428c:	15cd106f 	strbne	r1, [sp, #111]	; 0x6f
  104290:	e3550000 	cmp	r5, #0
  104294:	0a0000c4 	beq	1045ac <_vfprintf_r+0xd4c>
  104298:	e3a03000 	mov	r3, #0
  10429c:	e3a07001 	mov	r7, #1
  1042a0:	e1a0b003 	mov	fp, r3
  1042a4:	e5cd306f 	strb	r3, [sp, #111]	; 0x6f
  1042a8:	e1a04003 	mov	r4, r3
  1042ac:	e58d3040 	str	r3, [sp, #64]	; 0x40
  1042b0:	e28d3098 	add	r3, sp, #152	; 0x98
  1042b4:	e5cd5098 	strb	r5, [sp, #152]	; 0x98
  1042b8:	e58da018 	str	sl, [sp, #24]
  1042bc:	e58d702c 	str	r7, [sp, #44]	; 0x2c
  1042c0:	e58d3038 	str	r3, [sp, #56]	; 0x38
  1042c4:	eafffe61 	b	103c50 <_vfprintf_r+0x3f0>
  1042c8:	e59d2030 	ldr	r2, [sp, #48]	; 0x30
  1042cc:	e5923000 	ldr	r3, [r2]
  1042d0:	e2822004 	add	r2, r2, #4
  1042d4:	e58d2030 	str	r2, [sp, #48]	; 0x30
  1042d8:	e59d2020 	ldr	r2, [sp, #32]
  1042dc:	e5832000 	str	r2, [r3]
  1042e0:	eafffd9b 	b	103954 <_vfprintf_r+0xf4>
  1042e4:	e28d208c 	add	r2, sp, #140	; 0x8c
  1042e8:	e59d1024 	ldr	r1, [sp, #36]	; 0x24
  1042ec:	e59d001c 	ldr	r0, [sp, #28]
  1042f0:	eb0015bf 	bl	1099f4 <__sprint_r>
  1042f4:	e3500000 	cmp	r0, #0
  1042f8:	1a00019d 	bne	104974 <_vfprintf_r+0x1114>
  1042fc:	e5ddb06f 	ldrb	fp, [sp, #111]	; 0x6f
  104300:	e28d80c0 	add	r8, sp, #192	; 0xc0
  104304:	e59d2094 	ldr	r2, [sp, #148]	; 0x94
  104308:	e35b0000 	cmp	fp, #0
  10430c:	0a00000b 	beq	104340 <_vfprintf_r+0xae0>
  104310:	e59d3090 	ldr	r3, [sp, #144]	; 0x90
  104314:	e28d106f 	add	r1, sp, #111	; 0x6f
  104318:	e5881000 	str	r1, [r8]
  10431c:	e3a01001 	mov	r1, #1
  104320:	e2822001 	add	r2, r2, #1
  104324:	e5881004 	str	r1, [r8, #4]
  104328:	e0833001 	add	r3, r3, r1
  10432c:	e58d2094 	str	r2, [sp, #148]	; 0x94
  104330:	e3530007 	cmp	r3, #7
  104334:	e58d3090 	str	r3, [sp, #144]	; 0x90
  104338:	d2888008 	addle	r8, r8, #8
  10433c:	ca00019f 	bgt	1049c0 <_vfprintf_r+0x1160>
  104340:	e35a0000 	cmp	sl, #0
  104344:	0a00000b 	beq	104378 <_vfprintf_r+0xb18>
  104348:	e59d3090 	ldr	r3, [sp, #144]	; 0x90
  10434c:	e28d1070 	add	r1, sp, #112	; 0x70
  104350:	e5881000 	str	r1, [r8]
  104354:	e2822002 	add	r2, r2, #2
  104358:	e3a01002 	mov	r1, #2
  10435c:	e58d2094 	str	r2, [sp, #148]	; 0x94
  104360:	e2833001 	add	r3, r3, #1
  104364:	e5881004 	str	r1, [r8, #4]
  104368:	e3530007 	cmp	r3, #7
  10436c:	e58d3090 	str	r3, [sp, #144]	; 0x90
  104370:	d2888008 	addle	r8, r8, #8
  104374:	ca00019a 	bgt	1049e4 <_vfprintf_r+0x1184>
  104378:	e59d3034 	ldr	r3, [sp, #52]	; 0x34
  10437c:	e3530080 	cmp	r3, #128	; 0x80
  104380:	0a0000fe 	beq	104780 <_vfprintf_r+0xf20>
  104384:	e59d302c 	ldr	r3, [sp, #44]	; 0x2c
  104388:	e0444003 	sub	r4, r4, r3
  10438c:	e3540000 	cmp	r4, #0
  104390:	da000034 	ble	104468 <_vfprintf_r+0xc08>
  104394:	e3540010 	cmp	r4, #16
  104398:	e59d3090 	ldr	r3, [sp, #144]	; 0x90
  10439c:	d51f66e4 	ldrle	r6, [pc, #-1764]	; 103cc0 <_vfprintf_r+0x460>
  1043a0:	da00001f 	ble	104424 <_vfprintf_r+0xbc4>
  1043a4:	e58d5034 	str	r5, [sp, #52]	; 0x34
  1043a8:	e3a0a010 	mov	sl, #16
  1043ac:	e51f66f4 	ldr	r6, [pc, #-1780]	; 103cc0 <_vfprintf_r+0x460>
  1043b0:	e1a01003 	mov	r1, r3
  1043b4:	e59db01c 	ldr	fp, [sp, #28]
  1043b8:	e59d5024 	ldr	r5, [sp, #36]	; 0x24
  1043bc:	ea000002 	b	1043cc <_vfprintf_r+0xb6c>
  1043c0:	e2444010 	sub	r4, r4, #16
  1043c4:	e3540010 	cmp	r4, #16
  1043c8:	da000013 	ble	10441c <_vfprintf_r+0xbbc>
  1043cc:	e2811001 	add	r1, r1, #1
  1043d0:	e2822010 	add	r2, r2, #16
  1043d4:	e3510007 	cmp	r1, #7
  1043d8:	e8880440 	stm	r8, {r6, sl}
  1043dc:	e58d1090 	str	r1, [sp, #144]	; 0x90
  1043e0:	d2888008 	addle	r8, r8, #8
  1043e4:	e58d2094 	str	r2, [sp, #148]	; 0x94
  1043e8:	dafffff4 	ble	1043c0 <_vfprintf_r+0xb60>
  1043ec:	e28d208c 	add	r2, sp, #140	; 0x8c
  1043f0:	e1a01005 	mov	r1, r5
  1043f4:	e1a0000b 	mov	r0, fp
  1043f8:	e28d80c0 	add	r8, sp, #192	; 0xc0
  1043fc:	eb00157c 	bl	1099f4 <__sprint_r>
  104400:	e3500000 	cmp	r0, #0
  104404:	1a0000db 	bne	104778 <_vfprintf_r+0xf18>
  104408:	e2444010 	sub	r4, r4, #16
  10440c:	e59d2094 	ldr	r2, [sp, #148]	; 0x94
  104410:	e3540010 	cmp	r4, #16
  104414:	e59d1090 	ldr	r1, [sp, #144]	; 0x90
  104418:	caffffeb 	bgt	1043cc <_vfprintf_r+0xb6c>
  10441c:	e59d5034 	ldr	r5, [sp, #52]	; 0x34
  104420:	e1a03001 	mov	r3, r1
  104424:	e2833001 	add	r3, r3, #1
  104428:	e0822004 	add	r2, r2, r4
  10442c:	e3530007 	cmp	r3, #7
  104430:	e5886000 	str	r6, [r8]
  104434:	e5884004 	str	r4, [r8, #4]
  104438:	d2888008 	addle	r8, r8, #8
  10443c:	e58d3090 	str	r3, [sp, #144]	; 0x90
  104440:	e58d2094 	str	r2, [sp, #148]	; 0x94
  104444:	da000007 	ble	104468 <_vfprintf_r+0xc08>
  104448:	e28d208c 	add	r2, sp, #140	; 0x8c
  10444c:	e59d1024 	ldr	r1, [sp, #36]	; 0x24
  104450:	e59d001c 	ldr	r0, [sp, #28]
  104454:	eb001566 	bl	1099f4 <__sprint_r>
  104458:	e3500000 	cmp	r0, #0
  10445c:	1a000144 	bne	104974 <_vfprintf_r+0x1114>
  104460:	e59d2094 	ldr	r2, [sp, #148]	; 0x94
  104464:	e28d80c0 	add	r8, sp, #192	; 0xc0
  104468:	e59d3018 	ldr	r3, [sp, #24]
  10446c:	e3130c01 	tst	r3, #256	; 0x100
  104470:	1a00005f 	bne	1045f4 <_vfprintf_r+0xd94>
  104474:	e59d3090 	ldr	r3, [sp, #144]	; 0x90
  104478:	e59d102c 	ldr	r1, [sp, #44]	; 0x2c
  10447c:	e59d0038 	ldr	r0, [sp, #56]	; 0x38
  104480:	e2833001 	add	r3, r3, #1
  104484:	e3530007 	cmp	r3, #7
  104488:	e0822001 	add	r2, r2, r1
  10448c:	e58d2094 	str	r2, [sp, #148]	; 0x94
  104490:	e5880000 	str	r0, [r8]
  104494:	e5881004 	str	r1, [r8, #4]
  104498:	e58d3090 	str	r3, [sp, #144]	; 0x90
  10449c:	ca000125 	bgt	104938 <_vfprintf_r+0x10d8>
  1044a0:	e2888008 	add	r8, r8, #8
  1044a4:	e59d3018 	ldr	r3, [sp, #24]
  1044a8:	e3130004 	tst	r3, #4
  1044ac:	0a000032 	beq	10457c <_vfprintf_r+0xd1c>
  1044b0:	e59d3028 	ldr	r3, [sp, #40]	; 0x28
  1044b4:	e0434007 	sub	r4, r3, r7
  1044b8:	e3540000 	cmp	r4, #0
  1044bc:	da00002e 	ble	10457c <_vfprintf_r+0xd1c>
  1044c0:	e3540010 	cmp	r4, #16
  1044c4:	e59d3090 	ldr	r3, [sp, #144]	; 0x90
  1044c8:	da00001c 	ble	104540 <_vfprintf_r+0xce0>
  1044cc:	e3a05010 	mov	r5, #16
  1044d0:	e59d601c 	ldr	r6, [sp, #28]
  1044d4:	e59da024 	ldr	sl, [sp, #36]	; 0x24
  1044d8:	e59db03c 	ldr	fp, [sp, #60]	; 0x3c
  1044dc:	ea000002 	b	1044ec <_vfprintf_r+0xc8c>
  1044e0:	e2444010 	sub	r4, r4, #16
  1044e4:	e3540010 	cmp	r4, #16
  1044e8:	da000014 	ble	104540 <_vfprintf_r+0xce0>
  1044ec:	e2833001 	add	r3, r3, #1
  1044f0:	e2822010 	add	r2, r2, #16
  1044f4:	e3530007 	cmp	r3, #7
  1044f8:	e588b000 	str	fp, [r8]
  1044fc:	e5885004 	str	r5, [r8, #4]
  104500:	d2888008 	addle	r8, r8, #8
  104504:	e58d3090 	str	r3, [sp, #144]	; 0x90
  104508:	e58d2094 	str	r2, [sp, #148]	; 0x94
  10450c:	dafffff3 	ble	1044e0 <_vfprintf_r+0xc80>
  104510:	e28d208c 	add	r2, sp, #140	; 0x8c
  104514:	e1a0100a 	mov	r1, sl
  104518:	e1a00006 	mov	r0, r6
  10451c:	e28d80c0 	add	r8, sp, #192	; 0xc0
  104520:	eb001533 	bl	1099f4 <__sprint_r>
  104524:	e3500000 	cmp	r0, #0
  104528:	1a000025 	bne	1045c4 <_vfprintf_r+0xd64>
  10452c:	e2444010 	sub	r4, r4, #16
  104530:	e59d2094 	ldr	r2, [sp, #148]	; 0x94
  104534:	e3540010 	cmp	r4, #16
  104538:	e59d3090 	ldr	r3, [sp, #144]	; 0x90
  10453c:	caffffea 	bgt	1044ec <_vfprintf_r+0xc8c>
  104540:	e2833001 	add	r3, r3, #1
  104544:	e0822004 	add	r2, r2, r4
  104548:	e3530007 	cmp	r3, #7
  10454c:	e58d3090 	str	r3, [sp, #144]	; 0x90
  104550:	e59d303c 	ldr	r3, [sp, #60]	; 0x3c
  104554:	e58d2094 	str	r2, [sp, #148]	; 0x94
  104558:	e8880018 	stm	r8, {r3, r4}
  10455c:	da000006 	ble	10457c <_vfprintf_r+0xd1c>
  104560:	e28d208c 	add	r2, sp, #140	; 0x8c
  104564:	e59d1024 	ldr	r1, [sp, #36]	; 0x24
  104568:	e59d001c 	ldr	r0, [sp, #28]
  10456c:	eb001520 	bl	1099f4 <__sprint_r>
  104570:	e3500000 	cmp	r0, #0
  104574:	1a0000fe 	bne	104974 <_vfprintf_r+0x1114>
  104578:	e59d2094 	ldr	r2, [sp, #148]	; 0x94
  10457c:	e59d3020 	ldr	r3, [sp, #32]
  104580:	e59d1028 	ldr	r1, [sp, #40]	; 0x28
  104584:	e1510007 	cmp	r1, r7
  104588:	a0833001 	addge	r3, r3, r1
  10458c:	b0833007 	addlt	r3, r3, r7
  104590:	e3520000 	cmp	r2, #0
  104594:	e58d3020 	str	r3, [sp, #32]
  104598:	1a0000ef 	bne	10495c <_vfprintf_r+0x10fc>
  10459c:	e3a03000 	mov	r3, #0
  1045a0:	e28d80c0 	add	r8, sp, #192	; 0xc0
  1045a4:	e58d3090 	str	r3, [sp, #144]	; 0x90
  1045a8:	eafffce9 	b	103954 <_vfprintf_r+0xf4>
  1045ac:	e59d3094 	ldr	r3, [sp, #148]	; 0x94
  1045b0:	e59da024 	ldr	sl, [sp, #36]	; 0x24
  1045b4:	e3530000 	cmp	r3, #0
  1045b8:	1a0003e8 	bne	105560 <_vfprintf_r+0x1d00>
  1045bc:	e3a03000 	mov	r3, #0
  1045c0:	e58d3090 	str	r3, [sp, #144]	; 0x90
  1045c4:	e59a3064 	ldr	r3, [sl, #100]	; 0x64
  1045c8:	e3130001 	tst	r3, #1
  1045cc:	e1da30bc 	ldrh	r3, [sl, #12]
  1045d0:	1a000001 	bne	1045dc <_vfprintf_r+0xd7c>
  1045d4:	e3130c02 	tst	r3, #512	; 0x200
  1045d8:	0a00018a 	beq	104c08 <_vfprintf_r+0x13a8>
  1045dc:	e3130040 	tst	r3, #64	; 0x40
  1045e0:	1afffe0a 	bne	103e10 <_vfprintf_r+0x5b0>
  1045e4:	e59d0020 	ldr	r0, [sp, #32]
  1045e8:	e28ddf41 	add	sp, sp, #260	; 0x104
  1045ec:	ecbd8b06 	vpop	{d8-d10}
  1045f0:	e8bd8ff0 	pop	{r4, r5, r6, r7, r8, r9, sl, fp, pc}
  1045f4:	e3550065 	cmp	r5, #101	; 0x65
  1045f8:	da00009b 	ble	10486c <_vfprintf_r+0x100c>
  1045fc:	eeb58b40 	vcmp.f64	d8, #0.0
  104600:	eef1fa10 	vmrs	APSR_nzcv, fpscr
  104604:	1a000101 	bne	104a10 <_vfprintf_r+0x11b0>
  104608:	e59d3090 	ldr	r3, [sp, #144]	; 0x90
  10460c:	e2822001 	add	r2, r2, #1
  104610:	e58d2094 	str	r2, [sp, #148]	; 0x94
  104614:	e30c285c 	movw	r2, #51292	; 0xc85c
  104618:	e3402010 	movt	r2, #16
  10461c:	e2833001 	add	r3, r3, #1
  104620:	e5882000 	str	r2, [r8]
  104624:	e3530007 	cmp	r3, #7
  104628:	e3a02001 	mov	r2, #1
  10462c:	e5882004 	str	r2, [r8, #4]
  104630:	d2888008 	addle	r8, r8, #8
  104634:	e58d3090 	str	r3, [sp, #144]	; 0x90
  104638:	ca00030e 	bgt	105278 <_vfprintf_r+0x1a18>
  10463c:	e59d3074 	ldr	r3, [sp, #116]	; 0x74
  104640:	e59d2044 	ldr	r2, [sp, #68]	; 0x44
  104644:	e1530002 	cmp	r3, r2
  104648:	ba000002 	blt	104658 <_vfprintf_r+0xdf8>
  10464c:	e59d3018 	ldr	r3, [sp, #24]
  104650:	e3130001 	tst	r3, #1
  104654:	0a0002c4 	beq	10516c <_vfprintf_r+0x190c>
  104658:	e59d104c 	ldr	r1, [sp, #76]	; 0x4c
  10465c:	e59d3090 	ldr	r3, [sp, #144]	; 0x90
  104660:	e59d2094 	ldr	r2, [sp, #148]	; 0x94
  104664:	e5881000 	str	r1, [r8]
  104668:	e59d1048 	ldr	r1, [sp, #72]	; 0x48
  10466c:	e2833001 	add	r3, r3, #1
  104670:	e3530007 	cmp	r3, #7
  104674:	e58d3090 	str	r3, [sp, #144]	; 0x90
  104678:	e0812002 	add	r2, r1, r2
  10467c:	e5881004 	str	r1, [r8, #4]
  104680:	e58d2094 	str	r2, [sp, #148]	; 0x94
  104684:	d2888008 	addle	r8, r8, #8
  104688:	ca00033d 	bgt	105384 <_vfprintf_r+0x1b24>
  10468c:	e59d3044 	ldr	r3, [sp, #68]	; 0x44
  104690:	e2434001 	sub	r4, r3, #1
  104694:	e3540000 	cmp	r4, #0
  104698:	daffff81 	ble	1044a4 <_vfprintf_r+0xc44>
  10469c:	e3540010 	cmp	r4, #16
  1046a0:	e59d3090 	ldr	r3, [sp, #144]	; 0x90
  1046a4:	da00014d 	ble	104be0 <_vfprintf_r+0x1380>
  1046a8:	e3a05010 	mov	r5, #16
  1046ac:	e51f69f4 	ldr	r6, [pc, #-2548]	; 103cc0 <_vfprintf_r+0x460>
  1046b0:	e59da01c 	ldr	sl, [sp, #28]
  1046b4:	e59db024 	ldr	fp, [sp, #36]	; 0x24
  1046b8:	ea000002 	b	1046c8 <_vfprintf_r+0xe68>
  1046bc:	e2444010 	sub	r4, r4, #16
  1046c0:	e3540010 	cmp	r4, #16
  1046c4:	da000146 	ble	104be4 <_vfprintf_r+0x1384>
  1046c8:	e2833001 	add	r3, r3, #1
  1046cc:	e2822010 	add	r2, r2, #16
  1046d0:	e3530007 	cmp	r3, #7
  1046d4:	e5886000 	str	r6, [r8]
  1046d8:	e5885004 	str	r5, [r8, #4]
  1046dc:	d2888008 	addle	r8, r8, #8
  1046e0:	e58d3090 	str	r3, [sp, #144]	; 0x90
  1046e4:	e58d2094 	str	r2, [sp, #148]	; 0x94
  1046e8:	dafffff3 	ble	1046bc <_vfprintf_r+0xe5c>
  1046ec:	e28d208c 	add	r2, sp, #140	; 0x8c
  1046f0:	e1a0100b 	mov	r1, fp
  1046f4:	e1a0000a 	mov	r0, sl
  1046f8:	e28d80c0 	add	r8, sp, #192	; 0xc0
  1046fc:	eb0014bc 	bl	1099f4 <__sprint_r>
  104700:	e3500000 	cmp	r0, #0
  104704:	1a0001de 	bne	104e84 <_vfprintf_r+0x1624>
  104708:	e59d2094 	ldr	r2, [sp, #148]	; 0x94
  10470c:	e59d3090 	ldr	r3, [sp, #144]	; 0x90
  104710:	eaffffe9 	b	1046bc <_vfprintf_r+0xe5c>
  104714:	e1a02001 	mov	r2, r1
  104718:	e2063007 	and	r3, r6, #7
  10471c:	e1a061a6 	lsr	r6, r6, #3
  104720:	e2833030 	add	r3, r3, #48	; 0x30
  104724:	e1866e87 	orr	r6, r6, r7, lsl #29
  104728:	e1a071a7 	lsr	r7, r7, #3
  10472c:	e5423001 	strb	r3, [r2, #-1]
  104730:	e1961007 	orrs	r1, r6, r7
  104734:	e2421001 	sub	r1, r2, #1
  104738:	1afffff5 	bne	104714 <_vfprintf_r+0xeb4>
  10473c:	e3530030 	cmp	r3, #48	; 0x30
  104740:	03a03000 	moveq	r3, #0
  104744:	120a3001 	andne	r3, sl, #1
  104748:	e3530000 	cmp	r3, #0
  10474c:	0a0002fd 	beq	105348 <_vfprintf_r+0x1ae8>
  104750:	e2423002 	sub	r3, r2, #2
  104754:	e28d00c0 	add	r0, sp, #192	; 0xc0
  104758:	e1a02003 	mov	r2, r3
  10475c:	e58d3038 	str	r3, [sp, #56]	; 0x38
  104760:	e0402002 	sub	r2, r0, r2
  104764:	e3a03030 	mov	r3, #48	; 0x30
  104768:	e58da018 	str	sl, [sp, #24]
  10476c:	e58d202c 	str	r2, [sp, #44]	; 0x2c
  104770:	e5413001 	strb	r3, [r1, #-1]
  104774:	eafffd2c 	b	103c2c <_vfprintf_r+0x3cc>
  104778:	e1a0a005 	mov	sl, r5
  10477c:	eaffff90 	b	1045c4 <_vfprintf_r+0xd64>
  104780:	e59d3028 	ldr	r3, [sp, #40]	; 0x28
  104784:	e043a007 	sub	sl, r3, r7
  104788:	e35a0000 	cmp	sl, #0
  10478c:	dafffefc 	ble	104384 <_vfprintf_r+0xb24>
  104790:	e35a0010 	cmp	sl, #16
  104794:	e59d3090 	ldr	r3, [sp, #144]	; 0x90
  104798:	d51f6ae0 	ldrle	r6, [pc, #-2784]	; 103cc0 <_vfprintf_r+0x460>
  10479c:	da000021 	ble	104828 <_vfprintf_r+0xfc8>
  1047a0:	e58d5034 	str	r5, [sp, #52]	; 0x34
  1047a4:	e3a0b010 	mov	fp, #16
  1047a8:	e58d4054 	str	r4, [sp, #84]	; 0x54
  1047ac:	e1a01003 	mov	r1, r3
  1047b0:	e51f6af8 	ldr	r6, [pc, #-2808]	; 103cc0 <_vfprintf_r+0x460>
  1047b4:	e59d401c 	ldr	r4, [sp, #28]
  1047b8:	e59d5024 	ldr	r5, [sp, #36]	; 0x24
  1047bc:	ea000002 	b	1047cc <_vfprintf_r+0xf6c>
  1047c0:	e24aa010 	sub	sl, sl, #16
  1047c4:	e35a0010 	cmp	sl, #16
  1047c8:	da000013 	ble	10481c <_vfprintf_r+0xfbc>
  1047cc:	e2811001 	add	r1, r1, #1
  1047d0:	e2822010 	add	r2, r2, #16
  1047d4:	e3510007 	cmp	r1, #7
  1047d8:	e8880840 	stm	r8, {r6, fp}
  1047dc:	e58d1090 	str	r1, [sp, #144]	; 0x90
  1047e0:	d2888008 	addle	r8, r8, #8
  1047e4:	e58d2094 	str	r2, [sp, #148]	; 0x94
  1047e8:	dafffff4 	ble	1047c0 <_vfprintf_r+0xf60>
  1047ec:	e28d208c 	add	r2, sp, #140	; 0x8c
  1047f0:	e1a01005 	mov	r1, r5
  1047f4:	e1a00004 	mov	r0, r4
  1047f8:	e28d80c0 	add	r8, sp, #192	; 0xc0
  1047fc:	eb00147c 	bl	1099f4 <__sprint_r>
  104800:	e3500000 	cmp	r0, #0
  104804:	1affffdb 	bne	104778 <_vfprintf_r+0xf18>
  104808:	e24aa010 	sub	sl, sl, #16
  10480c:	e59d2094 	ldr	r2, [sp, #148]	; 0x94
  104810:	e35a0010 	cmp	sl, #16
  104814:	e59d1090 	ldr	r1, [sp, #144]	; 0x90
  104818:	caffffeb 	bgt	1047cc <_vfprintf_r+0xf6c>
  10481c:	e59d5034 	ldr	r5, [sp, #52]	; 0x34
  104820:	e1a03001 	mov	r3, r1
  104824:	e59d4054 	ldr	r4, [sp, #84]	; 0x54
  104828:	e2833001 	add	r3, r3, #1
  10482c:	e082200a 	add	r2, r2, sl
  104830:	e3530007 	cmp	r3, #7
  104834:	e8880440 	stm	r8, {r6, sl}
  104838:	e58d3090 	str	r3, [sp, #144]	; 0x90
  10483c:	d2888008 	addle	r8, r8, #8
  104840:	e58d2094 	str	r2, [sp, #148]	; 0x94
  104844:	dafffece 	ble	104384 <_vfprintf_r+0xb24>
  104848:	e28d208c 	add	r2, sp, #140	; 0x8c
  10484c:	e59d1024 	ldr	r1, [sp, #36]	; 0x24
  104850:	e59d001c 	ldr	r0, [sp, #28]
  104854:	eb001466 	bl	1099f4 <__sprint_r>
  104858:	e3500000 	cmp	r0, #0
  10485c:	1a000044 	bne	104974 <_vfprintf_r+0x1114>
  104860:	e59d2094 	ldr	r2, [sp, #148]	; 0x94
  104864:	e28d80c0 	add	r8, sp, #192	; 0xc0
  104868:	eafffec5 	b	104384 <_vfprintf_r+0xb24>
  10486c:	e59d3044 	ldr	r3, [sp, #68]	; 0x44
  104870:	e3530001 	cmp	r3, #1
  104874:	da00013f 	ble	104d78 <_vfprintf_r+0x1518>
  104878:	e59d3090 	ldr	r3, [sp, #144]	; 0x90
  10487c:	e3a01001 	mov	r1, #1
  104880:	e59d0038 	ldr	r0, [sp, #56]	; 0x38
  104884:	e2822001 	add	r2, r2, #1
  104888:	e5881004 	str	r1, [r8, #4]
  10488c:	e0833001 	add	r3, r3, r1
  104890:	e58d2094 	str	r2, [sp, #148]	; 0x94
  104894:	e3530007 	cmp	r3, #7
  104898:	e5880000 	str	r0, [r8]
  10489c:	e58d3090 	str	r3, [sp, #144]	; 0x90
  1048a0:	d2888008 	addle	r8, r8, #8
  1048a4:	ca00014b 	bgt	104dd8 <_vfprintf_r+0x1578>
  1048a8:	e59d1048 	ldr	r1, [sp, #72]	; 0x48
  1048ac:	e2833001 	add	r3, r3, #1
  1048b0:	e59d004c 	ldr	r0, [sp, #76]	; 0x4c
  1048b4:	e3530007 	cmp	r3, #7
  1048b8:	e58d3090 	str	r3, [sp, #144]	; 0x90
  1048bc:	e0812002 	add	r2, r1, r2
  1048c0:	e8880003 	stm	r8, {r0, r1}
  1048c4:	d2888008 	addle	r8, r8, #8
  1048c8:	e58d2094 	str	r2, [sp, #148]	; 0x94
  1048cc:	ca000159 	bgt	104e38 <_vfprintf_r+0x15d8>
  1048d0:	eeb58b40 	vcmp.f64	d8, #0.0
  1048d4:	eef1fa10 	vmrs	APSR_nzcv, fpscr
  1048d8:	0a000086 	beq	104af8 <_vfprintf_r+0x1298>
  1048dc:	e59d1044 	ldr	r1, [sp, #68]	; 0x44
  1048e0:	e2833001 	add	r3, r3, #1
  1048e4:	e59d0038 	ldr	r0, [sp, #56]	; 0x38
  1048e8:	e3530007 	cmp	r3, #7
  1048ec:	e58d3090 	str	r3, [sp, #144]	; 0x90
  1048f0:	e2411001 	sub	r1, r1, #1
  1048f4:	e2800001 	add	r0, r0, #1
  1048f8:	e0822001 	add	r2, r2, r1
  1048fc:	e5880000 	str	r0, [r8]
  104900:	e58d2094 	str	r2, [sp, #148]	; 0x94
  104904:	e5881004 	str	r1, [r8, #4]
  104908:	ca000128 	bgt	104db0 <_vfprintf_r+0x1550>
  10490c:	e2888008 	add	r8, r8, #8
  104910:	e59d0060 	ldr	r0, [sp, #96]	; 0x60
  104914:	e2833001 	add	r3, r3, #1
  104918:	e3530007 	cmp	r3, #7
  10491c:	e28d107c 	add	r1, sp, #124	; 0x7c
  104920:	e58d3090 	str	r3, [sp, #144]	; 0x90
  104924:	e0802002 	add	r2, r0, r2
  104928:	e1a03000 	mov	r3, r0
  10492c:	e58d2094 	str	r2, [sp, #148]	; 0x94
  104930:	e888000a 	stm	r8, {r1, r3}
  104934:	dafffed9 	ble	1044a0 <_vfprintf_r+0xc40>
  104938:	e28d208c 	add	r2, sp, #140	; 0x8c
  10493c:	e59d1024 	ldr	r1, [sp, #36]	; 0x24
  104940:	e59d001c 	ldr	r0, [sp, #28]
  104944:	eb00142a 	bl	1099f4 <__sprint_r>
  104948:	e3500000 	cmp	r0, #0
  10494c:	1a000008 	bne	104974 <_vfprintf_r+0x1114>
  104950:	e59d2094 	ldr	r2, [sp, #148]	; 0x94
  104954:	e28d80c0 	add	r8, sp, #192	; 0xc0
  104958:	eafffed1 	b	1044a4 <_vfprintf_r+0xc44>
  10495c:	e28d208c 	add	r2, sp, #140	; 0x8c
  104960:	e59d1024 	ldr	r1, [sp, #36]	; 0x24
  104964:	e59d001c 	ldr	r0, [sp, #28]
  104968:	eb001421 	bl	1099f4 <__sprint_r>
  10496c:	e3500000 	cmp	r0, #0
  104970:	0affff09 	beq	10459c <_vfprintf_r+0xd3c>
  104974:	e59da024 	ldr	sl, [sp, #36]	; 0x24
  104978:	eaffff11 	b	1045c4 <_vfprintf_r+0xd64>
  10497c:	e58d302c 	str	r3, [sp, #44]	; 0x2c
  104980:	e28d30c0 	add	r3, sp, #192	; 0xc0
  104984:	e58d3038 	str	r3, [sp, #56]	; 0x38
  104988:	eafffca7 	b	103c2c <_vfprintf_r+0x3cc>
  10498c:	e3520001 	cmp	r2, #1
  104990:	e1a0a001 	mov	sl, r1
  104994:	1afffd57 	bne	103ef8 <_vfprintf_r+0x698>
  104998:	e3570000 	cmp	r7, #0
  10499c:	03560009 	cmpeq	r6, #9
  1049a0:	8a000139 	bhi	104e8c <_vfprintf_r+0x162c>
  1049a4:	e28d3c01 	add	r3, sp, #256	; 0x100
  1049a8:	e2866030 	add	r6, r6, #48	; 0x30
  1049ac:	e5636041 	strb	r6, [r3, #-65]!	; 0xffffffbf
  1049b0:	e58da018 	str	sl, [sp, #24]
  1049b4:	e58d202c 	str	r2, [sp, #44]	; 0x2c
  1049b8:	e58d3038 	str	r3, [sp, #56]	; 0x38
  1049bc:	eafffc9a 	b	103c2c <_vfprintf_r+0x3cc>
  1049c0:	e28d208c 	add	r2, sp, #140	; 0x8c
  1049c4:	e59d1024 	ldr	r1, [sp, #36]	; 0x24
  1049c8:	e59d001c 	ldr	r0, [sp, #28]
  1049cc:	eb001408 	bl	1099f4 <__sprint_r>
  1049d0:	e3500000 	cmp	r0, #0
  1049d4:	1affffe6 	bne	104974 <_vfprintf_r+0x1114>
  1049d8:	e59d2094 	ldr	r2, [sp, #148]	; 0x94
  1049dc:	e28d80c0 	add	r8, sp, #192	; 0xc0
  1049e0:	eafffe56 	b	104340 <_vfprintf_r+0xae0>
  1049e4:	e28d208c 	add	r2, sp, #140	; 0x8c
  1049e8:	e59d1024 	ldr	r1, [sp, #36]	; 0x24
  1049ec:	e59d001c 	ldr	r0, [sp, #28]
  1049f0:	eb0013ff 	bl	1099f4 <__sprint_r>
  1049f4:	e3500000 	cmp	r0, #0
  1049f8:	1affffdd 	bne	104974 <_vfprintf_r+0x1114>
  1049fc:	e59d2094 	ldr	r2, [sp, #148]	; 0x94
  104a00:	e28d80c0 	add	r8, sp, #192	; 0xc0
  104a04:	eafffe5b 	b	104378 <_vfprintf_r+0xb18>
  104a08:	e3a02002 	mov	r2, #2
  104a0c:	eafffc6f 	b	103bd0 <_vfprintf_r+0x370>
  104a10:	e59d4074 	ldr	r4, [sp, #116]	; 0x74
  104a14:	e3540000 	cmp	r4, #0
  104a18:	da00021e 	ble	105298 <_vfprintf_r+0x1a38>
  104a1c:	e59d3040 	ldr	r3, [sp, #64]	; 0x40
  104a20:	e59d1044 	ldr	r1, [sp, #68]	; 0x44
  104a24:	e1530001 	cmp	r3, r1
  104a28:	b1a04003 	movlt	r4, r3
  104a2c:	a1a04001 	movge	r4, r1
  104a30:	e3540000 	cmp	r4, #0
  104a34:	da00000a 	ble	104a64 <_vfprintf_r+0x1204>
  104a38:	e59d3090 	ldr	r3, [sp, #144]	; 0x90
  104a3c:	e0822004 	add	r2, r2, r4
  104a40:	e59d1038 	ldr	r1, [sp, #56]	; 0x38
  104a44:	e5884004 	str	r4, [r8, #4]
  104a48:	e2833001 	add	r3, r3, #1
  104a4c:	e58d2094 	str	r2, [sp, #148]	; 0x94
  104a50:	e3530007 	cmp	r3, #7
  104a54:	e5881000 	str	r1, [r8]
  104a58:	e58d3090 	str	r3, [sp, #144]	; 0x90
  104a5c:	d2888008 	addle	r8, r8, #8
  104a60:	ca000293 	bgt	1054b4 <_vfprintf_r+0x1c54>
  104a64:	e59d3040 	ldr	r3, [sp, #64]	; 0x40
  104a68:	e3540000 	cmp	r4, #0
  104a6c:	a0433004 	subge	r3, r3, r4
  104a70:	e3530000 	cmp	r3, #0
  104a74:	e1a04003 	mov	r4, r3
  104a78:	da000077 	ble	104c5c <_vfprintf_r+0x13fc>
  104a7c:	e3540010 	cmp	r4, #16
  104a80:	e59d3090 	ldr	r3, [sp, #144]	; 0x90
  104a84:	d51f6dcc 	ldrle	r6, [pc, #-3532]	; 103cc0 <_vfprintf_r+0x460>
  104a88:	da000062 	ble	104c18 <_vfprintf_r+0x13b8>
  104a8c:	e3a05010 	mov	r5, #16
  104a90:	e51f6dd8 	ldr	r6, [pc, #-3544]	; 103cc0 <_vfprintf_r+0x460>
  104a94:	e59da01c 	ldr	sl, [sp, #28]
  104a98:	e59db024 	ldr	fp, [sp, #36]	; 0x24
  104a9c:	ea000002 	b	104aac <_vfprintf_r+0x124c>
  104aa0:	e2444010 	sub	r4, r4, #16
  104aa4:	e3540010 	cmp	r4, #16
  104aa8:	da00005a 	ble	104c18 <_vfprintf_r+0x13b8>
  104aac:	e2833001 	add	r3, r3, #1
  104ab0:	e2822010 	add	r2, r2, #16
  104ab4:	e3530007 	cmp	r3, #7
  104ab8:	e5886000 	str	r6, [r8]
  104abc:	e5885004 	str	r5, [r8, #4]
  104ac0:	d2888008 	addle	r8, r8, #8
  104ac4:	e58d3090 	str	r3, [sp, #144]	; 0x90
  104ac8:	e58d2094 	str	r2, [sp, #148]	; 0x94
  104acc:	dafffff3 	ble	104aa0 <_vfprintf_r+0x1240>
  104ad0:	e28d208c 	add	r2, sp, #140	; 0x8c
  104ad4:	e1a0100b 	mov	r1, fp
  104ad8:	e1a0000a 	mov	r0, sl
  104adc:	e28d80c0 	add	r8, sp, #192	; 0xc0
  104ae0:	eb0013c3 	bl	1099f4 <__sprint_r>
  104ae4:	e3500000 	cmp	r0, #0
  104ae8:	1a0000e5 	bne	104e84 <_vfprintf_r+0x1624>
  104aec:	e59d2094 	ldr	r2, [sp, #148]	; 0x94
  104af0:	e59d3090 	ldr	r3, [sp, #144]	; 0x90
  104af4:	eaffffe9 	b	104aa0 <_vfprintf_r+0x1240>
  104af8:	e59d1044 	ldr	r1, [sp, #68]	; 0x44
  104afc:	e2414001 	sub	r4, r1, #1
  104b00:	e3540000 	cmp	r4, #0
  104b04:	daffff81 	ble	104910 <_vfprintf_r+0x10b0>
  104b08:	e3540010 	cmp	r4, #16
  104b0c:	e51f6e54 	ldr	r6, [pc, #-3668]	; 103cc0 <_vfprintf_r+0x460>
  104b10:	da0000d2 	ble	104e60 <_vfprintf_r+0x1600>
  104b14:	e3a05010 	mov	r5, #16
  104b18:	e59da01c 	ldr	sl, [sp, #28]
  104b1c:	e59db024 	ldr	fp, [sp, #36]	; 0x24
  104b20:	ea000002 	b	104b30 <_vfprintf_r+0x12d0>
  104b24:	e2444010 	sub	r4, r4, #16
  104b28:	e3540010 	cmp	r4, #16
  104b2c:	da0000cb 	ble	104e60 <_vfprintf_r+0x1600>
  104b30:	e2833001 	add	r3, r3, #1
  104b34:	e2822010 	add	r2, r2, #16
  104b38:	e3530007 	cmp	r3, #7
  104b3c:	e5886000 	str	r6, [r8]
  104b40:	e5885004 	str	r5, [r8, #4]
  104b44:	d2888008 	addle	r8, r8, #8
  104b48:	e58d3090 	str	r3, [sp, #144]	; 0x90
  104b4c:	e58d2094 	str	r2, [sp, #148]	; 0x94
  104b50:	dafffff3 	ble	104b24 <_vfprintf_r+0x12c4>
  104b54:	e28d208c 	add	r2, sp, #140	; 0x8c
  104b58:	e1a0100b 	mov	r1, fp
  104b5c:	e1a0000a 	mov	r0, sl
  104b60:	e28d80c0 	add	r8, sp, #192	; 0xc0
  104b64:	eb0013a2 	bl	1099f4 <__sprint_r>
  104b68:	e3500000 	cmp	r0, #0
  104b6c:	1a0000c4 	bne	104e84 <_vfprintf_r+0x1624>
  104b70:	e59d2094 	ldr	r2, [sp, #148]	; 0x94
  104b74:	e59d3090 	ldr	r3, [sp, #144]	; 0x90
  104b78:	eaffffe9 	b	104b24 <_vfprintf_r+0x12c4>
  104b7c:	e59d3030 	ldr	r3, [sp, #48]	; 0x30
  104b80:	e1a02007 	mov	r2, r7
  104b84:	e3a07000 	mov	r7, #0
  104b88:	e5936000 	ldr	r6, [r3]
  104b8c:	e2833004 	add	r3, r3, #4
  104b90:	e58d3030 	str	r3, [sp, #48]	; 0x30
  104b94:	eafffc0d 	b	103bd0 <_vfprintf_r+0x370>
  104b98:	e5936000 	ldr	r6, [r3]
  104b9c:	e2833004 	add	r3, r3, #4
  104ba0:	e58d3030 	str	r3, [sp, #48]	; 0x30
  104ba4:	e1a02006 	mov	r2, r6
  104ba8:	e1a07fc6 	asr	r7, r6, #31
  104bac:	e1a03007 	mov	r3, r7
  104bb0:	eafffcc7 	b	103ed4 <_vfprintf_r+0x674>
  104bb4:	e5936000 	ldr	r6, [r3]
  104bb8:	e2833004 	add	r3, r3, #4
  104bbc:	e58d3030 	str	r3, [sp, #48]	; 0x30
  104bc0:	e3a07000 	mov	r7, #0
  104bc4:	eafffd26 	b	104064 <_vfprintf_r+0x804>
  104bc8:	e5936000 	ldr	r6, [r3]
  104bcc:	e2833004 	add	r3, r3, #4
  104bd0:	e3a02001 	mov	r2, #1
  104bd4:	e58d3030 	str	r3, [sp, #48]	; 0x30
  104bd8:	e3a07000 	mov	r7, #0
  104bdc:	eafffbfb 	b	103bd0 <_vfprintf_r+0x370>
  104be0:	e51f6f28 	ldr	r6, [pc, #-3880]	; 103cc0 <_vfprintf_r+0x460>
  104be4:	e2833001 	add	r3, r3, #1
  104be8:	e0822004 	add	r2, r2, r4
  104bec:	e3530007 	cmp	r3, #7
  104bf0:	e58d3090 	str	r3, [sp, #144]	; 0x90
  104bf4:	e58d2094 	str	r2, [sp, #148]	; 0x94
  104bf8:	e5886000 	str	r6, [r8]
  104bfc:	e5884004 	str	r4, [r8, #4]
  104c00:	dafffe26 	ble	1044a0 <_vfprintf_r+0xc40>
  104c04:	eaffff4b 	b	104938 <_vfprintf_r+0x10d8>
  104c08:	e28a0058 	add	r0, sl, #88	; 0x58
  104c0c:	eb001c92 	bl	10be5c <__generic_gxx_recursive_mutex_unlock>
  104c10:	e1da30bc 	ldrh	r3, [sl, #12]
  104c14:	eafffe70 	b	1045dc <_vfprintf_r+0xd7c>
  104c18:	e2833001 	add	r3, r3, #1
  104c1c:	e0822004 	add	r2, r2, r4
  104c20:	e3530007 	cmp	r3, #7
  104c24:	e5886000 	str	r6, [r8]
  104c28:	e5884004 	str	r4, [r8, #4]
  104c2c:	d2888008 	addle	r8, r8, #8
  104c30:	e58d3090 	str	r3, [sp, #144]	; 0x90
  104c34:	e58d2094 	str	r2, [sp, #148]	; 0x94
  104c38:	da000007 	ble	104c5c <_vfprintf_r+0x13fc>
  104c3c:	e28d208c 	add	r2, sp, #140	; 0x8c
  104c40:	e59d1024 	ldr	r1, [sp, #36]	; 0x24
  104c44:	e59d001c 	ldr	r0, [sp, #28]
  104c48:	eb001369 	bl	1099f4 <__sprint_r>
  104c4c:	e3500000 	cmp	r0, #0
  104c50:	1affff47 	bne	104974 <_vfprintf_r+0x1114>
  104c54:	e59d2094 	ldr	r2, [sp, #148]	; 0x94
  104c58:	e28d80c0 	add	r8, sp, #192	; 0xc0
  104c5c:	e59d1074 	ldr	r1, [sp, #116]	; 0x74
  104c60:	e59d3044 	ldr	r3, [sp, #68]	; 0x44
  104c64:	e1510003 	cmp	r1, r3
  104c68:	aa00013b 	bge	10515c <_vfprintf_r+0x18fc>
  104c6c:	e59d3090 	ldr	r3, [sp, #144]	; 0x90
  104c70:	e59d0048 	ldr	r0, [sp, #72]	; 0x48
  104c74:	e59dc04c 	ldr	ip, [sp, #76]	; 0x4c
  104c78:	e2833001 	add	r3, r3, #1
  104c7c:	e3530007 	cmp	r3, #7
  104c80:	e0822000 	add	r2, r2, r0
  104c84:	e588c000 	str	ip, [r8]
  104c88:	e5880004 	str	r0, [r8, #4]
  104c8c:	d2888008 	addle	r8, r8, #8
  104c90:	e58d2094 	str	r2, [sp, #148]	; 0x94
  104c94:	e58d3090 	str	r3, [sp, #144]	; 0x90
  104c98:	ca000141 	bgt	1051a4 <_vfprintf_r+0x1944>
  104c9c:	e59d3044 	ldr	r3, [sp, #68]	; 0x44
  104ca0:	e59dc040 	ldr	ip, [sp, #64]	; 0x40
  104ca4:	e0431001 	sub	r1, r3, r1
  104ca8:	e043400c 	sub	r4, r3, ip
  104cac:	e1540001 	cmp	r4, r1
  104cb0:	a1a04001 	movge	r4, r1
  104cb4:	e3540000 	cmp	r4, #0
  104cb8:	da00000b 	ble	104cec <_vfprintf_r+0x148c>
  104cbc:	e59de038 	ldr	lr, [sp, #56]	; 0x38
  104cc0:	e0822004 	add	r2, r2, r4
  104cc4:	e59d0090 	ldr	r0, [sp, #144]	; 0x90
  104cc8:	e5884004 	str	r4, [r8, #4]
  104ccc:	e08e300c 	add	r3, lr, ip
  104cd0:	e58d2094 	str	r2, [sp, #148]	; 0x94
  104cd4:	e5883000 	str	r3, [r8]
  104cd8:	e2803001 	add	r3, r0, #1
  104cdc:	e3530007 	cmp	r3, #7
  104ce0:	e58d3090 	str	r3, [sp, #144]	; 0x90
  104ce4:	d2888008 	addle	r8, r8, #8
  104ce8:	ca000121 	bgt	105174 <_vfprintf_r+0x1914>
  104cec:	e3540000 	cmp	r4, #0
  104cf0:	a0414004 	subge	r4, r1, r4
  104cf4:	b1a04001 	movlt	r4, r1
  104cf8:	e3540000 	cmp	r4, #0
  104cfc:	dafffde8 	ble	1044a4 <_vfprintf_r+0xc44>
  104d00:	e3540010 	cmp	r4, #16
  104d04:	e59d3090 	ldr	r3, [sp, #144]	; 0x90
  104d08:	daffffb4 	ble	104be0 <_vfprintf_r+0x1380>
  104d0c:	e3a05010 	mov	r5, #16
  104d10:	e59f6a74 	ldr	r6, [pc, #2676]	; 10578c <_vfprintf_r+0x1f2c>
  104d14:	e59da01c 	ldr	sl, [sp, #28]
  104d18:	e59db024 	ldr	fp, [sp, #36]	; 0x24
  104d1c:	ea000002 	b	104d2c <_vfprintf_r+0x14cc>
  104d20:	e2444010 	sub	r4, r4, #16
  104d24:	e3540010 	cmp	r4, #16
  104d28:	daffffad 	ble	104be4 <_vfprintf_r+0x1384>
  104d2c:	e2833001 	add	r3, r3, #1
  104d30:	e2822010 	add	r2, r2, #16
  104d34:	e3530007 	cmp	r3, #7
  104d38:	e5886000 	str	r6, [r8]
  104d3c:	e5885004 	str	r5, [r8, #4]
  104d40:	d2888008 	addle	r8, r8, #8
  104d44:	e58d3090 	str	r3, [sp, #144]	; 0x90
  104d48:	e58d2094 	str	r2, [sp, #148]	; 0x94
  104d4c:	dafffff3 	ble	104d20 <_vfprintf_r+0x14c0>
  104d50:	e28d208c 	add	r2, sp, #140	; 0x8c
  104d54:	e1a0100b 	mov	r1, fp
  104d58:	e1a0000a 	mov	r0, sl
  104d5c:	e28d80c0 	add	r8, sp, #192	; 0xc0
  104d60:	eb001323 	bl	1099f4 <__sprint_r>
  104d64:	e3500000 	cmp	r0, #0
  104d68:	1a000045 	bne	104e84 <_vfprintf_r+0x1624>
  104d6c:	e59d2094 	ldr	r2, [sp, #148]	; 0x94
  104d70:	e59d3090 	ldr	r3, [sp, #144]	; 0x90
  104d74:	eaffffe9 	b	104d20 <_vfprintf_r+0x14c0>
  104d78:	e59d3018 	ldr	r3, [sp, #24]
  104d7c:	e3130001 	tst	r3, #1
  104d80:	1afffebc 	bne	104878 <_vfprintf_r+0x1018>
  104d84:	e59d3090 	ldr	r3, [sp, #144]	; 0x90
  104d88:	e3a01001 	mov	r1, #1
  104d8c:	e59d0038 	ldr	r0, [sp, #56]	; 0x38
  104d90:	e2822001 	add	r2, r2, #1
  104d94:	e58d2094 	str	r2, [sp, #148]	; 0x94
  104d98:	e0833001 	add	r3, r3, r1
  104d9c:	e5881004 	str	r1, [r8, #4]
  104da0:	e3530007 	cmp	r3, #7
  104da4:	e5880000 	str	r0, [r8]
  104da8:	e58d3090 	str	r3, [sp, #144]	; 0x90
  104dac:	dafffed6 	ble	10490c <_vfprintf_r+0x10ac>
  104db0:	e28d208c 	add	r2, sp, #140	; 0x8c
  104db4:	e59d1024 	ldr	r1, [sp, #36]	; 0x24
  104db8:	e59d001c 	ldr	r0, [sp, #28]
  104dbc:	eb00130c 	bl	1099f4 <__sprint_r>
  104dc0:	e3500000 	cmp	r0, #0
  104dc4:	1afffeea 	bne	104974 <_vfprintf_r+0x1114>
  104dc8:	e59d2094 	ldr	r2, [sp, #148]	; 0x94
  104dcc:	e28d80c0 	add	r8, sp, #192	; 0xc0
  104dd0:	e59d3090 	ldr	r3, [sp, #144]	; 0x90
  104dd4:	eafffecd 	b	104910 <_vfprintf_r+0x10b0>
  104dd8:	e28d208c 	add	r2, sp, #140	; 0x8c
  104ddc:	e59d1024 	ldr	r1, [sp, #36]	; 0x24
  104de0:	e59d001c 	ldr	r0, [sp, #28]
  104de4:	eb001302 	bl	1099f4 <__sprint_r>
  104de8:	e3500000 	cmp	r0, #0
  104dec:	1afffee0 	bne	104974 <_vfprintf_r+0x1114>
  104df0:	e59d2094 	ldr	r2, [sp, #148]	; 0x94
  104df4:	e28d80c0 	add	r8, sp, #192	; 0xc0
  104df8:	e59d3090 	ldr	r3, [sp, #144]	; 0x90
  104dfc:	eafffea9 	b	1048a8 <_vfprintf_r+0x1048>
  104e00:	e2833007 	add	r3, r3, #7
  104e04:	e3c31007 	bic	r1, r3, #7
  104e08:	e1c120d0 	ldrd	r2, [r1]
  104e0c:	e2811008 	add	r1, r1, #8
  104e10:	e58d1030 	str	r1, [sp, #48]	; 0x30
  104e14:	e1a06002 	mov	r6, r2
  104e18:	e1a07003 	mov	r7, r3
  104e1c:	eafffc2c 	b	103ed4 <_vfprintf_r+0x674>
  104e20:	e2833007 	add	r3, r3, #7
  104e24:	e3c33007 	bic	r3, r3, #7
  104e28:	e2832008 	add	r2, r3, #8
  104e2c:	e1c360d0 	ldrd	r6, [r3]
  104e30:	e58d2030 	str	r2, [sp, #48]	; 0x30
  104e34:	eafffc8a 	b	104064 <_vfprintf_r+0x804>
  104e38:	e28d208c 	add	r2, sp, #140	; 0x8c
  104e3c:	e59d1024 	ldr	r1, [sp, #36]	; 0x24
  104e40:	e59d001c 	ldr	r0, [sp, #28]
  104e44:	eb0012ea 	bl	1099f4 <__sprint_r>
  104e48:	e3500000 	cmp	r0, #0
  104e4c:	1afffec8 	bne	104974 <_vfprintf_r+0x1114>
  104e50:	e59d2094 	ldr	r2, [sp, #148]	; 0x94
  104e54:	e28d80c0 	add	r8, sp, #192	; 0xc0
  104e58:	e59d3090 	ldr	r3, [sp, #144]	; 0x90
  104e5c:	eafffe9b 	b	1048d0 <_vfprintf_r+0x1070>
  104e60:	e2833001 	add	r3, r3, #1
  104e64:	e0822004 	add	r2, r2, r4
  104e68:	e3530007 	cmp	r3, #7
  104e6c:	e58d3090 	str	r3, [sp, #144]	; 0x90
  104e70:	e58d2094 	str	r2, [sp, #148]	; 0x94
  104e74:	e5886000 	str	r6, [r8]
  104e78:	e5884004 	str	r4, [r8, #4]
  104e7c:	dafffea2 	ble	10490c <_vfprintf_r+0x10ac>
  104e80:	eaffffca 	b	104db0 <_vfprintf_r+0x1550>
  104e84:	e1a0a00b 	mov	sl, fp
  104e88:	eafffdcd 	b	1045c4 <_vfprintf_r+0xd64>
  104e8c:	e28d30c0 	add	r3, sp, #192	; 0xc0
  104e90:	e58db018 	str	fp, [sp, #24]
  104e94:	e1a0b008 	mov	fp, r8
  104e98:	e1a08004 	mov	r8, r4
  104e9c:	e1a04003 	mov	r4, r3
  104ea0:	e1a00006 	mov	r0, r6
  104ea4:	e1a01007 	mov	r1, r7
  104ea8:	e3a0200a 	mov	r2, #10
  104eac:	e3a03000 	mov	r3, #0
  104eb0:	eb001b84 	bl	10bcc8 <__aeabi_uldivmod>
  104eb4:	e2822030 	add	r2, r2, #48	; 0x30
  104eb8:	e1a00006 	mov	r0, r6
  104ebc:	e1a01007 	mov	r1, r7
  104ec0:	e5642001 	strb	r2, [r4, #-1]!
  104ec4:	e3a03000 	mov	r3, #0
  104ec8:	e3a0200a 	mov	r2, #10
  104ecc:	eb001b7d 	bl	10bcc8 <__aeabi_uldivmod>
  104ed0:	e1a06000 	mov	r6, r0
  104ed4:	e1a07001 	mov	r7, r1
  104ed8:	e1963007 	orrs	r3, r6, r7
  104edc:	1affffef 	bne	104ea0 <_vfprintf_r+0x1640>
  104ee0:	e1a03004 	mov	r3, r4
  104ee4:	e28d20c0 	add	r2, sp, #192	; 0xc0
  104ee8:	e0423003 	sub	r3, r2, r3
  104eec:	e58d4038 	str	r4, [sp, #56]	; 0x38
  104ef0:	e58d302c 	str	r3, [sp, #44]	; 0x2c
  104ef4:	e1a04008 	mov	r4, r8
  104ef8:	e1a0800b 	mov	r8, fp
  104efc:	e59db018 	ldr	fp, [sp, #24]
  104f00:	e58da018 	str	sl, [sp, #24]
  104f04:	eafffb48 	b	103c2c <_vfprintf_r+0x3cc>
  104f08:	e3a0b02d 	mov	fp, #45	; 0x2d
  104f0c:	e2766000 	rsbs	r6, r6, #0
  104f10:	e2e77000 	rsc	r7, r7, #0
  104f14:	e5cdb06f 	strb	fp, [sp, #111]	; 0x6f
  104f18:	e3a02001 	mov	r2, #1
  104f1c:	eafffb2e 	b	103bdc <_vfprintf_r+0x37c>
  104f20:	eeb48b48 	vcmp.f64	d8, d8
  104f24:	eef1fa10 	vmrs	APSR_nzcv, fpscr
  104f28:	6a0001e9 	bvs	1056d4 <_vfprintf_r+0x1e74>
  104f2c:	e3740001 	cmn	r4, #1
  104f30:	e3c57020 	bic	r7, r5, #32
  104f34:	03a04006 	moveq	r4, #6
  104f38:	0a0000a3 	beq	1051cc <_vfprintf_r+0x196c>
  104f3c:	e3570047 	cmp	r7, #71	; 0x47
  104f40:	03540000 	cmpeq	r4, #0
  104f44:	1a0000a0 	bne	1051cc <_vfprintf_r+0x196c>
  104f48:	ee183a90 	vmov	r3, s17
  104f4c:	e38a2c01 	orr	r2, sl, #256	; 0x100
  104f50:	e3530000 	cmp	r3, #0
  104f54:	e58d2018 	str	r2, [sp, #24]
  104f58:	ba00016b 	blt	10550c <_vfprintf_r+0x1cac>
  104f5c:	eeb0ab48 	vmov.f64	d10, d8
  104f60:	e3a07047 	mov	r7, #71	; 0x47
  104f64:	e3a0b000 	mov	fp, #0
  104f68:	e3a04001 	mov	r4, #1
  104f6c:	e28d2074 	add	r2, sp, #116	; 0x74
  104f70:	e3a03002 	mov	r3, #2
  104f74:	e28d0084 	add	r0, sp, #132	; 0x84
  104f78:	e28d1078 	add	r1, sp, #120	; 0x78
  104f7c:	e58d0010 	str	r0, [sp, #16]
  104f80:	e58d2008 	str	r2, [sp, #8]
  104f84:	e58d3000 	str	r3, [sp]
  104f88:	e58d4004 	str	r4, [sp, #4]
  104f8c:	e59d001c 	ldr	r0, [sp, #28]
  104f90:	e58d100c 	str	r1, [sp, #12]
  104f94:	ec532b1a 	vmov	r2, r3, d10
  104f98:	eb000300 	bl	105ba0 <_dtoa_r>
  104f9c:	e3570047 	cmp	r7, #71	; 0x47
  104fa0:	e58d0038 	str	r0, [sp, #56]	; 0x38
  104fa4:	1a0001f4 	bne	10577c <_vfprintf_r+0x1f1c>
  104fa8:	e31a0001 	tst	sl, #1
  104fac:	0a000184 	beq	1055c4 <_vfprintf_r+0x1d64>
  104fb0:	e59d3038 	ldr	r3, [sp, #56]	; 0x38
  104fb4:	e0836004 	add	r6, r3, r4
  104fb8:	eeb5ab40 	vcmp.f64	d10, #0.0
  104fbc:	eef1fa10 	vmrs	APSR_nzcv, fpscr
  104fc0:	01a03006 	moveq	r3, r6
  104fc4:	0a000009 	beq	104ff0 <_vfprintf_r+0x1790>
  104fc8:	e59d3084 	ldr	r3, [sp, #132]	; 0x84
  104fcc:	e1530006 	cmp	r3, r6
  104fd0:	2a000006 	bcs	104ff0 <_vfprintf_r+0x1790>
  104fd4:	e3a01030 	mov	r1, #48	; 0x30
  104fd8:	e2832001 	add	r2, r3, #1
  104fdc:	e58d2084 	str	r2, [sp, #132]	; 0x84
  104fe0:	e5c31000 	strb	r1, [r3]
  104fe4:	e59d3084 	ldr	r3, [sp, #132]	; 0x84
  104fe8:	e1560003 	cmp	r6, r3
  104fec:	8afffff9 	bhi	104fd8 <_vfprintf_r+0x1778>
  104ff0:	e59d2038 	ldr	r2, [sp, #56]	; 0x38
  104ff4:	e3570047 	cmp	r7, #71	; 0x47
  104ff8:	e0433002 	sub	r3, r3, r2
  104ffc:	e58d3044 	str	r3, [sp, #68]	; 0x44
  105000:	e59d3074 	ldr	r3, [sp, #116]	; 0x74
  105004:	1a000116 	bne	105464 <_vfprintf_r+0x1c04>
  105008:	e3730003 	cmn	r3, #3
  10500c:	e1a02003 	mov	r2, r3
  105010:	e58d3040 	str	r3, [sp, #64]	; 0x40
  105014:	a3a03000 	movge	r3, #0
  105018:	b3a03001 	movlt	r3, #1
  10501c:	e1520004 	cmp	r2, r4
  105020:	d1a04003 	movle	r4, r3
  105024:	c3834001 	orrgt	r4, r3, #1
  105028:	e3540000 	cmp	r4, #0
  10502c:	12455002 	subne	r5, r5, #2
  105030:	0a0000fc 	beq	105428 <_vfprintf_r+0x1bc8>
  105034:	e59d3040 	ldr	r3, [sp, #64]	; 0x40
  105038:	e5cd507c 	strb	r5, [sp, #124]	; 0x7c
  10503c:	e2433001 	sub	r3, r3, #1
  105040:	e3530000 	cmp	r3, #0
  105044:	e58d3074 	str	r3, [sp, #116]	; 0x74
  105048:	b59d3040 	ldrlt	r3, [sp, #64]	; 0x40
  10504c:	b3a0202d 	movlt	r2, #45	; 0x2d
  105050:	a3a0202b 	movge	r2, #43	; 0x2b
  105054:	e5cd207d 	strb	r2, [sp, #125]	; 0x7d
  105058:	b2633001 	rsblt	r3, r3, #1
  10505c:	e3530009 	cmp	r3, #9
  105060:	da000195 	ble	1056bc <_vfprintf_r+0x1e5c>
  105064:	e28de08b 	add	lr, sp, #139	; 0x8b
  105068:	e1a06005 	mov	r6, r5
  10506c:	e1a0c00e 	mov	ip, lr
  105070:	e59d1064 	ldr	r1, [sp, #100]	; 0x64
  105074:	ea000000 	b	10507c <_vfprintf_r+0x181c>
  105078:	e1a0c000 	mov	ip, r0
  10507c:	e0c54193 	smull	r4, r5, r3, r1
  105080:	e1a04fc3 	asr	r4, r3, #31
  105084:	e24c0001 	sub	r0, ip, #1
  105088:	e0644145 	rsb	r4, r4, r5, asr #2
  10508c:	e0842104 	add	r2, r4, r4, lsl #2
  105090:	e3540009 	cmp	r4, #9
  105094:	e0432082 	sub	r2, r3, r2, lsl #1
  105098:	e1a03004 	mov	r3, r4
  10509c:	e2822030 	add	r2, r2, #48	; 0x30
  1050a0:	e54c2001 	strb	r2, [ip, #-1]
  1050a4:	cafffff3 	bgt	105078 <_vfprintf_r+0x1818>
  1050a8:	e2843030 	add	r3, r4, #48	; 0x30
  1050ac:	e24cc002 	sub	ip, ip, #2
  1050b0:	e6ef2073 	uxtb	r2, r3
  1050b4:	e15e000c 	cmp	lr, ip
  1050b8:	e1a05006 	mov	r5, r6
  1050bc:	e5402001 	strb	r2, [r0, #-1]
  1050c0:	9a0001af 	bls	105784 <_vfprintf_r+0x1f24>
  1050c4:	e1a03000 	mov	r3, r0
  1050c8:	e28d107e 	add	r1, sp, #126	; 0x7e
  1050cc:	ea000000 	b	1050d4 <_vfprintf_r+0x1874>
  1050d0:	e4d32001 	ldrb	r2, [r3], #1
  1050d4:	e153000e 	cmp	r3, lr
  1050d8:	e4c12001 	strb	r2, [r1], #1
  1050dc:	1afffffb 	bne	1050d0 <_vfprintf_r+0x1870>
  1050e0:	e2833001 	add	r3, r3, #1
  1050e4:	e0430000 	sub	r0, r3, r0
  1050e8:	e28d307e 	add	r3, sp, #126	; 0x7e
  1050ec:	e0830000 	add	r0, r3, r0
  1050f0:	e59d2044 	ldr	r2, [sp, #68]	; 0x44
  1050f4:	e28d307c 	add	r3, sp, #124	; 0x7c
  1050f8:	e0403003 	sub	r3, r0, r3
  1050fc:	e1a01003 	mov	r1, r3
  105100:	e58d3060 	str	r3, [sp, #96]	; 0x60
  105104:	e3520001 	cmp	r2, #1
  105108:	e1a03002 	mov	r3, r2
  10510c:	e0833001 	add	r3, r3, r1
  105110:	e58d302c 	str	r3, [sp, #44]	; 0x2c
  105114:	da00017d 	ble	105710 <_vfprintf_r+0x1eb0>
  105118:	e59d302c 	ldr	r3, [sp, #44]	; 0x2c
  10511c:	e59d2048 	ldr	r2, [sp, #72]	; 0x48
  105120:	e0833002 	add	r3, r3, r2
  105124:	e3a02000 	mov	r2, #0
  105128:	e1c37fc3 	bic	r7, r3, r3, asr #31
  10512c:	e58d302c 	str	r3, [sp, #44]	; 0x2c
  105130:	e58d2040 	str	r2, [sp, #64]	; 0x40
  105134:	e35b0000 	cmp	fp, #0
  105138:	1a0000b6 	bne	105418 <_vfprintf_r+0x1bb8>
  10513c:	e1a0400b 	mov	r4, fp
  105140:	e5ddb06f 	ldrb	fp, [sp, #111]	; 0x6f
  105144:	eafffabe 	b	103c44 <_vfprintf_r+0x3e4>
  105148:	e3e03000 	mvn	r3, #0
  10514c:	e28a0058 	add	r0, sl, #88	; 0x58
  105150:	e58d3020 	str	r3, [sp, #32]
  105154:	eb001b40 	bl	10be5c <__generic_gxx_recursive_mutex_unlock>
  105158:	eafffb2e 	b	103e18 <_vfprintf_r+0x5b8>
  10515c:	e59d3018 	ldr	r3, [sp, #24]
  105160:	e3130001 	tst	r3, #1
  105164:	0afffecc 	beq	104c9c <_vfprintf_r+0x143c>
  105168:	eafffebf 	b	104c6c <_vfprintf_r+0x140c>
  10516c:	e59d2094 	ldr	r2, [sp, #148]	; 0x94
  105170:	eafffccb 	b	1044a4 <_vfprintf_r+0xc44>
  105174:	e28d208c 	add	r2, sp, #140	; 0x8c
  105178:	e59d1024 	ldr	r1, [sp, #36]	; 0x24
  10517c:	e59d001c 	ldr	r0, [sp, #28]
  105180:	eb00121b 	bl	1099f4 <__sprint_r>
  105184:	e3500000 	cmp	r0, #0
  105188:	1afffdf9 	bne	104974 <_vfprintf_r+0x1114>
  10518c:	e59d1074 	ldr	r1, [sp, #116]	; 0x74
  105190:	e28d80c0 	add	r8, sp, #192	; 0xc0
  105194:	e59d3044 	ldr	r3, [sp, #68]	; 0x44
  105198:	e59d2094 	ldr	r2, [sp, #148]	; 0x94
  10519c:	e0431001 	sub	r1, r3, r1
  1051a0:	eafffed1 	b	104cec <_vfprintf_r+0x148c>
  1051a4:	e28d208c 	add	r2, sp, #140	; 0x8c
  1051a8:	e59d1024 	ldr	r1, [sp, #36]	; 0x24
  1051ac:	e59d001c 	ldr	r0, [sp, #28]
  1051b0:	eb00120f 	bl	1099f4 <__sprint_r>
  1051b4:	e3500000 	cmp	r0, #0
  1051b8:	1afffded 	bne	104974 <_vfprintf_r+0x1114>
  1051bc:	e59d1074 	ldr	r1, [sp, #116]	; 0x74
  1051c0:	e28d80c0 	add	r8, sp, #192	; 0xc0
  1051c4:	e59d2094 	ldr	r2, [sp, #148]	; 0x94
  1051c8:	eafffeb3 	b	104c9c <_vfprintf_r+0x143c>
  1051cc:	ee183a90 	vmov	r3, s17
  1051d0:	e38a2c01 	orr	r2, sl, #256	; 0x100
  1051d4:	e3530000 	cmp	r3, #0
  1051d8:	e58d2018 	str	r2, [sp, #24]
  1051dc:	a3a0b000 	movge	fp, #0
  1051e0:	aeb0ab48 	vmovge.f64	d10, d8
  1051e4:	ba0000ca 	blt	105514 <_vfprintf_r+0x1cb4>
  1051e8:	e3570046 	cmp	r7, #70	; 0x46
  1051ec:	1a000078 	bne	1053d4 <_vfprintf_r+0x1b74>
  1051f0:	e28d2074 	add	r2, sp, #116	; 0x74
  1051f4:	e3a03003 	mov	r3, #3
  1051f8:	e28d0084 	add	r0, sp, #132	; 0x84
  1051fc:	e28d1078 	add	r1, sp, #120	; 0x78
  105200:	e58d0010 	str	r0, [sp, #16]
  105204:	e58d2008 	str	r2, [sp, #8]
  105208:	e58d3000 	str	r3, [sp]
  10520c:	e58d4004 	str	r4, [sp, #4]
  105210:	ec532b1a 	vmov	r2, r3, d10
  105214:	e59d001c 	ldr	r0, [sp, #28]
  105218:	e58d100c 	str	r1, [sp, #12]
  10521c:	eb00025f 	bl	105ba0 <_dtoa_r>
  105220:	eeb5ab40 	vcmp.f64	d10, #0.0
  105224:	e1a03000 	mov	r3, r0
  105228:	e5d02000 	ldrb	r2, [r0]
  10522c:	eef1fa10 	vmrs	APSR_nzcv, fpscr
  105230:	13a03001 	movne	r3, #1
  105234:	03a03000 	moveq	r3, #0
  105238:	e3520030 	cmp	r2, #48	; 0x30
  10523c:	13a03000 	movne	r3, #0
  105240:	02033001 	andeq	r3, r3, #1
  105244:	e58d0038 	str	r0, [sp, #56]	; 0x38
  105248:	e3530000 	cmp	r3, #0
  10524c:	12643001 	rsbne	r3, r4, #1
  105250:	158d3074 	strne	r3, [sp, #116]	; 0x74
  105254:	059d3074 	ldreq	r3, [sp, #116]	; 0x74
  105258:	e0836004 	add	r6, r3, r4
  10525c:	e59d3038 	ldr	r3, [sp, #56]	; 0x38
  105260:	e0836006 	add	r6, r3, r6
  105264:	eaffff53 	b	104fb8 <_vfprintf_r+0x1758>
  105268:	e3a0302d 	mov	r3, #45	; 0x2d
  10526c:	e1a0b003 	mov	fp, r3
  105270:	e5cd306f 	strb	r3, [sp, #111]	; 0x6f
  105274:	eafffbe6 	b	104214 <_vfprintf_r+0x9b4>
  105278:	e28d208c 	add	r2, sp, #140	; 0x8c
  10527c:	e59d1024 	ldr	r1, [sp, #36]	; 0x24
  105280:	e59d001c 	ldr	r0, [sp, #28]
  105284:	eb0011da 	bl	1099f4 <__sprint_r>
  105288:	e3500000 	cmp	r0, #0
  10528c:	1afffdb8 	bne	104974 <_vfprintf_r+0x1114>
  105290:	e28d80c0 	add	r8, sp, #192	; 0xc0
  105294:	eafffce8 	b	10463c <_vfprintf_r+0xddc>
  105298:	e59d3090 	ldr	r3, [sp, #144]	; 0x90
  10529c:	e30c185c 	movw	r1, #51292	; 0xc85c
  1052a0:	e3401010 	movt	r1, #16
  1052a4:	e2822001 	add	r2, r2, #1
  1052a8:	e5881000 	str	r1, [r8]
  1052ac:	e3a01001 	mov	r1, #1
  1052b0:	e2833001 	add	r3, r3, #1
  1052b4:	e5881004 	str	r1, [r8, #4]
  1052b8:	e3530007 	cmp	r3, #7
  1052bc:	e58d2094 	str	r2, [sp, #148]	; 0x94
  1052c0:	e58d3090 	str	r3, [sp, #144]	; 0x90
  1052c4:	d2888008 	addle	r8, r8, #8
  1052c8:	ca0000ab 	bgt	10557c <_vfprintf_r+0x1d1c>
  1052cc:	e59d3044 	ldr	r3, [sp, #68]	; 0x44
  1052d0:	e1933004 	orrs	r3, r3, r4
  1052d4:	1a000002 	bne	1052e4 <_vfprintf_r+0x1a84>
  1052d8:	e59d3018 	ldr	r3, [sp, #24]
  1052dc:	e3130001 	tst	r3, #1
  1052e0:	0afffc6f 	beq	1044a4 <_vfprintf_r+0xc44>
  1052e4:	e59d3090 	ldr	r3, [sp, #144]	; 0x90
  1052e8:	e59d1048 	ldr	r1, [sp, #72]	; 0x48
  1052ec:	e59d004c 	ldr	r0, [sp, #76]	; 0x4c
  1052f0:	e2833001 	add	r3, r3, #1
  1052f4:	e3530007 	cmp	r3, #7
  1052f8:	e0812002 	add	r2, r1, r2
  1052fc:	e5880000 	str	r0, [r8]
  105300:	e5881004 	str	r1, [r8, #4]
  105304:	d2888008 	addle	r8, r8, #8
  105308:	e58d2094 	str	r2, [sp, #148]	; 0x94
  10530c:	e58d3090 	str	r3, [sp, #144]	; 0x90
  105310:	ca0000cb 	bgt	105644 <_vfprintf_r+0x1de4>
  105314:	e3540000 	cmp	r4, #0
  105318:	ba0000ab 	blt	1055cc <_vfprintf_r+0x1d6c>
  10531c:	e2833001 	add	r3, r3, #1
  105320:	e59d1044 	ldr	r1, [sp, #68]	; 0x44
  105324:	e3530007 	cmp	r3, #7
  105328:	e58d3090 	str	r3, [sp, #144]	; 0x90
  10532c:	e59d3038 	ldr	r3, [sp, #56]	; 0x38
  105330:	e0812002 	add	r2, r1, r2
  105334:	e5881004 	str	r1, [r8, #4]
  105338:	e58d2094 	str	r2, [sp, #148]	; 0x94
  10533c:	e5883000 	str	r3, [r8]
  105340:	dafffc56 	ble	1044a0 <_vfprintf_r+0xc40>
  105344:	eafffd7b 	b	104938 <_vfprintf_r+0x10d8>
  105348:	e28d30c0 	add	r3, sp, #192	; 0xc0
  10534c:	e58da018 	str	sl, [sp, #24]
  105350:	e0433001 	sub	r3, r3, r1
  105354:	e58d1038 	str	r1, [sp, #56]	; 0x38
  105358:	e58d302c 	str	r3, [sp, #44]	; 0x2c
  10535c:	eafffa32 	b	103c2c <_vfprintf_r+0x3cc>
  105360:	e59d1020 	ldr	r1, [sp, #32]
  105364:	e59d2030 	ldr	r2, [sp, #48]	; 0x30
  105368:	ee801b90 	vdup.32	d16, r1
  10536c:	e2822004 	add	r2, r2, #4
  105370:	e5123004 	ldr	r3, [r2, #-4]
  105374:	f2e000b0 	vshr.s64	d16, d16, #32
  105378:	e58d2030 	str	r2, [sp, #48]	; 0x30
  10537c:	edc30b00 	vstr	d16, [r3]
  105380:	eafff973 	b	103954 <_vfprintf_r+0xf4>
  105384:	e28d208c 	add	r2, sp, #140	; 0x8c
  105388:	e59d1024 	ldr	r1, [sp, #36]	; 0x24
  10538c:	e59d001c 	ldr	r0, [sp, #28]
  105390:	eb001197 	bl	1099f4 <__sprint_r>
  105394:	e3500000 	cmp	r0, #0
  105398:	1afffd75 	bne	104974 <_vfprintf_r+0x1114>
  10539c:	e59d2094 	ldr	r2, [sp, #148]	; 0x94
  1053a0:	e28d80c0 	add	r8, sp, #192	; 0xc0
  1053a4:	eafffcb8 	b	10468c <_vfprintf_r+0xe2c>
  1053a8:	e59d0038 	ldr	r0, [sp, #56]	; 0x38
  1053ac:	e1a04006 	mov	r4, r6
  1053b0:	fafff8f2 	blx	103780 <strlen>
  1053b4:	e59d3018 	ldr	r3, [sp, #24]
  1053b8:	e1c07fc0 	bic	r7, r0, r0, asr #31
  1053bc:	e58d002c 	str	r0, [sp, #44]	; 0x2c
  1053c0:	e58da018 	str	sl, [sp, #24]
  1053c4:	e58d3030 	str	r3, [sp, #48]	; 0x30
  1053c8:	e58d6040 	str	r6, [sp, #64]	; 0x40
  1053cc:	e5ddb06f 	ldrb	fp, [sp, #111]	; 0x6f
  1053d0:	eafffa1b 	b	103c44 <_vfprintf_r+0x3e4>
  1053d4:	e3570045 	cmp	r7, #69	; 0x45
  1053d8:	1afffee3 	bne	104f6c <_vfprintf_r+0x170c>
  1053dc:	e28d2074 	add	r2, sp, #116	; 0x74
  1053e0:	e3a03002 	mov	r3, #2
  1053e4:	e28d0084 	add	r0, sp, #132	; 0x84
  1053e8:	e28d1078 	add	r1, sp, #120	; 0x78
  1053ec:	e2846001 	add	r6, r4, #1
  1053f0:	e58d0010 	str	r0, [sp, #16]
  1053f4:	e58d2008 	str	r2, [sp, #8]
  1053f8:	e58d3000 	str	r3, [sp]
  1053fc:	e58d6004 	str	r6, [sp, #4]
  105400:	e59d001c 	ldr	r0, [sp, #28]
  105404:	e58d100c 	str	r1, [sp, #12]
  105408:	ec532b1a 	vmov	r2, r3, d10
  10540c:	eb0001e3 	bl	105ba0 <_dtoa_r>
  105410:	e58d0038 	str	r0, [sp, #56]	; 0x38
  105414:	eaffff90 	b	10525c <_vfprintf_r+0x19fc>
  105418:	e3a0b02d 	mov	fp, #45	; 0x2d
  10541c:	e3a04000 	mov	r4, #0
  105420:	e5cdb06f 	strb	fp, [sp, #111]	; 0x6f
  105424:	eafffa08 	b	103c4c <_vfprintf_r+0x3ec>
  105428:	e59d2044 	ldr	r2, [sp, #68]	; 0x44
  10542c:	e59d3040 	ldr	r3, [sp, #64]	; 0x40
  105430:	e1520003 	cmp	r2, r3
  105434:	ca000039 	bgt	105520 <_vfprintf_r+0x1cc0>
  105438:	e31a0001 	tst	sl, #1
  10543c:	159d3040 	ldrne	r3, [sp, #64]	; 0x40
  105440:	01c37fc3 	biceq	r7, r3, r3, asr #31
  105444:	159d2048 	ldrne	r2, [sp, #72]	; 0x48
  105448:	03a05067 	moveq	r5, #103	; 0x67
  10544c:	058d302c 	streq	r3, [sp, #44]	; 0x2c
  105450:	13a05067 	movne	r5, #103	; 0x67
  105454:	10833002 	addne	r3, r3, r2
  105458:	158d302c 	strne	r3, [sp, #44]	; 0x2c
  10545c:	11c37fc3 	bicne	r7, r3, r3, asr #31
  105460:	eaffff33 	b	105134 <_vfprintf_r+0x18d4>
  105464:	e3550065 	cmp	r5, #101	; 0x65
  105468:	e58d3040 	str	r3, [sp, #64]	; 0x40
  10546c:	dafffef0 	ble	105034 <_vfprintf_r+0x17d4>
  105470:	e3550066 	cmp	r5, #102	; 0x66
  105474:	1affffeb 	bne	105428 <_vfprintf_r+0x1bc8>
  105478:	e3530000 	cmp	r3, #0
  10547c:	da0000a9 	ble	105728 <_vfprintf_r+0x1ec8>
  105480:	e3540000 	cmp	r4, #0
  105484:	1a000003 	bne	105498 <_vfprintf_r+0x1c38>
  105488:	e31a0001 	tst	sl, #1
  10548c:	01a07003 	moveq	r7, r3
  105490:	058d302c 	streq	r3, [sp, #44]	; 0x2c
  105494:	0affff26 	beq	105134 <_vfprintf_r+0x18d4>
  105498:	e59d3040 	ldr	r3, [sp, #64]	; 0x40
  10549c:	e59d2048 	ldr	r2, [sp, #72]	; 0x48
  1054a0:	e0837002 	add	r7, r3, r2
  1054a4:	e0873004 	add	r3, r7, r4
  1054a8:	e58d302c 	str	r3, [sp, #44]	; 0x2c
  1054ac:	e1c37fc3 	bic	r7, r3, r3, asr #31
  1054b0:	eaffff1f 	b	105134 <_vfprintf_r+0x18d4>
  1054b4:	e28d208c 	add	r2, sp, #140	; 0x8c
  1054b8:	e59d1024 	ldr	r1, [sp, #36]	; 0x24
  1054bc:	e59d001c 	ldr	r0, [sp, #28]
  1054c0:	eb00114b 	bl	1099f4 <__sprint_r>
  1054c4:	e3500000 	cmp	r0, #0
  1054c8:	1afffd29 	bne	104974 <_vfprintf_r+0x1114>
  1054cc:	e59d2094 	ldr	r2, [sp, #148]	; 0x94
  1054d0:	e28d80c0 	add	r8, sp, #192	; 0xc0
  1054d4:	eafffd62 	b	104a64 <_vfprintf_r+0x1204>
  1054d8:	e3540006 	cmp	r4, #6
  1054dc:	e1a0b002 	mov	fp, r2
  1054e0:	31a07004 	movcc	r7, r4
  1054e4:	e1a04002 	mov	r4, r2
  1054e8:	e30c2854 	movw	r2, #51284	; 0xc854
  1054ec:	23a07006 	movcs	r7, #6
  1054f0:	e3402010 	movt	r2, #16
  1054f4:	e58d3030 	str	r3, [sp, #48]	; 0x30
  1054f8:	e58da018 	str	sl, [sp, #24]
  1054fc:	e58d702c 	str	r7, [sp, #44]	; 0x2c
  105500:	e58db040 	str	fp, [sp, #64]	; 0x40
  105504:	e58d2038 	str	r2, [sp, #56]	; 0x38
  105508:	eafff9cd 	b	103c44 <_vfprintf_r+0x3e4>
  10550c:	e3a07047 	mov	r7, #71	; 0x47
  105510:	e3a04001 	mov	r4, #1
  105514:	eeb1ab48 	vneg.f64	d10, d8
  105518:	e3a0b02d 	mov	fp, #45	; 0x2d
  10551c:	eaffff31 	b	1051e8 <_vfprintf_r+0x1988>
  105520:	e59d3040 	ldr	r3, [sp, #64]	; 0x40
  105524:	e59d2048 	ldr	r2, [sp, #72]	; 0x48
  105528:	e3530000 	cmp	r3, #0
  10552c:	e59d3044 	ldr	r3, [sp, #68]	; 0x44
  105530:	c3a05067 	movgt	r5, #103	; 0x67
  105534:	d3a05067 	movle	r5, #103	; 0x67
  105538:	e0833002 	add	r3, r3, r2
  10553c:	e58d302c 	str	r3, [sp, #44]	; 0x2c
  105540:	c1c37fc3 	bicgt	r7, r3, r3, asr #31
  105544:	d59d3040 	ldrle	r3, [sp, #64]	; 0x40
  105548:	d59d202c 	ldrle	r2, [sp, #44]	; 0x2c
  10554c:	d2633001 	rsble	r3, r3, #1
  105550:	d0823003 	addle	r3, r2, r3
  105554:	d58d302c 	strle	r3, [sp, #44]	; 0x2c
  105558:	d1c37fc3 	bicle	r7, r3, r3, asr #31
  10555c:	eafffef4 	b	105134 <_vfprintf_r+0x18d4>
  105560:	e59d001c 	ldr	r0, [sp, #28]
  105564:	e28d208c 	add	r2, sp, #140	; 0x8c
  105568:	e1a0100a 	mov	r1, sl
  10556c:	eb001120 	bl	1099f4 <__sprint_r>
  105570:	e3500000 	cmp	r0, #0
  105574:	0afffc10 	beq	1045bc <_vfprintf_r+0xd5c>
  105578:	eafffc11 	b	1045c4 <_vfprintf_r+0xd64>
  10557c:	e28d208c 	add	r2, sp, #140	; 0x8c
  105580:	e59d1024 	ldr	r1, [sp, #36]	; 0x24
  105584:	e59d001c 	ldr	r0, [sp, #28]
  105588:	eb001119 	bl	1099f4 <__sprint_r>
  10558c:	e3500000 	cmp	r0, #0
  105590:	1afffcf7 	bne	104974 <_vfprintf_r+0x1114>
  105594:	e59d4074 	ldr	r4, [sp, #116]	; 0x74
  105598:	e28d80c0 	add	r8, sp, #192	; 0xc0
  10559c:	e59d2094 	ldr	r2, [sp, #148]	; 0x94
  1055a0:	eaffff49 	b	1052cc <_vfprintf_r+0x1a6c>
  1055a4:	e1a07004 	mov	r7, r4
  1055a8:	e58d402c 	str	r4, [sp, #44]	; 0x2c
  1055ac:	e58d3030 	str	r3, [sp, #48]	; 0x30
  1055b0:	e1a04000 	mov	r4, r0
  1055b4:	e58da018 	str	sl, [sp, #24]
  1055b8:	e58d0040 	str	r0, [sp, #64]	; 0x40
  1055bc:	e5ddb06f 	ldrb	fp, [sp, #111]	; 0x6f
  1055c0:	eafff99f 	b	103c44 <_vfprintf_r+0x3e4>
  1055c4:	e59d3084 	ldr	r3, [sp, #132]	; 0x84
  1055c8:	eafffe88 	b	104ff0 <_vfprintf_r+0x1790>
  1055cc:	e3740010 	cmn	r4, #16
  1055d0:	e59f61b4 	ldr	r6, [pc, #436]	; 10578c <_vfprintf_r+0x1f2c>
  1055d4:	e2644000 	rsb	r4, r4, #0
  1055d8:	aa000024 	bge	105670 <_vfprintf_r+0x1e10>
  1055dc:	e3a05010 	mov	r5, #16
  1055e0:	e59da01c 	ldr	sl, [sp, #28]
  1055e4:	e59db024 	ldr	fp, [sp, #36]	; 0x24
  1055e8:	ea000002 	b	1055f8 <_vfprintf_r+0x1d98>
  1055ec:	e2444010 	sub	r4, r4, #16
  1055f0:	e3540010 	cmp	r4, #16
  1055f4:	da00001d 	ble	105670 <_vfprintf_r+0x1e10>
  1055f8:	e2833001 	add	r3, r3, #1
  1055fc:	e2822010 	add	r2, r2, #16
  105600:	e3530007 	cmp	r3, #7
  105604:	e5886000 	str	r6, [r8]
  105608:	e5885004 	str	r5, [r8, #4]
  10560c:	d2888008 	addle	r8, r8, #8
  105610:	e58d3090 	str	r3, [sp, #144]	; 0x90
  105614:	e58d2094 	str	r2, [sp, #148]	; 0x94
  105618:	dafffff3 	ble	1055ec <_vfprintf_r+0x1d8c>
  10561c:	e28d208c 	add	r2, sp, #140	; 0x8c
  105620:	e1a0100b 	mov	r1, fp
  105624:	e1a0000a 	mov	r0, sl
  105628:	e28d80c0 	add	r8, sp, #192	; 0xc0
  10562c:	eb0010f0 	bl	1099f4 <__sprint_r>
  105630:	e3500000 	cmp	r0, #0
  105634:	1afffe12 	bne	104e84 <_vfprintf_r+0x1624>
  105638:	e59d2094 	ldr	r2, [sp, #148]	; 0x94
  10563c:	e59d3090 	ldr	r3, [sp, #144]	; 0x90
  105640:	eaffffe9 	b	1055ec <_vfprintf_r+0x1d8c>
  105644:	e28d208c 	add	r2, sp, #140	; 0x8c
  105648:	e59d1024 	ldr	r1, [sp, #36]	; 0x24
  10564c:	e59d001c 	ldr	r0, [sp, #28]
  105650:	eb0010e7 	bl	1099f4 <__sprint_r>
  105654:	e3500000 	cmp	r0, #0
  105658:	1afffcc5 	bne	104974 <_vfprintf_r+0x1114>
  10565c:	e59d4074 	ldr	r4, [sp, #116]	; 0x74
  105660:	e28d80c0 	add	r8, sp, #192	; 0xc0
  105664:	e59d2094 	ldr	r2, [sp, #148]	; 0x94
  105668:	e59d3090 	ldr	r3, [sp, #144]	; 0x90
  10566c:	eaffff28 	b	105314 <_vfprintf_r+0x1ab4>
  105670:	e2833001 	add	r3, r3, #1
  105674:	e0822004 	add	r2, r2, r4
  105678:	e3530007 	cmp	r3, #7
  10567c:	e5886000 	str	r6, [r8]
  105680:	e5884004 	str	r4, [r8, #4]
  105684:	e2888008 	add	r8, r8, #8
  105688:	e58d3090 	str	r3, [sp, #144]	; 0x90
  10568c:	e58d2094 	str	r2, [sp, #148]	; 0x94
  105690:	daffff21 	ble	10531c <_vfprintf_r+0x1abc>
  105694:	e28d208c 	add	r2, sp, #140	; 0x8c
  105698:	e59d1024 	ldr	r1, [sp, #36]	; 0x24
  10569c:	e59d001c 	ldr	r0, [sp, #28]
  1056a0:	eb0010d3 	bl	1099f4 <__sprint_r>
  1056a4:	e3500000 	cmp	r0, #0
  1056a8:	1afffcb1 	bne	104974 <_vfprintf_r+0x1114>
  1056ac:	e59d2094 	ldr	r2, [sp, #148]	; 0x94
  1056b0:	e28d80c0 	add	r8, sp, #192	; 0xc0
  1056b4:	e59d3090 	ldr	r3, [sp, #144]	; 0x90
  1056b8:	eaffff17 	b	10531c <_vfprintf_r+0x1abc>
  1056bc:	e2833030 	add	r3, r3, #48	; 0x30
  1056c0:	e3a02030 	mov	r2, #48	; 0x30
  1056c4:	e5cd307f 	strb	r3, [sp, #127]	; 0x7f
  1056c8:	e28d0080 	add	r0, sp, #128	; 0x80
  1056cc:	e5cd207e 	strb	r2, [sp, #126]	; 0x7e
  1056d0:	eafffe86 	b	1050f0 <_vfprintf_r+0x1890>
  1056d4:	e30c3824 	movw	r3, #51236	; 0xc824
  1056d8:	e30c2828 	movw	r2, #51240	; 0xc828
  1056dc:	e3403010 	movt	r3, #16
  1056e0:	e3550047 	cmp	r5, #71	; 0x47
  1056e4:	e3402010 	movt	r2, #16
  1056e8:	e3a07003 	mov	r7, #3
  1056ec:	e3a04000 	mov	r4, #0
  1056f0:	e3ca1080 	bic	r1, sl, #128	; 0x80
  1056f4:	d1a02003 	movle	r2, r3
  1056f8:	e58d1018 	str	r1, [sp, #24]
  1056fc:	e58d2038 	str	r2, [sp, #56]	; 0x38
  105700:	e58d702c 	str	r7, [sp, #44]	; 0x2c
  105704:	e58d4040 	str	r4, [sp, #64]	; 0x40
  105708:	e5ddb06f 	ldrb	fp, [sp, #111]	; 0x6f
  10570c:	eafff94c 	b	103c44 <_vfprintf_r+0x3e4>
  105710:	e21a3001 	ands	r3, sl, #1
  105714:	e58d3040 	str	r3, [sp, #64]	; 0x40
  105718:	1afffe7e 	bne	105118 <_vfprintf_r+0x18b8>
  10571c:	e59d302c 	ldr	r3, [sp, #44]	; 0x2c
  105720:	e1c37fc3 	bic	r7, r3, r3, asr #31
  105724:	eafffe82 	b	105134 <_vfprintf_r+0x18d4>
  105728:	e3540000 	cmp	r4, #0
  10572c:	1a000003 	bne	105740 <_vfprintf_r+0x1ee0>
  105730:	e31a0001 	tst	sl, #1
  105734:	03a07001 	moveq	r7, #1
  105738:	058d702c 	streq	r7, [sp, #44]	; 0x2c
  10573c:	0afffe7c 	beq	105134 <_vfprintf_r+0x18d4>
  105740:	e59d3048 	ldr	r3, [sp, #72]	; 0x48
  105744:	e2837001 	add	r7, r3, #1
  105748:	e0873004 	add	r3, r7, r4
  10574c:	e58d302c 	str	r3, [sp, #44]	; 0x2c
  105750:	e1c37fc3 	bic	r7, r3, r3, asr #31
  105754:	eafffe76 	b	105134 <_vfprintf_r+0x18d4>
  105758:	e59d3030 	ldr	r3, [sp, #48]	; 0x30
  10575c:	e5d95001 	ldrb	r5, [r9, #1]
  105760:	e1a0900c 	mov	r9, ip
  105764:	e5934000 	ldr	r4, [r3]
  105768:	e2833004 	add	r3, r3, #4
  10576c:	e58d3030 	str	r3, [sp, #48]	; 0x30
  105770:	e1540000 	cmp	r4, r0
  105774:	b1a04000 	movlt	r4, r0
  105778:	eafff89b 	b	1039ec <_vfprintf_r+0x18c>
  10577c:	e1a06004 	mov	r6, r4
  105780:	eafffeb5 	b	10525c <_vfprintf_r+0x19fc>
  105784:	e28d007e 	add	r0, sp, #126	; 0x7e
  105788:	eafffe58 	b	1050f0 <_vfprintf_r+0x1890>
  10578c:	0010c80c 	.word	0x0010c80c

00105790 <vfprintf>:
  105790:	e92d4070 	push	{r4, r5, r6, lr}
  105794:	e1a05001 	mov	r5, r1
  105798:	e1a06002 	mov	r6, r2
  10579c:	e1a04000 	mov	r4, r0
  1057a0:	eb000975 	bl	107d7c <__getreent>
  1057a4:	e1a03006 	mov	r3, r6
  1057a8:	e1a02005 	mov	r2, r5
  1057ac:	e1a01004 	mov	r1, r4
  1057b0:	e8bd4070 	pop	{r4, r5, r6, lr}
  1057b4:	eafff829 	b	103860 <_vfprintf_r>

001057b8 <__sbprintf>:
  1057b8:	e92d41f0 	push	{r4, r5, r6, r7, r8, lr}
  1057bc:	e1a04001 	mov	r4, r1
  1057c0:	e1d110bc 	ldrh	r1, [r1, #12]
  1057c4:	e1a07000 	mov	r7, r0
  1057c8:	e1a08003 	mov	r8, r3
  1057cc:	e1a06002 	mov	r6, r2
  1057d0:	e1d4c0be 	ldrh	ip, [r4, #14]
  1057d4:	e24dde46 	sub	sp, sp, #1120	; 0x460
  1057d8:	e5940064 	ldr	r0, [r4, #100]	; 0x64
  1057dc:	e24dd008 	sub	sp, sp, #8
  1057e0:	e594301c 	ldr	r3, [r4, #28]
  1057e4:	e3c11002 	bic	r1, r1, #2
  1057e8:	e5942024 	ldr	r2, [r4, #36]	; 0x24
  1057ec:	e1cd10bc 	strh	r1, [sp, #12]
  1057f0:	e3a01b01 	mov	r1, #1024	; 0x400
  1057f4:	e1cdc0be 	strh	ip, [sp, #14]
  1057f8:	e28dc068 	add	ip, sp, #104	; 0x68
  1057fc:	e58d0064 	str	r0, [sp, #100]	; 0x64
  105800:	e28d0058 	add	r0, sp, #88	; 0x58
  105804:	e58d301c 	str	r3, [sp, #28]
  105808:	e3a03000 	mov	r3, #0
  10580c:	e58d2024 	str	r2, [sp, #36]	; 0x24
  105810:	e58dc000 	str	ip, [sp]
  105814:	e58dc010 	str	ip, [sp, #16]
  105818:	e58d1008 	str	r1, [sp, #8]
  10581c:	e58d1014 	str	r1, [sp, #20]
  105820:	e58d3018 	str	r3, [sp, #24]
  105824:	eb001988 	bl	10be4c <__generic_gxx_recursive_mutex_init_function>
  105828:	e1a02006 	mov	r2, r6
  10582c:	e1a03008 	mov	r3, r8
  105830:	e1a0100d 	mov	r1, sp
  105834:	e1a00007 	mov	r0, r7
  105838:	ebfff808 	bl	103860 <_vfprintf_r>
  10583c:	e2506000 	subs	r6, r0, #0
  105840:	ba000004 	blt	105858 <__sbprintf+0xa0>
  105844:	e1a0100d 	mov	r1, sp
  105848:	e1a00007 	mov	r0, r7
  10584c:	eb0005d3 	bl	106fa0 <_fflush_r>
  105850:	e3500000 	cmp	r0, #0
  105854:	13e06000 	mvnne	r6, #0
  105858:	e1dd30bc 	ldrh	r3, [sp, #12]
  10585c:	e28d0058 	add	r0, sp, #88	; 0x58
  105860:	e3130040 	tst	r3, #64	; 0x40
  105864:	11d430bc 	ldrhne	r3, [r4, #12]
  105868:	13833040 	orrne	r3, r3, #64	; 0x40
  10586c:	11c430bc 	strhne	r3, [r4, #12]
  105870:	eb001977 	bl	10be54 <__generic_gxx_recursive_mutex_destroy>
  105874:	e1a00006 	mov	r0, r6
  105878:	e28dde46 	add	sp, sp, #1120	; 0x460
  10587c:	e28dd008 	add	sp, sp, #8
  105880:	e8bd81f0 	pop	{r4, r5, r6, r7, r8, pc}

00105884 <__swsetup_r>:
  105884:	e92d4070 	push	{r4, r5, r6, lr}
  105888:	e1a05000 	mov	r5, r0
  10588c:	e1a04001 	mov	r4, r1
  105890:	eb000939 	bl	107d7c <__getreent>
  105894:	e2503000 	subs	r3, r0, #0
  105898:	0a000002 	beq	1058a8 <__swsetup_r+0x24>
  10589c:	e5933038 	ldr	r3, [r3, #56]	; 0x38
  1058a0:	e3530000 	cmp	r3, #0
  1058a4:	0a00002f 	beq	105968 <__swsetup_r+0xe4>
  1058a8:	e1d420fc 	ldrsh	r2, [r4, #12]
  1058ac:	e6ff3072 	uxth	r3, r2
  1058b0:	e3130008 	tst	r3, #8
  1058b4:	0a00000b 	beq	1058e8 <__swsetup_r+0x64>
  1058b8:	e5940010 	ldr	r0, [r4, #16]
  1058bc:	e3500000 	cmp	r0, #0
  1058c0:	0a000012 	beq	105910 <__swsetup_r+0x8c>
  1058c4:	e2132001 	ands	r2, r3, #1
  1058c8:	1a000019 	bne	105934 <__swsetup_r+0xb0>
  1058cc:	e3130002 	tst	r3, #2
  1058d0:	05942014 	ldreq	r2, [r4, #20]
  1058d4:	e3500000 	cmp	r0, #0
  1058d8:	e5842008 	str	r2, [r4, #8]
  1058dc:	0a00001b 	beq	105950 <__swsetup_r+0xcc>
  1058e0:	e3a00000 	mov	r0, #0
  1058e4:	e8bd8070 	pop	{r4, r5, r6, pc}
  1058e8:	e3130010 	tst	r3, #16
  1058ec:	0a00002f 	beq	1059b0 <__swsetup_r+0x12c>
  1058f0:	e3130004 	tst	r3, #4
  1058f4:	1a00001d 	bne	105970 <__swsetup_r+0xec>
  1058f8:	e5940010 	ldr	r0, [r4, #16]
  1058fc:	e3500000 	cmp	r0, #0
  105900:	e3822008 	orr	r2, r2, #8
  105904:	e6ff3072 	uxth	r3, r2
  105908:	e1c420bc 	strh	r2, [r4, #12]
  10590c:	1affffec 	bne	1058c4 <__swsetup_r+0x40>
  105910:	e2032d0a 	and	r2, r3, #640	; 0x280
  105914:	e3520c02 	cmp	r2, #512	; 0x200
  105918:	0affffe9 	beq	1058c4 <__swsetup_r+0x40>
  10591c:	e1a00005 	mov	r0, r5
  105920:	e1a01004 	mov	r1, r4
  105924:	eb000951 	bl	107e70 <__smakebuf_r>
  105928:	e1d430bc 	ldrh	r3, [r4, #12]
  10592c:	e5940010 	ldr	r0, [r4, #16]
  105930:	eaffffe3 	b	1058c4 <__swsetup_r+0x40>
  105934:	e5943014 	ldr	r3, [r4, #20]
  105938:	e3500000 	cmp	r0, #0
  10593c:	e3a02000 	mov	r2, #0
  105940:	e5842008 	str	r2, [r4, #8]
  105944:	e2633000 	rsb	r3, r3, #0
  105948:	e5843018 	str	r3, [r4, #24]
  10594c:	1affffe3 	bne	1058e0 <__swsetup_r+0x5c>
  105950:	e1d430fc 	ldrsh	r3, [r4, #12]
  105954:	e3130080 	tst	r3, #128	; 0x80
  105958:	13833040 	orrne	r3, r3, #64	; 0x40
  10595c:	13e00000 	mvnne	r0, #0
  105960:	11c430bc 	strhne	r3, [r4, #12]
  105964:	e8bd8070 	pop	{r4, r5, r6, pc}
  105968:	eb000614 	bl	1071c0 <__sinit>
  10596c:	eaffffcd 	b	1058a8 <__swsetup_r+0x24>
  105970:	e5941030 	ldr	r1, [r4, #48]	; 0x30
  105974:	e3510000 	cmp	r1, #0
  105978:	0a000007 	beq	10599c <__swsetup_r+0x118>
  10597c:	e2843040 	add	r3, r4, #64	; 0x40
  105980:	e1510003 	cmp	r1, r3
  105984:	0a000002 	beq	105994 <__swsetup_r+0x110>
  105988:	e1a00005 	mov	r0, r5
  10598c:	eb0006d8 	bl	1074f4 <_free_r>
  105990:	e1d420fc 	ldrsh	r2, [r4, #12]
  105994:	e3a03000 	mov	r3, #0
  105998:	e5843030 	str	r3, [r4, #48]	; 0x30
  10599c:	e5940010 	ldr	r0, [r4, #16]
  1059a0:	e3a03000 	mov	r3, #0
  1059a4:	e3c22024 	bic	r2, r2, #36	; 0x24
  1059a8:	e8840009 	stm	r4, {r0, r3}
  1059ac:	eaffffd2 	b	1058fc <__swsetup_r+0x78>
  1059b0:	e3822040 	orr	r2, r2, #64	; 0x40
  1059b4:	e3a03009 	mov	r3, #9
  1059b8:	e5853000 	str	r3, [r5]
  1059bc:	e3e00000 	mvn	r0, #0
  1059c0:	e1c420bc 	strh	r2, [r4, #12]
  1059c4:	e8bd8070 	pop	{r4, r5, r6, pc}

001059c8 <quorem>:
  1059c8:	e92d4ff0 	push	{r4, r5, r6, r7, r8, r9, sl, fp, lr}
  1059cc:	e24dd014 	sub	sp, sp, #20
  1059d0:	e5903010 	ldr	r3, [r0, #16]
  1059d4:	e5915010 	ldr	r5, [r1, #16]
  1059d8:	e1550003 	cmp	r5, r3
  1059dc:	c3a00000 	movgt	r0, #0
  1059e0:	ca00006c 	bgt	105b98 <quorem+0x1d0>
  1059e4:	e2455001 	sub	r5, r5, #1
  1059e8:	e2814014 	add	r4, r1, #20
  1059ec:	e58d1004 	str	r1, [sp, #4]
  1059f0:	e1a03105 	lsl	r3, r5, #2
  1059f4:	e7941105 	ldr	r1, [r4, r5, lsl #2]
  1059f8:	e2809014 	add	r9, r0, #20
  1059fc:	e1a07000 	mov	r7, r0
  105a00:	e7990105 	ldr	r0, [r9, r5, lsl #2]
  105a04:	e1a0a003 	mov	sl, r3
  105a08:	e58d3008 	str	r3, [sp, #8]
  105a0c:	e2811001 	add	r1, r1, #1
  105a10:	e0848003 	add	r8, r4, r3
  105a14:	ebfff404 	bl	102a2c <__aeabi_uidiv>
  105a18:	e2506000 	subs	r6, r0, #0
  105a1c:	e089300a 	add	r3, r9, sl
  105a20:	e58d300c 	str	r3, [sp, #12]
  105a24:	0a00002e 	beq	105ae4 <quorem+0x11c>
  105a28:	e3a0c000 	mov	ip, #0
  105a2c:	e1a0a004 	mov	sl, r4
  105a30:	e1a0e009 	mov	lr, r9
  105a34:	e1a0300c 	mov	r3, ip
  105a38:	e49a1004 	ldr	r1, [sl], #4
  105a3c:	e59e0000 	ldr	r0, [lr]
  105a40:	e158000a 	cmp	r8, sl
  105a44:	e6ff2071 	uxth	r2, r1
  105a48:	e1a01821 	lsr	r1, r1, #16
  105a4c:	e6ffb070 	uxth	fp, r0
  105a50:	e022c296 	mla	r2, r6, r2, ip
  105a54:	e1a0c822 	lsr	ip, r2, #16
  105a58:	e6ff2072 	uxth	r2, r2
  105a5c:	e02cc196 	mla	ip, r6, r1, ip
  105a60:	e0433002 	sub	r3, r3, r2
  105a64:	e083300b 	add	r3, r3, fp
  105a68:	e6ff207c 	uxth	r2, ip
  105a6c:	e6ff1073 	uxth	r1, r3
  105a70:	e1a0c82c 	lsr	ip, ip, #16
  105a74:	e0622820 	rsb	r2, r2, r0, lsr #16
  105a78:	e0823843 	add	r3, r2, r3, asr #16
  105a7c:	e1811803 	orr	r1, r1, r3, lsl #16
  105a80:	e1a03843 	asr	r3, r3, #16
  105a84:	e48e1004 	str	r1, [lr], #4
  105a88:	2affffea 	bcs	105a38 <quorem+0x70>
  105a8c:	e59d3008 	ldr	r3, [sp, #8]
  105a90:	e7993003 	ldr	r3, [r9, r3]
  105a94:	e3530000 	cmp	r3, #0
  105a98:	1a000011 	bne	105ae4 <quorem+0x11c>
  105a9c:	e59d200c 	ldr	r2, [sp, #12]
  105aa0:	e2423004 	sub	r3, r2, #4
  105aa4:	e1590003 	cmp	r9, r3
  105aa8:	2a00000c 	bcs	105ae0 <quorem+0x118>
  105aac:	e5123004 	ldr	r3, [r2, #-4]
  105ab0:	e3530000 	cmp	r3, #0
  105ab4:	1a000009 	bne	105ae0 <quorem+0x118>
  105ab8:	e2423008 	sub	r3, r2, #8
  105abc:	ea000002 	b	105acc <quorem+0x104>
  105ac0:	e5922000 	ldr	r2, [r2]
  105ac4:	e3520000 	cmp	r2, #0
  105ac8:	1a000004 	bne	105ae0 <quorem+0x118>
  105acc:	e1590003 	cmp	r9, r3
  105ad0:	e1a02003 	mov	r2, r3
  105ad4:	e2455001 	sub	r5, r5, #1
  105ad8:	e2433004 	sub	r3, r3, #4
  105adc:	3afffff7 	bcc	105ac0 <quorem+0xf8>
  105ae0:	e5875010 	str	r5, [r7, #16]
  105ae4:	e59d1004 	ldr	r1, [sp, #4]
  105ae8:	e1a00007 	mov	r0, r7
  105aec:	eb000be0 	bl	108a74 <__mcmp>
  105af0:	e3500000 	cmp	r0, #0
  105af4:	ba000026 	blt	105b94 <quorem+0x1cc>
  105af8:	e2866001 	add	r6, r6, #1
  105afc:	e1a0c009 	mov	ip, r9
  105b00:	e3a03000 	mov	r3, #0
  105b04:	e4942004 	ldr	r2, [r4], #4
  105b08:	e59c0000 	ldr	r0, [ip]
  105b0c:	e1580004 	cmp	r8, r4
  105b10:	e6ff1072 	uxth	r1, r2
  105b14:	e1a02822 	lsr	r2, r2, #16
  105b18:	e6ffe070 	uxth	lr, r0
  105b1c:	e0431001 	sub	r1, r3, r1
  105b20:	e0623820 	rsb	r3, r2, r0, lsr #16
  105b24:	e081200e 	add	r2, r1, lr
  105b28:	e0833842 	add	r3, r3, r2, asr #16
  105b2c:	e6ff2072 	uxth	r2, r2
  105b30:	e1822803 	orr	r2, r2, r3, lsl #16
  105b34:	e1a03843 	asr	r3, r3, #16
  105b38:	e48c2004 	str	r2, [ip], #4
  105b3c:	2afffff0 	bcs	105b04 <quorem+0x13c>
  105b40:	e7992105 	ldr	r2, [r9, r5, lsl #2]
  105b44:	e0893105 	add	r3, r9, r5, lsl #2
  105b48:	e3520000 	cmp	r2, #0
  105b4c:	1a000010 	bne	105b94 <quorem+0x1cc>
  105b50:	e2432004 	sub	r2, r3, #4
  105b54:	e1590002 	cmp	r9, r2
  105b58:	2a00000c 	bcs	105b90 <quorem+0x1c8>
  105b5c:	e5132004 	ldr	r2, [r3, #-4]
  105b60:	e3520000 	cmp	r2, #0
  105b64:	1a000009 	bne	105b90 <quorem+0x1c8>
  105b68:	e2433008 	sub	r3, r3, #8
  105b6c:	ea000002 	b	105b7c <quorem+0x1b4>
  105b70:	e5922000 	ldr	r2, [r2]
  105b74:	e3520000 	cmp	r2, #0
  105b78:	1a000004 	bne	105b90 <quorem+0x1c8>
  105b7c:	e1590003 	cmp	r9, r3
  105b80:	e1a02003 	mov	r2, r3
  105b84:	e2455001 	sub	r5, r5, #1
  105b88:	e2433004 	sub	r3, r3, #4
  105b8c:	3afffff7 	bcc	105b70 <quorem+0x1a8>
  105b90:	e5875010 	str	r5, [r7, #16]
  105b94:	e1a00006 	mov	r0, r6
  105b98:	e28dd014 	add	sp, sp, #20
  105b9c:	e8bd8ff0 	pop	{r4, r5, r6, r7, r8, r9, sl, fp, pc}

00105ba0 <_dtoa_r>:
  105ba0:	e590c040 	ldr	ip, [r0, #64]	; 0x40
  105ba4:	e92d4ff0 	push	{r4, r5, r6, r7, r8, r9, sl, fp, lr}
  105ba8:	e1a04000 	mov	r4, r0
  105bac:	ed2d8b02 	vpush	{d8}
  105bb0:	e24dd03c 	sub	sp, sp, #60	; 0x3c
  105bb4:	e35c0000 	cmp	ip, #0
  105bb8:	e1a0a002 	mov	sl, r2
  105bbc:	e1a0b003 	mov	fp, r3
  105bc0:	e59d5074 	ldr	r5, [sp, #116]	; 0x74
  105bc4:	0a000008 	beq	105bec <_dtoa_r+0x4c>
  105bc8:	e5902044 	ldr	r2, [r0, #68]	; 0x44
  105bcc:	e3a03001 	mov	r3, #1
  105bd0:	e1a0100c 	mov	r1, ip
  105bd4:	e58c2004 	str	r2, [ip, #4]
  105bd8:	e1a03213 	lsl	r3, r3, r2
  105bdc:	e58c3008 	str	r3, [ip, #8]
  105be0:	eb000a03 	bl	1083f4 <_Bfree>
  105be4:	e3a03000 	mov	r3, #0
  105be8:	e5843040 	str	r3, [r4, #64]	; 0x40
  105bec:	e35b0000 	cmp	fp, #0
  105bf0:	e1a0600b 	mov	r6, fp
  105bf4:	b3a03001 	movlt	r3, #1
  105bf8:	a3a03000 	movge	r3, #0
  105bfc:	b5853000 	strlt	r3, [r5]
  105c00:	b3cb6102 	biclt	r6, fp, #-2147483648	; 0x80000000
  105c04:	a5853000 	strge	r3, [r5]
  105c08:	e3a03000 	mov	r3, #0
  105c0c:	e3473ff0 	movt	r3, #32752	; 0x7ff0
  105c10:	b1a0b006 	movlt	fp, r6
  105c14:	e1d33006 	bics	r3, r3, r6
  105c18:	0a000010 	beq	105c60 <_dtoa_r+0xc0>
  105c1c:	ec4bab18 	vmov	d8, sl, fp
  105c20:	eeb58b40 	vcmp.f64	d8, #0.0
  105c24:	eef1fa10 	vmrs	APSR_nzcv, fpscr
  105c28:	1a000028 	bne	105cd0 <_dtoa_r+0x130>
  105c2c:	e59d3078 	ldr	r3, [sp, #120]	; 0x78
  105c30:	e59d2070 	ldr	r2, [sp, #112]	; 0x70
  105c34:	e3530000 	cmp	r3, #0
  105c38:	e3a03001 	mov	r3, #1
  105c3c:	e5823000 	str	r3, [r2]
  105c40:	0a000087 	beq	105e64 <_dtoa_r+0x2c4>
  105c44:	e59f0304 	ldr	r0, [pc, #772]	; 105f50 <_dtoa_r+0x3b0>
  105c48:	e59d3078 	ldr	r3, [sp, #120]	; 0x78
  105c4c:	e5830000 	str	r0, [r3]
  105c50:	e2400001 	sub	r0, r0, #1
  105c54:	e28dd03c 	add	sp, sp, #60	; 0x3c
  105c58:	ecbd8b02 	vpop	{d8}
  105c5c:	e8bd8ff0 	pop	{r4, r5, r6, r7, r8, r9, sl, fp, pc}
  105c60:	e59d2070 	ldr	r2, [sp, #112]	; 0x70
  105c64:	e35a0000 	cmp	sl, #0
  105c68:	e302370f 	movw	r3, #9999	; 0x270f
  105c6c:	e5823000 	str	r3, [r2]
  105c70:	1a00000d 	bne	105cac <_dtoa_r+0x10c>
  105c74:	e7f36056 	ubfx	r6, r6, #0, #20
  105c78:	e3560000 	cmp	r6, #0
  105c7c:	1a00000a 	bne	105cac <_dtoa_r+0x10c>
  105c80:	e59d3078 	ldr	r3, [sp, #120]	; 0x78
  105c84:	e30c0860 	movw	r0, #51296	; 0xc860
  105c88:	e3400010 	movt	r0, #16
  105c8c:	e3530000 	cmp	r3, #0
  105c90:	12803008 	addne	r3, r0, #8
  105c94:	0affffee 	beq	105c54 <_dtoa_r+0xb4>
  105c98:	e59d2078 	ldr	r2, [sp, #120]	; 0x78
  105c9c:	e5823000 	str	r3, [r2]
  105ca0:	e28dd03c 	add	sp, sp, #60	; 0x3c
  105ca4:	ecbd8b02 	vpop	{d8}
  105ca8:	e8bd8ff0 	pop	{r4, r5, r6, r7, r8, r9, sl, fp, pc}
  105cac:	e59d3078 	ldr	r3, [sp, #120]	; 0x78
  105cb0:	e30c086c 	movw	r0, #51308	; 0xc86c
  105cb4:	e3400010 	movt	r0, #16
  105cb8:	e3530000 	cmp	r3, #0
  105cbc:	12803003 	addne	r3, r0, #3
  105cc0:	0affffe3 	beq	105c54 <_dtoa_r+0xb4>
  105cc4:	e59d2078 	ldr	r2, [sp, #120]	; 0x78
  105cc8:	e5823000 	str	r3, [r2]
  105ccc:	eafffff3 	b	105ca0 <_dtoa_r+0x100>
  105cd0:	e28d2030 	add	r2, sp, #48	; 0x30
  105cd4:	e28d3034 	add	r3, sp, #52	; 0x34
  105cd8:	e58d2004 	str	r2, [sp, #4]
  105cdc:	e1a00004 	mov	r0, r4
  105ce0:	e58d3000 	str	r3, [sp]
  105ce4:	e1a0200a 	mov	r2, sl
  105ce8:	e1a0300b 	mov	r3, fp
  105cec:	eb000c2e 	bl	108dac <__d2b>
  105cf0:	e1b01a26 	lsrs	r1, r6, #20
  105cf4:	e1a07000 	mov	r7, r0
  105cf8:	1a00004e 	bne	105e38 <_dtoa_r+0x298>
  105cfc:	e59d0030 	ldr	r0, [sp, #48]	; 0x30
  105d00:	e3a0c001 	mov	ip, #1
  105d04:	e59d1034 	ldr	r1, [sp, #52]	; 0x34
  105d08:	e58dc018 	str	ip, [sp, #24]
  105d0c:	e0801001 	add	r1, r0, r1
  105d10:	e2813e43 	add	r3, r1, #1072	; 0x430
  105d14:	e2833002 	add	r3, r3, #2
  105d18:	e3530020 	cmp	r3, #32
  105d1c:	c2633040 	rsbgt	r3, r3, #64	; 0x40
  105d20:	c2812e41 	addgt	r2, r1, #1040	; 0x410
  105d24:	c1a06316 	lslgt	r6, r6, r3
  105d28:	d2633020 	rsble	r3, r3, #32
  105d2c:	c2822002 	addgt	r2, r2, #2
  105d30:	d1a0331a 	lslle	r3, sl, r3
  105d34:	c186323a 	orrgt	r3, r6, sl, lsr r2
  105d38:	e2411001 	sub	r1, r1, #1
  105d3c:	ee073a90 	vmov	s15, r3
  105d40:	eef80b67 	vcvt.f64.u32	d16, s15
  105d44:	ec532b30 	vmov	r2, r3, d16
  105d48:	e243361f 	sub	r3, r3, #32505856	; 0x1f00000
  105d4c:	ec432b30 	vmov	d16, r2, r3
  105d50:	eef71b08 	vmov.f64	d17, #120	; 0x3fc00000  1.5
  105d54:	eddf3b77 	vldr	d19, [pc, #476]	; 105f38 <_dtoa_r+0x398>
  105d58:	ee701be1 	vsub.f64	d17, d16, d17
  105d5c:	eddf0b77 	vldr	d16, [pc, #476]	; 105f40 <_dtoa_r+0x3a0>
  105d60:	ee071a90 	vmov	s15, r1
  105d64:	eddf2b77 	vldr	d18, [pc, #476]	; 105f48 <_dtoa_r+0x3a8>
  105d68:	ee410ba3 	vmla.f64	d16, d17, d19
  105d6c:	eef81be7 	vcvt.f64.s32	d17, s15
  105d70:	ee410ba2 	vmla.f64	d16, d17, d18
  105d74:	eefd7be0 	vcvt.s32.f64	s15, d16
  105d78:	eef50bc0 	vcmpe.f64	d16, #0.0
  105d7c:	eef1fa10 	vmrs	APSR_nzcv, fpscr
  105d80:	ee179a90 	vmov	r9, s15
  105d84:	4a000111 	bmi	1061d0 <_dtoa_r+0x630>
  105d88:	e3590016 	cmp	r9, #22
  105d8c:	83a03001 	movhi	r3, #1
  105d90:	858d3020 	strhi	r3, [sp, #32]
  105d94:	8a000009 	bhi	105dc0 <_dtoa_r+0x220>
  105d98:	e30c3888 	movw	r3, #51336	; 0xc888
  105d9c:	ec4bab31 	vmov	d17, sl, fp
  105da0:	e3403010 	movt	r3, #16
  105da4:	e0833189 	add	r3, r3, r9, lsl #3
  105da8:	edd30b00 	vldr	d16, [r3]
  105dac:	e3a03000 	mov	r3, #0
  105db0:	e58d3020 	str	r3, [sp, #32]
  105db4:	eef40be1 	vcmpe.f64	d16, d17
  105db8:	eef1fa10 	vmrs	APSR_nzcv, fpscr
  105dbc:	c2499001 	subgt	r9, r9, #1
  105dc0:	e0403001 	sub	r3, r0, r1
  105dc4:	e2538001 	subs	r8, r3, #1
  105dc8:	42633001 	rsbmi	r3, r3, #1
  105dcc:	53a03000 	movpl	r3, #0
  105dd0:	458d3010 	strmi	r3, [sp, #16]
  105dd4:	43a08000 	movmi	r8, #0
  105dd8:	558d3010 	strpl	r3, [sp, #16]
  105ddc:	e3590000 	cmp	r9, #0
  105de0:	ba0000f2 	blt	1061b0 <_dtoa_r+0x610>
  105de4:	e0888009 	add	r8, r8, r9
  105de8:	e3a03000 	mov	r3, #0
  105dec:	e58d9024 	str	r9, [sp, #36]	; 0x24
  105df0:	e58d300c 	str	r3, [sp, #12]
  105df4:	e59d3068 	ldr	r3, [sp, #104]	; 0x68
  105df8:	e3530009 	cmp	r3, #9
  105dfc:	8a00001b 	bhi	105e70 <_dtoa_r+0x2d0>
  105e00:	e3530005 	cmp	r3, #5
  105e04:	d3a05001 	movle	r5, #1
  105e08:	c3a05000 	movgt	r5, #0
  105e0c:	c2433004 	subgt	r3, r3, #4
  105e10:	c58d3068 	strgt	r3, [sp, #104]	; 0x68
  105e14:	e59d3068 	ldr	r3, [sp, #104]	; 0x68
  105e18:	e2433002 	sub	r3, r3, #2
  105e1c:	e3530003 	cmp	r3, #3
  105e20:	979ff103 	ldrls	pc, [pc, r3, lsl #2]
  105e24:	ea0000ee 	b	1061e4 <_dtoa_r+0x644>
  105e28:	001064cc 	.word	0x001064cc
  105e2c:	001062bc 	.word	0x001062bc
  105e30:	001064fc 	.word	0x001064fc
  105e34:	001067dc 	.word	0x001067dc
  105e38:	e1a0300b 	mov	r3, fp
  105e3c:	e2411fff 	sub	r1, r1, #1020	; 0x3fc
  105e40:	e7f30053 	ubfx	r0, r3, #0, #20
  105e44:	e3a0c000 	mov	ip, #0
  105e48:	e38035ff 	orr	r3, r0, #1069547520	; 0x3fc00000
  105e4c:	e1a0200a 	mov	r2, sl
  105e50:	e2411003 	sub	r1, r1, #3
  105e54:	e59d0030 	ldr	r0, [sp, #48]	; 0x30
  105e58:	e3833603 	orr	r3, r3, #3145728	; 0x300000
  105e5c:	e58dc018 	str	ip, [sp, #24]
  105e60:	eaffffb9 	b	105d4c <_dtoa_r+0x1ac>
  105e64:	e30c085c 	movw	r0, #51292	; 0xc85c
  105e68:	e3400010 	movt	r0, #16
  105e6c:	eaffff78 	b	105c54 <_dtoa_r+0xb4>
  105e70:	e3a01000 	mov	r1, #0
  105e74:	e3e03000 	mvn	r3, #0
  105e78:	e1a00004 	mov	r0, r4
  105e7c:	e5841044 	str	r1, [r4, #68]	; 0x44
  105e80:	e1a05003 	mov	r5, r3
  105e84:	e58d3028 	str	r3, [sp, #40]	; 0x28
  105e88:	e58d1068 	str	r1, [sp, #104]	; 0x68
  105e8c:	eb000936 	bl	10836c <_Balloc>
  105e90:	e59d3068 	ldr	r3, [sp, #104]	; 0x68
  105e94:	e1a06000 	mov	r6, r0
  105e98:	e5840040 	str	r0, [r4, #64]	; 0x40
  105e9c:	e58d5014 	str	r5, [sp, #20]
  105ea0:	e58d306c 	str	r3, [sp, #108]	; 0x6c
  105ea4:	e3a03001 	mov	r3, #1
  105ea8:	e58d301c 	str	r3, [sp, #28]
  105eac:	e59d3034 	ldr	r3, [sp, #52]	; 0x34
  105eb0:	e359000e 	cmp	r9, #14
  105eb4:	e1e02003 	mvn	r2, r3
  105eb8:	e1a02fa2 	lsr	r2, r2, #31
  105ebc:	c3a02000 	movgt	r2, #0
  105ec0:	e3520000 	cmp	r2, #0
  105ec4:	0a000022 	beq	105f54 <_dtoa_r+0x3b4>
  105ec8:	e59d1014 	ldr	r1, [sp, #20]
  105ecc:	e30c3888 	movw	r3, #51336	; 0xc888
  105ed0:	e59d006c 	ldr	r0, [sp, #108]	; 0x6c
  105ed4:	e3403010 	movt	r3, #16
  105ed8:	e0833189 	add	r3, r3, r9, lsl #3
  105edc:	e3510000 	cmp	r1, #0
  105ee0:	e1a02001 	mov	r2, r1
  105ee4:	c3a02000 	movgt	r2, #0
  105ee8:	d3a02001 	movle	r2, #1
  105eec:	edd32b00 	vldr	d18, [r3]
  105ef0:	e0122fa0 	ands	r2, r2, r0, lsr #31
  105ef4:	0a000183 	beq	106508 <_dtoa_r+0x968>
  105ef8:	e59d3014 	ldr	r3, [sp, #20]
  105efc:	e3530000 	cmp	r3, #0
  105f00:	1a0001c7 	bne	106624 <_dtoa_r+0xa84>
  105f04:	eef10b04 	vmov.f64	d16, #20	; 0x40a00000  5.0
  105f08:	ee622ba0 	vmul.f64	d18, d18, d16
  105f0c:	ec4bab30 	vmov	d16, sl, fp
  105f10:	eef42be0 	vcmpe.f64	d18, d16
  105f14:	eef1fa10 	vmrs	APSR_nzcv, fpscr
  105f18:	ba00020d 	blt	106754 <_dtoa_r+0xbb4>
  105f1c:	e59d3014 	ldr	r3, [sp, #20]
  105f20:	e58d300c 	str	r3, [sp, #12]
  105f24:	e58d3018 	str	r3, [sp, #24]
  105f28:	e59d306c 	ldr	r3, [sp, #108]	; 0x6c
  105f2c:	e1a05006 	mov	r5, r6
  105f30:	e1e09003 	mvn	r9, r3
  105f34:	ea000083 	b	106148 <_dtoa_r+0x5a8>
  105f38:	636f4361 	.word	0x636f4361
  105f3c:	3fd287a7 	.word	0x3fd287a7
  105f40:	8b60c8b3 	.word	0x8b60c8b3
  105f44:	3fc68a28 	.word	0x3fc68a28
  105f48:	509f79fb 	.word	0x509f79fb
  105f4c:	3fd34413 	.word	0x3fd34413
  105f50:	0010c85d 	.word	0x0010c85d
  105f54:	e59d201c 	ldr	r2, [sp, #28]
  105f58:	e3520000 	cmp	r2, #0
  105f5c:	1a0000b5 	bne	106238 <_dtoa_r+0x698>
  105f60:	e59d300c 	ldr	r3, [sp, #12]
  105f64:	e59d5010 	ldr	r5, [sp, #16]
  105f68:	e58d302c 	str	r3, [sp, #44]	; 0x2c
  105f6c:	e59d301c 	ldr	r3, [sp, #28]
  105f70:	e58d3018 	str	r3, [sp, #24]
  105f74:	e3550000 	cmp	r5, #0
  105f78:	c3580000 	cmpgt	r8, #0
  105f7c:	da000007 	ble	105fa0 <_dtoa_r+0x400>
  105f80:	e1550008 	cmp	r5, r8
  105f84:	e59d2010 	ldr	r2, [sp, #16]
  105f88:	b1a03005 	movlt	r3, r5
  105f8c:	a1a03008 	movge	r3, r8
  105f90:	e0455003 	sub	r5, r5, r3
  105f94:	e0488003 	sub	r8, r8, r3
  105f98:	e0422003 	sub	r2, r2, r3
  105f9c:	e58d2010 	str	r2, [sp, #16]
  105fa0:	e59d300c 	ldr	r3, [sp, #12]
  105fa4:	e3530000 	cmp	r3, #0
  105fa8:	0a000017 	beq	10600c <_dtoa_r+0x46c>
  105fac:	e59d301c 	ldr	r3, [sp, #28]
  105fb0:	e3530000 	cmp	r3, #0
  105fb4:	0a0001e9 	beq	106760 <_dtoa_r+0xbc0>
  105fb8:	e59d302c 	ldr	r3, [sp, #44]	; 0x2c
  105fbc:	e3530000 	cmp	r3, #0
  105fc0:	da00000d 	ble	105ffc <_dtoa_r+0x45c>
  105fc4:	e1a02003 	mov	r2, r3
  105fc8:	e59d1018 	ldr	r1, [sp, #24]
  105fcc:	e1a00004 	mov	r0, r4
  105fd0:	eb000a2d 	bl	10888c <__pow5mult>
  105fd4:	e1a02007 	mov	r2, r7
  105fd8:	e1a01000 	mov	r1, r0
  105fdc:	e58d0018 	str	r0, [sp, #24]
  105fe0:	e1a00004 	mov	r0, r4
  105fe4:	eb0009bb 	bl	1086d8 <__multiply>
  105fe8:	e1a01007 	mov	r1, r7
  105fec:	e1a03000 	mov	r3, r0
  105ff0:	e1a00004 	mov	r0, r4
  105ff4:	e1a07003 	mov	r7, r3
  105ff8:	eb0008fd 	bl	1083f4 <_Bfree>
  105ffc:	e59d300c 	ldr	r3, [sp, #12]
  106000:	e59d202c 	ldr	r2, [sp, #44]	; 0x2c
  106004:	e0532002 	subs	r2, r3, r2
  106008:	1a0001d5 	bne	106764 <_dtoa_r+0xbc4>
  10600c:	e3a01001 	mov	r1, #1
  106010:	e1a00004 	mov	r0, r4
  106014:	eb0009a7 	bl	1086b8 <__i2b>
  106018:	e59d3024 	ldr	r3, [sp, #36]	; 0x24
  10601c:	e58d000c 	str	r0, [sp, #12]
  106020:	e3530000 	cmp	r3, #0
  106024:	da0001bf 	ble	106728 <_dtoa_r+0xb88>
  106028:	e1a01000 	mov	r1, r0
  10602c:	e1a02003 	mov	r2, r3
