
soc_dma.axf:     file format elf32-littlearm


Disassembly of section .text:

00100040 <__cs3_interrupt_vector>:
  100040:	18 f0 9f e5 18 f0 9f e5 18 f0 9f e5 18 f0 9f e5     ................
  100050:	18 f0 9f e5 18 f0 9f e5 18 f0 9f e5 18 f0 9f e5     ................
  100060:	80 00 10 00 70 0f 11 00 74 0f 11 00 78 0f 11 00     ....p...t...x...
  100070:	7c 0f 11 00 6c 0f 11 00 80 0f 11 00 84 0f 11 00     |...l...........

00100080 <__cs3_reset>:
  100080:	ea000022 	b	100110 <_start>

00100084 <__cs3_start_c>:
  100084:	e3008002 	movw	r8, #2
  100088:	e92d4080 	push	{r7, lr}
  10008c:	e3408000 	movt	r8, #0
  100090:	e3580000 	cmp	r8, #0
  100094:	0a00001c 	beq	10010c <__cs3_start_c+0x88>
  100098:	e305ea84 	movw	lr, #23172	; 0x5a84
  10009c:	e2488001 	sub	r8, r8, #1
  1000a0:	e3a04000 	mov	r4, #0
  1000a4:	e3a05000 	mov	r5, #0
  1000a8:	e340e012 	movt	lr, #18
  1000ac:	e99e1005 	ldmib	lr, {r0, r2, ip}
  1000b0:	e1500002 	cmp	r0, r2
  1000b4:	0082200c 	addeq	r2, r2, ip
  1000b8:	0a000007 	beq	1000dc <__cs3_start_c+0x58>
  1000bc:	e35c0000 	cmp	ip, #0
  1000c0:	0a000005 	beq	1000dc <__cs3_start_c+0x58>
  1000c4:	e1a03000 	mov	r3, r0
  1000c8:	e0c360d8 	ldrd	r6, [r3], #8
  1000cc:	e0431000 	sub	r1, r3, r0
  1000d0:	e0c260f8 	strd	r6, [r2], #8
  1000d4:	e151000c 	cmp	r1, ip
  1000d8:	1afffffa 	bne	1000c8 <__cs3_start_c+0x44>
  1000dc:	e59e0010 	ldr	r0, [lr, #16]
  1000e0:	e3500000 	cmp	r0, #0
  1000e4:	11a03002 	movne	r3, r2
  1000e8:	0a000003 	beq	1000fc <__cs3_start_c+0x78>
  1000ec:	e0c340f8 	strd	r4, [r3], #8
  1000f0:	e0431002 	sub	r1, r3, r2
  1000f4:	e1500001 	cmp	r0, r1
  1000f8:	1afffffb 	bne	1000ec <__cs3_start_c+0x68>
  1000fc:	e2488001 	sub	r8, r8, #1
  100100:	e28ee014 	add	lr, lr, #20
  100104:	e3780001 	cmn	r8, #1
  100108:	1affffe7 	bne	1000ac <__cs3_start_c+0x28>
  10010c:	eb004349 	bl	110e38 <__cs3_premain>

00100110 <_start>:
  100110:	e51fd000 	ldr	sp, [pc, #-0]	; 100118 <_start+0x8>
  100114:	eaffffda 	b	100084 <__cs3_start_c>
  100118:	01100040 	.word	0x01100040

0010011c <deregister_tm_clones>:
  10011c:	e59f3024 	ldr	r3, [pc, #36]	; 100148 <deregister_tm_clones+0x2c>
  100120:	e30009c0 	movw	r0, #2496	; 0x9c0
  100124:	e3400013 	movt	r0, #19
  100128:	e0433000 	sub	r3, r3, r0
  10012c:	e3530006 	cmp	r3, #6
  100130:	912fff1e 	bxls	lr
  100134:	e3003000 	movw	r3, #0
  100138:	e3403000 	movt	r3, #0
  10013c:	e3530000 	cmp	r3, #0
  100140:	012fff1e 	bxeq	lr
  100144:	e12fff13 	bx	r3
  100148:	001309c3 	.word	0x001309c3

0010014c <register_tm_clones>:
  10014c:	e30039c0 	movw	r3, #2496	; 0x9c0
  100150:	e30009c0 	movw	r0, #2496	; 0x9c0
  100154:	e3403013 	movt	r3, #19
  100158:	e3400013 	movt	r0, #19
  10015c:	e0431000 	sub	r1, r3, r0
  100160:	e1a01141 	asr	r1, r1, #2
  100164:	e0811fa1 	add	r1, r1, r1, lsr #31
  100168:	e1b010c1 	asrs	r1, r1, #1
  10016c:	012fff1e 	bxeq	lr
  100170:	e3003000 	movw	r3, #0
  100174:	e3403000 	movt	r3, #0
  100178:	e3530000 	cmp	r3, #0
  10017c:	012fff1e 	bxeq	lr
  100180:	e12fff13 	bx	r3

00100184 <__do_global_dtors_aux>:
  100184:	e92d4010 	push	{r4, lr}
  100188:	e30049c0 	movw	r4, #2496	; 0x9c0
  10018c:	e3404013 	movt	r4, #19
  100190:	e5d43000 	ldrb	r3, [r4]
  100194:	e3530000 	cmp	r3, #0
  100198:	18bd8010 	popne	{r4, pc}
  10019c:	ebffffde 	bl	10011c <deregister_tm_clones>
  1001a0:	e3003000 	movw	r3, #0
  1001a4:	e3403000 	movt	r3, #0
  1001a8:	e3530000 	cmp	r3, #0
  1001ac:	0a000002 	beq	1001bc <__do_global_dtors_aux+0x38>
  1001b0:	e3010000 	movw	r0, #4096	; 0x1000
  1001b4:	e3400011 	movt	r0, #17
  1001b8:	e320f000 	nop	{0}
  1001bc:	e3a03001 	mov	r3, #1
  1001c0:	e5c43000 	strb	r3, [r4]
  1001c4:	e8bd8010 	pop	{r4, pc}

001001c8 <frame_dummy>:
  1001c8:	e3003000 	movw	r3, #0
  1001cc:	e92d4010 	push	{r4, lr}
  1001d0:	e3403000 	movt	r3, #0
  1001d4:	e3530000 	cmp	r3, #0
  1001d8:	0a000004 	beq	1001f0 <frame_dummy+0x28>
  1001dc:	e30019c4 	movw	r1, #2500	; 0x9c4
  1001e0:	e3010000 	movw	r0, #4096	; 0x1000
  1001e4:	e3401013 	movt	r1, #19
  1001e8:	e3400011 	movt	r0, #17
  1001ec:	e320f000 	nop	{0}
  1001f0:	e3080000 	movw	r0, #32768	; 0x8000
  1001f4:	e3400012 	movt	r0, #18
  1001f8:	e5903000 	ldr	r3, [r0]
  1001fc:	e3530000 	cmp	r3, #0
  100200:	1a000001 	bne	10020c <frame_dummy+0x44>
  100204:	e8bd4010 	pop	{r4, lr}
  100208:	eaffffcf 	b	10014c <register_tm_clones>
  10020c:	e3003000 	movw	r3, #0
  100210:	e3403000 	movt	r3, #0
  100214:	e3530000 	cmp	r3, #0
  100218:	0afffff9 	beq	100204 <frame_dummy+0x3c>
  10021c:	e12fff33 	blx	r3
  100220:	eafffff7 	b	100204 <frame_dummy+0x3c>

00100224 <main>:
  100224:	e92d4800 	push	{fp, lr}
  100228:	e28db004 	add	fp, sp, #4
  10022c:	e24dd010 	sub	sp, sp, #16
  100230:	e3010010 	movw	r0, #4112	; 0x1010
  100234:	e3400011 	movt	r0, #17
  100238:	eb0021c3 	bl	10894c <printf>
  10023c:	e301004c 	movw	r0, #4172	; 0x104c
  100240:	e3400011 	movt	r0, #17
  100244:	eb0021c0 	bl	10894c <printf>
  100248:	e3010088 	movw	r0, #4232	; 0x1088
  10024c:	e3400011 	movt	r0, #17
  100250:	eb0021bd 	bl	10894c <printf>
  100254:	e30100c4 	movw	r0, #4292	; 0x10c4
  100258:	e3400011 	movt	r0, #17
  10025c:	eb0021ba 	bl	10894c <printf>
  100260:	e3010100 	movw	r0, #4352	; 0x1100
  100264:	e3400011 	movt	r0, #17
  100268:	eb0021b7 	bl	10894c <printf>
  10026c:	e3010128 	movw	r0, #4392	; 0x1128
  100270:	e3400011 	movt	r0, #17
  100274:	eb0021b4 	bl	10894c <printf>
  100278:	e3a03000 	mov	r3, #0
  10027c:	e50b3008 	str	r3, [fp, #-8]
  100280:	e3a00009 	mov	r0, #9
  100284:	eb000050 	bl	1003cc <cache_configuration>
  100288:	e3a0301f 	mov	r3, #31
  10028c:	e50b300c 	str	r3, [fp, #-12]
  100290:	e3a0301f 	mov	r3, #31
  100294:	e50b3010 	str	r3, [fp, #-16]
  100298:	e51b3008 	ldr	r3, [fp, #-8]
  10029c:	e3530000 	cmp	r3, #0
  1002a0:	1a00000d 	bne	1002dc <main+0xb8>
  1002a4:	e3a00003 	mov	r0, #3
  1002a8:	eb000456 	bl	101408 <alt_acp_id_map_dynamic_read_set>
  1002ac:	e50b0008 	str	r0, [fp, #-8]
  1002b0:	e3a00004 	mov	r0, #4
  1002b4:	eb0004b8 	bl	10159c <alt_acp_id_map_dynamic_write_set>
  1002b8:	e50b0008 	str	r0, [fp, #-8]
  1002bc:	e51b100c 	ldr	r1, [fp, #-12]
  1002c0:	e3a00000 	mov	r0, #0
  1002c4:	eb000519 	bl	101730 <alt_acp_id_map_dynamic_read_options_set>
  1002c8:	e50b0008 	str	r0, [fp, #-8]
  1002cc:	e51b1010 	ldr	r1, [fp, #-16]
  1002d0:	e3a00000 	mov	r0, #0
  1002d4:	eb00052a 	bl	101784 <alt_acp_id_map_dynamic_write_options_set>
  1002d8:	e50b0008 	str	r0, [fp, #-8]
  1002dc:	e51b3008 	ldr	r3, [fp, #-8]
  1002e0:	e3530000 	cmp	r3, #0
  1002e4:	1a000031 	bne	1003b0 <main+0x18c>
  1002e8:	e3010144 	movw	r0, #4420	; 0x1144
  1002ec:	e3400011 	movt	r0, #17
  1002f0:	eb002195 	bl	10894c <printf>
  1002f4:	e301017c 	movw	r0, #4476	; 0x117c
  1002f8:	e3400011 	movt	r0, #17
  1002fc:	eb002192 	bl	10894c <printf>
  100300:	e3a01d22 	mov	r1, #2176	; 0x880
  100304:	e3a00000 	mov	r0, #0
  100308:	e34c0001 	movt	r0, #49153	; 0xc001
  10030c:	eb000733 	bl	101fe0 <fpga_dma_init>
  100310:	e3010190 	movw	r0, #4496	; 0x1190
  100314:	e3400011 	movt	r0, #17
  100318:	eb00218b 	bl	10894c <printf>
  10031c:	e30101a8 	movw	r0, #4520	; 0x11a8
  100320:	e3400011 	movt	r0, #17
  100324:	eb002188 	bl	10894c <printf>
  100328:	e3a01001 	mov	r1, #1
  10032c:	e3a00e32 	mov	r0, #800	; 0x320
  100330:	eb0007b1 	bl	1021fc <pmu_init_ns>
  100334:	eb0007de 	bl	1022b4 <pmu_counter_enable>
  100338:	eb0007d4 	bl	102290 <pmu_getres_ns>
  10033c:	e50b0014 	str	r0, [fp, #-20]	; 0xffffffec
  100340:	e30101c8 	movw	r0, #4552	; 0x11c8
  100344:	e3400011 	movt	r0, #17
  100348:	eb00217f 	bl	10894c <printf>
  10034c:	ed5b7a05 	vldr	s15, [fp, #-20]	; 0xffffffec
  100350:	eef70ae7 	vcvt.f64.f32	d16, s15
  100354:	ec532b30 	vmov	r2, r3, d16
  100358:	e30101f4 	movw	r0, #4596	; 0x11f4
  10035c:	e3400011 	movt	r0, #17
  100360:	eb002179 	bl	10894c <printf>
  100364:	e3010010 	movw	r0, #4112	; 0x1010
  100368:	e3400011 	movt	r0, #17
  10036c:	eb002176 	bl	10894c <printf>
  100370:	e3010234 	movw	r0, #4660	; 0x1234
  100374:	e3400011 	movt	r0, #17
  100378:	eb002173 	bl	10894c <printf>
  10037c:	e3010010 	movw	r0, #4112	; 0x1010
  100380:	e3400011 	movt	r0, #17
  100384:	eb002170 	bl	10894c <printf>
  100388:	e3010254 	movw	r0, #4692	; 0x1254
  10038c:	e3400011 	movt	r0, #17
  100390:	eb00216d 	bl	10894c <printf>
  100394:	eb00162f 	bl	105c58 <Cholesky_initialize>
  100398:	e3010270 	movw	r0, #4720	; 0x1270
  10039c:	e3400011 	movt	r0, #17
  1003a0:	eb002169 	bl	10894c <printf>
  1003a4:	eb00011a 	bl	100814 <main_example>
  1003a8:	e3a03000 	mov	r3, #0
  1003ac:	ea000003 	b	1003c0 <main+0x19c>
  1003b0:	e3010164 	movw	r0, #4452	; 0x1164
  1003b4:	e3400011 	movt	r0, #17
  1003b8:	eb002163 	bl	10894c <printf>
  1003bc:	e3a03001 	mov	r3, #1
  1003c0:	e1a00003 	mov	r0, r3
  1003c4:	e24bd004 	sub	sp, fp, #4
  1003c8:	e8bd8800 	pop	{fp, pc}

001003cc <cache_configuration>:
  1003cc:	e92d4800 	push	{fp, lr}
  1003d0:	e28db004 	add	fp, sp, #4
  1003d4:	e24dd008 	sub	sp, sp, #8
  1003d8:	e50b0008 	str	r0, [fp, #-8]
  1003dc:	e51b3008 	ldr	r3, [fp, #-8]
  1003e0:	e3530000 	cmp	r3, #0
  1003e4:	ca000003 	bgt	1003f8 <cache_configuration+0x2c>
  1003e8:	e301028c 	movw	r0, #4748	; 0x128c
  1003ec:	e3400011 	movt	r0, #17
  1003f0:	eb002155 	bl	10894c <printf>
  1003f4:	ea0000a2 	b	100684 <cache_configuration+0x2b8>
  1003f8:	e51b3008 	ldr	r3, [fp, #-8]
  1003fc:	e3530001 	cmp	r3, #1
  100400:	ca000004 	bgt	100418 <cache_configuration+0x4c>
  100404:	e30102a8 	movw	r0, #4776	; 0x12a8
  100408:	e3400011 	movt	r0, #17
  10040c:	eb00214e 	bl	10894c <printf>
  100410:	eb00017c 	bl	100a08 <enable_MMU>
  100414:	ea00009a 	b	100684 <cache_configuration+0x2b8>
  100418:	e51b3008 	ldr	r3, [fp, #-8]
  10041c:	e3530002 	cmp	r3, #2
  100420:	ca000005 	bgt	10043c <cache_configuration+0x70>
  100424:	e30102c8 	movw	r0, #4808	; 0x12c8
  100428:	e3400011 	movt	r0, #17
  10042c:	eb002146 	bl	10894c <printf>
  100430:	eb000174 	bl	100a08 <enable_MMU>
  100434:	eb0001bf 	bl	100b38 <initialize_L2C>
  100438:	ea000091 	b	100684 <cache_configuration+0x2b8>
  10043c:	e51b3008 	ldr	r3, [fp, #-8]
  100440:	e3530003 	cmp	r3, #3
  100444:	ca000006 	bgt	100464 <cache_configuration+0x98>
  100448:	e30102f4 	movw	r0, #4852	; 0x12f4
  10044c:	e3400011 	movt	r0, #17
  100450:	eb00213d 	bl	10894c <printf>
  100454:	eb00016b 	bl	100a08 <enable_MMU>
  100458:	eb0001b6 	bl	100b38 <initialize_L2C>
  10045c:	eb000219 	bl	100cc8 <enable_SCU>
  100460:	ea000087 	b	100684 <cache_configuration+0x2b8>
  100464:	e51b3008 	ldr	r3, [fp, #-8]
  100468:	e3530004 	cmp	r3, #4
  10046c:	ca000007 	bgt	100490 <cache_configuration+0xc4>
  100470:	e3010328 	movw	r0, #4904	; 0x1328
  100474:	e3400011 	movt	r0, #17
  100478:	eb002133 	bl	10894c <printf>
  10047c:	eb000161 	bl	100a08 <enable_MMU>
  100480:	eb0001ac 	bl	100b38 <initialize_L2C>
  100484:	eb00020f 	bl	100cc8 <enable_SCU>
  100488:	eb0001d0 	bl	100bd0 <enable_L1_I>
  10048c:	ea00007c 	b	100684 <cache_configuration+0x2b8>
  100490:	e51b3008 	ldr	r3, [fp, #-8]
  100494:	e3530005 	cmp	r3, #5
  100498:	ca000008 	bgt	1004c0 <cache_configuration+0xf4>
  10049c:	e3010340 	movw	r0, #4928	; 0x1340
  1004a0:	e3400011 	movt	r0, #17
  1004a4:	eb002128 	bl	10894c <printf>
  1004a8:	eb000156 	bl	100a08 <enable_MMU>
  1004ac:	eb0001a1 	bl	100b38 <initialize_L2C>
  1004b0:	eb000204 	bl	100cc8 <enable_SCU>
  1004b4:	eb0001c5 	bl	100bd0 <enable_L1_I>
  1004b8:	eb0001c8 	bl	100be0 <enable_branch_prediction>
  1004bc:	ea000070 	b	100684 <cache_configuration+0x2b8>
  1004c0:	e51b3008 	ldr	r3, [fp, #-8]
  1004c4:	e3530006 	cmp	r3, #6
  1004c8:	ca000009 	bgt	1004f4 <cache_configuration+0x128>
  1004cc:	e3010370 	movw	r0, #4976	; 0x1370
  1004d0:	e3400011 	movt	r0, #17
  1004d4:	eb00211c 	bl	10894c <printf>
  1004d8:	eb00014a 	bl	100a08 <enable_MMU>
  1004dc:	eb000195 	bl	100b38 <initialize_L2C>
  1004e0:	eb0001f8 	bl	100cc8 <enable_SCU>
  1004e4:	eb0001b5 	bl	100bc0 <enable_L1_D>
  1004e8:	eb0001b8 	bl	100bd0 <enable_L1_I>
  1004ec:	eb0001bb 	bl	100be0 <enable_branch_prediction>
  1004f0:	ea000063 	b	100684 <cache_configuration+0x2b8>
  1004f4:	e51b3008 	ldr	r3, [fp, #-8]
  1004f8:	e3530007 	cmp	r3, #7
  1004fc:	ca00000a 	bgt	10052c <cache_configuration+0x160>
  100500:	e30103a4 	movw	r0, #5028	; 0x13a4
  100504:	e3400011 	movt	r0, #17
  100508:	eb00210f 	bl	10894c <printf>
  10050c:	eb00013d 	bl	100a08 <enable_MMU>
  100510:	eb000188 	bl	100b38 <initialize_L2C>
  100514:	eb0001d7 	bl	100c78 <enable_L1_D_side_prefetch>
  100518:	eb0001ea 	bl	100cc8 <enable_SCU>
  10051c:	eb0001a7 	bl	100bc0 <enable_L1_D>
  100520:	eb0001aa 	bl	100bd0 <enable_L1_I>
  100524:	eb0001ad 	bl	100be0 <enable_branch_prediction>
  100528:	ea000055 	b	100684 <cache_configuration+0x2b8>
  10052c:	e51b3008 	ldr	r3, [fp, #-8]
  100530:	e3530008 	cmp	r3, #8
  100534:	ca000008 	bgt	10055c <cache_configuration+0x190>
  100538:	e30103f0 	movw	r0, #5104	; 0x13f0
  10053c:	e3400011 	movt	r0, #17
  100540:	eb002101 	bl	10894c <printf>
  100544:	eb00012f 	bl	100a08 <enable_MMU>
  100548:	eb00017a 	bl	100b38 <initialize_L2C>
  10054c:	eb0001c9 	bl	100c78 <enable_L1_D_side_prefetch>
  100550:	eb0001dc 	bl	100cc8 <enable_SCU>
  100554:	eb000190 	bl	100b9c <enable_caches>
  100558:	ea000049 	b	100684 <cache_configuration+0x2b8>
  10055c:	e51b3008 	ldr	r3, [fp, #-8]
  100560:	e3530009 	cmp	r3, #9
  100564:	ca000009 	bgt	100590 <cache_configuration+0x1c4>
  100568:	e301043c 	movw	r0, #5180	; 0x143c
  10056c:	e3400011 	movt	r0, #17
  100570:	eb0020f5 	bl	10894c <printf>
  100574:	eb000123 	bl	100a08 <enable_MMU>
  100578:	eb00016e 	bl	100b38 <initialize_L2C>
  10057c:	eb0001bd 	bl	100c78 <enable_L1_D_side_prefetch>
  100580:	eb0001c0 	bl	100c88 <enable_L2_prefetch_hint>
  100584:	eb0001cf 	bl	100cc8 <enable_SCU>
  100588:	eb000183 	bl	100b9c <enable_caches>
  10058c:	ea00003c 	b	100684 <cache_configuration+0x2b8>
  100590:	e51b3008 	ldr	r3, [fp, #-8]
  100594:	e353000a 	cmp	r3, #10
  100598:	ca00000a 	bgt	1005c8 <cache_configuration+0x1fc>
  10059c:	e3010470 	movw	r0, #5232	; 0x1470
  1005a0:	e3400011 	movt	r0, #17
  1005a4:	eb0020e8 	bl	10894c <printf>
  1005a8:	eb000116 	bl	100a08 <enable_MMU>
  1005ac:	eb000161 	bl	100b38 <initialize_L2C>
  1005b0:	eb0001b0 	bl	100c78 <enable_L1_D_side_prefetch>
  1005b4:	eb0001b3 	bl	100c88 <enable_L2_prefetch_hint>
  1005b8:	eb0001c2 	bl	100cc8 <enable_SCU>
  1005bc:	eb0001a1 	bl	100c48 <enable_write_full_line_zeros>
  1005c0:	eb000175 	bl	100b9c <enable_caches>
  1005c4:	ea00002e 	b	100684 <cache_configuration+0x2b8>
  1005c8:	e51b3008 	ldr	r3, [fp, #-8]
  1005cc:	e353000b 	cmp	r3, #11
  1005d0:	ca00000b 	bgt	100604 <cache_configuration+0x238>
  1005d4:	e30104ac 	movw	r0, #5292	; 0x14ac
  1005d8:	e3400011 	movt	r0, #17
  1005dc:	eb0020da 	bl	10894c <printf>
  1005e0:	eb000108 	bl	100a08 <enable_MMU>
  1005e4:	eb000153 	bl	100b38 <initialize_L2C>
  1005e8:	eb0001a2 	bl	100c78 <enable_L1_D_side_prefetch>
  1005ec:	eb0001a5 	bl	100c88 <enable_L2_prefetch_hint>
  1005f0:	eb0001b4 	bl	100cc8 <enable_SCU>
  1005f4:	eb0001b8 	bl	100cdc <enable_L2_speculative_linefill>
  1005f8:	eb000192 	bl	100c48 <enable_write_full_line_zeros>
  1005fc:	eb000166 	bl	100b9c <enable_caches>
  100600:	ea00001f 	b	100684 <cache_configuration+0x2b8>
  100604:	e51b3008 	ldr	r3, [fp, #-8]
  100608:	e353000c 	cmp	r3, #12
  10060c:	ca00000c 	bgt	100644 <cache_configuration+0x278>
  100610:	e30104f8 	movw	r0, #5368	; 0x14f8
  100614:	e3400011 	movt	r0, #17
  100618:	eb0020cb 	bl	10894c <printf>
  10061c:	eb0000f9 	bl	100a08 <enable_MMU>
  100620:	eb000144 	bl	100b38 <initialize_L2C>
  100624:	eb000193 	bl	100c78 <enable_L1_D_side_prefetch>
  100628:	eb000196 	bl	100c88 <enable_L2_prefetch_hint>
  10062c:	eb0001a5 	bl	100cc8 <enable_SCU>
  100630:	eb0001a9 	bl	100cdc <enable_L2_speculative_linefill>
  100634:	eb000183 	bl	100c48 <enable_write_full_line_zeros>
  100638:	eb000179 	bl	100c24 <enable_early_BRESP>
  10063c:	eb000156 	bl	100b9c <enable_caches>
  100640:	ea00000f 	b	100684 <cache_configuration+0x2b8>
  100644:	e51b3008 	ldr	r3, [fp, #-8]
  100648:	e353000d 	cmp	r3, #13
  10064c:	ca00000c 	bgt	100684 <cache_configuration+0x2b8>
  100650:	e3010538 	movw	r0, #5432	; 0x1538
  100654:	e3400011 	movt	r0, #17
  100658:	eb0020bb 	bl	10894c <printf>
  10065c:	eb0000e9 	bl	100a08 <enable_MMU>
  100660:	eb000134 	bl	100b38 <initialize_L2C>
  100664:	eb000183 	bl	100c78 <enable_L1_D_side_prefetch>
  100668:	eb000186 	bl	100c88 <enable_L2_prefetch_hint>
  10066c:	eb000195 	bl	100cc8 <enable_SCU>
  100670:	eb000199 	bl	100cdc <enable_L2_speculative_linefill>
  100674:	eb000173 	bl	100c48 <enable_write_full_line_zeros>
  100678:	eb000169 	bl	100c24 <enable_early_BRESP>
  10067c:	eb00015f 	bl	100c00 <enable_store_buffer_device_limitation>
  100680:	eb000145 	bl	100b9c <enable_caches>
  100684:	e320f000 	nop	{0}
  100688:	e24bd004 	sub	sp, fp, #4
  10068c:	e8bd8800 	pop	{fp, pc}

00100690 <print_src_dst>:
  100690:	e92d4800 	push	{fp, lr}
  100694:	e28db004 	add	fp, sp, #4
  100698:	e24dd020 	sub	sp, sp, #32
  10069c:	e50b0018 	str	r0, [fp, #-24]	; 0xffffffe8
  1006a0:	e50b101c 	str	r1, [fp, #-28]	; 0xffffffe4
  1006a4:	e50b2020 	str	r2, [fp, #-32]	; 0xffffffe0
  1006a8:	e51b3018 	ldr	r3, [fp, #-24]	; 0xffffffe8
  1006ac:	e50b300c 	str	r3, [fp, #-12]
  1006b0:	e51b301c 	ldr	r3, [fp, #-28]	; 0xffffffe4
  1006b4:	e50b3010 	str	r3, [fp, #-16]
  1006b8:	e3010594 	movw	r0, #5524	; 0x1594
  1006bc:	e3400011 	movt	r0, #17
  1006c0:	eb0020a1 	bl	10894c <printf>
  1006c4:	e3a03000 	mov	r3, #0
  1006c8:	e50b3008 	str	r3, [fp, #-8]
  1006cc:	ea000012 	b	10071c <print_src_dst+0x8c>
  1006d0:	e51b300c 	ldr	r3, [fp, #-12]
  1006d4:	e5d33000 	ldrb	r3, [r3]
  1006d8:	e1a01003 	mov	r1, r3
  1006dc:	e30105a0 	movw	r0, #5536	; 0x15a0
  1006e0:	e3400011 	movt	r0, #17
  1006e4:	eb002098 	bl	10894c <printf>
  1006e8:	e51b300c 	ldr	r3, [fp, #-12]
  1006ec:	e2833001 	add	r3, r3, #1
  1006f0:	e50b300c 	str	r3, [fp, #-12]
  1006f4:	e51b3020 	ldr	r3, [fp, #-32]	; 0xffffffe0
  1006f8:	e2432001 	sub	r2, r3, #1
  1006fc:	e51b3008 	ldr	r3, [fp, #-8]
  100700:	e1520003 	cmp	r2, r3
  100704:	da000001 	ble	100710 <print_src_dst+0x80>
  100708:	e3a0002c 	mov	r0, #44	; 0x2c
  10070c:	eb00209e 	bl	10898c <putchar>
  100710:	e51b3008 	ldr	r3, [fp, #-8]
  100714:	e2833001 	add	r3, r3, #1
  100718:	e50b3008 	str	r3, [fp, #-8]
  10071c:	e51b2008 	ldr	r2, [fp, #-8]
  100720:	e51b3020 	ldr	r3, [fp, #-32]	; 0xffffffe0
  100724:	e1520003 	cmp	r2, r3
  100728:	baffffe8 	blt	1006d0 <print_src_dst+0x40>
  10072c:	e30105a4 	movw	r0, #5540	; 0x15a4
  100730:	e3400011 	movt	r0, #17
  100734:	eb002084 	bl	10894c <printf>
  100738:	e30105a8 	movw	r0, #5544	; 0x15a8
  10073c:	e3400011 	movt	r0, #17
  100740:	eb002081 	bl	10894c <printf>
  100744:	e3a03000 	mov	r3, #0
  100748:	e50b3008 	str	r3, [fp, #-8]
  10074c:	ea000012 	b	10079c <print_src_dst+0x10c>
  100750:	e51b3010 	ldr	r3, [fp, #-16]
  100754:	e5d33000 	ldrb	r3, [r3]
  100758:	e1a01003 	mov	r1, r3
  10075c:	e30105a0 	movw	r0, #5536	; 0x15a0
  100760:	e3400011 	movt	r0, #17
  100764:	eb002078 	bl	10894c <printf>
  100768:	e51b3010 	ldr	r3, [fp, #-16]
  10076c:	e2833001 	add	r3, r3, #1
  100770:	e50b3010 	str	r3, [fp, #-16]
  100774:	e51b3020 	ldr	r3, [fp, #-32]	; 0xffffffe0
  100778:	e2432001 	sub	r2, r3, #1
  10077c:	e51b3008 	ldr	r3, [fp, #-8]
  100780:	e1520003 	cmp	r2, r3
  100784:	da000001 	ble	100790 <print_src_dst+0x100>
  100788:	e3a0002c 	mov	r0, #44	; 0x2c
  10078c:	eb00207e 	bl	10898c <putchar>
  100790:	e51b3008 	ldr	r3, [fp, #-8]
  100794:	e2833001 	add	r3, r3, #1
  100798:	e50b3008 	str	r3, [fp, #-8]
  10079c:	e51b2008 	ldr	r2, [fp, #-8]
  1007a0:	e51b3020 	ldr	r3, [fp, #-32]	; 0xffffffe0
  1007a4:	e1520003 	cmp	r2, r3
  1007a8:	baffffe8 	blt	100750 <print_src_dst+0xc0>
  1007ac:	e30105a4 	movw	r0, #5540	; 0x15a4
  1007b0:	e3400011 	movt	r0, #17
  1007b4:	eb002064 	bl	10894c <printf>
  1007b8:	e320f000 	nop	{0}
  1007bc:	e24bd004 	sub	sp, fp, #4
  1007c0:	e8bd8800 	pop	{fp, pc}

001007c4 <ukf_transfer_done>:
  1007c4:	e92d4800 	push	{fp, lr}
  1007c8:	e28db004 	add	fp, sp, #4
  1007cc:	e24dd008 	sub	sp, sp, #8
  1007d0:	e50b0008 	str	r0, [fp, #-8]
  1007d4:	e51b0008 	ldr	r0, [fp, #-8]
  1007d8:	eb000003 	bl	1007ec <ukf_read_reg>
  1007dc:	e1a03000 	mov	r3, r0
  1007e0:	e1a00003 	mov	r0, r3
  1007e4:	e24bd004 	sub	sp, fp, #4
  1007e8:	e8bd8800 	pop	{fp, pc}

001007ec <ukf_read_reg>:
  1007ec:	e52db004 	push	{fp}		; (str fp, [sp, #-4]!)
  1007f0:	e28db000 	add	fp, sp, #0
  1007f4:	e24dd00c 	sub	sp, sp, #12
  1007f8:	e50b0008 	str	r0, [fp, #-8]
  1007fc:	e51b3008 	ldr	r3, [fp, #-8]
  100800:	e5933064 	ldr	r3, [r3, #100]	; 0x64
  100804:	e1a00003 	mov	r0, r3
  100808:	e24bd000 	sub	sp, fp, #0
  10080c:	e49db004 	pop	{fp}		; (ldr fp, [sp], #4)
  100810:	e12fff1e 	bx	lr

00100814 <main_example>:
  100814:	e92d4800 	push	{fp, lr}
  100818:	e28db004 	add	fp, sp, #4
  10081c:	eb001734 	bl	1064f4 <example>
  100820:	e320f000 	nop	{0}
  100824:	e8bd8800 	pop	{fp, pc}

00100828 <_close>:
  100828:	e52db004 	push	{fp}		; (str fp, [sp, #-4]!)
  10082c:	e28db000 	add	fp, sp, #0
  100830:	e24dd00c 	sub	sp, sp, #12
  100834:	e50b0008 	str	r0, [fp, #-8]
  100838:	e51b3008 	ldr	r3, [fp, #-8]
  10083c:	e3530001 	cmp	r3, #1
  100840:	1a000001 	bne	10084c <_close+0x24>
  100844:	e3a03000 	mov	r3, #0
  100848:	ea000000 	b	100850 <_close+0x28>
  10084c:	e3e03000 	mvn	r3, #0
  100850:	e1a00003 	mov	r0, r3
  100854:	e24bd000 	sub	sp, fp, #0
  100858:	e49db004 	pop	{fp}		; (ldr fp, [sp], #4)
  10085c:	e12fff1e 	bx	lr

00100860 <_fstat>:
  100860:	e52db004 	push	{fp}		; (str fp, [sp, #-4]!)
  100864:	e28db000 	add	fp, sp, #0
  100868:	e24dd00c 	sub	sp, sp, #12
  10086c:	e50b0008 	str	r0, [fp, #-8]
  100870:	e50b100c 	str	r1, [fp, #-12]
  100874:	e51b3008 	ldr	r3, [fp, #-8]
  100878:	e3530001 	cmp	r3, #1
  10087c:	1a000001 	bne	100888 <_fstat+0x28>
  100880:	e3a03000 	mov	r3, #0
  100884:	ea000000 	b	10088c <_fstat+0x2c>
  100888:	e3e03000 	mvn	r3, #0
  10088c:	e1a00003 	mov	r0, r3
  100890:	e24bd000 	sub	sp, fp, #0
  100894:	e49db004 	pop	{fp}		; (ldr fp, [sp], #4)
  100898:	e12fff1e 	bx	lr

0010089c <_isatty>:
  10089c:	e52db004 	push	{fp}		; (str fp, [sp, #-4]!)
  1008a0:	e28db000 	add	fp, sp, #0
  1008a4:	e24dd00c 	sub	sp, sp, #12
  1008a8:	e50b0008 	str	r0, [fp, #-8]
  1008ac:	e51b3008 	ldr	r3, [fp, #-8]
  1008b0:	e3530001 	cmp	r3, #1
  1008b4:	1a000001 	bne	1008c0 <_isatty+0x24>
  1008b8:	e3a03001 	mov	r3, #1
  1008bc:	ea000000 	b	1008c4 <_isatty+0x28>
  1008c0:	e3e03000 	mvn	r3, #0
  1008c4:	e1a00003 	mov	r0, r3
  1008c8:	e24bd000 	sub	sp, fp, #0
  1008cc:	e49db004 	pop	{fp}		; (ldr fp, [sp], #4)
  1008d0:	e12fff1e 	bx	lr

001008d4 <_lseek>:
  1008d4:	e52db004 	push	{fp}		; (str fp, [sp, #-4]!)
  1008d8:	e28db000 	add	fp, sp, #0
  1008dc:	e24dd014 	sub	sp, sp, #20
  1008e0:	e50b0008 	str	r0, [fp, #-8]
  1008e4:	e50b100c 	str	r1, [fp, #-12]
  1008e8:	e50b2010 	str	r2, [fp, #-16]
  1008ec:	e51b3008 	ldr	r3, [fp, #-8]
  1008f0:	e3530001 	cmp	r3, #1
  1008f4:	1a000001 	bne	100900 <_lseek+0x2c>
  1008f8:	e3a03000 	mov	r3, #0
  1008fc:	ea000000 	b	100904 <_lseek+0x30>
  100900:	e3e03000 	mvn	r3, #0
  100904:	e1a00003 	mov	r0, r3
  100908:	e24bd000 	sub	sp, fp, #0
  10090c:	e49db004 	pop	{fp}		; (ldr fp, [sp], #4)
  100910:	e12fff1e 	bx	lr

00100914 <_read>:
  100914:	e52db004 	push	{fp}		; (str fp, [sp, #-4]!)
  100918:	e28db000 	add	fp, sp, #0
  10091c:	e24dd014 	sub	sp, sp, #20
  100920:	e50b0008 	str	r0, [fp, #-8]
  100924:	e50b100c 	str	r1, [fp, #-12]
  100928:	e50b2010 	str	r2, [fp, #-16]
  10092c:	e3e03000 	mvn	r3, #0
  100930:	e1a00003 	mov	r0, r3
  100934:	e24bd000 	sub	sp, fp, #0
  100938:	e49db004 	pop	{fp}		; (ldr fp, [sp], #4)
  10093c:	e12fff1e 	bx	lr

00100940 <_write>:
  100940:	e52db004 	push	{fp}		; (str fp, [sp, #-4]!)
  100944:	e28db000 	add	fp, sp, #0
  100948:	e24dd01c 	sub	sp, sp, #28
  10094c:	e50b0010 	str	r0, [fp, #-16]
  100950:	e50b1014 	str	r1, [fp, #-20]	; 0xffffffec
  100954:	e50b2018 	str	r2, [fp, #-24]	; 0xffffffe8
  100958:	e50b301c 	str	r3, [fp, #-28]	; 0xffffffe4
  10095c:	e51b3010 	ldr	r3, [fp, #-16]
  100960:	e3530001 	cmp	r3, #1
  100964:	0a000001 	beq	100970 <_write+0x30>
  100968:	e3e03000 	mvn	r3, #0
  10096c:	ea000019 	b	1009d8 <_write+0x98>
  100970:	e3a03000 	mov	r3, #0
  100974:	e50b3008 	str	r3, [fp, #-8]
  100978:	ea000011 	b	1009c4 <_write+0x84>
  10097c:	e320f000 	nop	{0}
  100980:	e3023014 	movw	r3, #8212	; 0x2014
  100984:	e34f3fc0 	movt	r3, #65472	; 0xffc0
  100988:	e5933000 	ldr	r3, [r3]
  10098c:	e1a032a3 	lsr	r3, r3, #5
  100990:	e2033001 	and	r3, r3, #1
  100994:	e3530001 	cmp	r3, #1
  100998:	1afffff8 	bne	100980 <_write+0x40>
  10099c:	e3a03a02 	mov	r3, #8192	; 0x2000
  1009a0:	e34f3fc0 	movt	r3, #65472	; 0xffc0
  1009a4:	e51b2008 	ldr	r2, [fp, #-8]
  1009a8:	e51b1014 	ldr	r1, [fp, #-20]	; 0xffffffec
  1009ac:	e0812002 	add	r2, r1, r2
  1009b0:	e5d22000 	ldrb	r2, [r2]
  1009b4:	e5832000 	str	r2, [r3]
  1009b8:	e51b3008 	ldr	r3, [fp, #-8]
  1009bc:	e2833001 	add	r3, r3, #1
  1009c0:	e50b3008 	str	r3, [fp, #-8]
  1009c4:	e51b2008 	ldr	r2, [fp, #-8]
  1009c8:	e51b3018 	ldr	r3, [fp, #-24]	; 0xffffffe8
  1009cc:	e1520003 	cmp	r2, r3
  1009d0:	3affffe9 	bcc	10097c <_write+0x3c>
  1009d4:	e51b3018 	ldr	r3, [fp, #-24]	; 0xffffffe8
  1009d8:	e1a00003 	mov	r0, r3
  1009dc:	e24bd000 	sub	sp, fp, #0
  1009e0:	e49db004 	pop	{fp}		; (ldr fp, [sp], #4)
  1009e4:	e12fff1e 	bx	lr

001009e8 <enable_all_caches>:
  1009e8:	e52de004 	push	{lr}		; (str lr, [sp, #-4]!)
  1009ec:	eb000005 	bl	100a08 <enable_MMU>
  1009f0:	eb000050 	bl	100b38 <initialize_L2C>
  1009f4:	eb00009f 	bl	100c78 <enable_L1_D_side_prefetch>
  1009f8:	eb0000a2 	bl	100c88 <enable_L2_prefetch_hint>
  1009fc:	eb0000b1 	bl	100cc8 <enable_SCU>
  100a00:	eb000065 	bl	100b9c <enable_caches>
  100a04:	e49df004 	pop	{pc}		; (ldr pc, [sp], #4)

00100a08 <enable_MMU>:
  100a08:	e92d4eb0 	push	{r4, r5, r7, r9, sl, fp, lr}
  100a0c:	e59f0378 	ldr	r0, [pc, #888]	; 100d8c <invalidate_and_flush+0x9c>
  100a10:	e3a01000 	mov	r1, #0
  100a14:	e5801100 	str	r1, [r0, #256]	; 0x100
  100a18:	ee110f10 	mrc	15, 0, r0, cr1, cr0, {0}
  100a1c:	e3c00a01 	bic	r0, r0, #4096	; 0x1000
  100a20:	e3c00004 	bic	r0, r0, #4
  100a24:	e3c00001 	bic	r0, r0, #1
  100a28:	e3c00b02 	bic	r0, r0, #2048	; 0x800
  100a2c:	ee010f10 	mcr	15, 0, r0, cr1, cr0, {0}
  100a30:	e3a00000 	mov	r0, #0
  100a34:	ee080f17 	mcr	15, 0, r0, cr8, cr7, {0}
  100a38:	ee070fd5 	mcr	15, 0, r0, cr7, cr5, {6}
  100a3c:	ee300f30 	mrc	15, 1, r0, cr0, cr0, {1}
  100a40:	e3100003 	tst	r0, #3
  100a44:	e3a00000 	mov	r0, #0
  100a48:	1e070f15 	mcrne	15, 0, r0, cr7, cr5, {0}
  100a4c:	ee300f30 	mrc	15, 1, r0, cr0, cr0, {1}
  100a50:	e2103407 	ands	r3, r0, #117440512	; 0x7000000
  100a54:	e1a03ba3 	lsr	r3, r3, #23
  100a58:	0a00001a 	beq	100ac8 <Finished>
  100a5c:	e3a0a000 	mov	sl, #0

00100a60 <Loop1>:
  100a60:	e08a20aa 	add	r2, sl, sl, lsr #1
  100a64:	e1a01230 	lsr	r1, r0, r2
  100a68:	e2011007 	and	r1, r1, #7
  100a6c:	e3510002 	cmp	r1, #2
  100a70:	ba000011 	blt	100abc <Skip>
  100a74:	ee40af10 	mcr	15, 2, sl, cr0, cr0, {0}
  100a78:	f57ff06f 	isb	sy
  100a7c:	ee301f10 	mrc	15, 1, r1, cr0, cr0, {0}
  100a80:	e2012007 	and	r2, r1, #7
  100a84:	e2822004 	add	r2, r2, #4
  100a88:	e59f4300 	ldr	r4, [pc, #768]	; 100d90 <invalidate_and_flush+0xa0>
  100a8c:	e01441a1 	ands	r4, r4, r1, lsr #3
  100a90:	e16f5f14 	clz	r5, r4
  100a94:	e59f72f8 	ldr	r7, [pc, #760]	; 100d94 <invalidate_and_flush+0xa4>
  100a98:	e01776a1 	ands	r7, r7, r1, lsr #13

00100a9c <Loop2>:
  100a9c:	e1a09004 	mov	r9, r4

00100aa0 <Loop3>:
  100aa0:	e18ab519 	orr	fp, sl, r9, lsl r5
  100aa4:	e18bb217 	orr	fp, fp, r7, lsl r2
  100aa8:	ee07bf56 	mcr	15, 0, fp, cr7, cr6, {2}
  100aac:	e2599001 	subs	r9, r9, #1
  100ab0:	aafffffa 	bge	100aa0 <Loop3>
  100ab4:	e2577001 	subs	r7, r7, #1
  100ab8:	aafffff7 	bge	100a9c <Loop2>

00100abc <Skip>:
  100abc:	e28aa002 	add	sl, sl, #2
  100ac0:	e153000a 	cmp	r3, sl
  100ac4:	caffffe5 	bgt	100a60 <Loop1>

00100ac8 <Finished>:
  100ac8:	e3a00000 	mov	r0, #0
  100acc:	ee070fd5 	mcr	15, 0, r0, cr7, cr5, {6}
  100ad0:	e3a00000 	mov	r0, #0
  100ad4:	ee020f50 	mcr	15, 0, r0, cr2, cr0, {2}
  100ad8:	e59f02b8 	ldr	r0, [pc, #696]	; 100d98 <invalidate_and_flush+0xa8>
  100adc:	e3a01008 	mov	r1, #8
  100ae0:	e3811040 	orr	r1, r1, #64	; 0x40
  100ae4:	e1800001 	orr	r0, r0, r1
  100ae8:	ee020f10 	mcr	15, 0, r0, cr2, cr0, {0}
  100aec:	e59f02a4 	ldr	r0, [pc, #676]	; 100d98 <invalidate_and_flush+0xa8>
  100af0:	e59f12a4 	ldr	r1, [pc, #676]	; 100d9c <invalidate_and_flush+0xac>

00100af4 <init_ttb_1>:
  100af4:	e3510b02 	cmp	r1, #2048	; 0x800
  100af8:	459f22a0 	ldrmi	r2, [pc, #672]	; 100da0 <invalidate_and_flush+0xb0>
  100afc:	559f22a0 	ldrpl	r2, [pc, #672]	; 100da4 <invalidate_and_flush+0xb4>
  100b00:	e1823a01 	orr	r3, r2, r1, lsl #20
  100b04:	e7803101 	str	r3, [r0, r1, lsl #2]
  100b08:	e2511001 	subs	r1, r1, #1
  100b0c:	5afffff8 	bpl	100af4 <init_ttb_1>
  100b10:	ee130f10 	mrc	15, 0, r0, cr3, cr0, {0}
  100b14:	e3e00000 	mvn	r0, #0
  100b18:	ee030f10 	mcr	15, 0, r0, cr3, cr0, {0}
  100b1c:	ee110f10 	mrc	15, 0, r0, cr1, cr0, {0}
  100b20:	e3c00a01 	bic	r0, r0, #4096	; 0x1000
  100b24:	e3c00004 	bic	r0, r0, #4
  100b28:	e3c00002 	bic	r0, r0, #2
  100b2c:	e3800001 	orr	r0, r0, #1
  100b30:	ee010f10 	mcr	15, 0, r0, cr1, cr0, {0}
  100b34:	e8bd8eb0 	pop	{r4, r5, r7, r9, sl, fp, pc}

00100b38 <initialize_L2C>:
  100b38:	e59f024c 	ldr	r0, [pc, #588]	; 100d8c <invalidate_and_flush+0x9c>
  100b3c:	e3a01000 	mov	r1, #0
  100b40:	e5801100 	str	r1, [r0, #256]	; 0x100
  100b44:	e3a01806 	mov	r1, #393216	; 0x60000
  100b48:	e3811202 	orr	r1, r1, #536870912	; 0x20000000
  100b4c:	e3811201 	orr	r1, r1, #268435456	; 0x10000000
  100b50:	e5801104 	str	r1, [r0, #260]	; 0x104
  100b54:	e3a01000 	mov	r1, #0
  100b58:	e5801108 	str	r1, [r0, #264]	; 0x108
  100b5c:	e3a01000 	mov	r1, #0
  100b60:	e580110c 	str	r1, [r0, #268]	; 0x10c
  100b64:	e3a010ff 	mov	r1, #255	; 0xff
  100b68:	e580177c 	str	r1, [r0, #1916]	; 0x77c

00100b6c <poll_invalidate>:
  100b6c:	e590177c 	ldr	r1, [r0, #1916]	; 0x77c
  100b70:	e3110001 	tst	r1, #1
  100b74:	1afffffc 	bne	100b6c <poll_invalidate>
  100b78:	e3a01007 	mov	r1, #7
  100b7c:	e5801200 	str	r1, [r0, #512]	; 0x200
  100b80:	e3a01008 	mov	r1, #8
  100b84:	e5801204 	str	r1, [r0, #516]	; 0x204
  100b88:	e3a0100c 	mov	r1, #12
  100b8c:	e5801208 	str	r1, [r0, #520]	; 0x208
  100b90:	e3a01000 	mov	r1, #0
  100b94:	e5801100 	str	r1, [r0, #256]	; 0x100
  100b98:	e12fff1e 	bx	lr

00100b9c <enable_caches>:
  100b9c:	ee110f10 	mrc	15, 0, r0, cr1, cr0, {0}
  100ba0:	e3800a01 	orr	r0, r0, #4096	; 0x1000
  100ba4:	e3800004 	orr	r0, r0, #4
  100ba8:	e3800b02 	orr	r0, r0, #2048	; 0x800
  100bac:	ee010f10 	mcr	15, 0, r0, cr1, cr0, {0}
  100bb0:	e59f01d4 	ldr	r0, [pc, #468]	; 100d8c <invalidate_and_flush+0x9c>
  100bb4:	e3a01001 	mov	r1, #1
  100bb8:	e5801100 	str	r1, [r0, #256]	; 0x100
  100bbc:	e12fff1e 	bx	lr

00100bc0 <enable_L1_D>:
  100bc0:	ee110f10 	mrc	15, 0, r0, cr1, cr0, {0}
  100bc4:	e3800004 	orr	r0, r0, #4
  100bc8:	ee010f10 	mcr	15, 0, r0, cr1, cr0, {0}
  100bcc:	e12fff1e 	bx	lr

00100bd0 <enable_L1_I>:
  100bd0:	ee110f10 	mrc	15, 0, r0, cr1, cr0, {0}
  100bd4:	e3800a01 	orr	r0, r0, #4096	; 0x1000
  100bd8:	ee010f10 	mcr	15, 0, r0, cr1, cr0, {0}
  100bdc:	e12fff1e 	bx	lr

00100be0 <enable_branch_prediction>:
  100be0:	ee110f10 	mrc	15, 0, r0, cr1, cr0, {0}
  100be4:	e3800b02 	orr	r0, r0, #2048	; 0x800
  100be8:	ee010f10 	mcr	15, 0, r0, cr1, cr0, {0}
  100bec:	e12fff1e 	bx	lr

00100bf0 <enable_L2>:
  100bf0:	e59f0194 	ldr	r0, [pc, #404]	; 100d8c <invalidate_and_flush+0x9c>
  100bf4:	e3a01001 	mov	r1, #1
  100bf8:	e5801100 	str	r1, [r0, #256]	; 0x100
  100bfc:	e12fff1e 	bx	lr

00100c00 <enable_store_buffer_device_limitation>:
  100c00:	e59f0184 	ldr	r0, [pc, #388]	; 100d8c <invalidate_and_flush+0x9c>
  100c04:	e3a01000 	mov	r1, #0
  100c08:	e5801100 	str	r1, [r0, #256]	; 0x100
  100c0c:	e5901104 	ldr	r1, [r0, #260]	; 0x104
  100c10:	e3811b02 	orr	r1, r1, #2048	; 0x800
  100c14:	e5801104 	str	r1, [r0, #260]	; 0x104
  100c18:	e3a01001 	mov	r1, #1
  100c1c:	e5801100 	str	r1, [r0, #256]	; 0x100
  100c20:	e12fff1e 	bx	lr

00100c24 <enable_early_BRESP>:
  100c24:	e59f0160 	ldr	r0, [pc, #352]	; 100d8c <invalidate_and_flush+0x9c>
  100c28:	e3a01000 	mov	r1, #0
  100c2c:	e5801100 	str	r1, [r0, #256]	; 0x100
  100c30:	e5901104 	ldr	r1, [r0, #260]	; 0x104
  100c34:	e3811101 	orr	r1, r1, #1073741824	; 0x40000000
  100c38:	e5801104 	str	r1, [r0, #260]	; 0x104
  100c3c:	e3a01001 	mov	r1, #1
  100c40:	e5801100 	str	r1, [r0, #256]	; 0x100
  100c44:	e12fff1e 	bx	lr

00100c48 <enable_write_full_line_zeros>:
  100c48:	e59f013c 	ldr	r0, [pc, #316]	; 100d8c <invalidate_and_flush+0x9c>
  100c4c:	e3a01000 	mov	r1, #0
  100c50:	e5801100 	str	r1, [r0, #256]	; 0x100
  100c54:	e5901104 	ldr	r1, [r0, #260]	; 0x104
  100c58:	e3811101 	orr	r1, r1, #1073741824	; 0x40000000
  100c5c:	e5801104 	str	r1, [r0, #260]	; 0x104
  100c60:	e3a01001 	mov	r1, #1
  100c64:	e5801100 	str	r1, [r0, #256]	; 0x100
  100c68:	ee110f30 	mrc	15, 0, r0, cr1, cr0, {1}
  100c6c:	e3800008 	orr	r0, r0, #8
  100c70:	ee010f30 	mcr	15, 0, r0, cr1, cr0, {1}
  100c74:	e12fff1e 	bx	lr

00100c78 <enable_L1_D_side_prefetch>:
  100c78:	ee110f30 	mrc	15, 0, r0, cr1, cr0, {1}
  100c7c:	e3800004 	orr	r0, r0, #4
  100c80:	ee010f30 	mcr	15, 0, r0, cr1, cr0, {1}
  100c84:	e12fff1e 	bx	lr

00100c88 <enable_L2_prefetch_hint>:
  100c88:	ee110f30 	mrc	15, 0, r0, cr1, cr0, {1}
  100c8c:	e3800002 	orr	r0, r0, #2
  100c90:	ee010f30 	mcr	15, 0, r0, cr1, cr0, {1}
  100c94:	e12fff1e 	bx	lr

00100c98 <enable_exclusive_caching>:
  100c98:	e59f00ec 	ldr	r0, [pc, #236]	; 100d8c <invalidate_and_flush+0x9c>
  100c9c:	e3a01000 	mov	r1, #0
  100ca0:	e5801100 	str	r1, [r0, #256]	; 0x100
  100ca4:	e5901104 	ldr	r1, [r0, #260]	; 0x104
  100ca8:	e3811a01 	orr	r1, r1, #4096	; 0x1000
  100cac:	e5801104 	str	r1, [r0, #260]	; 0x104
  100cb0:	e3a01001 	mov	r1, #1
  100cb4:	e5801100 	str	r1, [r0, #256]	; 0x100
  100cb8:	ee110f30 	mrc	15, 0, r0, cr1, cr0, {1}
  100cbc:	e3800080 	orr	r0, r0, #128	; 0x80
  100cc0:	ee010f30 	mcr	15, 0, r0, cr1, cr0, {1}
  100cc4:	e12fff1e 	bx	lr

00100cc8 <enable_SCU>:
  100cc8:	ee9f0f10 	mrc	15, 4, r0, cr15, cr0, {0}
  100ccc:	e5901000 	ldr	r1, [r0]
  100cd0:	e3811001 	orr	r1, r1, #1
  100cd4:	e5801000 	str	r1, [r0]
  100cd8:	e12fff1e 	bx	lr

00100cdc <enable_L2_speculative_linefill>:
  100cdc:	ee9f0f10 	mrc	15, 4, r0, cr15, cr0, {0}
  100ce0:	e5901000 	ldr	r1, [r0]
  100ce4:	e3811008 	orr	r1, r1, #8
  100ce8:	e5801000 	str	r1, [r0]
  100cec:	e12fff1e 	bx	lr

00100cf0 <invalidate_and_flush>:
  100cf0:	e92d4eb0 	push	{r4, r5, r7, r9, sl, fp, lr}
  100cf4:	e3a00000 	mov	r0, #0
  100cf8:	ee070fd5 	mcr	15, 0, r0, cr7, cr5, {6}
  100cfc:	ee300f30 	mrc	15, 1, r0, cr0, cr0, {1}
  100d00:	e3a00000 	mov	r0, #0
  100d04:	ee070f15 	mcr	15, 0, r0, cr7, cr5, {0}
  100d08:	ee300f30 	mrc	15, 1, r0, cr0, cr0, {1}
  100d0c:	e2103407 	ands	r3, r0, #117440512	; 0x7000000
  100d10:	e1a03ba3 	lsr	r3, r3, #23
  100d14:	0a00001a 	beq	100d84 <invalidate_and_flush+0x94>
  100d18:	e3a0a000 	mov	sl, #0
  100d1c:	e08a20aa 	add	r2, sl, sl, lsr #1
  100d20:	e1a01230 	lsr	r1, r0, r2
  100d24:	e2011007 	and	r1, r1, #7
  100d28:	e3510002 	cmp	r1, #2
  100d2c:	ba000011 	blt	100d78 <invalidate_and_flush+0x88>
  100d30:	ee40af10 	mcr	15, 2, sl, cr0, cr0, {0}
  100d34:	f57ff06f 	isb	sy
  100d38:	ee301f10 	mrc	15, 1, r1, cr0, cr0, {0}
  100d3c:	e2012007 	and	r2, r1, #7
  100d40:	e2822004 	add	r2, r2, #4
  100d44:	e59f4044 	ldr	r4, [pc, #68]	; 100d90 <invalidate_and_flush+0xa0>
  100d48:	e01441a1 	ands	r4, r4, r1, lsr #3
  100d4c:	e16f5f14 	clz	r5, r4
  100d50:	e59f703c 	ldr	r7, [pc, #60]	; 100d94 <invalidate_and_flush+0xa4>
  100d54:	e01776a1 	ands	r7, r7, r1, lsr #13
  100d58:	e1a09004 	mov	r9, r4
  100d5c:	e18ab519 	orr	fp, sl, r9, lsl r5
  100d60:	e18bb217 	orr	fp, fp, r7, lsl r2
  100d64:	ee07bf56 	mcr	15, 0, fp, cr7, cr6, {2}
  100d68:	e2599001 	subs	r9, r9, #1
  100d6c:	aafffffa 	bge	100d5c <invalidate_and_flush+0x6c>
  100d70:	e2577001 	subs	r7, r7, #1
  100d74:	aafffff7 	bge	100d58 <invalidate_and_flush+0x68>
  100d78:	e28aa002 	add	sl, sl, #2
  100d7c:	e153000a 	cmp	r3, sl
  100d80:	caffffe5 	bgt	100d1c <invalidate_and_flush+0x2c>
  100d84:	f57ff04f 	dsb	sy
  100d88:	e8bd8eb0 	pop	{r4, r5, r7, r9, sl, fp, pc}
  100d8c:	fffef000 	.word	0xfffef000
  100d90:	000003ff 	.word	0x000003ff
  100d94:	00007fff 	.word	0x00007fff
  100d98:	0012c000 	.word	0x0012c000
  100d9c:	00000fff 	.word	0x00000fff
  100da0:	00017c0e 	.word	0x00017c0e
  100da4:	00002c02 	.word	0x00002c02

00100da8 <alt_addr_space_remap>:
  100da8:	e52db004 	push	{fp}		; (str fp, [sp, #-4]!)
  100dac:	e28db000 	add	fp, sp, #0
  100db0:	e24dd014 	sub	sp, sp, #20
  100db4:	e1a0c000 	mov	ip, r0
  100db8:	e1a00001 	mov	r0, r1
  100dbc:	e1a01002 	mov	r1, r2
  100dc0:	e1a02003 	mov	r2, r3
  100dc4:	e1a0300c 	mov	r3, ip
  100dc8:	e54b300d 	strb	r3, [fp, #-13]
  100dcc:	e1a03000 	mov	r3, r0
  100dd0:	e54b300e 	strb	r3, [fp, #-14]
  100dd4:	e1a03001 	mov	r3, r1
  100dd8:	e54b300f 	strb	r3, [fp, #-15]
  100ddc:	e1a03002 	mov	r3, r2
  100de0:	e54b3010 	strb	r3, [fp, #-16]
  100de4:	e3a03000 	mov	r3, #0
  100de8:	e50b3008 	str	r3, [fp, #-8]
  100dec:	e55b300d 	ldrb	r3, [fp, #-13]
  100df0:	e3530000 	cmp	r3, #0
  100df4:	0a000008 	beq	100e1c <alt_addr_space_remap+0x74>
  100df8:	e55b300d 	ldrb	r3, [fp, #-13]
  100dfc:	e3530001 	cmp	r3, #1
  100e00:	1a000003 	bne	100e14 <alt_addr_space_remap+0x6c>
  100e04:	e51b3008 	ldr	r3, [fp, #-8]
  100e08:	e3833001 	orr	r3, r3, #1
  100e0c:	e50b3008 	str	r3, [fp, #-8]
  100e10:	ea000001 	b	100e1c <alt_addr_space_remap+0x74>
  100e14:	e3e0300a 	mvn	r3, #10
  100e18:	ea000028 	b	100ec0 <alt_addr_space_remap+0x118>
  100e1c:	e55b300e 	ldrb	r3, [fp, #-14]
  100e20:	e3530000 	cmp	r3, #0
  100e24:	0a000008 	beq	100e4c <alt_addr_space_remap+0xa4>
  100e28:	e55b300e 	ldrb	r3, [fp, #-14]
  100e2c:	e3530001 	cmp	r3, #1
  100e30:	1a000003 	bne	100e44 <alt_addr_space_remap+0x9c>
  100e34:	e51b3008 	ldr	r3, [fp, #-8]
  100e38:	e3833002 	orr	r3, r3, #2
  100e3c:	e50b3008 	str	r3, [fp, #-8]
  100e40:	ea000001 	b	100e4c <alt_addr_space_remap+0xa4>
  100e44:	e3e0300a 	mvn	r3, #10
  100e48:	ea00001c 	b	100ec0 <alt_addr_space_remap+0x118>
  100e4c:	e55b300f 	ldrb	r3, [fp, #-15]
  100e50:	e3530000 	cmp	r3, #0
  100e54:	0a000008 	beq	100e7c <alt_addr_space_remap+0xd4>
  100e58:	e55b300f 	ldrb	r3, [fp, #-15]
  100e5c:	e3530001 	cmp	r3, #1
  100e60:	1a000003 	bne	100e74 <alt_addr_space_remap+0xcc>
  100e64:	e51b3008 	ldr	r3, [fp, #-8]
  100e68:	e3833008 	orr	r3, r3, #8
  100e6c:	e50b3008 	str	r3, [fp, #-8]
  100e70:	ea000001 	b	100e7c <alt_addr_space_remap+0xd4>
  100e74:	e3e0300a 	mvn	r3, #10
  100e78:	ea000010 	b	100ec0 <alt_addr_space_remap+0x118>
  100e7c:	e55b3010 	ldrb	r3, [fp, #-16]
  100e80:	e3530000 	cmp	r3, #0
  100e84:	0a000008 	beq	100eac <alt_addr_space_remap+0x104>
  100e88:	e55b3010 	ldrb	r3, [fp, #-16]
  100e8c:	e3530001 	cmp	r3, #1
  100e90:	1a000003 	bne	100ea4 <alt_addr_space_remap+0xfc>
  100e94:	e51b3008 	ldr	r3, [fp, #-8]
  100e98:	e3833010 	orr	r3, r3, #16
  100e9c:	e50b3008 	str	r3, [fp, #-8]
  100ea0:	ea000001 	b	100eac <alt_addr_space_remap+0x104>
  100ea4:	e3e0300a 	mvn	r3, #10
  100ea8:	ea000004 	b	100ec0 <alt_addr_space_remap+0x118>
  100eac:	e3a03000 	mov	r3, #0
  100eb0:	e34f3f80 	movt	r3, #65408	; 0xff80
  100eb4:	e51b2008 	ldr	r2, [fp, #-8]
  100eb8:	e5832000 	str	r2, [r3]
  100ebc:	e3a03000 	mov	r3, #0
  100ec0:	e1a00003 	mov	r0, r3
  100ec4:	e24bd000 	sub	sp, fp, #0
  100ec8:	e49db004 	pop	{fp}		; (ldr fp, [sp], #4)
  100ecc:	e12fff1e 	bx	lr

00100ed0 <alt_mpu_addr_space_remap_0_to_sdram>:
  100ed0:	e92d4800 	push	{fp, lr}
  100ed4:	e28db004 	add	fp, sp, #4
  100ed8:	e24dd008 	sub	sp, sp, #8
  100edc:	e30f3c04 	movw	r3, #64516	; 0xfc04
  100ee0:	e34f3ffe 	movt	r3, #65534	; 0xfffe
  100ee4:	e5933000 	ldr	r3, [r3]
  100ee8:	e1a03a23 	lsr	r3, r3, #20
  100eec:	e1a03a03 	lsl	r3, r3, #20
  100ef0:	e50b3008 	str	r3, [fp, #-8]
  100ef4:	e51b1008 	ldr	r1, [fp, #-8]
  100ef8:	e3a00000 	mov	r0, #0
  100efc:	eb000027 	bl	100fa0 <alt_l2_addr_filter_cfg_set>
  100f00:	e1a03000 	mov	r3, r0
  100f04:	e1a00003 	mov	r0, r3
  100f08:	e24bd004 	sub	sp, fp, #4
  100f0c:	e8bd8800 	pop	{fp, pc}

00100f10 <alt_l2_addr_filter_cfg_get>:
  100f10:	e52db004 	push	{fp}		; (str fp, [sp, #-4]!)
  100f14:	e28db000 	add	fp, sp, #0
  100f18:	e24dd014 	sub	sp, sp, #20
  100f1c:	e50b0010 	str	r0, [fp, #-16]
  100f20:	e50b1014 	str	r1, [fp, #-20]	; 0xffffffec
  100f24:	e3a03b3f 	mov	r3, #64512	; 0xfc00
  100f28:	e34f3ffe 	movt	r3, #65534	; 0xfffe
  100f2c:	e5933000 	ldr	r3, [r3]
  100f30:	e50b3008 	str	r3, [fp, #-8]
  100f34:	e30f3c04 	movw	r3, #64516	; 0xfc04
  100f38:	e34f3ffe 	movt	r3, #65534	; 0xfffe
  100f3c:	e5933000 	ldr	r3, [r3]
  100f40:	e50b300c 	str	r3, [fp, #-12]
  100f44:	e51b3010 	ldr	r3, [fp, #-16]
  100f48:	e3530000 	cmp	r3, #0
  100f4c:	0a000002 	beq	100f5c <alt_l2_addr_filter_cfg_get+0x4c>
  100f50:	e51b3014 	ldr	r3, [fp, #-20]	; 0xffffffec
  100f54:	e3530000 	cmp	r3, #0
  100f58:	1a000001 	bne	100f64 <alt_l2_addr_filter_cfg_get+0x54>
  100f5c:	e3e03008 	mvn	r3, #8
  100f60:	ea00000a 	b	100f90 <alt_l2_addr_filter_cfg_get+0x80>
  100f64:	e51b3008 	ldr	r3, [fp, #-8]
  100f68:	e1a03a23 	lsr	r3, r3, #20
  100f6c:	e1a03a03 	lsl	r3, r3, #20
  100f70:	e51b2010 	ldr	r2, [fp, #-16]
  100f74:	e5823000 	str	r3, [r2]
  100f78:	e51b300c 	ldr	r3, [fp, #-12]
  100f7c:	e1a03a23 	lsr	r3, r3, #20
  100f80:	e1a03a03 	lsl	r3, r3, #20
  100f84:	e51b2014 	ldr	r2, [fp, #-20]	; 0xffffffec
  100f88:	e5823000 	str	r3, [r2]
  100f8c:	e3a03000 	mov	r3, #0
  100f90:	e1a00003 	mov	r0, r3
  100f94:	e24bd000 	sub	sp, fp, #0
  100f98:	e49db004 	pop	{fp}		; (ldr fp, [sp], #4)
  100f9c:	e12fff1e 	bx	lr

00100fa0 <alt_l2_addr_filter_cfg_set>:
  100fa0:	e52db004 	push	{fp}		; (str fp, [sp, #-4]!)
  100fa4:	e28db000 	add	fp, sp, #0
  100fa8:	e24dd00c 	sub	sp, sp, #12
  100fac:	e50b0008 	str	r0, [fp, #-8]
  100fb0:	e50b100c 	str	r1, [fp, #-12]
  100fb4:	e51b3008 	ldr	r3, [fp, #-8]
  100fb8:	e7f33053 	ubfx	r3, r3, #0, #20
  100fbc:	e3530000 	cmp	r3, #0
  100fc0:	1a000003 	bne	100fd4 <alt_l2_addr_filter_cfg_set+0x34>
  100fc4:	e51b300c 	ldr	r3, [fp, #-12]
  100fc8:	e7f33053 	ubfx	r3, r3, #0, #20
  100fcc:	e3530000 	cmp	r3, #0
  100fd0:	0a000001 	beq	100fdc <alt_l2_addr_filter_cfg_set+0x3c>
  100fd4:	e3e03007 	mvn	r3, #7
  100fd8:	ea000010 	b	101020 <alt_l2_addr_filter_cfg_set+0x80>
  100fdc:	e51b300c 	ldr	r3, [fp, #-12]
  100fe0:	e3530103 	cmp	r3, #-1073741824	; 0xc0000000
  100fe4:	9a000001 	bls	100ff0 <alt_l2_addr_filter_cfg_set+0x50>
  100fe8:	e3e03007 	mvn	r3, #7
  100fec:	ea00000b 	b	101020 <alt_l2_addr_filter_cfg_set+0x80>
  100ff0:	e30f3c04 	movw	r3, #64516	; 0xfc04
  100ff4:	e34f3ffe 	movt	r3, #65534	; 0xfffe
  100ff8:	e51b200c 	ldr	r2, [fp, #-12]
  100ffc:	e5832000 	str	r2, [r3]
  101000:	e51b3008 	ldr	r3, [fp, #-8]
  101004:	e3833001 	orr	r3, r3, #1
  101008:	e50b3008 	str	r3, [fp, #-8]
  10100c:	e3a03b3f 	mov	r3, #64512	; 0xfc00
  101010:	e34f3ffe 	movt	r3, #65534	; 0xfffe
  101014:	e51b2008 	ldr	r2, [fp, #-8]
  101018:	e5832000 	str	r2, [r3]
  10101c:	e3a03000 	mov	r3, #0
  101020:	e1a00003 	mov	r0, r3
  101024:	e24bd000 	sub	sp, fp, #0
  101028:	e49db004 	pop	{fp}		; (ldr fp, [sp], #4)
  10102c:	e12fff1e 	bx	lr

00101030 <alt_acp_id_map_fixed_read_set>:
  101030:	e52db004 	push	{fp}		; (str fp, [sp, #-4]!)
  101034:	e28db000 	add	fp, sp, #0
  101038:	e24dd014 	sub	sp, sp, #20
  10103c:	e50b0008 	str	r0, [fp, #-8]
  101040:	e50b100c 	str	r1, [fp, #-12]
  101044:	e50b3014 	str	r3, [fp, #-20]	; 0xffffffec
  101048:	e1a03002 	mov	r3, r2
  10104c:	e54b300d 	strb	r3, [fp, #-13]
  101050:	e51b3008 	ldr	r3, [fp, #-8]
  101054:	e3530a01 	cmp	r3, #4096	; 0x1000
  101058:	2a000002 	bcs	101068 <alt_acp_id_map_fixed_read_set+0x38>
  10105c:	e51b300c 	ldr	r3, [fp, #-12]
  101060:	e3530007 	cmp	r3, #7
  101064:	9a000001 	bls	101070 <alt_acp_id_map_fixed_read_set+0x40>
  101068:	e3e03008 	mvn	r3, #8
  10106c:	ea000066 	b	10120c <alt_acp_id_map_fixed_read_set+0x1dc>
  101070:	e51b300c 	ldr	r3, [fp, #-12]
  101074:	e2433002 	sub	r3, r3, #2
  101078:	e3530004 	cmp	r3, #4
  10107c:	979ff103 	ldrls	pc, [pc, r3, lsl #2]
  101080:	ea00005e 	b	101200 <alt_acp_id_map_fixed_read_set+0x1d0>
  101084:	00101098 	.word	0x00101098
  101088:	001010e0 	.word	0x001010e0
  10108c:	00101128 	.word	0x00101128
  101090:	00101170 	.word	0x00101170
  101094:	001011b8 	.word	0x001011b8
  101098:	e3a02a07 	mov	r2, #28672	; 0x7000
  10109c:	e34f2f70 	movt	r2, #65392	; 0xff70
  1010a0:	e51b3008 	ldr	r3, [fp, #-8]
  1010a4:	e1a01803 	lsl	r1, r3, #16
  1010a8:	e3a03000 	mov	r3, #0
  1010ac:	e3403fff 	movt	r3, #4095	; 0xfff
  1010b0:	e0033001 	and	r3, r3, r1
  1010b4:	e55b100d 	ldrb	r1, [fp, #-13]
  1010b8:	e1a01601 	lsl	r1, r1, #12
  1010bc:	e2011a03 	and	r1, r1, #12288	; 0x3000
  1010c0:	e1831001 	orr	r1, r3, r1
  1010c4:	e51b3014 	ldr	r3, [fp, #-20]	; 0xffffffec
  1010c8:	e1a03203 	lsl	r3, r3, #4
  1010cc:	e2033e1f 	and	r3, r3, #496	; 0x1f0
  1010d0:	e1813003 	orr	r3, r1, r3
  1010d4:	e3833102 	orr	r3, r3, #-2147483648	; 0x80000000
  1010d8:	e5823000 	str	r3, [r2]
  1010dc:	ea000049 	b	101208 <alt_acp_id_map_fixed_read_set+0x1d8>
  1010e0:	e3072008 	movw	r2, #28680	; 0x7008
  1010e4:	e34f2f70 	movt	r2, #65392	; 0xff70
  1010e8:	e51b3008 	ldr	r3, [fp, #-8]
  1010ec:	e1a01803 	lsl	r1, r3, #16
  1010f0:	e3a03000 	mov	r3, #0
  1010f4:	e3403fff 	movt	r3, #4095	; 0xfff
  1010f8:	e0033001 	and	r3, r3, r1
  1010fc:	e55b100d 	ldrb	r1, [fp, #-13]
  101100:	e1a01601 	lsl	r1, r1, #12
  101104:	e2011a03 	and	r1, r1, #12288	; 0x3000
  101108:	e1831001 	orr	r1, r3, r1
  10110c:	e51b3014 	ldr	r3, [fp, #-20]	; 0xffffffec
  101110:	e1a03203 	lsl	r3, r3, #4
  101114:	e2033e1f 	and	r3, r3, #496	; 0x1f0
  101118:	e1813003 	orr	r3, r1, r3
  10111c:	e3833102 	orr	r3, r3, #-2147483648	; 0x80000000
  101120:	e5823000 	str	r3, [r2]
  101124:	ea000037 	b	101208 <alt_acp_id_map_fixed_read_set+0x1d8>
  101128:	e3072010 	movw	r2, #28688	; 0x7010
  10112c:	e34f2f70 	movt	r2, #65392	; 0xff70
  101130:	e51b3008 	ldr	r3, [fp, #-8]
  101134:	e1a01803 	lsl	r1, r3, #16
  101138:	e3a03000 	mov	r3, #0
  10113c:	e3403fff 	movt	r3, #4095	; 0xfff
  101140:	e0033001 	and	r3, r3, r1
  101144:	e55b100d 	ldrb	r1, [fp, #-13]
  101148:	e1a01601 	lsl	r1, r1, #12
  10114c:	e2011a03 	and	r1, r1, #12288	; 0x3000
  101150:	e1831001 	orr	r1, r3, r1
  101154:	e51b3014 	ldr	r3, [fp, #-20]	; 0xffffffec
  101158:	e1a03203 	lsl	r3, r3, #4
  10115c:	e2033e1f 	and	r3, r3, #496	; 0x1f0
  101160:	e1813003 	orr	r3, r1, r3
  101164:	e3833102 	orr	r3, r3, #-2147483648	; 0x80000000
  101168:	e5823000 	str	r3, [r2]
  10116c:	ea000025 	b	101208 <alt_acp_id_map_fixed_read_set+0x1d8>
  101170:	e3072018 	movw	r2, #28696	; 0x7018
  101174:	e34f2f70 	movt	r2, #65392	; 0xff70
  101178:	e51b3008 	ldr	r3, [fp, #-8]
  10117c:	e1a01803 	lsl	r1, r3, #16
  101180:	e3a03000 	mov	r3, #0
  101184:	e3403fff 	movt	r3, #4095	; 0xfff
  101188:	e0033001 	and	r3, r3, r1
  10118c:	e55b100d 	ldrb	r1, [fp, #-13]
  101190:	e1a01601 	lsl	r1, r1, #12
  101194:	e2011a03 	and	r1, r1, #12288	; 0x3000
  101198:	e1831001 	orr	r1, r3, r1
  10119c:	e51b3014 	ldr	r3, [fp, #-20]	; 0xffffffec
  1011a0:	e1a03203 	lsl	r3, r3, #4
  1011a4:	e2033e1f 	and	r3, r3, #496	; 0x1f0
  1011a8:	e1813003 	orr	r3, r1, r3
  1011ac:	e3833102 	orr	r3, r3, #-2147483648	; 0x80000000
  1011b0:	e5823000 	str	r3, [r2]
  1011b4:	ea000013 	b	101208 <alt_acp_id_map_fixed_read_set+0x1d8>
  1011b8:	e3072020 	movw	r2, #28704	; 0x7020
  1011bc:	e34f2f70 	movt	r2, #65392	; 0xff70
  1011c0:	e51b3008 	ldr	r3, [fp, #-8]
  1011c4:	e1a01803 	lsl	r1, r3, #16
  1011c8:	e3a03000 	mov	r3, #0
  1011cc:	e3403fff 	movt	r3, #4095	; 0xfff
  1011d0:	e0033001 	and	r3, r3, r1
  1011d4:	e55b100d 	ldrb	r1, [fp, #-13]
  1011d8:	e1a01601 	lsl	r1, r1, #12
  1011dc:	e2011a03 	and	r1, r1, #12288	; 0x3000
  1011e0:	e1831001 	orr	r1, r3, r1
  1011e4:	e51b3014 	ldr	r3, [fp, #-20]	; 0xffffffec
  1011e8:	e1a03203 	lsl	r3, r3, #4
  1011ec:	e2033e1f 	and	r3, r3, #496	; 0x1f0
  1011f0:	e1813003 	orr	r3, r1, r3
  1011f4:	e3833102 	orr	r3, r3, #-2147483648	; 0x80000000
  1011f8:	e5823000 	str	r3, [r2]
  1011fc:	ea000001 	b	101208 <alt_acp_id_map_fixed_read_set+0x1d8>
  101200:	e3e03008 	mvn	r3, #8
  101204:	ea000000 	b	10120c <alt_acp_id_map_fixed_read_set+0x1dc>
  101208:	e3a03000 	mov	r3, #0
  10120c:	e1a00003 	mov	r0, r3
  101210:	e24bd000 	sub	sp, fp, #0
  101214:	e49db004 	pop	{fp}		; (ldr fp, [sp], #4)
  101218:	e12fff1e 	bx	lr

0010121c <alt_acp_id_map_fixed_write_set>:
  10121c:	e52db004 	push	{fp}		; (str fp, [sp, #-4]!)
  101220:	e28db000 	add	fp, sp, #0
  101224:	e24dd014 	sub	sp, sp, #20
  101228:	e50b0008 	str	r0, [fp, #-8]
  10122c:	e50b100c 	str	r1, [fp, #-12]
  101230:	e50b3014 	str	r3, [fp, #-20]	; 0xffffffec
  101234:	e1a03002 	mov	r3, r2
  101238:	e54b300d 	strb	r3, [fp, #-13]
  10123c:	e51b3008 	ldr	r3, [fp, #-8]
  101240:	e3530a01 	cmp	r3, #4096	; 0x1000
  101244:	2a000002 	bcs	101254 <alt_acp_id_map_fixed_write_set+0x38>
  101248:	e51b300c 	ldr	r3, [fp, #-12]
  10124c:	e3530007 	cmp	r3, #7
  101250:	9a000001 	bls	10125c <alt_acp_id_map_fixed_write_set+0x40>
  101254:	e3e03008 	mvn	r3, #8
  101258:	ea000066 	b	1013f8 <alt_acp_id_map_fixed_write_set+0x1dc>
  10125c:	e51b300c 	ldr	r3, [fp, #-12]
  101260:	e2433002 	sub	r3, r3, #2
  101264:	e3530004 	cmp	r3, #4
  101268:	979ff103 	ldrls	pc, [pc, r3, lsl #2]
  10126c:	ea00005e 	b	1013ec <alt_acp_id_map_fixed_write_set+0x1d0>
  101270:	00101284 	.word	0x00101284
  101274:	001012cc 	.word	0x001012cc
  101278:	00101314 	.word	0x00101314
  10127c:	0010135c 	.word	0x0010135c
  101280:	001013a4 	.word	0x001013a4
  101284:	e3072004 	movw	r2, #28676	; 0x7004
  101288:	e34f2f70 	movt	r2, #65392	; 0xff70
  10128c:	e51b3008 	ldr	r3, [fp, #-8]
  101290:	e1a01803 	lsl	r1, r3, #16
  101294:	e3a03000 	mov	r3, #0
  101298:	e3403fff 	movt	r3, #4095	; 0xfff
  10129c:	e0033001 	and	r3, r3, r1
  1012a0:	e55b100d 	ldrb	r1, [fp, #-13]
  1012a4:	e1a01601 	lsl	r1, r1, #12
  1012a8:	e2011a03 	and	r1, r1, #12288	; 0x3000
  1012ac:	e1831001 	orr	r1, r3, r1
  1012b0:	e51b3014 	ldr	r3, [fp, #-20]	; 0xffffffec
  1012b4:	e1a03203 	lsl	r3, r3, #4
  1012b8:	e2033e1f 	and	r3, r3, #496	; 0x1f0
  1012bc:	e1813003 	orr	r3, r1, r3
  1012c0:	e3833102 	orr	r3, r3, #-2147483648	; 0x80000000
  1012c4:	e5823000 	str	r3, [r2]
  1012c8:	ea000049 	b	1013f4 <alt_acp_id_map_fixed_write_set+0x1d8>
  1012cc:	e307200c 	movw	r2, #28684	; 0x700c
  1012d0:	e34f2f70 	movt	r2, #65392	; 0xff70
  1012d4:	e51b3008 	ldr	r3, [fp, #-8]
  1012d8:	e1a01803 	lsl	r1, r3, #16
  1012dc:	e3a03000 	mov	r3, #0
  1012e0:	e3403fff 	movt	r3, #4095	; 0xfff
  1012e4:	e0033001 	and	r3, r3, r1
  1012e8:	e55b100d 	ldrb	r1, [fp, #-13]
  1012ec:	e1a01601 	lsl	r1, r1, #12
  1012f0:	e2011a03 	and	r1, r1, #12288	; 0x3000
  1012f4:	e1831001 	orr	r1, r3, r1
  1012f8:	e51b3014 	ldr	r3, [fp, #-20]	; 0xffffffec
  1012fc:	e1a03203 	lsl	r3, r3, #4
  101300:	e2033e1f 	and	r3, r3, #496	; 0x1f0
  101304:	e1813003 	orr	r3, r1, r3
  101308:	e3833102 	orr	r3, r3, #-2147483648	; 0x80000000
  10130c:	e5823000 	str	r3, [r2]
  101310:	ea000037 	b	1013f4 <alt_acp_id_map_fixed_write_set+0x1d8>
  101314:	e3072014 	movw	r2, #28692	; 0x7014
  101318:	e34f2f70 	movt	r2, #65392	; 0xff70
  10131c:	e51b3008 	ldr	r3, [fp, #-8]
  101320:	e1a01803 	lsl	r1, r3, #16
  101324:	e3a03000 	mov	r3, #0
  101328:	e3403fff 	movt	r3, #4095	; 0xfff
  10132c:	e0033001 	and	r3, r3, r1
  101330:	e55b100d 	ldrb	r1, [fp, #-13]
  101334:	e1a01601 	lsl	r1, r1, #12
  101338:	e2011a03 	and	r1, r1, #12288	; 0x3000
  10133c:	e1831001 	orr	r1, r3, r1
  101340:	e51b3014 	ldr	r3, [fp, #-20]	; 0xffffffec
  101344:	e1a03203 	lsl	r3, r3, #4
  101348:	e2033e1f 	and	r3, r3, #496	; 0x1f0
  10134c:	e1813003 	orr	r3, r1, r3
  101350:	e3833102 	orr	r3, r3, #-2147483648	; 0x80000000
  101354:	e5823000 	str	r3, [r2]
  101358:	ea000025 	b	1013f4 <alt_acp_id_map_fixed_write_set+0x1d8>
  10135c:	e307201c 	movw	r2, #28700	; 0x701c
  101360:	e34f2f70 	movt	r2, #65392	; 0xff70
  101364:	e51b3008 	ldr	r3, [fp, #-8]
  101368:	e1a01803 	lsl	r1, r3, #16
  10136c:	e3a03000 	mov	r3, #0
  101370:	e3403fff 	movt	r3, #4095	; 0xfff
  101374:	e0033001 	and	r3, r3, r1
  101378:	e55b100d 	ldrb	r1, [fp, #-13]
  10137c:	e1a01601 	lsl	r1, r1, #12
  101380:	e2011a03 	and	r1, r1, #12288	; 0x3000
  101384:	e1831001 	orr	r1, r3, r1
  101388:	e51b3014 	ldr	r3, [fp, #-20]	; 0xffffffec
  10138c:	e1a03203 	lsl	r3, r3, #4
  101390:	e2033e1f 	and	r3, r3, #496	; 0x1f0
  101394:	e1813003 	orr	r3, r1, r3
  101398:	e3833102 	orr	r3, r3, #-2147483648	; 0x80000000
  10139c:	e5823000 	str	r3, [r2]
  1013a0:	ea000013 	b	1013f4 <alt_acp_id_map_fixed_write_set+0x1d8>
  1013a4:	e3072024 	movw	r2, #28708	; 0x7024
  1013a8:	e34f2f70 	movt	r2, #65392	; 0xff70
  1013ac:	e51b3008 	ldr	r3, [fp, #-8]
  1013b0:	e1a01803 	lsl	r1, r3, #16
  1013b4:	e3a03000 	mov	r3, #0
  1013b8:	e3403fff 	movt	r3, #4095	; 0xfff
  1013bc:	e0033001 	and	r3, r3, r1
  1013c0:	e55b100d 	ldrb	r1, [fp, #-13]
  1013c4:	e1a01601 	lsl	r1, r1, #12
  1013c8:	e2011a03 	and	r1, r1, #12288	; 0x3000
  1013cc:	e1831001 	orr	r1, r3, r1
  1013d0:	e51b3014 	ldr	r3, [fp, #-20]	; 0xffffffec
  1013d4:	e1a03203 	lsl	r3, r3, #4
  1013d8:	e2033e1f 	and	r3, r3, #496	; 0x1f0
  1013dc:	e1813003 	orr	r3, r1, r3
  1013e0:	e3833102 	orr	r3, r3, #-2147483648	; 0x80000000
  1013e4:	e5823000 	str	r3, [r2]
  1013e8:	ea000001 	b	1013f4 <alt_acp_id_map_fixed_write_set+0x1d8>
  1013ec:	e3e03008 	mvn	r3, #8
  1013f0:	ea000000 	b	1013f8 <alt_acp_id_map_fixed_write_set+0x1dc>
  1013f4:	e3a03000 	mov	r3, #0
  1013f8:	e1a00003 	mov	r0, r3
  1013fc:	e24bd000 	sub	sp, fp, #0
  101400:	e49db004 	pop	{fp}		; (ldr fp, [sp], #4)
  101404:	e12fff1e 	bx	lr

00101408 <alt_acp_id_map_dynamic_read_set>:
  101408:	e52db004 	push	{fp}		; (str fp, [sp, #-4]!)
  10140c:	e28db000 	add	fp, sp, #0
  101410:	e24dd014 	sub	sp, sp, #20
  101414:	e50b0010 	str	r0, [fp, #-16]
  101418:	e51b3010 	ldr	r3, [fp, #-16]
  10141c:	e3530007 	cmp	r3, #7
  101420:	9a000001 	bls	10142c <alt_acp_id_map_dynamic_read_set+0x24>
  101424:	e3e03008 	mvn	r3, #8
  101428:	ea000057 	b	10158c <alt_acp_id_map_dynamic_read_set+0x184>
  10142c:	e51b3010 	ldr	r3, [fp, #-16]
  101430:	e2433002 	sub	r3, r3, #2
  101434:	e3530004 	cmp	r3, #4
  101438:	979ff103 	ldrls	pc, [pc, r3, lsl #2]
  10143c:	ea000045 	b	101558 <alt_acp_id_map_dynamic_read_set+0x150>
  101440:	00101454 	.word	0x00101454
  101444:	00101488 	.word	0x00101488
  101448:	001014bc 	.word	0x001014bc
  10144c:	001014f0 	.word	0x001014f0
  101450:	00101524 	.word	0x00101524
  101454:	e3a03a07 	mov	r3, #28672	; 0x7000
  101458:	e34f3f70 	movt	r3, #65392	; 0xff70
  10145c:	e5933000 	ldr	r3, [r3]
  101460:	e1a03223 	lsr	r3, r3, #4
  101464:	e203301f 	and	r3, r3, #31
  101468:	e50b3008 	str	r3, [fp, #-8]
  10146c:	e3a03a07 	mov	r3, #28672	; 0x7000
  101470:	e34f3f70 	movt	r3, #65392	; 0xff70
  101474:	e5933000 	ldr	r3, [r3]
  101478:	e1a03623 	lsr	r3, r3, #12
  10147c:	e2033003 	and	r3, r3, #3
  101480:	e50b300c 	str	r3, [fp, #-12]
  101484:	ea000035 	b	101560 <alt_acp_id_map_dynamic_read_set+0x158>
  101488:	e3073008 	movw	r3, #28680	; 0x7008
  10148c:	e34f3f70 	movt	r3, #65392	; 0xff70
  101490:	e5933000 	ldr	r3, [r3]
  101494:	e1a03223 	lsr	r3, r3, #4
  101498:	e203301f 	and	r3, r3, #31
  10149c:	e50b3008 	str	r3, [fp, #-8]
  1014a0:	e3073008 	movw	r3, #28680	; 0x7008
  1014a4:	e34f3f70 	movt	r3, #65392	; 0xff70
  1014a8:	e5933000 	ldr	r3, [r3]
  1014ac:	e1a03623 	lsr	r3, r3, #12
  1014b0:	e2033003 	and	r3, r3, #3
  1014b4:	e50b300c 	str	r3, [fp, #-12]
  1014b8:	ea000028 	b	101560 <alt_acp_id_map_dynamic_read_set+0x158>
  1014bc:	e3073010 	movw	r3, #28688	; 0x7010
  1014c0:	e34f3f70 	movt	r3, #65392	; 0xff70
  1014c4:	e5933000 	ldr	r3, [r3]
  1014c8:	e1a03223 	lsr	r3, r3, #4
  1014cc:	e203301f 	and	r3, r3, #31
  1014d0:	e50b3008 	str	r3, [fp, #-8]
  1014d4:	e3073010 	movw	r3, #28688	; 0x7010
  1014d8:	e34f3f70 	movt	r3, #65392	; 0xff70
  1014dc:	e5933000 	ldr	r3, [r3]
  1014e0:	e1a03623 	lsr	r3, r3, #12
  1014e4:	e2033003 	and	r3, r3, #3
  1014e8:	e50b300c 	str	r3, [fp, #-12]
  1014ec:	ea00001b 	b	101560 <alt_acp_id_map_dynamic_read_set+0x158>
  1014f0:	e3073018 	movw	r3, #28696	; 0x7018
  1014f4:	e34f3f70 	movt	r3, #65392	; 0xff70
  1014f8:	e5933000 	ldr	r3, [r3]
  1014fc:	e1a03223 	lsr	r3, r3, #4
  101500:	e203301f 	and	r3, r3, #31
  101504:	e50b3008 	str	r3, [fp, #-8]
  101508:	e3073018 	movw	r3, #28696	; 0x7018
  10150c:	e34f3f70 	movt	r3, #65392	; 0xff70
  101510:	e5933000 	ldr	r3, [r3]
  101514:	e1a03623 	lsr	r3, r3, #12
  101518:	e2033003 	and	r3, r3, #3
  10151c:	e50b300c 	str	r3, [fp, #-12]
  101520:	ea00000e 	b	101560 <alt_acp_id_map_dynamic_read_set+0x158>
  101524:	e3073020 	movw	r3, #28704	; 0x7020
  101528:	e34f3f70 	movt	r3, #65392	; 0xff70
  10152c:	e5933000 	ldr	r3, [r3]
  101530:	e1a03223 	lsr	r3, r3, #4
  101534:	e203301f 	and	r3, r3, #31
  101538:	e50b3008 	str	r3, [fp, #-8]
  10153c:	e3073020 	movw	r3, #28704	; 0x7020
  101540:	e34f3f70 	movt	r3, #65392	; 0xff70
  101544:	e5933000 	ldr	r3, [r3]
  101548:	e1a03623 	lsr	r3, r3, #12
  10154c:	e2033003 	and	r3, r3, #3
  101550:	e50b300c 	str	r3, [fp, #-12]
  101554:	ea000001 	b	101560 <alt_acp_id_map_dynamic_read_set+0x158>
  101558:	e3e03008 	mvn	r3, #8
  10155c:	ea00000a 	b	10158c <alt_acp_id_map_dynamic_read_set+0x184>
  101560:	e3073028 	movw	r3, #28712	; 0x7028
  101564:	e34f3f70 	movt	r3, #65392	; 0xff70
  101568:	e51b200c 	ldr	r2, [fp, #-12]
  10156c:	e1a02602 	lsl	r2, r2, #12
  101570:	e2021a03 	and	r1, r2, #12288	; 0x3000
  101574:	e51b2008 	ldr	r2, [fp, #-8]
  101578:	e1a02202 	lsl	r2, r2, #4
  10157c:	e2022e1f 	and	r2, r2, #496	; 0x1f0
  101580:	e1812002 	orr	r2, r1, r2
  101584:	e5832000 	str	r2, [r3]
  101588:	e3a03000 	mov	r3, #0
  10158c:	e1a00003 	mov	r0, r3
  101590:	e24bd000 	sub	sp, fp, #0
  101594:	e49db004 	pop	{fp}		; (ldr fp, [sp], #4)
  101598:	e12fff1e 	bx	lr

0010159c <alt_acp_id_map_dynamic_write_set>:
  10159c:	e52db004 	push	{fp}		; (str fp, [sp, #-4]!)
  1015a0:	e28db000 	add	fp, sp, #0
  1015a4:	e24dd014 	sub	sp, sp, #20
  1015a8:	e50b0010 	str	r0, [fp, #-16]
  1015ac:	e51b3010 	ldr	r3, [fp, #-16]
  1015b0:	e3530007 	cmp	r3, #7
  1015b4:	9a000001 	bls	1015c0 <alt_acp_id_map_dynamic_write_set+0x24>
  1015b8:	e3e03008 	mvn	r3, #8
  1015bc:	ea000057 	b	101720 <alt_acp_id_map_dynamic_write_set+0x184>
  1015c0:	e51b3010 	ldr	r3, [fp, #-16]
  1015c4:	e2433002 	sub	r3, r3, #2
  1015c8:	e3530004 	cmp	r3, #4
  1015cc:	979ff103 	ldrls	pc, [pc, r3, lsl #2]
  1015d0:	ea000045 	b	1016ec <alt_acp_id_map_dynamic_write_set+0x150>
  1015d4:	001015e8 	.word	0x001015e8
  1015d8:	0010161c 	.word	0x0010161c
  1015dc:	00101650 	.word	0x00101650
  1015e0:	00101684 	.word	0x00101684
  1015e4:	001016b8 	.word	0x001016b8
  1015e8:	e3073004 	movw	r3, #28676	; 0x7004
  1015ec:	e34f3f70 	movt	r3, #65392	; 0xff70
  1015f0:	e5933000 	ldr	r3, [r3]
  1015f4:	e1a03223 	lsr	r3, r3, #4
  1015f8:	e203301f 	and	r3, r3, #31
  1015fc:	e50b3008 	str	r3, [fp, #-8]
  101600:	e3073004 	movw	r3, #28676	; 0x7004
  101604:	e34f3f70 	movt	r3, #65392	; 0xff70
  101608:	e5933000 	ldr	r3, [r3]
  10160c:	e1a03623 	lsr	r3, r3, #12
  101610:	e2033003 	and	r3, r3, #3
  101614:	e50b300c 	str	r3, [fp, #-12]
  101618:	ea000035 	b	1016f4 <alt_acp_id_map_dynamic_write_set+0x158>
  10161c:	e307300c 	movw	r3, #28684	; 0x700c
  101620:	e34f3f70 	movt	r3, #65392	; 0xff70
  101624:	e5933000 	ldr	r3, [r3]
  101628:	e1a03223 	lsr	r3, r3, #4
  10162c:	e203301f 	and	r3, r3, #31
  101630:	e50b3008 	str	r3, [fp, #-8]
  101634:	e307300c 	movw	r3, #28684	; 0x700c
  101638:	e34f3f70 	movt	r3, #65392	; 0xff70
  10163c:	e5933000 	ldr	r3, [r3]
  101640:	e1a03623 	lsr	r3, r3, #12
  101644:	e2033003 	and	r3, r3, #3
  101648:	e50b300c 	str	r3, [fp, #-12]
  10164c:	ea000028 	b	1016f4 <alt_acp_id_map_dynamic_write_set+0x158>
  101650:	e3073014 	movw	r3, #28692	; 0x7014
  101654:	e34f3f70 	movt	r3, #65392	; 0xff70
  101658:	e5933000 	ldr	r3, [r3]
  10165c:	e1a03223 	lsr	r3, r3, #4
  101660:	e203301f 	and	r3, r3, #31
  101664:	e50b3008 	str	r3, [fp, #-8]
  101668:	e3073014 	movw	r3, #28692	; 0x7014
  10166c:	e34f3f70 	movt	r3, #65392	; 0xff70
  101670:	e5933000 	ldr	r3, [r3]
  101674:	e1a03623 	lsr	r3, r3, #12
  101678:	e2033003 	and	r3, r3, #3
  10167c:	e50b300c 	str	r3, [fp, #-12]
  101680:	ea00001b 	b	1016f4 <alt_acp_id_map_dynamic_write_set+0x158>
  101684:	e307301c 	movw	r3, #28700	; 0x701c
  101688:	e34f3f70 	movt	r3, #65392	; 0xff70
  10168c:	e5933000 	ldr	r3, [r3]
  101690:	e1a03223 	lsr	r3, r3, #4
  101694:	e203301f 	and	r3, r3, #31
  101698:	e50b3008 	str	r3, [fp, #-8]
  10169c:	e307301c 	movw	r3, #28700	; 0x701c
  1016a0:	e34f3f70 	movt	r3, #65392	; 0xff70
  1016a4:	e5933000 	ldr	r3, [r3]
  1016a8:	e1a03623 	lsr	r3, r3, #12
  1016ac:	e2033003 	and	r3, r3, #3
  1016b0:	e50b300c 	str	r3, [fp, #-12]
  1016b4:	ea00000e 	b	1016f4 <alt_acp_id_map_dynamic_write_set+0x158>
  1016b8:	e3073024 	movw	r3, #28708	; 0x7024
  1016bc:	e34f3f70 	movt	r3, #65392	; 0xff70
  1016c0:	e5933000 	ldr	r3, [r3]
  1016c4:	e1a03223 	lsr	r3, r3, #4
  1016c8:	e203301f 	and	r3, r3, #31
  1016cc:	e50b3008 	str	r3, [fp, #-8]
  1016d0:	e3073024 	movw	r3, #28708	; 0x7024
  1016d4:	e34f3f70 	movt	r3, #65392	; 0xff70
  1016d8:	e5933000 	ldr	r3, [r3]
  1016dc:	e1a03623 	lsr	r3, r3, #12
  1016e0:	e2033003 	and	r3, r3, #3
  1016e4:	e50b300c 	str	r3, [fp, #-12]
  1016e8:	ea000001 	b	1016f4 <alt_acp_id_map_dynamic_write_set+0x158>
  1016ec:	e3e03008 	mvn	r3, #8
  1016f0:	ea00000a 	b	101720 <alt_acp_id_map_dynamic_write_set+0x184>
  1016f4:	e307302c 	movw	r3, #28716	; 0x702c
  1016f8:	e34f3f70 	movt	r3, #65392	; 0xff70
  1016fc:	e51b200c 	ldr	r2, [fp, #-12]
  101700:	e1a02602 	lsl	r2, r2, #12
  101704:	e2021a03 	and	r1, r2, #12288	; 0x3000
  101708:	e51b2008 	ldr	r2, [fp, #-8]
  10170c:	e1a02202 	lsl	r2, r2, #4
  101710:	e2022e1f 	and	r2, r2, #496	; 0x1f0
  101714:	e1812002 	orr	r2, r1, r2
  101718:	e5832000 	str	r2, [r3]
  10171c:	e3a03000 	mov	r3, #0
  101720:	e1a00003 	mov	r0, r3
  101724:	e24bd000 	sub	sp, fp, #0
  101728:	e49db004 	pop	{fp}		; (ldr fp, [sp], #4)
  10172c:	e12fff1e 	bx	lr

00101730 <alt_acp_id_map_dynamic_read_options_set>:
  101730:	e52db004 	push	{fp}		; (str fp, [sp, #-4]!)
  101734:	e28db000 	add	fp, sp, #0
  101738:	e24dd00c 	sub	sp, sp, #12
  10173c:	e1a03000 	mov	r3, r0
  101740:	e50b100c 	str	r1, [fp, #-12]
  101744:	e54b3005 	strb	r3, [fp, #-5]
  101748:	e3073028 	movw	r3, #28712	; 0x7028
  10174c:	e34f3f70 	movt	r3, #65392	; 0xff70
  101750:	e55b2005 	ldrb	r2, [fp, #-5]
  101754:	e1a02602 	lsl	r2, r2, #12
  101758:	e2021a03 	and	r1, r2, #12288	; 0x3000
  10175c:	e51b200c 	ldr	r2, [fp, #-12]
  101760:	e1a02202 	lsl	r2, r2, #4
  101764:	e2022e1f 	and	r2, r2, #496	; 0x1f0
  101768:	e1812002 	orr	r2, r1, r2
  10176c:	e5832000 	str	r2, [r3]
  101770:	e3a03000 	mov	r3, #0
  101774:	e1a00003 	mov	r0, r3
  101778:	e24bd000 	sub	sp, fp, #0
  10177c:	e49db004 	pop	{fp}		; (ldr fp, [sp], #4)
  101780:	e12fff1e 	bx	lr

00101784 <alt_acp_id_map_dynamic_write_options_set>:
  101784:	e52db004 	push	{fp}		; (str fp, [sp, #-4]!)
  101788:	e28db000 	add	fp, sp, #0
  10178c:	e24dd00c 	sub	sp, sp, #12
  101790:	e1a03000 	mov	r3, r0
  101794:	e50b100c 	str	r1, [fp, #-12]
  101798:	e54b3005 	strb	r3, [fp, #-5]
  10179c:	e307302c 	movw	r3, #28716	; 0x702c
  1017a0:	e34f3f70 	movt	r3, #65392	; 0xff70
  1017a4:	e55b2005 	ldrb	r2, [fp, #-5]
  1017a8:	e1a02602 	lsl	r2, r2, #12
  1017ac:	e2021a03 	and	r1, r2, #12288	; 0x3000
  1017b0:	e51b200c 	ldr	r2, [fp, #-12]
  1017b4:	e1a02202 	lsl	r2, r2, #4
  1017b8:	e2022e1f 	and	r2, r2, #496	; 0x1f0
  1017bc:	e1812002 	orr	r2, r1, r2
  1017c0:	e5832000 	str	r2, [r3]
  1017c4:	e3a03000 	mov	r3, #0
  1017c8:	e1a00003 	mov	r0, r3
  1017cc:	e24bd000 	sub	sp, fp, #0
  1017d0:	e49db004 	pop	{fp}		; (ldr fp, [sp], #4)
  1017d4:	e12fff1e 	bx	lr

001017d8 <alt_acp_id_map_read_options_get>:
  1017d8:	e52db004 	push	{fp}		; (str fp, [sp, #-4]!)
  1017dc:	e28db000 	add	fp, sp, #0
  1017e0:	e24dd014 	sub	sp, sp, #20
  1017e4:	e50b0008 	str	r0, [fp, #-8]
  1017e8:	e50b100c 	str	r1, [fp, #-12]
  1017ec:	e50b2010 	str	r2, [fp, #-16]
  1017f0:	e50b3014 	str	r3, [fp, #-20]	; 0xffffffec
  1017f4:	e51b3008 	ldr	r3, [fp, #-8]
  1017f8:	e3530007 	cmp	r3, #7
  1017fc:	9a000001 	bls	101808 <alt_acp_id_map_read_options_get+0x30>
  101800:	e3e03008 	mvn	r3, #8
  101804:	ea0000c7 	b	101b28 <alt_acp_id_map_read_options_get+0x350>
  101808:	e51b3008 	ldr	r3, [fp, #-8]
  10180c:	e2433002 	sub	r3, r3, #2
  101810:	e3530005 	cmp	r3, #5
  101814:	979ff103 	ldrls	pc, [pc, r3, lsl #2]
  101818:	ea0000bf 	b	101b1c <alt_acp_id_map_read_options_get+0x344>
  10181c:	00101834 	.word	0x00101834
  101820:	001018bc 	.word	0x001018bc
  101824:	00101944 	.word	0x00101944
  101828:	001019cc 	.word	0x001019cc
  10182c:	00101a54 	.word	0x00101a54
  101830:	00101adc 	.word	0x00101adc
  101834:	e3073030 	movw	r3, #28720	; 0x7030
  101838:	e34f3f70 	movt	r3, #65392	; 0xff70
  10183c:	e5933000 	ldr	r3, [r3]
  101840:	e1a03223 	lsr	r3, r3, #4
  101844:	e203201f 	and	r2, r3, #31
  101848:	e59b3004 	ldr	r3, [fp, #4]
  10184c:	e5832000 	str	r2, [r3]
  101850:	e3073030 	movw	r3, #28720	; 0x7030
  101854:	e34f3f70 	movt	r3, #65392	; 0xff70
  101858:	e5933000 	ldr	r3, [r3]
  10185c:	e1a03623 	lsr	r3, r3, #12
  101860:	e2033003 	and	r3, r3, #3
  101864:	e6ef2073 	uxtb	r2, r3
  101868:	e51b3014 	ldr	r3, [fp, #-20]	; 0xffffffec
  10186c:	e5c32000 	strb	r2, [r3]
  101870:	e3073030 	movw	r3, #28720	; 0x7030
  101874:	e34f3f70 	movt	r3, #65392	; 0xff70
  101878:	e5933000 	ldr	r3, [r3]
  10187c:	e1a03823 	lsr	r3, r3, #16
  101880:	e7eb2053 	ubfx	r2, r3, #0, #12
  101884:	e51b3010 	ldr	r3, [fp, #-16]
  101888:	e5832000 	str	r2, [r3]
  10188c:	e3073030 	movw	r3, #28720	; 0x7030
  101890:	e34f3f70 	movt	r3, #65392	; 0xff70
  101894:	e5933000 	ldr	r3, [r3]
  101898:	e1a03fa3 	lsr	r3, r3, #31
  10189c:	e2033001 	and	r3, r3, #1
  1018a0:	e3530000 	cmp	r3, #0
  1018a4:	13a03001 	movne	r3, #1
  1018a8:	03a03000 	moveq	r3, #0
  1018ac:	e6ef2073 	uxtb	r2, r3
  1018b0:	e51b300c 	ldr	r3, [fp, #-12]
  1018b4:	e5c32000 	strb	r2, [r3]
  1018b8:	ea000099 	b	101b24 <alt_acp_id_map_read_options_get+0x34c>
  1018bc:	e3073038 	movw	r3, #28728	; 0x7038
  1018c0:	e34f3f70 	movt	r3, #65392	; 0xff70
  1018c4:	e5933000 	ldr	r3, [r3]
  1018c8:	e1a03223 	lsr	r3, r3, #4
  1018cc:	e203201f 	and	r2, r3, #31
  1018d0:	e59b3004 	ldr	r3, [fp, #4]
  1018d4:	e5832000 	str	r2, [r3]
  1018d8:	e3073038 	movw	r3, #28728	; 0x7038
  1018dc:	e34f3f70 	movt	r3, #65392	; 0xff70
  1018e0:	e5933000 	ldr	r3, [r3]
  1018e4:	e1a03623 	lsr	r3, r3, #12
  1018e8:	e2033003 	and	r3, r3, #3
  1018ec:	e6ef2073 	uxtb	r2, r3
  1018f0:	e51b3014 	ldr	r3, [fp, #-20]	; 0xffffffec
  1018f4:	e5c32000 	strb	r2, [r3]
  1018f8:	e3073038 	movw	r3, #28728	; 0x7038
  1018fc:	e34f3f70 	movt	r3, #65392	; 0xff70
  101900:	e5933000 	ldr	r3, [r3]
  101904:	e1a03823 	lsr	r3, r3, #16
  101908:	e7eb2053 	ubfx	r2, r3, #0, #12
  10190c:	e51b3010 	ldr	r3, [fp, #-16]
  101910:	e5832000 	str	r2, [r3]
  101914:	e3073038 	movw	r3, #28728	; 0x7038
  101918:	e34f3f70 	movt	r3, #65392	; 0xff70
  10191c:	e5933000 	ldr	r3, [r3]
  101920:	e1a03fa3 	lsr	r3, r3, #31
  101924:	e2033001 	and	r3, r3, #1
  101928:	e3530000 	cmp	r3, #0
  10192c:	13a03001 	movne	r3, #1
  101930:	03a03000 	moveq	r3, #0
  101934:	e6ef2073 	uxtb	r2, r3
  101938:	e51b300c 	ldr	r3, [fp, #-12]
  10193c:	e5c32000 	strb	r2, [r3]
  101940:	ea000077 	b	101b24 <alt_acp_id_map_read_options_get+0x34c>
  101944:	e3073040 	movw	r3, #28736	; 0x7040
  101948:	e34f3f70 	movt	r3, #65392	; 0xff70
  10194c:	e5933000 	ldr	r3, [r3]
  101950:	e1a03223 	lsr	r3, r3, #4
  101954:	e203201f 	and	r2, r3, #31
  101958:	e59b3004 	ldr	r3, [fp, #4]
  10195c:	e5832000 	str	r2, [r3]
  101960:	e3073040 	movw	r3, #28736	; 0x7040
  101964:	e34f3f70 	movt	r3, #65392	; 0xff70
  101968:	e5933000 	ldr	r3, [r3]
  10196c:	e1a03623 	lsr	r3, r3, #12
  101970:	e2033003 	and	r3, r3, #3
  101974:	e6ef2073 	uxtb	r2, r3
  101978:	e51b3014 	ldr	r3, [fp, #-20]	; 0xffffffec
  10197c:	e5c32000 	strb	r2, [r3]
  101980:	e3073040 	movw	r3, #28736	; 0x7040
  101984:	e34f3f70 	movt	r3, #65392	; 0xff70
  101988:	e5933000 	ldr	r3, [r3]
  10198c:	e1a03823 	lsr	r3, r3, #16
  101990:	e7eb2053 	ubfx	r2, r3, #0, #12
  101994:	e51b3010 	ldr	r3, [fp, #-16]
  101998:	e5832000 	str	r2, [r3]
  10199c:	e3073040 	movw	r3, #28736	; 0x7040
  1019a0:	e34f3f70 	movt	r3, #65392	; 0xff70
  1019a4:	e5933000 	ldr	r3, [r3]
  1019a8:	e1a03fa3 	lsr	r3, r3, #31
  1019ac:	e2033001 	and	r3, r3, #1
  1019b0:	e3530000 	cmp	r3, #0
  1019b4:	13a03001 	movne	r3, #1
  1019b8:	03a03000 	moveq	r3, #0
  1019bc:	e6ef2073 	uxtb	r2, r3
  1019c0:	e51b300c 	ldr	r3, [fp, #-12]
  1019c4:	e5c32000 	strb	r2, [r3]
  1019c8:	ea000055 	b	101b24 <alt_acp_id_map_read_options_get+0x34c>
  1019cc:	e3073048 	movw	r3, #28744	; 0x7048
  1019d0:	e34f3f70 	movt	r3, #65392	; 0xff70
  1019d4:	e5933000 	ldr	r3, [r3]
  1019d8:	e1a03223 	lsr	r3, r3, #4
  1019dc:	e203201f 	and	r2, r3, #31
  1019e0:	e59b3004 	ldr	r3, [fp, #4]
  1019e4:	e5832000 	str	r2, [r3]
  1019e8:	e3073048 	movw	r3, #28744	; 0x7048
  1019ec:	e34f3f70 	movt	r3, #65392	; 0xff70
  1019f0:	e5933000 	ldr	r3, [r3]
  1019f4:	e1a03623 	lsr	r3, r3, #12
  1019f8:	e2033003 	and	r3, r3, #3
  1019fc:	e6ef2073 	uxtb	r2, r3
  101a00:	e51b3014 	ldr	r3, [fp, #-20]	; 0xffffffec
  101a04:	e5c32000 	strb	r2, [r3]
  101a08:	e3073048 	movw	r3, #28744	; 0x7048
  101a0c:	e34f3f70 	movt	r3, #65392	; 0xff70
  101a10:	e5933000 	ldr	r3, [r3]
  101a14:	e1a03823 	lsr	r3, r3, #16
  101a18:	e7eb2053 	ubfx	r2, r3, #0, #12
  101a1c:	e51b3010 	ldr	r3, [fp, #-16]
  101a20:	e5832000 	str	r2, [r3]
  101a24:	e3073048 	movw	r3, #28744	; 0x7048
  101a28:	e34f3f70 	movt	r3, #65392	; 0xff70
  101a2c:	e5933000 	ldr	r3, [r3]
  101a30:	e1a03fa3 	lsr	r3, r3, #31
  101a34:	e2033001 	and	r3, r3, #1
  101a38:	e3530000 	cmp	r3, #0
  101a3c:	13a03001 	movne	r3, #1
  101a40:	03a03000 	moveq	r3, #0
  101a44:	e6ef2073 	uxtb	r2, r3
  101a48:	e51b300c 	ldr	r3, [fp, #-12]
  101a4c:	e5c32000 	strb	r2, [r3]
  101a50:	ea000033 	b	101b24 <alt_acp_id_map_read_options_get+0x34c>
  101a54:	e3073050 	movw	r3, #28752	; 0x7050
  101a58:	e34f3f70 	movt	r3, #65392	; 0xff70
  101a5c:	e5933000 	ldr	r3, [r3]
  101a60:	e1a03223 	lsr	r3, r3, #4
  101a64:	e203201f 	and	r2, r3, #31
  101a68:	e59b3004 	ldr	r3, [fp, #4]
  101a6c:	e5832000 	str	r2, [r3]
  101a70:	e3073050 	movw	r3, #28752	; 0x7050
  101a74:	e34f3f70 	movt	r3, #65392	; 0xff70
  101a78:	e5933000 	ldr	r3, [r3]
  101a7c:	e1a03623 	lsr	r3, r3, #12
  101a80:	e2033003 	and	r3, r3, #3
  101a84:	e6ef2073 	uxtb	r2, r3
  101a88:	e51b3014 	ldr	r3, [fp, #-20]	; 0xffffffec
  101a8c:	e5c32000 	strb	r2, [r3]
  101a90:	e3073050 	movw	r3, #28752	; 0x7050
  101a94:	e34f3f70 	movt	r3, #65392	; 0xff70
  101a98:	e5933000 	ldr	r3, [r3]
  101a9c:	e1a03823 	lsr	r3, r3, #16
  101aa0:	e7eb2053 	ubfx	r2, r3, #0, #12
  101aa4:	e51b3010 	ldr	r3, [fp, #-16]
  101aa8:	e5832000 	str	r2, [r3]
  101aac:	e3073050 	movw	r3, #28752	; 0x7050
  101ab0:	e34f3f70 	movt	r3, #65392	; 0xff70
  101ab4:	e5933000 	ldr	r3, [r3]
  101ab8:	e1a03fa3 	lsr	r3, r3, #31
  101abc:	e2033001 	and	r3, r3, #1
  101ac0:	e3530000 	cmp	r3, #0
  101ac4:	13a03001 	movne	r3, #1
  101ac8:	03a03000 	moveq	r3, #0
  101acc:	e6ef2073 	uxtb	r2, r3
  101ad0:	e51b300c 	ldr	r3, [fp, #-12]
  101ad4:	e5c32000 	strb	r2, [r3]
  101ad8:	ea000011 	b	101b24 <alt_acp_id_map_read_options_get+0x34c>
  101adc:	e3073058 	movw	r3, #28760	; 0x7058
  101ae0:	e34f3f70 	movt	r3, #65392	; 0xff70
  101ae4:	e5933000 	ldr	r3, [r3]
  101ae8:	e1a03223 	lsr	r3, r3, #4
  101aec:	e203201f 	and	r2, r3, #31
  101af0:	e59b3004 	ldr	r3, [fp, #4]
  101af4:	e5832000 	str	r2, [r3]
  101af8:	e3073058 	movw	r3, #28760	; 0x7058
  101afc:	e34f3f70 	movt	r3, #65392	; 0xff70
  101b00:	e5933000 	ldr	r3, [r3]
  101b04:	e1a03623 	lsr	r3, r3, #12
  101b08:	e2033003 	and	r3, r3, #3
  101b0c:	e6ef2073 	uxtb	r2, r3
  101b10:	e51b3014 	ldr	r3, [fp, #-20]	; 0xffffffec
  101b14:	e5c32000 	strb	r2, [r3]
  101b18:	ea000001 	b	101b24 <alt_acp_id_map_read_options_get+0x34c>
  101b1c:	e3e03008 	mvn	r3, #8
  101b20:	ea000000 	b	101b28 <alt_acp_id_map_read_options_get+0x350>
  101b24:	e3a03000 	mov	r3, #0
  101b28:	e1a00003 	mov	r0, r3
  101b2c:	e24bd000 	sub	sp, fp, #0
  101b30:	e49db004 	pop	{fp}		; (ldr fp, [sp], #4)
  101b34:	e12fff1e 	bx	lr

00101b38 <alt_acp_id_map_write_options_get>:
  101b38:	e52db004 	push	{fp}		; (str fp, [sp, #-4]!)
  101b3c:	e28db000 	add	fp, sp, #0
  101b40:	e24dd014 	sub	sp, sp, #20
  101b44:	e50b0008 	str	r0, [fp, #-8]
  101b48:	e50b100c 	str	r1, [fp, #-12]
  101b4c:	e50b2010 	str	r2, [fp, #-16]
  101b50:	e50b3014 	str	r3, [fp, #-20]	; 0xffffffec
  101b54:	e51b3008 	ldr	r3, [fp, #-8]
  101b58:	e3530007 	cmp	r3, #7
  101b5c:	9a000001 	bls	101b68 <alt_acp_id_map_write_options_get+0x30>
  101b60:	e3e03008 	mvn	r3, #8
  101b64:	ea0000c7 	b	101e88 <alt_acp_id_map_write_options_get+0x350>
  101b68:	e51b3008 	ldr	r3, [fp, #-8]
  101b6c:	e2433002 	sub	r3, r3, #2
  101b70:	e3530005 	cmp	r3, #5
  101b74:	979ff103 	ldrls	pc, [pc, r3, lsl #2]
  101b78:	ea0000bf 	b	101e7c <alt_acp_id_map_write_options_get+0x344>
  101b7c:	00101b94 	.word	0x00101b94
  101b80:	00101c1c 	.word	0x00101c1c
  101b84:	00101ca4 	.word	0x00101ca4
  101b88:	00101d2c 	.word	0x00101d2c
  101b8c:	00101db4 	.word	0x00101db4
  101b90:	00101e3c 	.word	0x00101e3c
  101b94:	e3073034 	movw	r3, #28724	; 0x7034
  101b98:	e34f3f70 	movt	r3, #65392	; 0xff70
  101b9c:	e5933000 	ldr	r3, [r3]
  101ba0:	e1a03223 	lsr	r3, r3, #4
  101ba4:	e203201f 	and	r2, r3, #31
  101ba8:	e59b3004 	ldr	r3, [fp, #4]
  101bac:	e5832000 	str	r2, [r3]
  101bb0:	e3073034 	movw	r3, #28724	; 0x7034
  101bb4:	e34f3f70 	movt	r3, #65392	; 0xff70
  101bb8:	e5933000 	ldr	r3, [r3]
  101bbc:	e1a03623 	lsr	r3, r3, #12
  101bc0:	e2033003 	and	r3, r3, #3
  101bc4:	e6ef2073 	uxtb	r2, r3
  101bc8:	e51b3014 	ldr	r3, [fp, #-20]	; 0xffffffec
  101bcc:	e5c32000 	strb	r2, [r3]
  101bd0:	e3073034 	movw	r3, #28724	; 0x7034
  101bd4:	e34f3f70 	movt	r3, #65392	; 0xff70
  101bd8:	e5933000 	ldr	r3, [r3]
  101bdc:	e1a03823 	lsr	r3, r3, #16
  101be0:	e7eb2053 	ubfx	r2, r3, #0, #12
  101be4:	e51b3010 	ldr	r3, [fp, #-16]
  101be8:	e5832000 	str	r2, [r3]
  101bec:	e3073034 	movw	r3, #28724	; 0x7034
  101bf0:	e34f3f70 	movt	r3, #65392	; 0xff70
  101bf4:	e5933000 	ldr	r3, [r3]
  101bf8:	e1a03fa3 	lsr	r3, r3, #31
  101bfc:	e2033001 	and	r3, r3, #1
  101c00:	e3530000 	cmp	r3, #0
  101c04:	13a03001 	movne	r3, #1
  101c08:	03a03000 	moveq	r3, #0
  101c0c:	e6ef2073 	uxtb	r2, r3
  101c10:	e51b300c 	ldr	r3, [fp, #-12]
  101c14:	e5c32000 	strb	r2, [r3]
  101c18:	ea000099 	b	101e84 <alt_acp_id_map_write_options_get+0x34c>
  101c1c:	e307303c 	movw	r3, #28732	; 0x703c
  101c20:	e34f3f70 	movt	r3, #65392	; 0xff70
  101c24:	e5933000 	ldr	r3, [r3]
  101c28:	e1a03223 	lsr	r3, r3, #4
  101c2c:	e203201f 	and	r2, r3, #31
  101c30:	e59b3004 	ldr	r3, [fp, #4]
  101c34:	e5832000 	str	r2, [r3]
  101c38:	e307303c 	movw	r3, #28732	; 0x703c
  101c3c:	e34f3f70 	movt	r3, #65392	; 0xff70
  101c40:	e5933000 	ldr	r3, [r3]
  101c44:	e1a03623 	lsr	r3, r3, #12
  101c48:	e2033003 	and	r3, r3, #3
  101c4c:	e6ef2073 	uxtb	r2, r3
  101c50:	e51b3014 	ldr	r3, [fp, #-20]	; 0xffffffec
  101c54:	e5c32000 	strb	r2, [r3]
  101c58:	e307303c 	movw	r3, #28732	; 0x703c
  101c5c:	e34f3f70 	movt	r3, #65392	; 0xff70
  101c60:	e5933000 	ldr	r3, [r3]
  101c64:	e1a03823 	lsr	r3, r3, #16
  101c68:	e7eb2053 	ubfx	r2, r3, #0, #12
  101c6c:	e51b3010 	ldr	r3, [fp, #-16]
  101c70:	e5832000 	str	r2, [r3]
  101c74:	e307303c 	movw	r3, #28732	; 0x703c
  101c78:	e34f3f70 	movt	r3, #65392	; 0xff70
  101c7c:	e5933000 	ldr	r3, [r3]
  101c80:	e1a03fa3 	lsr	r3, r3, #31
  101c84:	e2033001 	and	r3, r3, #1
  101c88:	e3530000 	cmp	r3, #0
  101c8c:	13a03001 	movne	r3, #1
  101c90:	03a03000 	moveq	r3, #0
  101c94:	e6ef2073 	uxtb	r2, r3
  101c98:	e51b300c 	ldr	r3, [fp, #-12]
  101c9c:	e5c32000 	strb	r2, [r3]
  101ca0:	ea000077 	b	101e84 <alt_acp_id_map_write_options_get+0x34c>
  101ca4:	e3073044 	movw	r3, #28740	; 0x7044
  101ca8:	e34f3f70 	movt	r3, #65392	; 0xff70
  101cac:	e5933000 	ldr	r3, [r3]
  101cb0:	e1a03223 	lsr	r3, r3, #4
  101cb4:	e203201f 	and	r2, r3, #31
  101cb8:	e59b3004 	ldr	r3, [fp, #4]
  101cbc:	e5832000 	str	r2, [r3]
  101cc0:	e3073044 	movw	r3, #28740	; 0x7044
  101cc4:	e34f3f70 	movt	r3, #65392	; 0xff70
  101cc8:	e5933000 	ldr	r3, [r3]
  101ccc:	e1a03623 	lsr	r3, r3, #12
  101cd0:	e2033003 	and	r3, r3, #3
  101cd4:	e6ef2073 	uxtb	r2, r3
  101cd8:	e51b3014 	ldr	r3, [fp, #-20]	; 0xffffffec
  101cdc:	e5c32000 	strb	r2, [r3]
  101ce0:	e3073044 	movw	r3, #28740	; 0x7044
  101ce4:	e34f3f70 	movt	r3, #65392	; 0xff70
  101ce8:	e5933000 	ldr	r3, [r3]
  101cec:	e1a03823 	lsr	r3, r3, #16
  101cf0:	e7eb2053 	ubfx	r2, r3, #0, #12
  101cf4:	e51b3010 	ldr	r3, [fp, #-16]
  101cf8:	e5832000 	str	r2, [r3]
  101cfc:	e3073044 	movw	r3, #28740	; 0x7044
  101d00:	e34f3f70 	movt	r3, #65392	; 0xff70
  101d04:	e5933000 	ldr	r3, [r3]
  101d08:	e1a03fa3 	lsr	r3, r3, #31
  101d0c:	e2033001 	and	r3, r3, #1
  101d10:	e3530000 	cmp	r3, #0
  101d14:	13a03001 	movne	r3, #1
  101d18:	03a03000 	moveq	r3, #0
  101d1c:	e6ef2073 	uxtb	r2, r3
  101d20:	e51b300c 	ldr	r3, [fp, #-12]
  101d24:	e5c32000 	strb	r2, [r3]
  101d28:	ea000055 	b	101e84 <alt_acp_id_map_write_options_get+0x34c>
  101d2c:	e307304c 	movw	r3, #28748	; 0x704c
  101d30:	e34f3f70 	movt	r3, #65392	; 0xff70
  101d34:	e5933000 	ldr	r3, [r3]
  101d38:	e1a03223 	lsr	r3, r3, #4
  101d3c:	e203201f 	and	r2, r3, #31
  101d40:	e59b3004 	ldr	r3, [fp, #4]
  101d44:	e5832000 	str	r2, [r3]
  101d48:	e307304c 	movw	r3, #28748	; 0x704c
  101d4c:	e34f3f70 	movt	r3, #65392	; 0xff70
  101d50:	e5933000 	ldr	r3, [r3]
  101d54:	e1a03623 	lsr	r3, r3, #12
  101d58:	e2033003 	and	r3, r3, #3
  101d5c:	e6ef2073 	uxtb	r2, r3
  101d60:	e51b3014 	ldr	r3, [fp, #-20]	; 0xffffffec
  101d64:	e5c32000 	strb	r2, [r3]
  101d68:	e307304c 	movw	r3, #28748	; 0x704c
  101d6c:	e34f3f70 	movt	r3, #65392	; 0xff70
  101d70:	e5933000 	ldr	r3, [r3]
  101d74:	e1a03823 	lsr	r3, r3, #16
  101d78:	e7eb2053 	ubfx	r2, r3, #0, #12
  101d7c:	e51b3010 	ldr	r3, [fp, #-16]
  101d80:	e5832000 	str	r2, [r3]
  101d84:	e307304c 	movw	r3, #28748	; 0x704c
  101d88:	e34f3f70 	movt	r3, #65392	; 0xff70
  101d8c:	e5933000 	ldr	r3, [r3]
  101d90:	e1a03fa3 	lsr	r3, r3, #31
  101d94:	e2033001 	and	r3, r3, #1
  101d98:	e3530000 	cmp	r3, #0
  101d9c:	13a03001 	movne	r3, #1
  101da0:	03a03000 	moveq	r3, #0
  101da4:	e6ef2073 	uxtb	r2, r3
  101da8:	e51b300c 	ldr	r3, [fp, #-12]
  101dac:	e5c32000 	strb	r2, [r3]
  101db0:	ea000033 	b	101e84 <alt_acp_id_map_write_options_get+0x34c>
  101db4:	e3073054 	movw	r3, #28756	; 0x7054
  101db8:	e34f3f70 	movt	r3, #65392	; 0xff70
  101dbc:	e5933000 	ldr	r3, [r3]
  101dc0:	e1a03223 	lsr	r3, r3, #4
  101dc4:	e203201f 	and	r2, r3, #31
  101dc8:	e59b3004 	ldr	r3, [fp, #4]
  101dcc:	e5832000 	str	r2, [r3]
  101dd0:	e3073054 	movw	r3, #28756	; 0x7054
  101dd4:	e34f3f70 	movt	r3, #65392	; 0xff70
  101dd8:	e5933000 	ldr	r3, [r3]
  101ddc:	e1a03623 	lsr	r3, r3, #12
  101de0:	e2033003 	and	r3, r3, #3
  101de4:	e6ef2073 	uxtb	r2, r3
  101de8:	e51b3014 	ldr	r3, [fp, #-20]	; 0xffffffec
  101dec:	e5c32000 	strb	r2, [r3]
  101df0:	e3073054 	movw	r3, #28756	; 0x7054
  101df4:	e34f3f70 	movt	r3, #65392	; 0xff70
  101df8:	e5933000 	ldr	r3, [r3]
  101dfc:	e1a03823 	lsr	r3, r3, #16
  101e00:	e7eb2053 	ubfx	r2, r3, #0, #12
  101e04:	e51b3010 	ldr	r3, [fp, #-16]
  101e08:	e5832000 	str	r2, [r3]
  101e0c:	e3073054 	movw	r3, #28756	; 0x7054
  101e10:	e34f3f70 	movt	r3, #65392	; 0xff70
  101e14:	e5933000 	ldr	r3, [r3]
  101e18:	e1a03fa3 	lsr	r3, r3, #31
  101e1c:	e2033001 	and	r3, r3, #1
  101e20:	e3530000 	cmp	r3, #0
  101e24:	13a03001 	movne	r3, #1
  101e28:	03a03000 	moveq	r3, #0
  101e2c:	e6ef2073 	uxtb	r2, r3
  101e30:	e51b300c 	ldr	r3, [fp, #-12]
  101e34:	e5c32000 	strb	r2, [r3]
  101e38:	ea000011 	b	101e84 <alt_acp_id_map_write_options_get+0x34c>
  101e3c:	e307305c 	movw	r3, #28764	; 0x705c
  101e40:	e34f3f70 	movt	r3, #65392	; 0xff70
  101e44:	e5933000 	ldr	r3, [r3]
  101e48:	e1a03223 	lsr	r3, r3, #4
  101e4c:	e203201f 	and	r2, r3, #31
  101e50:	e59b3004 	ldr	r3, [fp, #4]
  101e54:	e5832000 	str	r2, [r3]
  101e58:	e307305c 	movw	r3, #28764	; 0x705c
  101e5c:	e34f3f70 	movt	r3, #65392	; 0xff70
  101e60:	e5933000 	ldr	r3, [r3]
  101e64:	e1a03623 	lsr	r3, r3, #12
  101e68:	e2033003 	and	r3, r3, #3
  101e6c:	e6ef2073 	uxtb	r2, r3
  101e70:	e51b3014 	ldr	r3, [fp, #-20]	; 0xffffffec
  101e74:	e5c32000 	strb	r2, [r3]
  101e78:	ea000001 	b	101e84 <alt_acp_id_map_write_options_get+0x34c>
  101e7c:	e3e03008 	mvn	r3, #8
  101e80:	ea000000 	b	101e88 <alt_acp_id_map_write_options_get+0x350>
  101e84:	e3a03000 	mov	r3, #0
  101e88:	e1a00003 	mov	r0, r3
  101e8c:	e24bd000 	sub	sp, fp, #0
  101e90:	e49db004 	pop	{fp}		; (ldr fp, [sp], #4)
  101e94:	e12fff1e 	bx	lr

00101e98 <fpga_dma_read_reg>:
  101e98:	e52db004 	push	{fp}		; (str fp, [sp, #-4]!)
  101e9c:	e28db000 	add	fp, sp, #0
  101ea0:	e24dd00c 	sub	sp, sp, #12
  101ea4:	e50b0008 	str	r0, [fp, #-8]
  101ea8:	e50b100c 	str	r1, [fp, #-12]
  101eac:	e51b300c 	ldr	r3, [fp, #-12]
  101eb0:	e1a03103 	lsl	r3, r3, #2
  101eb4:	e51b2008 	ldr	r2, [fp, #-8]
  101eb8:	e0823003 	add	r3, r2, r3
  101ebc:	e5933000 	ldr	r3, [r3]
  101ec0:	e1a00003 	mov	r0, r3
  101ec4:	e24bd000 	sub	sp, fp, #0
  101ec8:	e49db004 	pop	{fp}		; (ldr fp, [sp], #4)
  101ecc:	e12fff1e 	bx	lr

00101ed0 <fpga_dma_write_reg>:
  101ed0:	e52db004 	push	{fp}		; (str fp, [sp, #-4]!)
  101ed4:	e28db000 	add	fp, sp, #0
  101ed8:	e24dd014 	sub	sp, sp, #20
  101edc:	e50b0008 	str	r0, [fp, #-8]
  101ee0:	e50b100c 	str	r1, [fp, #-12]
  101ee4:	e50b2010 	str	r2, [fp, #-16]
  101ee8:	e51b300c 	ldr	r3, [fp, #-12]
  101eec:	e1a03103 	lsl	r3, r3, #2
  101ef0:	e51b2008 	ldr	r2, [fp, #-8]
  101ef4:	e0823003 	add	r3, r2, r3
  101ef8:	e51b2010 	ldr	r2, [fp, #-16]
  101efc:	e5832000 	str	r2, [r3]
  101f00:	e320f000 	nop	{0}
  101f04:	e24bd000 	sub	sp, fp, #0
  101f08:	e49db004 	pop	{fp}		; (ldr fp, [sp], #4)
  101f0c:	e12fff1e 	bx	lr

00101f10 <fpga_dma_read_bit>:
  101f10:	e92d4800 	push	{fp, lr}
  101f14:	e28db004 	add	fp, sp, #4
  101f18:	e24dd010 	sub	sp, sp, #16
  101f1c:	e50b0008 	str	r0, [fp, #-8]
  101f20:	e50b100c 	str	r1, [fp, #-12]
  101f24:	e50b2010 	str	r2, [fp, #-16]
  101f28:	e51b100c 	ldr	r1, [fp, #-12]
  101f2c:	e51b0008 	ldr	r0, [fp, #-8]
  101f30:	ebffffd8 	bl	101e98 <fpga_dma_read_reg>
  101f34:	e1a02000 	mov	r2, r0
  101f38:	e51b3010 	ldr	r3, [fp, #-16]
  101f3c:	e0033002 	and	r3, r3, r2
  101f40:	e1a00003 	mov	r0, r3
  101f44:	e24bd004 	sub	sp, fp, #4
  101f48:	e8bd8800 	pop	{fp, pc}

00101f4c <fpga_dma_write_bit>:
  101f4c:	e92d4800 	push	{fp, lr}
  101f50:	e28db004 	add	fp, sp, #4
  101f54:	e24dd018 	sub	sp, sp, #24
  101f58:	e50b0010 	str	r0, [fp, #-16]
  101f5c:	e50b1014 	str	r1, [fp, #-20]	; 0xffffffec
  101f60:	e50b2018 	str	r2, [fp, #-24]	; 0xffffffe8
  101f64:	e50b301c 	str	r3, [fp, #-28]	; 0xffffffe4
  101f68:	e51b1014 	ldr	r1, [fp, #-20]	; 0xffffffec
  101f6c:	e51b0010 	ldr	r0, [fp, #-16]
  101f70:	ebffffc8 	bl	101e98 <fpga_dma_read_reg>
  101f74:	e50b0008 	str	r0, [fp, #-8]
  101f78:	e51b301c 	ldr	r3, [fp, #-28]	; 0xffffffe4
  101f7c:	e3530000 	cmp	r3, #0
  101f80:	1a000008 	bne	101fa8 <fpga_dma_write_bit+0x5c>
  101f84:	e51b3018 	ldr	r3, [fp, #-24]	; 0xffffffe8
  101f88:	e1e02003 	mvn	r2, r3
  101f8c:	e51b3008 	ldr	r3, [fp, #-8]
  101f90:	e0033002 	and	r3, r3, r2
  101f94:	e1a02003 	mov	r2, r3
  101f98:	e51b1014 	ldr	r1, [fp, #-20]	; 0xffffffec
  101f9c:	e51b0010 	ldr	r0, [fp, #-16]
  101fa0:	ebffffca 	bl	101ed0 <fpga_dma_write_reg>
  101fa4:	ea00000a 	b	101fd4 <fpga_dma_write_bit+0x88>
  101fa8:	e51b301c 	ldr	r3, [fp, #-28]	; 0xffffffe4
  101fac:	e3530001 	cmp	r3, #1
  101fb0:	1a000007 	bne	101fd4 <fpga_dma_write_bit+0x88>
  101fb4:	e51b2008 	ldr	r2, [fp, #-8]
  101fb8:	e51b3018 	ldr	r3, [fp, #-24]	; 0xffffffe8
  101fbc:	e1823003 	orr	r3, r2, r3
  101fc0:	e1a02003 	mov	r2, r3
  101fc4:	e51b1014 	ldr	r1, [fp, #-20]	; 0xffffffec
  101fc8:	e51b0010 	ldr	r0, [fp, #-16]
  101fcc:	ebffffbf 	bl	101ed0 <fpga_dma_write_reg>
  101fd0:	e320f000 	nop	{0}
  101fd4:	e320f000 	nop	{0}
  101fd8:	e24bd004 	sub	sp, fp, #4
  101fdc:	e8bd8800 	pop	{fp, pc}

00101fe0 <fpga_dma_init>:
  101fe0:	e92d4800 	push	{fp, lr}
  101fe4:	e28db004 	add	fp, sp, #4
  101fe8:	e24dd008 	sub	sp, sp, #8
  101fec:	e50b0008 	str	r0, [fp, #-8]
  101ff0:	e50b100c 	str	r1, [fp, #-12]
  101ff4:	e51b200c 	ldr	r2, [fp, #-12]
  101ff8:	e3a01006 	mov	r1, #6
  101ffc:	e51b0008 	ldr	r0, [fp, #-8]
  102000:	ebffffb2 	bl	101ed0 <fpga_dma_write_reg>
  102004:	e320f000 	nop	{0}
  102008:	e24bd004 	sub	sp, fp, #4
  10200c:	e8bd8800 	pop	{fp, pc}

00102010 <fpga_dma_config_transfer>:
  102010:	e92d4800 	push	{fp, lr}
  102014:	e28db004 	add	fp, sp, #4
  102018:	e24dd018 	sub	sp, sp, #24
  10201c:	e50b0010 	str	r0, [fp, #-16]
  102020:	e50b1014 	str	r1, [fp, #-20]	; 0xffffffec
  102024:	e50b2018 	str	r2, [fp, #-24]	; 0xffffffe8
  102028:	e50b301c 	str	r3, [fp, #-28]	; 0xffffffe4
  10202c:	e3a03000 	mov	r3, #0
  102030:	e3a02008 	mov	r2, #8
  102034:	e3a01006 	mov	r1, #6
  102038:	e51b0010 	ldr	r0, [fp, #-16]
  10203c:	ebffffc2 	bl	101f4c <fpga_dma_write_bit>
  102040:	e3a03000 	mov	r3, #0
  102044:	e3a02001 	mov	r2, #1
  102048:	e3a01000 	mov	r1, #0
  10204c:	e51b0010 	ldr	r0, [fp, #-16]
  102050:	ebffffbd 	bl	101f4c <fpga_dma_write_bit>
  102054:	e51b3014 	ldr	r3, [fp, #-20]	; 0xffffffec
  102058:	e1a02003 	mov	r2, r3
  10205c:	e3a01001 	mov	r1, #1
  102060:	e51b0010 	ldr	r0, [fp, #-16]
  102064:	ebffff99 	bl	101ed0 <fpga_dma_write_reg>
  102068:	e51b3018 	ldr	r3, [fp, #-24]	; 0xffffffe8
  10206c:	e1a02003 	mov	r2, r3
  102070:	e3a01002 	mov	r1, #2
  102074:	e51b0010 	ldr	r0, [fp, #-16]
  102078:	ebffff94 	bl	101ed0 <fpga_dma_write_reg>
  10207c:	e51b201c 	ldr	r2, [fp, #-28]	; 0xffffffe4
  102080:	e3a01003 	mov	r1, #3
  102084:	e51b0010 	ldr	r0, [fp, #-16]
  102088:	ebffff90 	bl	101ed0 <fpga_dma_write_reg>
  10208c:	e3a03000 	mov	r3, #0
  102090:	e50b3008 	str	r3, [fp, #-8]
  102094:	e3a03000 	mov	r3, #0
  102098:	e50b300c 	str	r3, [fp, #-12]
  10209c:	ea000005 	b	1020b8 <fpga_dma_config_transfer+0xa8>
  1020a0:	e51b3008 	ldr	r3, [fp, #-8]
  1020a4:	e2833001 	add	r3, r3, #1
  1020a8:	e50b3008 	str	r3, [fp, #-8]
  1020ac:	e51b300c 	ldr	r3, [fp, #-12]
  1020b0:	e2833001 	add	r3, r3, #1
  1020b4:	e50b300c 	str	r3, [fp, #-12]
  1020b8:	e51b300c 	ldr	r3, [fp, #-12]
  1020bc:	e3530009 	cmp	r3, #9
  1020c0:	dafffff6 	ble	1020a0 <fpga_dma_config_transfer+0x90>
  1020c4:	e320f000 	nop	{0}
  1020c8:	e24bd004 	sub	sp, fp, #4
  1020cc:	e8bd8800 	pop	{fp, pc}

001020d0 <fpga_dma_start_transfer>:
  1020d0:	e92d4800 	push	{fp, lr}
  1020d4:	e28db004 	add	fp, sp, #4
  1020d8:	e24dd008 	sub	sp, sp, #8
  1020dc:	e50b0008 	str	r0, [fp, #-8]
  1020e0:	e3a03001 	mov	r3, #1
  1020e4:	e3a02008 	mov	r2, #8
  1020e8:	e3a01006 	mov	r1, #6
  1020ec:	e51b0008 	ldr	r0, [fp, #-8]
  1020f0:	ebffff95 	bl	101f4c <fpga_dma_write_bit>
  1020f4:	e320f000 	nop	{0}
  1020f8:	e24bd004 	sub	sp, fp, #4
  1020fc:	e8bd8800 	pop	{fp, pc}

00102100 <fpga_dma_transfer_done>:
  102100:	e92d4800 	push	{fp, lr}
  102104:	e28db004 	add	fp, sp, #4
  102108:	e24dd008 	sub	sp, sp, #8
  10210c:	e50b0008 	str	r0, [fp, #-8]
  102110:	e3a02001 	mov	r2, #1
  102114:	e3a01000 	mov	r1, #0
  102118:	e51b0008 	ldr	r0, [fp, #-8]
  10211c:	ebffff7b 	bl	101f10 <fpga_dma_read_bit>
  102120:	e1a03000 	mov	r3, r0
  102124:	e1a00003 	mov	r0, r3
  102128:	e24bd004 	sub	sp, fp, #4
  10212c:	e8bd8800 	pop	{fp, pc}

00102130 <align_malloc>:
  102130:	e92d4800 	push	{fp, lr}
  102134:	e28db004 	add	fp, sp, #4
  102138:	e24dd018 	sub	sp, sp, #24
  10213c:	e50b0018 	str	r0, [fp, #-24]	; 0xffffffe8
  102140:	e50b101c 	str	r1, [fp, #-28]	; 0xffffffe4
  102144:	e51b3018 	ldr	r3, [fp, #-24]	; 0xffffffe8
  102148:	e1a03083 	lsl	r3, r3, #1
  10214c:	e1a00003 	mov	r0, r3
  102150:	eb001777 	bl	107f34 <malloc>
  102154:	e1a03000 	mov	r3, r0
  102158:	e50b3010 	str	r3, [fp, #-16]
  10215c:	e51b301c 	ldr	r3, [fp, #-28]	; 0xffffffe4
  102160:	e51b2010 	ldr	r2, [fp, #-16]
  102164:	e5832000 	str	r2, [r3]
  102168:	e51b3010 	ldr	r3, [fp, #-16]
  10216c:	e50b3008 	str	r3, [fp, #-8]
  102170:	e3a03000 	mov	r3, #0
  102174:	e50b300c 	str	r3, [fp, #-12]
  102178:	ea00000e 	b	1021b8 <align_malloc+0x88>
  10217c:	e51b3008 	ldr	r3, [fp, #-8]
  102180:	e51b1018 	ldr	r1, [fp, #-24]	; 0xffffffe8
  102184:	e1a00003 	mov	r0, r3
  102188:	eb001717 	bl	107dec <__aeabi_uidivmod>
  10218c:	e1a03001 	mov	r3, r1
  102190:	e3530000 	cmp	r3, #0
  102194:	1a000001 	bne	1021a0 <align_malloc+0x70>
  102198:	e51b3008 	ldr	r3, [fp, #-8]
  10219c:	ea00000a 	b	1021cc <align_malloc+0x9c>
  1021a0:	e51b3008 	ldr	r3, [fp, #-8]
  1021a4:	e2833001 	add	r3, r3, #1
  1021a8:	e50b3008 	str	r3, [fp, #-8]
  1021ac:	e51b300c 	ldr	r3, [fp, #-12]
  1021b0:	e2833001 	add	r3, r3, #1
  1021b4:	e50b300c 	str	r3, [fp, #-12]
  1021b8:	e51b200c 	ldr	r2, [fp, #-12]
  1021bc:	e51b3018 	ldr	r3, [fp, #-24]	; 0xffffffe8
  1021c0:	e1520003 	cmp	r2, r3
  1021c4:	3affffec 	bcc	10217c <align_malloc+0x4c>
  1021c8:	e3a03000 	mov	r3, #0
  1021cc:	e1a00003 	mov	r0, r3
  1021d0:	e24bd004 	sub	sp, fp, #4
  1021d4:	e8bd8800 	pop	{fp, pc}

001021d8 <pmu_init>:
  1021d8:	e52db004 	push	{fp}		; (str fp, [sp, #-4]!)
  1021dc:	e28db000 	add	fp, sp, #0
  1021e0:	ee190f1c 	mrc	15, 0, r0, cr9, cr12, {0}
  1021e4:	e3800001 	orr	r0, r0, #1
  1021e8:	ee090f1c 	mcr	15, 0, r0, cr9, cr12, {0}
  1021ec:	e320f000 	nop	{0}
  1021f0:	e24bd000 	sub	sp, fp, #0
  1021f4:	e49db004 	pop	{fp}		; (ldr fp, [sp], #4)
  1021f8:	e12fff1e 	bx	lr

001021fc <pmu_init_ns>:
  1021fc:	e92d4800 	push	{fp, lr}
  102200:	e28db004 	add	fp, sp, #4
  102204:	e24dd008 	sub	sp, sp, #8
  102208:	e50b0008 	str	r0, [fp, #-8]
  10220c:	e50b100c 	str	r1, [fp, #-12]
  102210:	ebfffff0 	bl	1021d8 <pmu_init>
  102214:	ee190f1c 	mrc	15, 0, r0, cr9, cr12, {0}
  102218:	e51b300c 	ldr	r3, [fp, #-12]
  10221c:	e3530001 	cmp	r3, #1
  102220:	1a000001 	bne	10222c <pmu_init_ns+0x30>
  102224:	e3c00008 	bic	r0, r0, #8
  102228:	ea000003 	b	10223c <pmu_init_ns+0x40>
  10222c:	e51b300c 	ldr	r3, [fp, #-12]
  102230:	e3530040 	cmp	r3, #64	; 0x40
  102234:	1a000000 	bne	10223c <pmu_init_ns+0x40>
  102238:	e3800008 	orr	r0, r0, #8
  10223c:	ee090f1c 	mcr	15, 0, r0, cr9, cr12, {0}
  102240:	e51b300c 	ldr	r3, [fp, #-12]
  102244:	ee073a90 	vmov	s15, r3
  102248:	eef87ae7 	vcvt.f32.s32	s15, s15
  10224c:	eef70ae7 	vcvt.f64.f32	d16, s15
  102250:	eddf1b0c 	vldr	d17, [pc, #48]	; 102288 <pmu_init_ns+0x8c>
  102254:	ee602ba1 	vmul.f64	d18, d16, d17
  102258:	e51b3008 	ldr	r3, [fp, #-8]
  10225c:	ee073a90 	vmov	s15, r3
  102260:	eef87ae7 	vcvt.f32.s32	s15, s15
  102264:	eef71ae7 	vcvt.f64.f32	d17, s15
  102268:	eec20ba1 	vdiv.f64	d16, d18, d17
  10226c:	eef77be0 	vcvt.f32.f64	s15, d16
  102270:	e30039e0 	movw	r3, #2528	; 0x9e0
  102274:	e3403013 	movt	r3, #19
  102278:	edc37a00 	vstr	s15, [r3]
  10227c:	e320f000 	nop	{0}
  102280:	e24bd004 	sub	sp, fp, #4
  102284:	e8bd8800 	pop	{fp, pc}
  102288:	00000000 	.word	0x00000000
  10228c:	408f4000 	.word	0x408f4000

00102290 <pmu_getres_ns>:
  102290:	e52db004 	push	{fp}		; (str fp, [sp, #-4]!)
  102294:	e28db000 	add	fp, sp, #0
  102298:	e30039e0 	movw	r3, #2528	; 0x9e0
  10229c:	e3403013 	movt	r3, #19
  1022a0:	e5933000 	ldr	r3, [r3]
  1022a4:	e1a00003 	mov	r0, r3
  1022a8:	e24bd000 	sub	sp, fp, #0
  1022ac:	e49db004 	pop	{fp}		; (ldr fp, [sp], #4)
  1022b0:	e12fff1e 	bx	lr

001022b4 <pmu_counter_enable>:
  1022b4:	e52db004 	push	{fp}		; (str fp, [sp, #-4]!)
  1022b8:	e28db000 	add	fp, sp, #0
  1022bc:	ee190f3c 	mrc	15, 0, r0, cr9, cr12, {1}
  1022c0:	e3800102 	orr	r0, r0, #-2147483648	; 0x80000000
  1022c4:	ee090f3c 	mcr	15, 0, r0, cr9, cr12, {1}
  1022c8:	e320f000 	nop	{0}
  1022cc:	e24bd000 	sub	sp, fp, #0
  1022d0:	e49db004 	pop	{fp}		; (ldr fp, [sp], #4)
  1022d4:	e12fff1e 	bx	lr

001022d8 <pmu_counter_disable>:
  1022d8:	e52db004 	push	{fp}		; (str fp, [sp, #-4]!)
  1022dc:	e28db000 	add	fp, sp, #0
  1022e0:	ee190f3c 	mrc	15, 0, r0, cr9, cr12, {1}
  1022e4:	e3e01102 	mvn	r1, #-2147483648	; 0x80000000
  1022e8:	e0000001 	and	r0, r0, r1
  1022ec:	ee090f3c 	mcr	15, 0, r0, cr9, cr12, {1}
  1022f0:	e320f000 	nop	{0}
  1022f4:	e24bd000 	sub	sp, fp, #0
  1022f8:	e49db004 	pop	{fp}		; (ldr fp, [sp], #4)
  1022fc:	e12fff1e 	bx	lr

00102300 <pmu_counter_reset>:
  102300:	e52db004 	push	{fp}		; (str fp, [sp, #-4]!)
  102304:	e28db000 	add	fp, sp, #0
  102308:	ee190f1c 	mrc	15, 0, r0, cr9, cr12, {0}
  10230c:	e3800004 	orr	r0, r0, #4
  102310:	ee090f1c 	mcr	15, 0, r0, cr9, cr12, {0}
  102314:	ee190f7c 	mrc	15, 0, r0, cr9, cr12, {3}
  102318:	e3800102 	orr	r0, r0, #-2147483648	; 0x80000000
  10231c:	ee090f7c 	mcr	15, 0, r0, cr9, cr12, {3}
  102320:	ee190f1c 	mrc	15, 0, r0, cr9, cr12, {0}
  102324:	e3800004 	orr	r0, r0, #4
  102328:	ee090f1c 	mcr	15, 0, r0, cr9, cr12, {0}
  10232c:	e320f000 	nop	{0}
  102330:	e24bd000 	sub	sp, fp, #0
  102334:	e49db004 	pop	{fp}		; (ldr fp, [sp], #4)
  102338:	e12fff1e 	bx	lr

0010233c <pmu_counter_read>:
  10233c:	e52db004 	push	{fp}		; (str fp, [sp, #-4]!)
  102340:	e28db000 	add	fp, sp, #0
  102344:	e24dd014 	sub	sp, sp, #20
  102348:	e50b0010 	str	r0, [fp, #-16]
  10234c:	e3a03000 	mov	r3, #0
  102350:	e50b3008 	str	r3, [fp, #-8]
  102354:	e3a03000 	mov	r3, #0
  102358:	e50b300c 	str	r3, [fp, #-12]
  10235c:	e51b3008 	ldr	r3, [fp, #-8]
  102360:	ee193f1d 	mrc	15, 0, r3, cr9, cr13, {0}
  102364:	e50b3008 	str	r3, [fp, #-8]
  102368:	e51b2008 	ldr	r2, [fp, #-8]
  10236c:	e51b3010 	ldr	r3, [fp, #-16]
  102370:	e5832000 	str	r2, [r3]
  102374:	ee190f7c 	mrc	15, 0, r0, cr9, cr12, {3}
  102378:	e2000102 	and	r0, r0, #-2147483648	; 0x80000000
  10237c:	e51b300c 	ldr	r3, [fp, #-12]
  102380:	e1a03000 	mov	r3, r0
  102384:	e50b300c 	str	r3, [fp, #-12]
  102388:	e51b300c 	ldr	r3, [fp, #-12]
  10238c:	e3530000 	cmp	r3, #0
  102390:	1a000001 	bne	10239c <pmu_counter_read+0x60>
  102394:	e3a03000 	mov	r3, #0
  102398:	ea000000 	b	1023a0 <pmu_counter_read+0x64>
  10239c:	e3a03001 	mov	r3, #1
  1023a0:	e1a00003 	mov	r0, r3
  1023a4:	e24bd000 	sub	sp, fp, #0
  1023a8:	e49db004 	pop	{fp}		; (ldr fp, [sp], #4)
  1023ac:	e12fff1e 	bx	lr

001023b0 <pmu_counter_read_ns>:
  1023b0:	e92d4800 	push	{fp, lr}
  1023b4:	e28db004 	add	fp, sp, #4
  1023b8:	e24dd010 	sub	sp, sp, #16
  1023bc:	e50b0010 	str	r0, [fp, #-16]
  1023c0:	e24b300c 	sub	r3, fp, #12
  1023c4:	e1a00003 	mov	r0, r3
  1023c8:	ebffffdb 	bl	10233c <pmu_counter_read>
  1023cc:	e50b0008 	str	r0, [fp, #-8]
  1023d0:	e51b300c 	ldr	r3, [fp, #-12]
  1023d4:	ee073a90 	vmov	s15, r3
  1023d8:	eeb87a67 	vcvt.f32.u32	s14, s15
  1023dc:	e30039e0 	movw	r3, #2528	; 0x9e0
  1023e0:	e3403013 	movt	r3, #19
  1023e4:	edd37a00 	vldr	s15, [r3]
  1023e8:	ee677a27 	vmul.f32	s15, s14, s15
  1023ec:	ee170a90 	vmov	r0, s15
  1023f0:	eb001686 	bl	107e10 <__aeabi_f2ulz>
  1023f4:	e1a02000 	mov	r2, r0
  1023f8:	e1a03001 	mov	r3, r1
  1023fc:	e51b1010 	ldr	r1, [fp, #-16]
  102400:	e1c120f0 	strd	r2, [r1]
  102404:	e51b3008 	ldr	r3, [fp, #-8]
  102408:	e1a00003 	mov	r0, r3
  10240c:	e24bd004 	sub	sp, fp, #4
  102410:	e8bd8800 	pop	{fp, pc}

00102414 <rt_InitInfAndNaN>:
  102414:	e92d4800 	push	{fp, lr}
  102418:	e28db004 	add	fp, sp, #4
  10241c:	e24dd008 	sub	sp, sp, #8
  102420:	e50b0008 	str	r0, [fp, #-8]
  102424:	eb000f5e 	bl	1061a4 <rtGetNaN>
  102428:	e30039f8 	movw	r3, #2552	; 0x9f8
  10242c:	e3403013 	movt	r3, #19
  102430:	e1c300f0 	strd	r0, [r3]
  102434:	eb000f8e 	bl	106274 <rtGetNaNF>
  102438:	e1a02000 	mov	r2, r0
  10243c:	e3003a08 	movw	r3, #2568	; 0xa08
  102440:	e3403013 	movt	r3, #19
  102444:	e5832000 	str	r2, [r3]
  102448:	eb000fa9 	bl	1062f4 <rtGetInf>
  10244c:	e30039e8 	movw	r3, #2536	; 0x9e8
  102450:	e3403013 	movt	r3, #19
  102454:	e1c300f0 	strd	r0, [r3]
  102458:	eb000fda 	bl	1063c8 <rtGetInfF>
  10245c:	e1a02000 	mov	r2, r0
  102460:	e3003a00 	movw	r3, #2560	; 0xa00
  102464:	e3403013 	movt	r3, #19
  102468:	e5832000 	str	r2, [r3]
  10246c:	eb000fe0 	bl	1063f4 <rtGetMinusInf>
  102470:	e30039f0 	movw	r3, #2544	; 0x9f0
  102474:	e3403013 	movt	r3, #19
  102478:	e1c300f0 	strd	r0, [r3]
  10247c:	eb001011 	bl	1064c8 <rtGetMinusInfF>
  102480:	e1a02000 	mov	r2, r0
  102484:	e3003a04 	movw	r3, #2564	; 0xa04
  102488:	e3403013 	movt	r3, #19
  10248c:	e5832000 	str	r2, [r3]
  102490:	e320f000 	nop	{0}
  102494:	e24bd004 	sub	sp, fp, #4
  102498:	e8bd8800 	pop	{fp, pc}

0010249c <rtIsInf>:
  10249c:	e52db004 	push	{fp}		; (str fp, [sp, #-4]!)
  1024a0:	e28db000 	add	fp, sp, #0
  1024a4:	e24dd00c 	sub	sp, sp, #12
  1024a8:	e14b00fc 	strd	r0, [fp, #-12]
  1024ac:	e30039e8 	movw	r3, #2536	; 0x9e8
  1024b0:	e3403013 	movt	r3, #19
  1024b4:	edd30b00 	vldr	d16, [r3]
  1024b8:	ed5b1b03 	vldr	d17, [fp, #-12]
  1024bc:	eef41b60 	vcmp.f64	d17, d16
  1024c0:	eef1fa10 	vmrs	APSR_nzcv, fpscr
  1024c4:	0a000006 	beq	1024e4 <rtIsInf+0x48>
  1024c8:	e30039f0 	movw	r3, #2544	; 0x9f0
  1024cc:	e3403013 	movt	r3, #19
  1024d0:	edd30b00 	vldr	d16, [r3]
  1024d4:	ed5b1b03 	vldr	d17, [fp, #-12]
  1024d8:	eef41b60 	vcmp.f64	d17, d16
  1024dc:	eef1fa10 	vmrs	APSR_nzcv, fpscr
  1024e0:	1a000001 	bne	1024ec <rtIsInf+0x50>
  1024e4:	e3a03001 	mov	r3, #1
  1024e8:	ea000000 	b	1024f0 <rtIsInf+0x54>
  1024ec:	e3a03000 	mov	r3, #0
  1024f0:	e1a00003 	mov	r0, r3
  1024f4:	e24bd000 	sub	sp, fp, #0
  1024f8:	e49db004 	pop	{fp}		; (ldr fp, [sp], #4)
  1024fc:	e12fff1e 	bx	lr

00102500 <rtIsInfF>:
  102500:	e52db004 	push	{fp}		; (str fp, [sp, #-4]!)
  102504:	e28db000 	add	fp, sp, #0
  102508:	e24dd00c 	sub	sp, sp, #12
  10250c:	e50b0008 	str	r0, [fp, #-8]
  102510:	e3003a00 	movw	r3, #2560	; 0xa00
  102514:	e3403013 	movt	r3, #19
  102518:	edd37a00 	vldr	s15, [r3]
  10251c:	ed1b7a02 	vldr	s14, [fp, #-8]
  102520:	eeb47a67 	vcmp.f32	s14, s15
  102524:	eef1fa10 	vmrs	APSR_nzcv, fpscr
  102528:	0a000006 	beq	102548 <rtIsInfF+0x48>
  10252c:	e3003a04 	movw	r3, #2564	; 0xa04
  102530:	e3403013 	movt	r3, #19
  102534:	edd37a00 	vldr	s15, [r3]
  102538:	ed1b7a02 	vldr	s14, [fp, #-8]
  10253c:	eeb47a67 	vcmp.f32	s14, s15
  102540:	eef1fa10 	vmrs	APSR_nzcv, fpscr
  102544:	1a000001 	bne	102550 <rtIsInfF+0x50>
  102548:	e3a03001 	mov	r3, #1
  10254c:	ea000000 	b	102554 <rtIsInfF+0x54>
  102550:	e3a03000 	mov	r3, #0
  102554:	e1a00003 	mov	r0, r3
  102558:	e24bd000 	sub	sp, fp, #0
  10255c:	e49db004 	pop	{fp}		; (ldr fp, [sp], #4)
  102560:	e12fff1e 	bx	lr

00102564 <rtIsNaN>:
  102564:	e52db004 	push	{fp}		; (str fp, [sp, #-4]!)
  102568:	e28db000 	add	fp, sp, #0
  10256c:	e24dd00c 	sub	sp, sp, #12
  102570:	e14b00fc 	strd	r0, [fp, #-12]
  102574:	ed5b1b03 	vldr	d17, [fp, #-12]
  102578:	ed5b0b03 	vldr	d16, [fp, #-12]
  10257c:	eef41b60 	vcmp.f64	d17, d16
  102580:	eef1fa10 	vmrs	APSR_nzcv, fpscr
  102584:	0a000001 	beq	102590 <rtIsNaN+0x2c>
  102588:	e3a03001 	mov	r3, #1
  10258c:	ea000000 	b	102594 <rtIsNaN+0x30>
  102590:	e3a03000 	mov	r3, #0
  102594:	e1a00003 	mov	r0, r3
  102598:	e24bd000 	sub	sp, fp, #0
  10259c:	e49db004 	pop	{fp}		; (ldr fp, [sp], #4)
  1025a0:	e12fff1e 	bx	lr

001025a4 <rtIsNaNF>:
  1025a4:	e52db004 	push	{fp}		; (str fp, [sp, #-4]!)
  1025a8:	e28db000 	add	fp, sp, #0
  1025ac:	e24dd00c 	sub	sp, sp, #12
  1025b0:	e50b0008 	str	r0, [fp, #-8]
  1025b4:	ed1b7a02 	vldr	s14, [fp, #-8]
  1025b8:	ed5b7a02 	vldr	s15, [fp, #-8]
  1025bc:	eeb47a67 	vcmp.f32	s14, s15
  1025c0:	eef1fa10 	vmrs	APSR_nzcv, fpscr
  1025c4:	0a000001 	beq	1025d0 <rtIsNaNF+0x2c>
  1025c8:	e3a03001 	mov	r3, #1
  1025cc:	ea000000 	b	1025d4 <rtIsNaNF+0x30>
  1025d0:	e3a03000 	mov	r3, #0
  1025d4:	e1a00003 	mov	r0, r3
  1025d8:	e24bd000 	sub	sp, fp, #0
  1025dc:	e49db004 	pop	{fp}		; (ldr fp, [sp], #4)
  1025e0:	e12fff1e 	bx	lr

001025e4 <Cholesky>:
  1025e4:	e92d4810 	push	{r4, fp, lr}
  1025e8:	e28db008 	add	fp, sp, #8
  1025ec:	e24ddf8b 	sub	sp, sp, #556	; 0x22c
  1025f0:	e50b0230 	str	r0, [fp, #-560]	; 0xfffffdd0
  1025f4:	e3a03000 	mov	r3, #0
  1025f8:	e50b3010 	str	r3, [fp, #-16]
  1025fc:	ea0000f5 	b	1029d8 <Cholesky+0x3f4>
  102600:	e51b3010 	ldr	r3, [fp, #-16]
  102604:	e1a02283 	lsl	r2, r3, #5
  102608:	e51b3010 	ldr	r3, [fp, #-16]
  10260c:	e0823003 	add	r3, r2, r3
  102610:	e1a03183 	lsl	r3, r3, #3
  102614:	e51b2230 	ldr	r2, [fp, #-560]	; 0xfffffdd0
  102618:	e0824003 	add	r4, r2, r3
  10261c:	e51b3010 	ldr	r3, [fp, #-16]
  102620:	e1a02283 	lsl	r2, r3, #5
  102624:	e51b3010 	ldr	r3, [fp, #-16]
  102628:	e0823003 	add	r3, r2, r3
  10262c:	e1a03183 	lsl	r3, r3, #3
  102630:	e51b2230 	ldr	r2, [fp, #-560]	; 0xfffffdd0
  102634:	e0823003 	add	r3, r2, r3
  102638:	e1c320d0 	ldrd	r2, [r3]
  10263c:	e1a00002 	mov	r0, r2
  102640:	e1a01003 	mov	r1, r3
  102644:	eb001357 	bl	1073a8 <sqrt>
  102648:	e1a02000 	mov	r2, r0
  10264c:	e1a03001 	mov	r3, r1
  102650:	e1c420f0 	strd	r2, [r4]
  102654:	e51b3010 	ldr	r3, [fp, #-16]
  102658:	e2833002 	add	r3, r3, #2
  10265c:	e3530020 	cmp	r3, #32
  102660:	da000004 	ble	102678 <Cholesky+0x94>
  102664:	e3a03001 	mov	r3, #1
  102668:	e50b3014 	str	r3, [fp, #-20]	; 0xffffffec
  10266c:	e3a03001 	mov	r3, #1
  102670:	e50b3018 	str	r3, [fp, #-24]	; 0xffffffe8
  102674:	ea000004 	b	10268c <Cholesky+0xa8>
  102678:	e51b3010 	ldr	r3, [fp, #-16]
  10267c:	e2833002 	add	r3, r3, #2
  102680:	e50b3014 	str	r3, [fp, #-20]	; 0xffffffec
  102684:	e3a03021 	mov	r3, #33	; 0x21
  102688:	e50b3018 	str	r3, [fp, #-24]	; 0xffffffe8
  10268c:	e51b3010 	ldr	r3, [fp, #-16]
  102690:	e2833002 	add	r3, r3, #2
  102694:	e3530020 	cmp	r3, #32
  102698:	da000002 	ble	1026a8 <Cholesky+0xc4>
  10269c:	e3a03001 	mov	r3, #1
  1026a0:	e50b301c 	str	r3, [fp, #-28]	; 0xffffffe4
  1026a4:	ea000002 	b	1026b4 <Cholesky+0xd0>
  1026a8:	e51b3010 	ldr	r3, [fp, #-16]
  1026ac:	e2833002 	add	r3, r3, #2
  1026b0:	e50b301c 	str	r3, [fp, #-28]	; 0xffffffe4
  1026b4:	e51b3010 	ldr	r3, [fp, #-16]
  1026b8:	e1a02283 	lsl	r2, r3, #5
  1026bc:	e51b3010 	ldr	r3, [fp, #-16]
  1026c0:	e0823003 	add	r3, r2, r3
  1026c4:	e1a03183 	lsl	r3, r3, #3
  1026c8:	e51b2230 	ldr	r2, [fp, #-560]	; 0xfffffdd0
  1026cc:	e0823003 	add	r3, r2, r3
  1026d0:	e1c320d0 	ldrd	r2, [r3]
  1026d4:	e14b22fc 	strd	r2, [fp, #-44]	; 0xffffffd4
  1026d8:	e51b2018 	ldr	r2, [fp, #-24]	; 0xffffffe8
  1026dc:	e51b3014 	ldr	r3, [fp, #-20]	; 0xffffffec
  1026e0:	e0423003 	sub	r3, r2, r3
  1026e4:	e50b3030 	str	r3, [fp, #-48]	; 0xffffffd0
  1026e8:	e3a03000 	mov	r3, #0
  1026ec:	e50b3020 	str	r3, [fp, #-32]	; 0xffffffe0
  1026f0:	ea000015 	b	10274c <Cholesky+0x168>
  1026f4:	e51b2014 	ldr	r2, [fp, #-20]	; 0xffffffec
  1026f8:	e51b3020 	ldr	r3, [fp, #-32]	; 0xffffffe0
  1026fc:	e0822003 	add	r2, r2, r3
  102700:	e51b3010 	ldr	r3, [fp, #-16]
  102704:	e1a03283 	lsl	r3, r3, #5
  102708:	e0823003 	add	r3, r2, r3
  10270c:	e243321e 	sub	r3, r3, #-536870911	; 0xe0000001
  102710:	e1a03183 	lsl	r3, r3, #3
  102714:	e51b2230 	ldr	r2, [fp, #-560]	; 0xfffffdd0
  102718:	e0823003 	add	r3, r2, r3
  10271c:	edd32b00 	vldr	d18, [r3]
  102720:	ed5b1b0b 	vldr	d17, [fp, #-44]	; 0xffffffd4
  102724:	eec20ba1 	vdiv.f64	d16, d18, d17
  102728:	e51b3020 	ldr	r3, [fp, #-32]	; 0xffffffe0
  10272c:	e1a03183 	lsl	r3, r3, #3
  102730:	e24b200c 	sub	r2, fp, #12
  102734:	e0823003 	add	r3, r2, r3
  102738:	e2433f4a 	sub	r3, r3, #296	; 0x128
  10273c:	edc30b00 	vstr	d16, [r3]
  102740:	e51b3020 	ldr	r3, [fp, #-32]	; 0xffffffe0
  102744:	e2833001 	add	r3, r3, #1
  102748:	e50b3020 	str	r3, [fp, #-32]	; 0xffffffe0
  10274c:	e51b2020 	ldr	r2, [fp, #-32]	; 0xffffffe0
  102750:	e51b3030 	ldr	r3, [fp, #-48]	; 0xffffffd0
  102754:	e1520003 	cmp	r2, r3
  102758:	baffffe5 	blt	1026f4 <Cholesky+0x110>
  10275c:	e51b2018 	ldr	r2, [fp, #-24]	; 0xffffffe8
  102760:	e51b3014 	ldr	r3, [fp, #-20]	; 0xffffffec
  102764:	e0423003 	sub	r3, r2, r3
  102768:	e50b3030 	str	r3, [fp, #-48]	; 0xffffffd0
  10276c:	e3a03000 	mov	r3, #0
  102770:	e50b3014 	str	r3, [fp, #-20]	; 0xffffffec
  102774:	ea000013 	b	1027c8 <Cholesky+0x1e4>
  102778:	e51b201c 	ldr	r2, [fp, #-28]	; 0xffffffe4
  10277c:	e51b3014 	ldr	r3, [fp, #-20]	; 0xffffffec
  102780:	e0822003 	add	r2, r2, r3
  102784:	e51b3010 	ldr	r3, [fp, #-16]
  102788:	e1a03283 	lsl	r3, r3, #5
  10278c:	e0823003 	add	r3, r2, r3
  102790:	e243321e 	sub	r3, r3, #-536870911	; 0xe0000001
  102794:	e1a03183 	lsl	r3, r3, #3
  102798:	e51b2230 	ldr	r2, [fp, #-560]	; 0xfffffdd0
  10279c:	e0821003 	add	r1, r2, r3
  1027a0:	e51b3014 	ldr	r3, [fp, #-20]	; 0xffffffec
  1027a4:	e1a03183 	lsl	r3, r3, #3
  1027a8:	e24b200c 	sub	r2, fp, #12
  1027ac:	e0823003 	add	r3, r2, r3
  1027b0:	e2433f4a 	sub	r3, r3, #296	; 0x128
  1027b4:	e1c320d0 	ldrd	r2, [r3]
  1027b8:	e1c120f0 	strd	r2, [r1]
  1027bc:	e51b3014 	ldr	r3, [fp, #-20]	; 0xffffffec
  1027c0:	e2833001 	add	r3, r3, #1
  1027c4:	e50b3014 	str	r3, [fp, #-20]	; 0xffffffec
  1027c8:	e51b2014 	ldr	r2, [fp, #-20]	; 0xffffffec
  1027cc:	e51b3030 	ldr	r3, [fp, #-48]	; 0xffffffd0
  1027d0:	e1520003 	cmp	r2, r3
  1027d4:	baffffe7 	blt	102778 <Cholesky+0x194>
  1027d8:	e3a03000 	mov	r3, #0
  1027dc:	e50b3024 	str	r3, [fp, #-36]	; 0xffffffdc
  1027e0:	ea000074 	b	1029b8 <Cholesky+0x3d4>
  1027e4:	e51b2010 	ldr	r2, [fp, #-16]
  1027e8:	e51b3024 	ldr	r3, [fp, #-36]	; 0xffffffdc
  1027ec:	e0823003 	add	r3, r2, r3
  1027f0:	e2833002 	add	r3, r3, #2
  1027f4:	e50b3034 	str	r3, [fp, #-52]	; 0xffffffcc
  1027f8:	e51b3034 	ldr	r3, [fp, #-52]	; 0xffffffcc
  1027fc:	e3530020 	cmp	r3, #32
  102800:	da000004 	ble	102818 <Cholesky+0x234>
  102804:	e3a03000 	mov	r3, #0
  102808:	e50b3014 	str	r3, [fp, #-20]	; 0xffffffec
  10280c:	e3e03000 	mvn	r3, #0
  102810:	e50b3018 	str	r3, [fp, #-24]	; 0xffffffe8
  102814:	ea000004 	b	10282c <Cholesky+0x248>
  102818:	e51b3034 	ldr	r3, [fp, #-52]	; 0xffffffcc
  10281c:	e2433001 	sub	r3, r3, #1
  102820:	e50b3014 	str	r3, [fp, #-20]	; 0xffffffec
  102824:	e3a0301f 	mov	r3, #31
  102828:	e50b3018 	str	r3, [fp, #-24]	; 0xffffffe8
  10282c:	e51b3034 	ldr	r3, [fp, #-52]	; 0xffffffcc
  102830:	e3530020 	cmp	r3, #32
  102834:	da000002 	ble	102844 <Cholesky+0x260>
  102838:	e3a03000 	mov	r3, #0
  10283c:	e50b301c 	str	r3, [fp, #-28]	; 0xffffffe4
  102840:	ea000002 	b	102850 <Cholesky+0x26c>
  102844:	e51b3034 	ldr	r3, [fp, #-52]	; 0xffffffcc
  102848:	e2433001 	sub	r3, r3, #1
  10284c:	e50b301c 	str	r3, [fp, #-28]	; 0xffffffe4
  102850:	e51b3010 	ldr	r3, [fp, #-16]
  102854:	e1a02283 	lsl	r2, r3, #5
  102858:	e51b3034 	ldr	r3, [fp, #-52]	; 0xffffffcc
  10285c:	e0823003 	add	r3, r2, r3
  102860:	e243321e 	sub	r3, r3, #-536870911	; 0xe0000001
  102864:	e1a03183 	lsl	r3, r3, #3
  102868:	e51b2230 	ldr	r2, [fp, #-560]	; 0xfffffdd0
  10286c:	e0823003 	add	r3, r2, r3
  102870:	e1c320d0 	ldrd	r2, [r3]
  102874:	e14b22fc 	strd	r2, [fp, #-44]	; 0xffffffd4
  102878:	e51b2018 	ldr	r2, [fp, #-24]	; 0xffffffe8
  10287c:	e51b3014 	ldr	r3, [fp, #-20]	; 0xffffffec
  102880:	e0423003 	sub	r3, r2, r3
  102884:	e50b3030 	str	r3, [fp, #-48]	; 0xffffffd0
  102888:	e3a03000 	mov	r3, #0
  10288c:	e50b3020 	str	r3, [fp, #-32]	; 0xffffffe0
  102890:	ea000020 	b	102918 <Cholesky+0x334>
  102894:	e51b2014 	ldr	r2, [fp, #-20]	; 0xffffffec
  102898:	e51b3020 	ldr	r3, [fp, #-32]	; 0xffffffe0
  10289c:	e0822003 	add	r2, r2, r3
  1028a0:	e51b3034 	ldr	r3, [fp, #-52]	; 0xffffffcc
  1028a4:	e2433001 	sub	r3, r3, #1
  1028a8:	e1a03283 	lsl	r3, r3, #5
  1028ac:	e0823003 	add	r3, r2, r3
  1028b0:	e1a03183 	lsl	r3, r3, #3
  1028b4:	e51b2230 	ldr	r2, [fp, #-560]	; 0xfffffdd0
  1028b8:	e0823003 	add	r3, r2, r3
  1028bc:	edd31b00 	vldr	d17, [r3]
  1028c0:	e51b201c 	ldr	r2, [fp, #-28]	; 0xffffffe4
  1028c4:	e51b3020 	ldr	r3, [fp, #-32]	; 0xffffffe0
  1028c8:	e0822003 	add	r2, r2, r3
  1028cc:	e51b3010 	ldr	r3, [fp, #-16]
  1028d0:	e1a03283 	lsl	r3, r3, #5
  1028d4:	e0823003 	add	r3, r2, r3
  1028d8:	e1a03183 	lsl	r3, r3, #3
  1028dc:	e51b2230 	ldr	r2, [fp, #-560]	; 0xfffffdd0
  1028e0:	e0823003 	add	r3, r2, r3
  1028e4:	edd32b00 	vldr	d18, [r3]
  1028e8:	ed5b0b0b 	vldr	d16, [fp, #-44]	; 0xffffffd4
  1028ec:	ee620ba0 	vmul.f64	d16, d18, d16
  1028f0:	ee710be0 	vsub.f64	d16, d17, d16
  1028f4:	e51b3020 	ldr	r3, [fp, #-32]	; 0xffffffe0
  1028f8:	e1a03183 	lsl	r3, r3, #3
  1028fc:	e24b200c 	sub	r2, fp, #12
  102900:	e0823003 	add	r3, r2, r3
  102904:	e2433e22 	sub	r3, r3, #544	; 0x220
  102908:	edc30b00 	vstr	d16, [r3]
  10290c:	e51b3020 	ldr	r3, [fp, #-32]	; 0xffffffe0
  102910:	e2833001 	add	r3, r3, #1
  102914:	e50b3020 	str	r3, [fp, #-32]	; 0xffffffe0
  102918:	e51b2020 	ldr	r2, [fp, #-32]	; 0xffffffe0
  10291c:	e51b3030 	ldr	r3, [fp, #-48]	; 0xffffffd0
  102920:	e1520003 	cmp	r2, r3
  102924:	daffffda 	ble	102894 <Cholesky+0x2b0>
  102928:	e51b2018 	ldr	r2, [fp, #-24]	; 0xffffffe8
  10292c:	e51b3014 	ldr	r3, [fp, #-20]	; 0xffffffec
  102930:	e0423003 	sub	r3, r2, r3
  102934:	e2833001 	add	r3, r3, #1
  102938:	e50b3030 	str	r3, [fp, #-48]	; 0xffffffd0
  10293c:	e3a03000 	mov	r3, #0
  102940:	e50b3014 	str	r3, [fp, #-20]	; 0xffffffec
  102944:	ea000014 	b	10299c <Cholesky+0x3b8>
  102948:	e51b2034 	ldr	r2, [fp, #-52]	; 0xffffffcc
  10294c:	e51b3014 	ldr	r3, [fp, #-20]	; 0xffffffec
  102950:	e0822003 	add	r2, r2, r3
  102954:	e51b3034 	ldr	r3, [fp, #-52]	; 0xffffffcc
  102958:	e2433001 	sub	r3, r3, #1
  10295c:	e1a03283 	lsl	r3, r3, #5
  102960:	e0823003 	add	r3, r2, r3
  102964:	e243321e 	sub	r3, r3, #-536870911	; 0xe0000001
  102968:	e1a03183 	lsl	r3, r3, #3
  10296c:	e51b2230 	ldr	r2, [fp, #-560]	; 0xfffffdd0
  102970:	e0821003 	add	r1, r2, r3
  102974:	e51b3014 	ldr	r3, [fp, #-20]	; 0xffffffec
  102978:	e1a03183 	lsl	r3, r3, #3
  10297c:	e24b200c 	sub	r2, fp, #12
  102980:	e0823003 	add	r3, r2, r3
  102984:	e2433e22 	sub	r3, r3, #544	; 0x220
  102988:	e1c320d0 	ldrd	r2, [r3]
  10298c:	e1c120f0 	strd	r2, [r1]
  102990:	e51b3014 	ldr	r3, [fp, #-20]	; 0xffffffec
  102994:	e2833001 	add	r3, r3, #1
  102998:	e50b3014 	str	r3, [fp, #-20]	; 0xffffffec
  10299c:	e51b2014 	ldr	r2, [fp, #-20]	; 0xffffffec
  1029a0:	e51b3030 	ldr	r3, [fp, #-48]	; 0xffffffd0
  1029a4:	e1520003 	cmp	r2, r3
  1029a8:	baffffe6 	blt	102948 <Cholesky+0x364>
  1029ac:	e51b3024 	ldr	r3, [fp, #-36]	; 0xffffffdc
  1029b0:	e2833001 	add	r3, r3, #1
  1029b4:	e50b3024 	str	r3, [fp, #-36]	; 0xffffffdc
  1029b8:	e51b3010 	ldr	r3, [fp, #-16]
  1029bc:	e263201e 	rsb	r2, r3, #30
  1029c0:	e51b3024 	ldr	r3, [fp, #-36]	; 0xffffffdc
  1029c4:	e1520003 	cmp	r2, r3
  1029c8:	aaffff85 	bge	1027e4 <Cholesky+0x200>
  1029cc:	e51b3010 	ldr	r3, [fp, #-16]
  1029d0:	e2833001 	add	r3, r3, #1
  1029d4:	e50b3010 	str	r3, [fp, #-16]
  1029d8:	e51b3010 	ldr	r3, [fp, #-16]
  1029dc:	e353001f 	cmp	r3, #31
  1029e0:	daffff06 	ble	102600 <Cholesky+0x1c>
  1029e4:	e320f000 	nop	{0}
  1029e8:	e24bd008 	sub	sp, fp, #8
  1029ec:	e8bd8810 	pop	{r4, fp, pc}

001029f0 <measurement_eq>:
  1029f0:	e52db004 	push	{fp}		; (str fp, [sp, #-4]!)
  1029f4:	e28db000 	add	fp, sp, #0
  1029f8:	e24dd00c 	sub	sp, sp, #12
  1029fc:	e50b0008 	str	r0, [fp, #-8]
  102a00:	e51b3008 	ldr	r3, [fp, #-8]
  102a04:	e1c320d0 	ldrd	r2, [r3]
  102a08:	e1a00002 	mov	r0, r2
  102a0c:	e1a01003 	mov	r1, r3
  102a10:	e24bd000 	sub	sp, fp, #0
  102a14:	e49db004 	pop	{fp}		; (ldr fp, [sp], #4)
  102a18:	e12fff1e 	bx	lr

00102a1c <nonlinear_state_eq>:
  102a1c:	e52db004 	push	{fp}		; (str fp, [sp, #-4]!)
  102a20:	e28db000 	add	fp, sp, #0
  102a24:	e24dd00c 	sub	sp, sp, #12
  102a28:	e50b0008 	str	r0, [fp, #-8]
  102a2c:	e50b100c 	str	r1, [fp, #-12]
  102a30:	e51b3008 	ldr	r3, [fp, #-8]
  102a34:	e1c320d8 	ldrd	r2, [r3, #8]
  102a38:	e51b100c 	ldr	r1, [fp, #-12]
  102a3c:	e1c120f0 	strd	r2, [r1]
  102a40:	e51b300c 	ldr	r3, [fp, #-12]
  102a44:	e2831008 	add	r1, r3, #8
  102a48:	e51b3008 	ldr	r3, [fp, #-8]
  102a4c:	e1c321d0 	ldrd	r2, [r3, #16]
  102a50:	e1c120f0 	strd	r2, [r1]
  102a54:	e51b300c 	ldr	r3, [fp, #-12]
  102a58:	e2833010 	add	r3, r3, #16
  102a5c:	e51b2008 	ldr	r2, [fp, #-8]
  102a60:	edd20b00 	vldr	d16, [r2]
  102a64:	eef61b00 	vmov.f64	d17, #96	; 0x3f000000  0.5
  102a68:	ee600ba1 	vmul.f64	d16, d16, d17
  102a6c:	edc30b00 	vstr	d16, [r3]
  102a70:	e51b300c 	ldr	r3, [fp, #-12]
  102a74:	e2831018 	add	r1, r3, #24
  102a78:	e51b3008 	ldr	r3, [fp, #-8]
  102a7c:	e1c322d0 	ldrd	r2, [r3, #32]
  102a80:	e1c120f0 	strd	r2, [r1]
  102a84:	e51b300c 	ldr	r3, [fp, #-12]
  102a88:	e2831020 	add	r1, r3, #32
  102a8c:	e51b3008 	ldr	r3, [fp, #-8]
  102a90:	e1c322d8 	ldrd	r2, [r3, #40]	; 0x28
  102a94:	e1c120f0 	strd	r2, [r1]
  102a98:	e51b300c 	ldr	r3, [fp, #-12]
  102a9c:	e2833028 	add	r3, r3, #40	; 0x28
  102aa0:	e51b2008 	ldr	r2, [fp, #-8]
  102aa4:	edd21b00 	vldr	d17, [r2]
  102aa8:	e51b2008 	ldr	r2, [fp, #-8]
  102aac:	e2822028 	add	r2, r2, #40	; 0x28
  102ab0:	edd20b00 	vldr	d16, [r2]
  102ab4:	ee710ba0 	vadd.f64	d16, d17, d16
  102ab8:	edc30b00 	vstr	d16, [r3]
  102abc:	e51b300c 	ldr	r3, [fp, #-12]
  102ac0:	e2831030 	add	r1, r3, #48	; 0x30
  102ac4:	e51b3008 	ldr	r3, [fp, #-8]
  102ac8:	e1c323d8 	ldrd	r2, [r3, #56]	; 0x38
  102acc:	e1c120f0 	strd	r2, [r1]
  102ad0:	e51b300c 	ldr	r3, [fp, #-12]
  102ad4:	e2831038 	add	r1, r3, #56	; 0x38
  102ad8:	e51b3008 	ldr	r3, [fp, #-8]
  102adc:	e1c324d0 	ldrd	r2, [r3, #64]	; 0x40
  102ae0:	e1c120f0 	strd	r2, [r1]
  102ae4:	e51b300c 	ldr	r3, [fp, #-12]
  102ae8:	e2833040 	add	r3, r3, #64	; 0x40
  102aec:	e51b2008 	ldr	r2, [fp, #-8]
  102af0:	e2822030 	add	r2, r2, #48	; 0x30
  102af4:	edd20b00 	vldr	d16, [r2]
  102af8:	eef61b00 	vmov.f64	d17, #96	; 0x3f000000  0.5
  102afc:	ee600ba1 	vmul.f64	d16, d16, d17
  102b00:	edc30b00 	vstr	d16, [r3]
  102b04:	e51b300c 	ldr	r3, [fp, #-12]
  102b08:	e2831048 	add	r1, r3, #72	; 0x48
  102b0c:	e51b3008 	ldr	r3, [fp, #-8]
  102b10:	e1c325d0 	ldrd	r2, [r3, #80]	; 0x50
  102b14:	e1c120f0 	strd	r2, [r1]
  102b18:	e51b300c 	ldr	r3, [fp, #-12]
  102b1c:	e2831050 	add	r1, r3, #80	; 0x50
  102b20:	e51b3008 	ldr	r3, [fp, #-8]
  102b24:	e1c325d8 	ldrd	r2, [r3, #88]	; 0x58
  102b28:	e1c120f0 	strd	r2, [r1]
  102b2c:	e51b300c 	ldr	r3, [fp, #-12]
  102b30:	e2833058 	add	r3, r3, #88	; 0x58
  102b34:	e51b2008 	ldr	r2, [fp, #-8]
  102b38:	e2822048 	add	r2, r2, #72	; 0x48
  102b3c:	edd21b00 	vldr	d17, [r2]
  102b40:	e51b2008 	ldr	r2, [fp, #-8]
  102b44:	e2822058 	add	r2, r2, #88	; 0x58
  102b48:	edd20b00 	vldr	d16, [r2]
  102b4c:	ee710ba0 	vadd.f64	d16, d17, d16
  102b50:	edc30b00 	vstr	d16, [r3]
  102b54:	e51b300c 	ldr	r3, [fp, #-12]
  102b58:	e2831060 	add	r1, r3, #96	; 0x60
  102b5c:	e51b3008 	ldr	r3, [fp, #-8]
  102b60:	e1c326d8 	ldrd	r2, [r3, #104]	; 0x68
  102b64:	e1c120f0 	strd	r2, [r1]
  102b68:	e51b300c 	ldr	r3, [fp, #-12]
  102b6c:	e2831068 	add	r1, r3, #104	; 0x68
  102b70:	e51b3008 	ldr	r3, [fp, #-8]
  102b74:	e1c327d0 	ldrd	r2, [r3, #112]	; 0x70
  102b78:	e1c120f0 	strd	r2, [r1]
  102b7c:	e51b300c 	ldr	r3, [fp, #-12]
  102b80:	e2833070 	add	r3, r3, #112	; 0x70
  102b84:	e51b2008 	ldr	r2, [fp, #-8]
  102b88:	e2822060 	add	r2, r2, #96	; 0x60
  102b8c:	edd20b00 	vldr	d16, [r2]
  102b90:	eef61b00 	vmov.f64	d17, #96	; 0x3f000000  0.5
  102b94:	ee600ba1 	vmul.f64	d16, d16, d17
  102b98:	edc30b00 	vstr	d16, [r3]
  102b9c:	e51b300c 	ldr	r3, [fp, #-12]
  102ba0:	e2831078 	add	r1, r3, #120	; 0x78
  102ba4:	e51b3008 	ldr	r3, [fp, #-8]
  102ba8:	e1c328d0 	ldrd	r2, [r3, #128]	; 0x80
  102bac:	e1c120f0 	strd	r2, [r1]
  102bb0:	e51b300c 	ldr	r3, [fp, #-12]
  102bb4:	e2831080 	add	r1, r3, #128	; 0x80
  102bb8:	e51b3008 	ldr	r3, [fp, #-8]
  102bbc:	e1c328d8 	ldrd	r2, [r3, #136]	; 0x88
  102bc0:	e1c120f0 	strd	r2, [r1]
  102bc4:	e51b300c 	ldr	r3, [fp, #-12]
  102bc8:	e2833088 	add	r3, r3, #136	; 0x88
  102bcc:	e51b2008 	ldr	r2, [fp, #-8]
  102bd0:	e2822078 	add	r2, r2, #120	; 0x78
  102bd4:	edd21b00 	vldr	d17, [r2]
  102bd8:	e51b2008 	ldr	r2, [fp, #-8]
  102bdc:	e2822088 	add	r2, r2, #136	; 0x88
  102be0:	edd20b00 	vldr	d16, [r2]
  102be4:	ee710ba0 	vadd.f64	d16, d17, d16
  102be8:	edc30b00 	vstr	d16, [r3]
  102bec:	e51b300c 	ldr	r3, [fp, #-12]
  102bf0:	e2831090 	add	r1, r3, #144	; 0x90
  102bf4:	e51b3008 	ldr	r3, [fp, #-8]
  102bf8:	e1c329d8 	ldrd	r2, [r3, #152]	; 0x98
  102bfc:	e1c120f0 	strd	r2, [r1]
  102c00:	e51b300c 	ldr	r3, [fp, #-12]
  102c04:	e2831098 	add	r1, r3, #152	; 0x98
  102c08:	e51b3008 	ldr	r3, [fp, #-8]
  102c0c:	e1c32ad0 	ldrd	r2, [r3, #160]	; 0xa0
  102c10:	e1c120f0 	strd	r2, [r1]
  102c14:	e51b300c 	ldr	r3, [fp, #-12]
  102c18:	e28330a0 	add	r3, r3, #160	; 0xa0
  102c1c:	e51b2008 	ldr	r2, [fp, #-8]
  102c20:	e2822090 	add	r2, r2, #144	; 0x90
  102c24:	edd20b00 	vldr	d16, [r2]
  102c28:	eef61b00 	vmov.f64	d17, #96	; 0x3f000000  0.5
  102c2c:	ee600ba1 	vmul.f64	d16, d16, d17
  102c30:	edc30b00 	vstr	d16, [r3]
  102c34:	e51b300c 	ldr	r3, [fp, #-12]
  102c38:	e28310a8 	add	r1, r3, #168	; 0xa8
  102c3c:	e51b3008 	ldr	r3, [fp, #-8]
  102c40:	e1c32bd0 	ldrd	r2, [r3, #176]	; 0xb0
  102c44:	e1c120f0 	strd	r2, [r1]
  102c48:	e51b300c 	ldr	r3, [fp, #-12]
  102c4c:	e28310b0 	add	r1, r3, #176	; 0xb0
  102c50:	e51b3008 	ldr	r3, [fp, #-8]
  102c54:	e1c32bd8 	ldrd	r2, [r3, #184]	; 0xb8
  102c58:	e1c120f0 	strd	r2, [r1]
  102c5c:	e51b300c 	ldr	r3, [fp, #-12]
  102c60:	e28330b8 	add	r3, r3, #184	; 0xb8
  102c64:	e51b2008 	ldr	r2, [fp, #-8]
  102c68:	e28220a8 	add	r2, r2, #168	; 0xa8
  102c6c:	edd21b00 	vldr	d17, [r2]
  102c70:	e51b2008 	ldr	r2, [fp, #-8]
  102c74:	e28220b8 	add	r2, r2, #184	; 0xb8
  102c78:	edd20b00 	vldr	d16, [r2]
  102c7c:	ee710ba0 	vadd.f64	d16, d17, d16
  102c80:	edc30b00 	vstr	d16, [r3]
  102c84:	e51b300c 	ldr	r3, [fp, #-12]
  102c88:	e28310c0 	add	r1, r3, #192	; 0xc0
  102c8c:	e51b3008 	ldr	r3, [fp, #-8]
  102c90:	e1c32cd8 	ldrd	r2, [r3, #200]	; 0xc8
  102c94:	e1c120f0 	strd	r2, [r1]
  102c98:	e51b300c 	ldr	r3, [fp, #-12]
  102c9c:	e28310c8 	add	r1, r3, #200	; 0xc8
  102ca0:	e51b3008 	ldr	r3, [fp, #-8]
  102ca4:	e1c32dd0 	ldrd	r2, [r3, #208]	; 0xd0
  102ca8:	e1c120f0 	strd	r2, [r1]
  102cac:	e51b300c 	ldr	r3, [fp, #-12]
  102cb0:	e28330d0 	add	r3, r3, #208	; 0xd0
  102cb4:	e51b2008 	ldr	r2, [fp, #-8]
  102cb8:	e28220c0 	add	r2, r2, #192	; 0xc0
  102cbc:	edd20b00 	vldr	d16, [r2]
  102cc0:	eef61b00 	vmov.f64	d17, #96	; 0x3f000000  0.5
  102cc4:	ee600ba1 	vmul.f64	d16, d16, d17
  102cc8:	edc30b00 	vstr	d16, [r3]
  102ccc:	e51b300c 	ldr	r3, [fp, #-12]
  102cd0:	e28310d8 	add	r1, r3, #216	; 0xd8
  102cd4:	e51b3008 	ldr	r3, [fp, #-8]
  102cd8:	e1c32ed0 	ldrd	r2, [r3, #224]	; 0xe0
  102cdc:	e1c120f0 	strd	r2, [r1]
  102ce0:	e51b300c 	ldr	r3, [fp, #-12]
  102ce4:	e28310e0 	add	r1, r3, #224	; 0xe0
  102ce8:	e51b3008 	ldr	r3, [fp, #-8]
  102cec:	e1c32ed8 	ldrd	r2, [r3, #232]	; 0xe8
  102cf0:	e1c120f0 	strd	r2, [r1]
  102cf4:	e51b300c 	ldr	r3, [fp, #-12]
  102cf8:	e28330e8 	add	r3, r3, #232	; 0xe8
  102cfc:	e51b2008 	ldr	r2, [fp, #-8]
  102d00:	e28220d8 	add	r2, r2, #216	; 0xd8
  102d04:	edd21b00 	vldr	d17, [r2]
  102d08:	e51b2008 	ldr	r2, [fp, #-8]
  102d0c:	e28220e8 	add	r2, r2, #232	; 0xe8
  102d10:	edd20b00 	vldr	d16, [r2]
  102d14:	ee710ba0 	vadd.f64	d16, d17, d16
  102d18:	edc30b00 	vstr	d16, [r3]
  102d1c:	e51b300c 	ldr	r3, [fp, #-12]
  102d20:	e28310f0 	add	r1, r3, #240	; 0xf0
  102d24:	e51b3008 	ldr	r3, [fp, #-8]
  102d28:	e1c32fd0 	ldrd	r2, [r3, #240]	; 0xf0
  102d2c:	e1c120f0 	strd	r2, [r1]
  102d30:	e51b300c 	ldr	r3, [fp, #-12]
  102d34:	e28310f8 	add	r1, r3, #248	; 0xf8
  102d38:	e51b3008 	ldr	r3, [fp, #-8]
  102d3c:	e1c32fd8 	ldrd	r2, [r3, #248]	; 0xf8
  102d40:	e1c120f0 	strd	r2, [r1]
  102d44:	e320f000 	nop	{0}
  102d48:	e24bd000 	sub	sp, fp, #0
  102d4c:	e49db004 	pop	{fp}		; (ldr fp, [sp], #4)
  102d50:	e12fff1e 	bx	lr
  102d54:	00000000 	andeq	r0, r0, r0

00102d58 <b_sigmas>:
  102d58:	e92d4800 	push	{fp, lr}
  102d5c:	e28db004 	add	fp, sp, #4
  102d60:	e24dd901 	sub	sp, sp, #16384	; 0x4000
  102d64:	e24dd030 	sub	sp, sp, #48	; 0x30
  102d68:	e24b3901 	sub	r3, fp, #16384	; 0x4000
  102d6c:	e2433004 	sub	r3, r3, #4
  102d70:	e5030024 	str	r0, [r3, #-36]	; 0xffffffdc
  102d74:	e24b3901 	sub	r3, fp, #16384	; 0x4000
  102d78:	e2433004 	sub	r3, r3, #4
  102d7c:	e5031028 	str	r1, [r3, #-40]	; 0xffffffd8
  102d80:	e24b3901 	sub	r3, fp, #16384	; 0x4000
  102d84:	e2433004 	sub	r3, r3, #4
  102d88:	e503202c 	str	r2, [r3, #-44]	; 0xffffffd4
  102d8c:	e24b3901 	sub	r3, fp, #16384	; 0x4000
  102d90:	e2433004 	sub	r3, r3, #4
  102d94:	e1a01003 	mov	r1, r3
  102d98:	e24b3a02 	sub	r3, fp, #8192	; 0x2000
  102d9c:	e2433004 	sub	r3, r3, #4
  102da0:	e2433010 	sub	r3, r3, #16
  102da4:	e3a02a02 	mov	r2, #8192	; 0x2000
  102da8:	e5111028 	ldr	r1, [r1, #-40]	; 0xffffffd8
  102dac:	e1a00003 	mov	r0, r3
  102db0:	eb001646 	bl	1086d0 <memcpy>
  102db4:	e24b3901 	sub	r3, fp, #16384	; 0x4000
  102db8:	e2433004 	sub	r3, r3, #4
  102dbc:	e2433018 	sub	r3, r3, #24
  102dc0:	e1a00003 	mov	r0, r3
  102dc4:	ebfffd79 	bl	1023b0 <pmu_counter_read_ns>
  102dc8:	e24b3a02 	sub	r3, fp, #8192	; 0x2000
  102dcc:	e2433004 	sub	r3, r3, #4
  102dd0:	e2433010 	sub	r3, r3, #16
  102dd4:	e1a00003 	mov	r0, r3
  102dd8:	ebfffe01 	bl	1025e4 <Cholesky>
  102ddc:	e24b3901 	sub	r3, fp, #16384	; 0x4000
  102de0:	e2433004 	sub	r3, r3, #4
  102de4:	e2433020 	sub	r3, r3, #32
  102de8:	e1a00003 	mov	r0, r3
  102dec:	ebfffd6f 	bl	1023b0 <pmu_counter_read_ns>
  102df0:	e24b3901 	sub	r3, fp, #16384	; 0x4000
  102df4:	e2433004 	sub	r3, r3, #4
  102df8:	e2433020 	sub	r3, r3, #32
  102dfc:	e1c300d0 	ldrd	r0, [r3]
  102e00:	e24b3901 	sub	r3, fp, #16384	; 0x4000
  102e04:	e2433004 	sub	r3, r3, #4
  102e08:	e2433010 	sub	r3, r3, #16
  102e0c:	e14320d8 	ldrd	r2, [r3, #-8]
  102e10:	e0502002 	subs	r2, r0, r2
  102e14:	e0c13003 	sbc	r3, r1, r3
  102e18:	e14b21f4 	strd	r2, [fp, #-20]	; 0xffffffec
  102e1c:	e3a03000 	mov	r3, #0
  102e20:	e50b3008 	str	r3, [fp, #-8]
  102e24:	ea000014 	b	102e7c <b_sigmas+0x124>
  102e28:	e24b3a02 	sub	r3, fp, #8192	; 0x2000
  102e2c:	e2433004 	sub	r3, r3, #4
  102e30:	e1a02003 	mov	r2, r3
  102e34:	e51b3008 	ldr	r3, [fp, #-8]
  102e38:	e1a03183 	lsl	r3, r3, #3
  102e3c:	e0823003 	add	r3, r2, r3
  102e40:	e2433010 	sub	r3, r3, #16
  102e44:	edd30b00 	vldr	d16, [r3]
  102e48:	eddf1b84 	vldr	d17, [pc, #528]	; 103060 <b_sigmas+0x308>
  102e4c:	ee600ba1 	vmul.f64	d16, d16, d17
  102e50:	e24b3a02 	sub	r3, fp, #8192	; 0x2000
  102e54:	e2433004 	sub	r3, r3, #4
  102e58:	e1a02003 	mov	r2, r3
  102e5c:	e51b3008 	ldr	r3, [fp, #-8]
  102e60:	e1a03183 	lsl	r3, r3, #3
  102e64:	e0823003 	add	r3, r2, r3
  102e68:	e2433010 	sub	r3, r3, #16
  102e6c:	edc30b00 	vstr	d16, [r3]
  102e70:	e51b3008 	ldr	r3, [fp, #-8]
  102e74:	e2833001 	add	r3, r3, #1
  102e78:	e50b3008 	str	r3, [fp, #-8]
  102e7c:	e51b3008 	ldr	r3, [fp, #-8]
  102e80:	e3530b01 	cmp	r3, #1024	; 0x400
  102e84:	baffffe7 	blt	102e28 <b_sigmas+0xd0>
  102e88:	e3a03000 	mov	r3, #0
  102e8c:	e50b3008 	str	r3, [fp, #-8]
  102e90:	ea00006a 	b	103040 <b_sigmas+0x2e8>
  102e94:	e51b3008 	ldr	r3, [fp, #-8]
  102e98:	e1a03183 	lsl	r3, r3, #3
  102e9c:	e24b2901 	sub	r2, fp, #16384	; 0x4000
  102ea0:	e2422004 	sub	r2, r2, #4
  102ea4:	e512202c 	ldr	r2, [r2, #-44]	; 0xffffffd4
  102ea8:	e0821003 	add	r1, r2, r3
  102eac:	e51b3008 	ldr	r3, [fp, #-8]
  102eb0:	e1a03183 	lsl	r3, r3, #3
  102eb4:	e24b2901 	sub	r2, fp, #16384	; 0x4000
  102eb8:	e2422004 	sub	r2, r2, #4
  102ebc:	e5122024 	ldr	r2, [r2, #-36]	; 0xffffffdc
  102ec0:	e0823003 	add	r3, r2, r3
  102ec4:	e1c320d0 	ldrd	r2, [r3]
  102ec8:	e1c120f0 	strd	r2, [r1]
  102ecc:	e3a03000 	mov	r3, #0
  102ed0:	e50b300c 	str	r3, [fp, #-12]
  102ed4:	ea000053 	b	103028 <b_sigmas+0x2d0>
  102ed8:	e51b3008 	ldr	r3, [fp, #-8]
  102edc:	e1a02283 	lsl	r2, r3, #5
  102ee0:	e51b300c 	ldr	r3, [fp, #-12]
  102ee4:	e0821003 	add	r1, r2, r3
  102ee8:	e51b300c 	ldr	r3, [fp, #-12]
  102eec:	e1a03183 	lsl	r3, r3, #3
  102ef0:	e24b2901 	sub	r2, fp, #16384	; 0x4000
  102ef4:	e2422004 	sub	r2, r2, #4
  102ef8:	e5122024 	ldr	r2, [r2, #-36]	; 0xffffffdc
  102efc:	e0823003 	add	r3, r2, r3
  102f00:	e1c320d0 	ldrd	r2, [r3]
  102f04:	e24b0901 	sub	r0, fp, #16384	; 0x4000
  102f08:	e2400004 	sub	r0, r0, #4
  102f0c:	e1a01181 	lsl	r1, r1, #3
  102f10:	e0801001 	add	r1, r0, r1
  102f14:	e2411010 	sub	r1, r1, #16
  102f18:	e1c120f0 	strd	r2, [r1]
  102f1c:	e51b3008 	ldr	r3, [fp, #-8]
  102f20:	e2833001 	add	r3, r3, #1
  102f24:	e1a02283 	lsl	r2, r3, #5
  102f28:	e51b300c 	ldr	r3, [fp, #-12]
  102f2c:	e0823003 	add	r3, r2, r3
  102f30:	e1a03183 	lsl	r3, r3, #3
  102f34:	e24b2901 	sub	r2, fp, #16384	; 0x4000
  102f38:	e2422004 	sub	r2, r2, #4
  102f3c:	e512202c 	ldr	r2, [r2, #-44]	; 0xffffffd4
  102f40:	e0823003 	add	r3, r2, r3
  102f44:	e51b2008 	ldr	r2, [fp, #-8]
  102f48:	e1a01282 	lsl	r1, r2, #5
  102f4c:	e51b200c 	ldr	r2, [fp, #-12]
  102f50:	e0812002 	add	r2, r1, r2
  102f54:	e24b1901 	sub	r1, fp, #16384	; 0x4000
  102f58:	e2411004 	sub	r1, r1, #4
  102f5c:	e1a02182 	lsl	r2, r2, #3
  102f60:	e0812002 	add	r2, r1, r2
  102f64:	e2422010 	sub	r2, r2, #16
  102f68:	edd21b00 	vldr	d17, [r2]
  102f6c:	e51b2008 	ldr	r2, [fp, #-8]
  102f70:	e1a01282 	lsl	r1, r2, #5
  102f74:	e51b200c 	ldr	r2, [fp, #-12]
  102f78:	e0812002 	add	r2, r1, r2
  102f7c:	e24b1a02 	sub	r1, fp, #8192	; 0x2000
  102f80:	e2411004 	sub	r1, r1, #4
  102f84:	e1a02182 	lsl	r2, r2, #3
  102f88:	e0812002 	add	r2, r1, r2
  102f8c:	e2422010 	sub	r2, r2, #16
  102f90:	edd20b00 	vldr	d16, [r2]
  102f94:	ee710ba0 	vadd.f64	d16, d17, d16
  102f98:	edc30b00 	vstr	d16, [r3]
  102f9c:	e51b3008 	ldr	r3, [fp, #-8]
  102fa0:	e2833021 	add	r3, r3, #33	; 0x21
  102fa4:	e1a02283 	lsl	r2, r3, #5
  102fa8:	e51b300c 	ldr	r3, [fp, #-12]
  102fac:	e0823003 	add	r3, r2, r3
  102fb0:	e1a03183 	lsl	r3, r3, #3
  102fb4:	e24b2901 	sub	r2, fp, #16384	; 0x4000
  102fb8:	e2422004 	sub	r2, r2, #4
  102fbc:	e512202c 	ldr	r2, [r2, #-44]	; 0xffffffd4
  102fc0:	e0823003 	add	r3, r2, r3
  102fc4:	e51b2008 	ldr	r2, [fp, #-8]
  102fc8:	e1a01282 	lsl	r1, r2, #5
  102fcc:	e51b200c 	ldr	r2, [fp, #-12]
  102fd0:	e0812002 	add	r2, r1, r2
  102fd4:	e24b1901 	sub	r1, fp, #16384	; 0x4000
  102fd8:	e2411004 	sub	r1, r1, #4
  102fdc:	e1a02182 	lsl	r2, r2, #3
  102fe0:	e0812002 	add	r2, r1, r2
  102fe4:	e2422010 	sub	r2, r2, #16
  102fe8:	edd21b00 	vldr	d17, [r2]
  102fec:	e51b2008 	ldr	r2, [fp, #-8]
  102ff0:	e1a01282 	lsl	r1, r2, #5
  102ff4:	e51b200c 	ldr	r2, [fp, #-12]
  102ff8:	e0812002 	add	r2, r1, r2
  102ffc:	e24b1a02 	sub	r1, fp, #8192	; 0x2000
  103000:	e2411004 	sub	r1, r1, #4
  103004:	e1a02182 	lsl	r2, r2, #3
  103008:	e0812002 	add	r2, r1, r2
  10300c:	e2422010 	sub	r2, r2, #16
  103010:	edd20b00 	vldr	d16, [r2]
  103014:	ee710be0 	vsub.f64	d16, d17, d16
  103018:	edc30b00 	vstr	d16, [r3]
  10301c:	e51b300c 	ldr	r3, [fp, #-12]
  103020:	e2833001 	add	r3, r3, #1
  103024:	e50b300c 	str	r3, [fp, #-12]
  103028:	e51b300c 	ldr	r3, [fp, #-12]
  10302c:	e353001f 	cmp	r3, #31
  103030:	daffffa8 	ble	102ed8 <b_sigmas+0x180>
  103034:	e51b3008 	ldr	r3, [fp, #-8]
  103038:	e2833001 	add	r3, r3, #1
  10303c:	e50b3008 	str	r3, [fp, #-8]
  103040:	e51b3008 	ldr	r3, [fp, #-8]
  103044:	e353001f 	cmp	r3, #31
  103048:	daffff91 	ble	102e94 <b_sigmas+0x13c>
  10304c:	e14b21d4 	ldrd	r2, [fp, #-20]	; 0xffffffec
  103050:	e1a00002 	mov	r0, r2
  103054:	e1a01003 	mov	r1, r3
  103058:	e24bd004 	sub	sp, fp, #4
  10305c:	e8bd8800 	pop	{fp, pc}
  103060:	4000a562 	.word	0x4000a562
  103064:	3f772ba4 	.word	0x3f772ba4

00103068 <sigmas>:
  103068:	e92d4800 	push	{fp, lr}
  10306c:	e28db004 	add	fp, sp, #4
  103070:	e24dd901 	sub	sp, sp, #16384	; 0x4000
  103074:	e24dd018 	sub	sp, sp, #24
  103078:	e24bc901 	sub	ip, fp, #16384	; 0x4000
  10307c:	e24cc004 	sub	ip, ip, #4
  103080:	e50c000c 	str	r0, [ip, #-12]
  103084:	e24b0901 	sub	r0, fp, #16384	; 0x4000
  103088:	e2400004 	sub	r0, r0, #4
  10308c:	e5001010 	str	r1, [r0, #-16]
  103090:	e24b1901 	sub	r1, fp, #16384	; 0x4000
  103094:	e2411004 	sub	r1, r1, #4
  103098:	e2411010 	sub	r1, r1, #16
  10309c:	e14120f8 	strd	r2, [r1, #-8]
  1030a0:	e24b3901 	sub	r3, fp, #16384	; 0x4000
  1030a4:	e2433004 	sub	r3, r3, #4
  1030a8:	e1a01003 	mov	r1, r3
  1030ac:	e24b3a02 	sub	r3, fp, #8192	; 0x2000
  1030b0:	e2433004 	sub	r3, r3, #4
  1030b4:	e2433008 	sub	r3, r3, #8
  1030b8:	e3a02a02 	mov	r2, #8192	; 0x2000
  1030bc:	e5111010 	ldr	r1, [r1, #-16]
  1030c0:	e1a00003 	mov	r0, r3
  1030c4:	eb001581 	bl	1086d0 <memcpy>
  1030c8:	e24b3a02 	sub	r3, fp, #8192	; 0x2000
  1030cc:	e2433004 	sub	r3, r3, #4
  1030d0:	e2433008 	sub	r3, r3, #8
  1030d4:	e1a00003 	mov	r0, r3
  1030d8:	ebfffd41 	bl	1025e4 <Cholesky>
  1030dc:	e3a03000 	mov	r3, #0
  1030e0:	e50b3008 	str	r3, [fp, #-8]
  1030e4:	ea000017 	b	103148 <sigmas+0xe0>
  1030e8:	e24b3a02 	sub	r3, fp, #8192	; 0x2000
  1030ec:	e2433004 	sub	r3, r3, #4
  1030f0:	e1a02003 	mov	r2, r3
  1030f4:	e51b3008 	ldr	r3, [fp, #-8]
  1030f8:	e1a03183 	lsl	r3, r3, #3
  1030fc:	e0823003 	add	r3, r2, r3
  103100:	e2433008 	sub	r3, r3, #8
  103104:	edd31b00 	vldr	d17, [r3]
  103108:	e24b3901 	sub	r3, fp, #16384	; 0x4000
  10310c:	e2433004 	sub	r3, r3, #4
  103110:	e2433010 	sub	r3, r3, #16
  103114:	ed530b02 	vldr	d16, [r3, #-8]
  103118:	ee610ba0 	vmul.f64	d16, d17, d16
  10311c:	e24b3a02 	sub	r3, fp, #8192	; 0x2000
  103120:	e2433004 	sub	r3, r3, #4
  103124:	e1a02003 	mov	r2, r3
  103128:	e51b3008 	ldr	r3, [fp, #-8]
  10312c:	e1a03183 	lsl	r3, r3, #3
  103130:	e0823003 	add	r3, r2, r3
  103134:	e2433008 	sub	r3, r3, #8
  103138:	edc30b00 	vstr	d16, [r3]
  10313c:	e51b3008 	ldr	r3, [fp, #-8]
  103140:	e2833001 	add	r3, r3, #1
  103144:	e50b3008 	str	r3, [fp, #-8]
  103148:	e51b3008 	ldr	r3, [fp, #-8]
  10314c:	e3530b01 	cmp	r3, #1024	; 0x400
  103150:	baffffe4 	blt	1030e8 <sigmas+0x80>
  103154:	e3a03000 	mov	r3, #0
  103158:	e50b3008 	str	r3, [fp, #-8]
  10315c:	ea000064 	b	1032f4 <sigmas+0x28c>
  103160:	e51b3008 	ldr	r3, [fp, #-8]
  103164:	e1a03183 	lsl	r3, r3, #3
  103168:	e59b2004 	ldr	r2, [fp, #4]
  10316c:	e0821003 	add	r1, r2, r3
  103170:	e51b3008 	ldr	r3, [fp, #-8]
  103174:	e1a03183 	lsl	r3, r3, #3
  103178:	e24b2901 	sub	r2, fp, #16384	; 0x4000
  10317c:	e2422004 	sub	r2, r2, #4
  103180:	e512200c 	ldr	r2, [r2, #-12]
  103184:	e0823003 	add	r3, r2, r3
  103188:	e1c320d0 	ldrd	r2, [r3]
  10318c:	e1c120f0 	strd	r2, [r1]
  103190:	e3a03000 	mov	r3, #0
  103194:	e50b300c 	str	r3, [fp, #-12]
  103198:	ea00004f 	b	1032dc <sigmas+0x274>
  10319c:	e51b3008 	ldr	r3, [fp, #-8]
  1031a0:	e1a02283 	lsl	r2, r3, #5
  1031a4:	e51b300c 	ldr	r3, [fp, #-12]
  1031a8:	e0821003 	add	r1, r2, r3
  1031ac:	e51b300c 	ldr	r3, [fp, #-12]
  1031b0:	e1a03183 	lsl	r3, r3, #3
  1031b4:	e24b2901 	sub	r2, fp, #16384	; 0x4000
  1031b8:	e2422004 	sub	r2, r2, #4
  1031bc:	e512200c 	ldr	r2, [r2, #-12]
  1031c0:	e0823003 	add	r3, r2, r3
  1031c4:	e1c320d0 	ldrd	r2, [r3]
  1031c8:	e24b0901 	sub	r0, fp, #16384	; 0x4000
  1031cc:	e2400004 	sub	r0, r0, #4
  1031d0:	e1a01181 	lsl	r1, r1, #3
  1031d4:	e0801001 	add	r1, r0, r1
  1031d8:	e2411008 	sub	r1, r1, #8
  1031dc:	e1c120f0 	strd	r2, [r1]
  1031e0:	e51b3008 	ldr	r3, [fp, #-8]
  1031e4:	e2833001 	add	r3, r3, #1
  1031e8:	e1a02283 	lsl	r2, r3, #5
  1031ec:	e51b300c 	ldr	r3, [fp, #-12]
  1031f0:	e0823003 	add	r3, r2, r3
  1031f4:	e1a03183 	lsl	r3, r3, #3
  1031f8:	e59b2004 	ldr	r2, [fp, #4]
  1031fc:	e0823003 	add	r3, r2, r3
  103200:	e51b2008 	ldr	r2, [fp, #-8]
  103204:	e1a01282 	lsl	r1, r2, #5
  103208:	e51b200c 	ldr	r2, [fp, #-12]
  10320c:	e0812002 	add	r2, r1, r2
  103210:	e24b1901 	sub	r1, fp, #16384	; 0x4000
  103214:	e2411004 	sub	r1, r1, #4
  103218:	e1a02182 	lsl	r2, r2, #3
  10321c:	e0812002 	add	r2, r1, r2
  103220:	e2422008 	sub	r2, r2, #8
  103224:	edd21b00 	vldr	d17, [r2]
  103228:	e51b2008 	ldr	r2, [fp, #-8]
  10322c:	e1a01282 	lsl	r1, r2, #5
  103230:	e51b200c 	ldr	r2, [fp, #-12]
  103234:	e0812002 	add	r2, r1, r2
  103238:	e24b1a02 	sub	r1, fp, #8192	; 0x2000
  10323c:	e2411004 	sub	r1, r1, #4
  103240:	e1a02182 	lsl	r2, r2, #3
  103244:	e0812002 	add	r2, r1, r2
  103248:	e2422008 	sub	r2, r2, #8
  10324c:	edd20b00 	vldr	d16, [r2]
  103250:	ee710ba0 	vadd.f64	d16, d17, d16
  103254:	edc30b00 	vstr	d16, [r3]
  103258:	e51b3008 	ldr	r3, [fp, #-8]
  10325c:	e2833021 	add	r3, r3, #33	; 0x21
  103260:	e1a02283 	lsl	r2, r3, #5
  103264:	e51b300c 	ldr	r3, [fp, #-12]
  103268:	e0823003 	add	r3, r2, r3
  10326c:	e1a03183 	lsl	r3, r3, #3
  103270:	e59b2004 	ldr	r2, [fp, #4]
  103274:	e0823003 	add	r3, r2, r3
  103278:	e51b2008 	ldr	r2, [fp, #-8]
  10327c:	e1a01282 	lsl	r1, r2, #5
  103280:	e51b200c 	ldr	r2, [fp, #-12]
  103284:	e0812002 	add	r2, r1, r2
  103288:	e24b1901 	sub	r1, fp, #16384	; 0x4000
  10328c:	e2411004 	sub	r1, r1, #4
  103290:	e1a02182 	lsl	r2, r2, #3
  103294:	e0812002 	add	r2, r1, r2
  103298:	e2422008 	sub	r2, r2, #8
  10329c:	edd21b00 	vldr	d17, [r2]
  1032a0:	e51b2008 	ldr	r2, [fp, #-8]
  1032a4:	e1a01282 	lsl	r1, r2, #5
  1032a8:	e51b200c 	ldr	r2, [fp, #-12]
  1032ac:	e0812002 	add	r2, r1, r2
  1032b0:	e24b1a02 	sub	r1, fp, #8192	; 0x2000
  1032b4:	e2411004 	sub	r1, r1, #4
  1032b8:	e1a02182 	lsl	r2, r2, #3
  1032bc:	e0812002 	add	r2, r1, r2
  1032c0:	e2422008 	sub	r2, r2, #8
  1032c4:	edd20b00 	vldr	d16, [r2]
  1032c8:	ee710be0 	vsub.f64	d16, d17, d16
  1032cc:	edc30b00 	vstr	d16, [r3]
  1032d0:	e51b300c 	ldr	r3, [fp, #-12]
  1032d4:	e2833001 	add	r3, r3, #1
  1032d8:	e50b300c 	str	r3, [fp, #-12]
  1032dc:	e51b300c 	ldr	r3, [fp, #-12]
  1032e0:	e353001f 	cmp	r3, #31
  1032e4:	daffffac 	ble	10319c <sigmas+0x134>
  1032e8:	e51b3008 	ldr	r3, [fp, #-8]
  1032ec:	e2833001 	add	r3, r3, #1
  1032f0:	e50b3008 	str	r3, [fp, #-8]
  1032f4:	e51b3008 	ldr	r3, [fp, #-8]
  1032f8:	e353001f 	cmp	r3, #31
  1032fc:	daffff97 	ble	103160 <sigmas+0xf8>
  103300:	e320f000 	nop	{0}
  103304:	e24bd004 	sub	sp, fp, #4
  103308:	e8bd8800 	pop	{fp, pc}

0010330c <b_ukf>:
  10330c:	e92d4800 	push	{fp, lr}
  103310:	e28db004 	add	fp, sp, #4
  103314:	e24ddb4a 	sub	sp, sp, #75776	; 0x12800
  103318:	e24ddf9e 	sub	sp, sp, #632	; 0x278
  10331c:	e24bca12 	sub	ip, fp, #73728	; 0x12000
  103320:	e24cc004 	sub	ip, ip, #4
  103324:	e50c0a54 	str	r0, [ip, #-2644]	; 0xfffff5ac
  103328:	e24b0a12 	sub	r0, fp, #73728	; 0x12000
  10332c:	e2400004 	sub	r0, r0, #4
  103330:	e5001a58 	str	r1, [r0, #-2648]	; 0xfffff5a8
  103334:	e24b1b4a 	sub	r1, fp, #75776	; 0x12800
  103338:	e2411004 	sub	r1, r1, #4
  10333c:	e2411e26 	sub	r1, r1, #608	; 0x260
  103340:	e1c120f0 	strd	r2, [r1]
  103344:	ebfffbed 	bl	102300 <pmu_counter_reset>
  103348:	e24b3c41 	sub	r3, fp, #16640	; 0x4100
  10334c:	e2433004 	sub	r3, r3, #4
  103350:	e2433028 	sub	r3, r3, #40	; 0x28
  103354:	e24b2a12 	sub	r2, fp, #73728	; 0x12000
  103358:	e2422004 	sub	r2, r2, #4
  10335c:	e1a01002 	mov	r1, r2
  103360:	e24b2a12 	sub	r2, fp, #73728	; 0x12000
  103364:	e2422004 	sub	r2, r2, #4
  103368:	e1a00002 	mov	r0, r2
  10336c:	e1a02003 	mov	r2, r3
  103370:	e5111a58 	ldr	r1, [r1, #-2648]	; 0xfffff5a8
  103374:	e5100a54 	ldr	r0, [r0, #-2644]	; 0xfffff5ac
  103378:	ebfffe76 	bl	102d58 <b_sigmas>
  10337c:	e14b01fc 	strd	r0, [fp, #-28]	; 0xffffffe4
  103380:	e24b3b4a 	sub	r3, fp, #75776	; 0x12800
  103384:	e2433004 	sub	r3, r3, #4
  103388:	e2433e25 	sub	r3, r3, #592	; 0x250
  10338c:	e1a00003 	mov	r0, r3
  103390:	ebfffc06 	bl	1023b0 <pmu_counter_read_ns>
  103394:	e24b3b4a 	sub	r3, fp, #75776	; 0x12800
  103398:	e2433004 	sub	r3, r3, #4
  10339c:	e2433e25 	sub	r3, r3, #592	; 0x250
  1033a0:	e1c320d0 	ldrd	r2, [r3]
  1033a4:	e30105b8 	movw	r0, #5560	; 0x15b8
  1033a8:	e3400011 	movt	r0, #17
  1033ac:	eb001566 	bl	10894c <printf>
  1033b0:	e14b21dc 	ldrd	r2, [fp, #-28]	; 0xffffffe4
  1033b4:	e30105ec 	movw	r0, #5612	; 0x15ec
  1033b8:	e3400011 	movt	r0, #17
  1033bc:	eb001562 	bl	10894c <printf>
  1033c0:	ebfffbce 	bl	102300 <pmu_counter_reset>
  1033c4:	e24b0c41 	sub	r0, fp, #16640	; 0x4100
  1033c8:	e2400004 	sub	r0, r0, #4
  1033cc:	e2400028 	sub	r0, r0, #40	; 0x28
  1033d0:	e24b3ce3 	sub	r3, fp, #58112	; 0xe300
  1033d4:	e2433004 	sub	r3, r3, #4
  1033d8:	e2433028 	sub	r3, r3, #40	; 0x28
  1033dc:	e58d300c 	str	r3, [sp, #12]
  1033e0:	e24b3ca2 	sub	r3, fp, #41472	; 0xa200
  1033e4:	e2433004 	sub	r3, r3, #4
  1033e8:	e2433028 	sub	r3, r3, #40	; 0x28
  1033ec:	e58d3008 	str	r3, [sp, #8]
  1033f0:	e24b3c82 	sub	r3, fp, #33280	; 0x8200
  1033f4:	e2433004 	sub	r3, r3, #4
  1033f8:	e2433028 	sub	r3, r3, #40	; 0x28
  1033fc:	e58d3004 	str	r3, [sp, #4]
  103400:	e24b3a12 	sub	r3, fp, #73728	; 0x12000
  103404:	e2433004 	sub	r3, r3, #4
  103408:	e5133a54 	ldr	r3, [r3, #-2644]	; 0xfffff5ac
  10340c:	e58d3000 	str	r3, [sp]
  103410:	e3013ad8 	movw	r3, #6872	; 0x1ad8
  103414:	e3403011 	movt	r3, #17
  103418:	e30128d0 	movw	r2, #6352	; 0x18d0
  10341c:	e3402011 	movt	r2, #17
  103420:	e30116c8 	movw	r1, #5832	; 0x16c8
  103424:	e3401011 	movt	r1, #17
  103428:	eb00028e 	bl	103e68 <b_ut>
  10342c:	e24b3b4a 	sub	r3, fp, #75776	; 0x12800
  103430:	e2433004 	sub	r3, r3, #4
  103434:	e2433e25 	sub	r3, r3, #592	; 0x250
  103438:	e1a00003 	mov	r0, r3
  10343c:	ebfffbdb 	bl	1023b0 <pmu_counter_read_ns>
  103440:	e24b3b4a 	sub	r3, fp, #75776	; 0x12800
  103444:	e2433004 	sub	r3, r3, #4
  103448:	e2433e25 	sub	r3, r3, #592	; 0x250
  10344c:	e1c320d0 	ldrd	r2, [r3]
  103450:	e3010620 	movw	r0, #5664	; 0x1620
  103454:	e3400011 	movt	r0, #17
  103458:	eb00153b 	bl	10894c <printf>
  10345c:	ebfffba7 	bl	102300 <pmu_counter_reset>
  103460:	e24b0c82 	sub	r0, fp, #33280	; 0x8200
  103464:	e2400004 	sub	r0, r0, #4
  103468:	e2400028 	sub	r0, r0, #40	; 0x28
  10346c:	e24b3ce7 	sub	r3, fp, #59136	; 0xe700
  103470:	e2433004 	sub	r3, r3, #4
  103474:	e2433048 	sub	r3, r3, #72	; 0x48
  103478:	e58d3014 	str	r3, [sp, #20]
  10347c:	e24b3ce5 	sub	r3, fp, #58624	; 0xe500
  103480:	e2433004 	sub	r3, r3, #4
  103484:	e2433040 	sub	r3, r3, #64	; 0x40
  103488:	e58d3010 	str	r3, [sp, #16]
  10348c:	e24b3ce5 	sub	r3, fp, #58624	; 0xe500
  103490:	e2433004 	sub	r3, r3, #4
  103494:	e2433038 	sub	r3, r3, #56	; 0x38
  103498:	e58d300c 	str	r3, [sp, #12]
  10349c:	e24b3ce3 	sub	r3, fp, #58112	; 0xe300
  1034a0:	e2433004 	sub	r3, r3, #4
  1034a4:	e2433030 	sub	r3, r3, #48	; 0x30
  1034a8:	e58d3008 	str	r3, [sp, #8]
  1034ac:	e3a02000 	mov	r2, #0
  1034b0:	e3a03000 	mov	r3, #0
  1034b4:	e3433ff0 	movt	r3, #16368	; 0x3ff0
  1034b8:	e1cd20f0 	strd	r2, [sp]
  1034bc:	e30128d0 	movw	r2, #6352	; 0x18d0
  1034c0:	e3402011 	movt	r2, #17
  1034c4:	e30116c8 	movw	r1, #5832	; 0x16c8
  1034c8:	e3401011 	movt	r1, #17
  1034cc:	eb000393 	bl	104320 <c_ut>
  1034d0:	e24b3b4a 	sub	r3, fp, #75776	; 0x12800
  1034d4:	e2433004 	sub	r3, r3, #4
  1034d8:	e2433e25 	sub	r3, r3, #592	; 0x250
  1034dc:	e1a00003 	mov	r0, r3
  1034e0:	ebfffbb2 	bl	1023b0 <pmu_counter_read_ns>
  1034e4:	e24b3b4a 	sub	r3, fp, #75776	; 0x12800
  1034e8:	e2433004 	sub	r3, r3, #4
  1034ec:	e2433e25 	sub	r3, r3, #592	; 0x250
  1034f0:	e1c320d0 	ldrd	r2, [r3]
  1034f4:	e3010650 	movw	r0, #5712	; 0x1650
  1034f8:	e3400011 	movt	r0, #17
  1034fc:	eb001512 	bl	10894c <printf>
  103500:	ebfffb7e 	bl	102300 <pmu_counter_reset>
  103504:	e24b3ce5 	sub	r3, fp, #58624	; 0xe500
  103508:	e2433004 	sub	r3, r3, #4
  10350c:	e2433040 	sub	r3, r3, #64	; 0x40
  103510:	e1c320d0 	ldrd	r2, [r3]
  103514:	e1a00002 	mov	r0, r2
  103518:	e1a01003 	mov	r1, r3
  10351c:	eb000ee6 	bl	1070bc <inv>
  103520:	e14b02f4 	strd	r0, [fp, #-36]	; 0xffffffdc
  103524:	e24b3ce3 	sub	r3, fp, #58112	; 0xe300
  103528:	e2433004 	sub	r3, r3, #4
  10352c:	e2433030 	sub	r3, r3, #48	; 0x30
  103530:	edd30b00 	vldr	d16, [r3]
  103534:	e24b3b4a 	sub	r3, fp, #75776	; 0x12800
  103538:	e2433004 	sub	r3, r3, #4
  10353c:	e2433e26 	sub	r3, r3, #608	; 0x260
  103540:	edd31b00 	vldr	d17, [r3]
  103544:	ee710be0 	vsub.f64	d16, d17, d16
  103548:	ed4b0b0b 	vstr	d16, [fp, #-44]	; 0xffffffd4
  10354c:	e3a03000 	mov	r3, #0
  103550:	e50b3008 	str	r3, [fp, #-8]
  103554:	ea0000b0 	b	10381c <b_ukf+0x510>
  103558:	e24b3a12 	sub	r3, fp, #73728	; 0x12000
  10355c:	e2433004 	sub	r3, r3, #4
  103560:	e2433d29 	sub	r3, r3, #2624	; 0xa40
  103564:	e1a02003 	mov	r2, r3
  103568:	e51b3008 	ldr	r3, [fp, #-8]
  10356c:	e1a03183 	lsl	r3, r3, #3
  103570:	e0823003 	add	r3, r2, r3
  103574:	e2431008 	sub	r1, r3, #8
  103578:	e3a02000 	mov	r2, #0
  10357c:	e3a03000 	mov	r3, #0
  103580:	e1c120f0 	strd	r2, [r1]
  103584:	e3a03000 	mov	r3, #0
  103588:	e50b300c 	str	r3, [fp, #-12]
  10358c:	ea00006e 	b	10374c <b_ukf+0x440>
  103590:	e51b300c 	ldr	r3, [fp, #-12]
  103594:	e1a02283 	lsl	r2, r3, #5
  103598:	e51b3008 	ldr	r3, [fp, #-8]
  10359c:	e0823003 	add	r3, r2, r3
  1035a0:	e24b2a12 	sub	r2, fp, #73728	; 0x12000
  1035a4:	e2422004 	sub	r2, r2, #4
  1035a8:	e2422d21 	sub	r2, r2, #2112	; 0x840
  1035ac:	e1a03183 	lsl	r3, r3, #3
  1035b0:	e0823003 	add	r3, r2, r3
  1035b4:	e2431008 	sub	r1, r3, #8
  1035b8:	e3a02000 	mov	r2, #0
  1035bc:	e3a03000 	mov	r3, #0
  1035c0:	e1c120f0 	strd	r2, [r1]
  1035c4:	e3a03000 	mov	r3, #0
  1035c8:	e50b3010 	str	r3, [fp, #-16]
  1035cc:	ea000030 	b	103694 <b_ukf+0x388>
  1035d0:	e51b300c 	ldr	r3, [fp, #-12]
  1035d4:	e1a02283 	lsl	r2, r3, #5
  1035d8:	e51b3008 	ldr	r3, [fp, #-8]
  1035dc:	e0821003 	add	r1, r2, r3
  1035e0:	e51b300c 	ldr	r3, [fp, #-12]
  1035e4:	e1a02283 	lsl	r2, r3, #5
  1035e8:	e51b3008 	ldr	r3, [fp, #-8]
  1035ec:	e0823003 	add	r3, r2, r3
  1035f0:	e24b2a12 	sub	r2, fp, #73728	; 0x12000
  1035f4:	e2422004 	sub	r2, r2, #4
  1035f8:	e2422d21 	sub	r2, r2, #2112	; 0x840
  1035fc:	e1a03183 	lsl	r3, r3, #3
  103600:	e0823003 	add	r3, r2, r3
  103604:	e2433008 	sub	r3, r3, #8
  103608:	edd31b00 	vldr	d17, [r3]
  10360c:	e51b3010 	ldr	r3, [fp, #-16]
  103610:	e1a02283 	lsl	r2, r3, #5
  103614:	e51b3008 	ldr	r3, [fp, #-8]
  103618:	e0823003 	add	r3, r2, r3
  10361c:	e24b2a0e 	sub	r2, fp, #57344	; 0xe000
  103620:	e2422004 	sub	r2, r2, #4
  103624:	e1a03183 	lsl	r3, r3, #3
  103628:	e0823003 	add	r3, r2, r3
  10362c:	e2433fca 	sub	r3, r3, #808	; 0x328
  103630:	edd32b00 	vldr	d18, [r3]
  103634:	e51b200c 	ldr	r2, [fp, #-12]
  103638:	e1a03002 	mov	r3, r2
  10363c:	e1a03303 	lsl	r3, r3, #6
  103640:	e0832002 	add	r2, r3, r2
  103644:	e51b3010 	ldr	r3, [fp, #-16]
  103648:	e0822003 	add	r2, r2, r3
  10364c:	e3033ad8 	movw	r3, #15064	; 0x3ad8
  103650:	e3403011 	movt	r3, #17
  103654:	e1a02182 	lsl	r2, r2, #3
  103658:	e0833002 	add	r3, r3, r2
  10365c:	edd30b00 	vldr	d16, [r3]
  103660:	ee620ba0 	vmul.f64	d16, d18, d16
  103664:	ee710ba0 	vadd.f64	d16, d17, d16
  103668:	e24b3a12 	sub	r3, fp, #73728	; 0x12000
  10366c:	e2433004 	sub	r3, r3, #4
  103670:	e2433d21 	sub	r3, r3, #2112	; 0x840
  103674:	e1a02003 	mov	r2, r3
  103678:	e1a03181 	lsl	r3, r1, #3
  10367c:	e0823003 	add	r3, r2, r3
  103680:	e2433008 	sub	r3, r3, #8
  103684:	edc30b00 	vstr	d16, [r3]
  103688:	e51b3010 	ldr	r3, [fp, #-16]
  10368c:	e2833001 	add	r3, r3, #1
  103690:	e50b3010 	str	r3, [fp, #-16]
  103694:	e51b3010 	ldr	r3, [fp, #-16]
  103698:	e3530040 	cmp	r3, #64	; 0x40
  10369c:	daffffcb 	ble	1035d0 <b_ukf+0x2c4>
  1036a0:	e24b3a12 	sub	r3, fp, #73728	; 0x12000
  1036a4:	e2433004 	sub	r3, r3, #4
  1036a8:	e2433d29 	sub	r3, r3, #2624	; 0xa40
  1036ac:	e1a02003 	mov	r2, r3
  1036b0:	e51b3008 	ldr	r3, [fp, #-8]
  1036b4:	e1a03183 	lsl	r3, r3, #3
  1036b8:	e0823003 	add	r3, r2, r3
  1036bc:	e2433008 	sub	r3, r3, #8
  1036c0:	edd31b00 	vldr	d17, [r3]
  1036c4:	e51b300c 	ldr	r3, [fp, #-12]
  1036c8:	e1a02283 	lsl	r2, r3, #5
  1036cc:	e51b3008 	ldr	r3, [fp, #-8]
  1036d0:	e0823003 	add	r3, r2, r3
  1036d4:	e24b2a12 	sub	r2, fp, #73728	; 0x12000
  1036d8:	e2422004 	sub	r2, r2, #4
  1036dc:	e2422d21 	sub	r2, r2, #2112	; 0x840
  1036e0:	e1a03183 	lsl	r3, r3, #3
  1036e4:	e0823003 	add	r3, r2, r3
  1036e8:	e2433008 	sub	r3, r3, #8
  1036ec:	edd32b00 	vldr	d18, [r3]
  1036f0:	e24b3a0e 	sub	r3, fp, #57344	; 0xe000
  1036f4:	e2433004 	sub	r3, r3, #4
  1036f8:	e2433d1d 	sub	r3, r3, #1856	; 0x740
  1036fc:	e1a02003 	mov	r2, r3
  103700:	e51b300c 	ldr	r3, [fp, #-12]
  103704:	e1a03183 	lsl	r3, r3, #3
  103708:	e0823003 	add	r3, r2, r3
  10370c:	e2433008 	sub	r3, r3, #8
  103710:	edd30b00 	vldr	d16, [r3]
  103714:	ee620ba0 	vmul.f64	d16, d18, d16
  103718:	ee710ba0 	vadd.f64	d16, d17, d16
  10371c:	e24b3a12 	sub	r3, fp, #73728	; 0x12000
  103720:	e2433004 	sub	r3, r3, #4
  103724:	e2433d29 	sub	r3, r3, #2624	; 0xa40
  103728:	e1a02003 	mov	r2, r3
  10372c:	e51b3008 	ldr	r3, [fp, #-8]
  103730:	e1a03183 	lsl	r3, r3, #3
  103734:	e0823003 	add	r3, r2, r3
  103738:	e2433008 	sub	r3, r3, #8
  10373c:	edc30b00 	vstr	d16, [r3]
  103740:	e51b300c 	ldr	r3, [fp, #-12]
  103744:	e2833001 	add	r3, r3, #1
  103748:	e50b300c 	str	r3, [fp, #-12]
  10374c:	e51b300c 	ldr	r3, [fp, #-12]
  103750:	e3530040 	cmp	r3, #64	; 0x40
  103754:	daffff8d 	ble	103590 <b_ukf+0x284>
  103758:	e24b3a12 	sub	r3, fp, #73728	; 0x12000
  10375c:	e2433004 	sub	r3, r3, #4
  103760:	e2433d29 	sub	r3, r3, #2624	; 0xa40
  103764:	e1a02003 	mov	r2, r3
  103768:	e51b3008 	ldr	r3, [fp, #-8]
  10376c:	e1a03183 	lsl	r3, r3, #3
  103770:	e0823003 	add	r3, r2, r3
  103774:	e2433008 	sub	r3, r3, #8
  103778:	edd31b00 	vldr	d17, [r3]
  10377c:	ed5b0b09 	vldr	d16, [fp, #-36]	; 0xffffffdc
  103780:	ee610ba0 	vmul.f64	d16, d17, d16
  103784:	e24b3a12 	sub	r3, fp, #73728	; 0x12000
  103788:	e2433004 	sub	r3, r3, #4
  10378c:	e2433d25 	sub	r3, r3, #2368	; 0x940
  103790:	e1a02003 	mov	r2, r3
  103794:	e51b3008 	ldr	r3, [fp, #-8]
  103798:	e1a03183 	lsl	r3, r3, #3
  10379c:	e0823003 	add	r3, r2, r3
  1037a0:	e2433008 	sub	r3, r3, #8
  1037a4:	edc30b00 	vstr	d16, [r3]
  1037a8:	e51b3008 	ldr	r3, [fp, #-8]
  1037ac:	e1a03183 	lsl	r3, r3, #3
  1037b0:	e24b2a12 	sub	r2, fp, #73728	; 0x12000
  1037b4:	e2422004 	sub	r2, r2, #4
  1037b8:	e5122a54 	ldr	r2, [r2, #-2644]	; 0xfffff5ac
  1037bc:	e0823003 	add	r3, r2, r3
  1037c0:	e51b2008 	ldr	r2, [fp, #-8]
  1037c4:	e1a02182 	lsl	r2, r2, #3
  1037c8:	e24b1a12 	sub	r1, fp, #73728	; 0x12000
  1037cc:	e2411004 	sub	r1, r1, #4
  1037d0:	e5111a54 	ldr	r1, [r1, #-2644]	; 0xfffff5ac
  1037d4:	e0812002 	add	r2, r1, r2
  1037d8:	edd21b00 	vldr	d17, [r2]
  1037dc:	e24b2a12 	sub	r2, fp, #73728	; 0x12000
  1037e0:	e2422004 	sub	r2, r2, #4
  1037e4:	e2422d25 	sub	r2, r2, #2368	; 0x940
  1037e8:	e1a01002 	mov	r1, r2
  1037ec:	e51b2008 	ldr	r2, [fp, #-8]
  1037f0:	e1a02182 	lsl	r2, r2, #3
  1037f4:	e0812002 	add	r2, r1, r2
  1037f8:	e2422008 	sub	r2, r2, #8
  1037fc:	edd22b00 	vldr	d18, [r2]
  103800:	ed5b0b0b 	vldr	d16, [fp, #-44]	; 0xffffffd4
  103804:	ee620ba0 	vmul.f64	d16, d18, d16
  103808:	ee710ba0 	vadd.f64	d16, d17, d16
  10380c:	edc30b00 	vstr	d16, [r3]
  103810:	e51b3008 	ldr	r3, [fp, #-8]
  103814:	e2833001 	add	r3, r3, #1
  103818:	e50b3008 	str	r3, [fp, #-8]
  10381c:	e51b3008 	ldr	r3, [fp, #-8]
  103820:	e353001f 	cmp	r3, #31
  103824:	daffff4b 	ble	103558 <b_ukf+0x24c>
  103828:	e3a03000 	mov	r3, #0
  10382c:	e50b300c 	str	r3, [fp, #-12]
  103830:	ea000033 	b	103904 <b_ukf+0x5f8>
  103834:	e3a03000 	mov	r3, #0
  103838:	e50b3010 	str	r3, [fp, #-16]
  10383c:	ea00002a 	b	1038ec <b_ukf+0x5e0>
  103840:	e51b3010 	ldr	r3, [fp, #-16]
  103844:	e1a02283 	lsl	r2, r3, #5
  103848:	e51b300c 	ldr	r3, [fp, #-12]
  10384c:	e0823003 	add	r3, r2, r3
  103850:	e1a03183 	lsl	r3, r3, #3
  103854:	e24b2a12 	sub	r2, fp, #73728	; 0x12000
  103858:	e2422004 	sub	r2, r2, #4
  10385c:	e5122a58 	ldr	r2, [r2, #-2648]	; 0xfffff5a8
  103860:	e0823003 	add	r3, r2, r3
  103864:	e51b2010 	ldr	r2, [fp, #-16]
  103868:	e1a01282 	lsl	r1, r2, #5
  10386c:	e51b200c 	ldr	r2, [fp, #-12]
  103870:	e0812002 	add	r2, r1, r2
  103874:	e24b1a0a 	sub	r1, fp, #40960	; 0xa000
  103878:	e2411004 	sub	r1, r1, #4
  10387c:	e1a02182 	lsl	r2, r2, #3
  103880:	e0812002 	add	r2, r1, r2
  103884:	e2422f8a 	sub	r2, r2, #552	; 0x228
  103888:	edd21b00 	vldr	d17, [r2]
  10388c:	e24b2a12 	sub	r2, fp, #73728	; 0x12000
  103890:	e2422004 	sub	r2, r2, #4
  103894:	e2422d25 	sub	r2, r2, #2368	; 0x940
  103898:	e1a01002 	mov	r1, r2
  10389c:	e51b200c 	ldr	r2, [fp, #-12]
  1038a0:	e1a02182 	lsl	r2, r2, #3
  1038a4:	e0812002 	add	r2, r1, r2
  1038a8:	e2422008 	sub	r2, r2, #8
  1038ac:	edd22b00 	vldr	d18, [r2]
  1038b0:	e24b2a12 	sub	r2, fp, #73728	; 0x12000
  1038b4:	e2422004 	sub	r2, r2, #4
  1038b8:	e2422d29 	sub	r2, r2, #2624	; 0xa40
  1038bc:	e1a01002 	mov	r1, r2
  1038c0:	e51b2010 	ldr	r2, [fp, #-16]
  1038c4:	e1a02182 	lsl	r2, r2, #3
  1038c8:	e0812002 	add	r2, r1, r2
  1038cc:	e2422008 	sub	r2, r2, #8
  1038d0:	edd20b00 	vldr	d16, [r2]
  1038d4:	ee620ba0 	vmul.f64	d16, d18, d16
  1038d8:	ee710be0 	vsub.f64	d16, d17, d16
  1038dc:	edc30b00 	vstr	d16, [r3]
  1038e0:	e51b3010 	ldr	r3, [fp, #-16]
  1038e4:	e2833001 	add	r3, r3, #1
  1038e8:	e50b3010 	str	r3, [fp, #-16]
  1038ec:	e51b3010 	ldr	r3, [fp, #-16]
  1038f0:	e353001f 	cmp	r3, #31
  1038f4:	daffffd1 	ble	103840 <b_ukf+0x534>
  1038f8:	e51b300c 	ldr	r3, [fp, #-12]
  1038fc:	e2833001 	add	r3, r3, #1
  103900:	e50b300c 	str	r3, [fp, #-12]
  103904:	e51b300c 	ldr	r3, [fp, #-12]
  103908:	e353001f 	cmp	r3, #31
  10390c:	daffffc8 	ble	103834 <b_ukf+0x528>
  103910:	e24b3b4a 	sub	r3, fp, #75776	; 0x12800
  103914:	e2433004 	sub	r3, r3, #4
  103918:	e2433e25 	sub	r3, r3, #592	; 0x250
  10391c:	e1a00003 	mov	r0, r3
  103920:	ebfffaa2 	bl	1023b0 <pmu_counter_read_ns>
  103924:	e24b3b4a 	sub	r3, fp, #75776	; 0x12800
  103928:	e2433004 	sub	r3, r3, #4
  10392c:	e2433e25 	sub	r3, r3, #592	; 0x250
  103930:	e1c320d0 	ldrd	r2, [r3]
  103934:	e3010680 	movw	r0, #5760	; 0x1680
  103938:	e3400011 	movt	r0, #17
  10393c:	eb001402 	bl	10894c <printf>
  103940:	e320f000 	nop	{0}
  103944:	e24bd004 	sub	sp, fp, #4
  103948:	e8bd8800 	pop	{fp, pc}

0010394c <ukf>:
  10394c:	e92d4800 	push	{fp, lr}
  103950:	e28db004 	add	fp, sp, #4
  103954:	e24ddb4a 	sub	sp, sp, #75776	; 0x12800
  103958:	e24ddf9a 	sub	sp, sp, #616	; 0x268
  10395c:	e24bca12 	sub	ip, fp, #73728	; 0x12000
  103960:	e24cc004 	sub	ip, ip, #4
  103964:	e50c0a44 	str	r0, [ip, #-2628]	; 0xfffff5bc
  103968:	e24b0a12 	sub	r0, fp, #73728	; 0x12000
  10396c:	e2400004 	sub	r0, r0, #4
  103970:	e5001a48 	str	r1, [r0, #-2632]	; 0xfffff5b8
  103974:	e24b1b4a 	sub	r1, fp, #75776	; 0x12800
  103978:	e2411004 	sub	r1, r1, #4
  10397c:	e2411e25 	sub	r1, r1, #592	; 0x250
  103980:	e1c120f0 	strd	r2, [r1]
  103984:	e24b3c41 	sub	r3, fp, #16640	; 0x4100
  103988:	e2433004 	sub	r3, r3, #4
  10398c:	e2433020 	sub	r3, r3, #32
  103990:	e24b2a12 	sub	r2, fp, #73728	; 0x12000
  103994:	e2422004 	sub	r2, r2, #4
  103998:	e1a01002 	mov	r1, r2
  10399c:	e24b2a12 	sub	r2, fp, #73728	; 0x12000
  1039a0:	e2422004 	sub	r2, r2, #4
  1039a4:	e1a00002 	mov	r0, r2
  1039a8:	e1a02003 	mov	r2, r3
  1039ac:	e5111a48 	ldr	r1, [r1, #-2632]	; 0xfffff5b8
  1039b0:	e5100a44 	ldr	r0, [r0, #-2628]	; 0xfffff5bc
  1039b4:	ebfffce7 	bl	102d58 <b_sigmas>
  1039b8:	e24b0c41 	sub	r0, fp, #16640	; 0x4100
  1039bc:	e2400004 	sub	r0, r0, #4
  1039c0:	e2400020 	sub	r0, r0, #32
  1039c4:	e24b3ce3 	sub	r3, fp, #58112	; 0xe300
  1039c8:	e2433004 	sub	r3, r3, #4
  1039cc:	e2433020 	sub	r3, r3, #32
  1039d0:	e58d300c 	str	r3, [sp, #12]
  1039d4:	e24b3ca2 	sub	r3, fp, #41472	; 0xa200
  1039d8:	e2433004 	sub	r3, r3, #4
  1039dc:	e2433020 	sub	r3, r3, #32
  1039e0:	e58d3008 	str	r3, [sp, #8]
  1039e4:	e24b3c82 	sub	r3, fp, #33280	; 0x8200
  1039e8:	e2433004 	sub	r3, r3, #4
  1039ec:	e2433020 	sub	r3, r3, #32
  1039f0:	e58d3004 	str	r3, [sp, #4]
  1039f4:	e24b3a12 	sub	r3, fp, #73728	; 0x12000
  1039f8:	e2433004 	sub	r3, r3, #4
  1039fc:	e5133a44 	ldr	r3, [r3, #-2628]	; 0xfffff5bc
  103a00:	e58d3000 	str	r3, [sp]
  103a04:	e59b3004 	ldr	r3, [fp, #4]
  103a08:	e30c20e8 	movw	r2, #49384	; 0xc0e8
  103a0c:	e3402011 	movt	r2, #17
  103a10:	e30b1ee0 	movw	r1, #48864	; 0xbee0
  103a14:	e3401011 	movt	r1, #17
  103a18:	eb000112 	bl	103e68 <b_ut>
  103a1c:	e24b0c82 	sub	r0, fp, #33280	; 0x8200
  103a20:	e2400004 	sub	r0, r0, #4
  103a24:	e2400020 	sub	r0, r0, #32
  103a28:	e24b3ce7 	sub	r3, fp, #59136	; 0xe700
  103a2c:	e2433004 	sub	r3, r3, #4
  103a30:	e2433040 	sub	r3, r3, #64	; 0x40
  103a34:	e58d3014 	str	r3, [sp, #20]
  103a38:	e24b3ce5 	sub	r3, fp, #58624	; 0xe500
  103a3c:	e2433004 	sub	r3, r3, #4
  103a40:	e2433038 	sub	r3, r3, #56	; 0x38
  103a44:	e58d3010 	str	r3, [sp, #16]
  103a48:	e24b3ce5 	sub	r3, fp, #58624	; 0xe500
  103a4c:	e2433004 	sub	r3, r3, #4
  103a50:	e2433030 	sub	r3, r3, #48	; 0x30
  103a54:	e58d300c 	str	r3, [sp, #12]
  103a58:	e24b3ce3 	sub	r3, fp, #58112	; 0xe300
  103a5c:	e2433004 	sub	r3, r3, #4
  103a60:	e2433028 	sub	r3, r3, #40	; 0x28
  103a64:	e58d3008 	str	r3, [sp, #8]
  103a68:	e1cb20dc 	ldrd	r2, [fp, #12]
  103a6c:	e1cd20f0 	strd	r2, [sp]
  103a70:	e30c20e8 	movw	r2, #49384	; 0xc0e8
  103a74:	e3402011 	movt	r2, #17
  103a78:	e30b1ee0 	movw	r1, #48864	; 0xbee0
  103a7c:	e3401011 	movt	r1, #17
  103a80:	eb000226 	bl	104320 <c_ut>
  103a84:	e24b3ce5 	sub	r3, fp, #58624	; 0xe500
  103a88:	e2433004 	sub	r3, r3, #4
  103a8c:	e2433030 	sub	r3, r3, #48	; 0x30
  103a90:	e14320d8 	ldrd	r2, [r3, #-8]
  103a94:	e1a00002 	mov	r0, r2
  103a98:	e1a01003 	mov	r1, r3
  103a9c:	eb000d86 	bl	1070bc <inv>
  103aa0:	e14b01fc 	strd	r0, [fp, #-28]	; 0xffffffe4
  103aa4:	e24b3ce3 	sub	r3, fp, #58112	; 0xe300
  103aa8:	e2433004 	sub	r3, r3, #4
  103aac:	e2433020 	sub	r3, r3, #32
  103ab0:	ed530b02 	vldr	d16, [r3, #-8]
  103ab4:	e24b3b4a 	sub	r3, fp, #75776	; 0x12800
  103ab8:	e2433004 	sub	r3, r3, #4
  103abc:	e2433e25 	sub	r3, r3, #592	; 0x250
  103ac0:	edd31b00 	vldr	d17, [r3]
  103ac4:	ee710be0 	vsub.f64	d16, d17, d16
  103ac8:	ed4b0b09 	vstr	d16, [fp, #-36]	; 0xffffffdc
  103acc:	e3a03000 	mov	r3, #0
  103ad0:	e50b3008 	str	r3, [fp, #-8]
  103ad4:	ea0000a5 	b	103d70 <ukf+0x424>
  103ad8:	e24b3a12 	sub	r3, fp, #73728	; 0x12000
  103adc:	e2433004 	sub	r3, r3, #4
  103ae0:	e2433d29 	sub	r3, r3, #2624	; 0xa40
  103ae4:	e1a02003 	mov	r2, r3
  103ae8:	e51b3008 	ldr	r3, [fp, #-8]
  103aec:	e1a03183 	lsl	r3, r3, #3
  103af0:	e0821003 	add	r1, r2, r3
  103af4:	e3a02000 	mov	r2, #0
  103af8:	e3a03000 	mov	r3, #0
  103afc:	e1c120f0 	strd	r2, [r1]
  103b00:	e3a03000 	mov	r3, #0
  103b04:	e50b300c 	str	r3, [fp, #-12]
  103b08:	ea000067 	b	103cac <ukf+0x360>
  103b0c:	e51b300c 	ldr	r3, [fp, #-12]
  103b10:	e1a02283 	lsl	r2, r3, #5
  103b14:	e51b3008 	ldr	r3, [fp, #-8]
  103b18:	e0823003 	add	r3, r2, r3
  103b1c:	e24b2a12 	sub	r2, fp, #73728	; 0x12000
  103b20:	e2422004 	sub	r2, r2, #4
  103b24:	e2422d21 	sub	r2, r2, #2112	; 0x840
  103b28:	e1a03183 	lsl	r3, r3, #3
  103b2c:	e0821003 	add	r1, r2, r3
  103b30:	e3a02000 	mov	r2, #0
  103b34:	e3a03000 	mov	r3, #0
  103b38:	e1c120f0 	strd	r2, [r1]
  103b3c:	e3a03000 	mov	r3, #0
  103b40:	e50b3010 	str	r3, [fp, #-16]
  103b44:	ea00002e 	b	103c04 <ukf+0x2b8>
  103b48:	e51b300c 	ldr	r3, [fp, #-12]
  103b4c:	e1a02283 	lsl	r2, r3, #5
  103b50:	e51b3008 	ldr	r3, [fp, #-8]
  103b54:	e0821003 	add	r1, r2, r3
  103b58:	e51b300c 	ldr	r3, [fp, #-12]
  103b5c:	e1a02283 	lsl	r2, r3, #5
  103b60:	e51b3008 	ldr	r3, [fp, #-8]
  103b64:	e0823003 	add	r3, r2, r3
  103b68:	e24b2a12 	sub	r2, fp, #73728	; 0x12000
  103b6c:	e2422004 	sub	r2, r2, #4
  103b70:	e2422d21 	sub	r2, r2, #2112	; 0x840
  103b74:	e1a03183 	lsl	r3, r3, #3
  103b78:	e0823003 	add	r3, r2, r3
  103b7c:	edd31b00 	vldr	d17, [r3]
  103b80:	e51b3010 	ldr	r3, [fp, #-16]
  103b84:	e1a02283 	lsl	r2, r3, #5
  103b88:	e51b3008 	ldr	r3, [fp, #-8]
  103b8c:	e0823003 	add	r3, r2, r3
  103b90:	e24b2a0e 	sub	r2, fp, #57344	; 0xe000
  103b94:	e2422004 	sub	r2, r2, #4
  103b98:	e1a03183 	lsl	r3, r3, #3
  103b9c:	e0823003 	add	r3, r2, r3
  103ba0:	e2433e32 	sub	r3, r3, #800	; 0x320
  103ba4:	edd32b00 	vldr	d18, [r3]
  103ba8:	e51b200c 	ldr	r2, [fp, #-12]
  103bac:	e1a03002 	mov	r3, r2
  103bb0:	e1a03303 	lsl	r3, r3, #6
  103bb4:	e0832002 	add	r2, r3, r2
  103bb8:	e51b3010 	ldr	r3, [fp, #-16]
  103bbc:	e0822003 	add	r2, r2, r3
  103bc0:	e30c32f0 	movw	r3, #49904	; 0xc2f0
  103bc4:	e3403011 	movt	r3, #17
  103bc8:	e1a02182 	lsl	r2, r2, #3
  103bcc:	e0833002 	add	r3, r3, r2
  103bd0:	edd30b00 	vldr	d16, [r3]
  103bd4:	ee620ba0 	vmul.f64	d16, d18, d16
  103bd8:	ee710ba0 	vadd.f64	d16, d17, d16
  103bdc:	e24b3a12 	sub	r3, fp, #73728	; 0x12000
  103be0:	e2433004 	sub	r3, r3, #4
  103be4:	e2433d21 	sub	r3, r3, #2112	; 0x840
  103be8:	e1a02003 	mov	r2, r3
  103bec:	e1a03181 	lsl	r3, r1, #3
  103bf0:	e0823003 	add	r3, r2, r3
  103bf4:	edc30b00 	vstr	d16, [r3]
  103bf8:	e51b3010 	ldr	r3, [fp, #-16]
  103bfc:	e2833001 	add	r3, r3, #1
  103c00:	e50b3010 	str	r3, [fp, #-16]
  103c04:	e51b3010 	ldr	r3, [fp, #-16]
  103c08:	e3530040 	cmp	r3, #64	; 0x40
  103c0c:	daffffcd 	ble	103b48 <ukf+0x1fc>
  103c10:	e24b3a12 	sub	r3, fp, #73728	; 0x12000
  103c14:	e2433004 	sub	r3, r3, #4
  103c18:	e2433d29 	sub	r3, r3, #2624	; 0xa40
  103c1c:	e1a02003 	mov	r2, r3
  103c20:	e51b3008 	ldr	r3, [fp, #-8]
  103c24:	e1a03183 	lsl	r3, r3, #3
  103c28:	e0823003 	add	r3, r2, r3
  103c2c:	edd31b00 	vldr	d17, [r3]
  103c30:	e51b300c 	ldr	r3, [fp, #-12]
  103c34:	e1a02283 	lsl	r2, r3, #5
  103c38:	e51b3008 	ldr	r3, [fp, #-8]
  103c3c:	e0823003 	add	r3, r2, r3
  103c40:	e24b2a12 	sub	r2, fp, #73728	; 0x12000
  103c44:	e2422004 	sub	r2, r2, #4
  103c48:	e2422d21 	sub	r2, r2, #2112	; 0x840
  103c4c:	e1a03183 	lsl	r3, r3, #3
  103c50:	e0823003 	add	r3, r2, r3
  103c54:	edd32b00 	vldr	d18, [r3]
  103c58:	e24b3a0e 	sub	r3, fp, #57344	; 0xe000
  103c5c:	e2433004 	sub	r3, r3, #4
  103c60:	e2433d1d 	sub	r3, r3, #1856	; 0x740
  103c64:	e1a02003 	mov	r2, r3
  103c68:	e51b300c 	ldr	r3, [fp, #-12]
  103c6c:	e1a03183 	lsl	r3, r3, #3
  103c70:	e0823003 	add	r3, r2, r3
  103c74:	edd30b00 	vldr	d16, [r3]
  103c78:	ee620ba0 	vmul.f64	d16, d18, d16
  103c7c:	ee710ba0 	vadd.f64	d16, d17, d16
  103c80:	e24b3a12 	sub	r3, fp, #73728	; 0x12000
  103c84:	e2433004 	sub	r3, r3, #4
  103c88:	e2433d29 	sub	r3, r3, #2624	; 0xa40
  103c8c:	e1a02003 	mov	r2, r3
  103c90:	e51b3008 	ldr	r3, [fp, #-8]
  103c94:	e1a03183 	lsl	r3, r3, #3
  103c98:	e0823003 	add	r3, r2, r3
  103c9c:	edc30b00 	vstr	d16, [r3]
  103ca0:	e51b300c 	ldr	r3, [fp, #-12]
  103ca4:	e2833001 	add	r3, r3, #1
  103ca8:	e50b300c 	str	r3, [fp, #-12]
  103cac:	e51b300c 	ldr	r3, [fp, #-12]
  103cb0:	e3530040 	cmp	r3, #64	; 0x40
  103cb4:	daffff94 	ble	103b0c <ukf+0x1c0>
  103cb8:	e24b3a12 	sub	r3, fp, #73728	; 0x12000
  103cbc:	e2433004 	sub	r3, r3, #4
  103cc0:	e2433d29 	sub	r3, r3, #2624	; 0xa40
  103cc4:	e1a02003 	mov	r2, r3
  103cc8:	e51b3008 	ldr	r3, [fp, #-8]
  103ccc:	e1a03183 	lsl	r3, r3, #3
  103cd0:	e0823003 	add	r3, r2, r3
  103cd4:	edd31b00 	vldr	d17, [r3]
  103cd8:	ed5b0b07 	vldr	d16, [fp, #-28]	; 0xffffffe4
  103cdc:	ee610ba0 	vmul.f64	d16, d17, d16
  103ce0:	e24b3a12 	sub	r3, fp, #73728	; 0x12000
  103ce4:	e2433004 	sub	r3, r3, #4
  103ce8:	e2433d25 	sub	r3, r3, #2368	; 0x940
  103cec:	e1a02003 	mov	r2, r3
  103cf0:	e51b3008 	ldr	r3, [fp, #-8]
  103cf4:	e1a03183 	lsl	r3, r3, #3
  103cf8:	e0823003 	add	r3, r2, r3
  103cfc:	edc30b00 	vstr	d16, [r3]
  103d00:	e51b3008 	ldr	r3, [fp, #-8]
  103d04:	e1a03183 	lsl	r3, r3, #3
  103d08:	e24b2a12 	sub	r2, fp, #73728	; 0x12000
  103d0c:	e2422004 	sub	r2, r2, #4
  103d10:	e5122a44 	ldr	r2, [r2, #-2628]	; 0xfffff5bc
  103d14:	e0823003 	add	r3, r2, r3
  103d18:	e51b2008 	ldr	r2, [fp, #-8]
  103d1c:	e1a02182 	lsl	r2, r2, #3
  103d20:	e24b1a12 	sub	r1, fp, #73728	; 0x12000
  103d24:	e2411004 	sub	r1, r1, #4
  103d28:	e5111a44 	ldr	r1, [r1, #-2628]	; 0xfffff5bc
  103d2c:	e0812002 	add	r2, r1, r2
  103d30:	edd21b00 	vldr	d17, [r2]
  103d34:	e24b2a12 	sub	r2, fp, #73728	; 0x12000
  103d38:	e2422004 	sub	r2, r2, #4
  103d3c:	e2422d25 	sub	r2, r2, #2368	; 0x940
  103d40:	e1a01002 	mov	r1, r2
  103d44:	e51b2008 	ldr	r2, [fp, #-8]
  103d48:	e1a02182 	lsl	r2, r2, #3
  103d4c:	e0812002 	add	r2, r1, r2
  103d50:	edd22b00 	vldr	d18, [r2]
  103d54:	ed5b0b09 	vldr	d16, [fp, #-36]	; 0xffffffdc
  103d58:	ee620ba0 	vmul.f64	d16, d18, d16
  103d5c:	ee710ba0 	vadd.f64	d16, d17, d16
  103d60:	edc30b00 	vstr	d16, [r3]
  103d64:	e51b3008 	ldr	r3, [fp, #-8]
  103d68:	e2833001 	add	r3, r3, #1
  103d6c:	e50b3008 	str	r3, [fp, #-8]
  103d70:	e51b3008 	ldr	r3, [fp, #-8]
  103d74:	e353001f 	cmp	r3, #31
  103d78:	daffff56 	ble	103ad8 <ukf+0x18c>
  103d7c:	e3a03000 	mov	r3, #0
  103d80:	e50b300c 	str	r3, [fp, #-12]
  103d84:	ea000031 	b	103e50 <ukf+0x504>
  103d88:	e3a03000 	mov	r3, #0
  103d8c:	e50b3010 	str	r3, [fp, #-16]
  103d90:	ea000028 	b	103e38 <ukf+0x4ec>
  103d94:	e51b3010 	ldr	r3, [fp, #-16]
  103d98:	e1a02283 	lsl	r2, r3, #5
  103d9c:	e51b300c 	ldr	r3, [fp, #-12]
  103da0:	e0823003 	add	r3, r2, r3
  103da4:	e1a03183 	lsl	r3, r3, #3
  103da8:	e24b2a12 	sub	r2, fp, #73728	; 0x12000
  103dac:	e2422004 	sub	r2, r2, #4
  103db0:	e5122a48 	ldr	r2, [r2, #-2632]	; 0xfffff5b8
  103db4:	e0823003 	add	r3, r2, r3
  103db8:	e51b2010 	ldr	r2, [fp, #-16]
  103dbc:	e1a01282 	lsl	r1, r2, #5
  103dc0:	e51b200c 	ldr	r2, [fp, #-12]
  103dc4:	e0812002 	add	r2, r1, r2
  103dc8:	e24b1a0a 	sub	r1, fp, #40960	; 0xa000
  103dcc:	e2411004 	sub	r1, r1, #4
  103dd0:	e1a02182 	lsl	r2, r2, #3
  103dd4:	e0812002 	add	r2, r1, r2
  103dd8:	e2422e22 	sub	r2, r2, #544	; 0x220
  103ddc:	edd21b00 	vldr	d17, [r2]
  103de0:	e24b2a12 	sub	r2, fp, #73728	; 0x12000
  103de4:	e2422004 	sub	r2, r2, #4
  103de8:	e2422d25 	sub	r2, r2, #2368	; 0x940
  103dec:	e1a01002 	mov	r1, r2
  103df0:	e51b200c 	ldr	r2, [fp, #-12]
  103df4:	e1a02182 	lsl	r2, r2, #3
  103df8:	e0812002 	add	r2, r1, r2
  103dfc:	edd22b00 	vldr	d18, [r2]
  103e00:	e24b2a12 	sub	r2, fp, #73728	; 0x12000
  103e04:	e2422004 	sub	r2, r2, #4
  103e08:	e2422d29 	sub	r2, r2, #2624	; 0xa40
  103e0c:	e1a01002 	mov	r1, r2
  103e10:	e51b2010 	ldr	r2, [fp, #-16]
  103e14:	e1a02182 	lsl	r2, r2, #3
  103e18:	e0812002 	add	r2, r1, r2
  103e1c:	edd20b00 	vldr	d16, [r2]
  103e20:	ee620ba0 	vmul.f64	d16, d18, d16
  103e24:	ee710be0 	vsub.f64	d16, d17, d16
  103e28:	edc30b00 	vstr	d16, [r3]
  103e2c:	e51b3010 	ldr	r3, [fp, #-16]
  103e30:	e2833001 	add	r3, r3, #1
  103e34:	e50b3010 	str	r3, [fp, #-16]
  103e38:	e51b3010 	ldr	r3, [fp, #-16]
  103e3c:	e353001f 	cmp	r3, #31
  103e40:	daffffd3 	ble	103d94 <ukf+0x448>
  103e44:	e51b300c 	ldr	r3, [fp, #-12]
  103e48:	e2833001 	add	r3, r3, #1
  103e4c:	e50b300c 	str	r3, [fp, #-12]
  103e50:	e51b300c 	ldr	r3, [fp, #-12]
  103e54:	e353001f 	cmp	r3, #31
  103e58:	daffffca 	ble	103d88 <ukf+0x43c>
  103e5c:	e320f000 	nop	{0}
  103e60:	e24bd004 	sub	sp, fp, #4
  103e64:	e8bd8800 	pop	{fp, pc}

00103e68 <b_ut>:
  103e68:	e92d4800 	push	{fp, lr}
  103e6c:	e28db004 	add	fp, sp, #4
  103e70:	e24ddcc5 	sub	sp, sp, #50432	; 0xc500
  103e74:	e24dd030 	sub	sp, sp, #48	; 0x30
  103e78:	e24bc903 	sub	ip, fp, #49152	; 0xc000
  103e7c:	e24cc004 	sub	ip, ip, #4
  103e80:	e50c0524 	str	r0, [ip, #-1316]	; 0xfffffadc
  103e84:	e24b0903 	sub	r0, fp, #49152	; 0xc000
  103e88:	e2400004 	sub	r0, r0, #4
  103e8c:	e5001528 	str	r1, [r0, #-1320]	; 0xfffffad8
  103e90:	e24b1903 	sub	r1, fp, #49152	; 0xc000
  103e94:	e2411004 	sub	r1, r1, #4
  103e98:	e501252c 	str	r2, [r1, #-1324]	; 0xfffffad4
  103e9c:	e24b2903 	sub	r2, fp, #49152	; 0xc000
  103ea0:	e2422004 	sub	r2, r2, #4
  103ea4:	e5023530 	str	r3, [r2, #-1328]	; 0xfffffad0
  103ea8:	e3a02c01 	mov	r2, #256	; 0x100
  103eac:	e3a01000 	mov	r1, #0
  103eb0:	e59b0004 	ldr	r0, [fp, #4]
  103eb4:	eb00124a 	bl	1087e4 <memset>
  103eb8:	e3a03000 	mov	r3, #0
  103ebc:	e50b3008 	str	r3, [fp, #-8]
  103ec0:	ea000034 	b	103f98 <b_ut+0x130>
  103ec4:	e51b3008 	ldr	r3, [fp, #-8]
  103ec8:	e1a03283 	lsl	r3, r3, #5
  103ecc:	e1a03183 	lsl	r3, r3, #3
  103ed0:	e24b2903 	sub	r2, fp, #49152	; 0xc000
  103ed4:	e2422004 	sub	r2, r2, #4
  103ed8:	e5122524 	ldr	r2, [r2, #-1316]	; 0xfffffadc
  103edc:	e0820003 	add	r0, r2, r3
  103ee0:	e51b3008 	ldr	r3, [fp, #-8]
  103ee4:	e1a03283 	lsl	r3, r3, #5
  103ee8:	e1a03183 	lsl	r3, r3, #3
  103eec:	e59b2008 	ldr	r2, [fp, #8]
  103ef0:	e0823003 	add	r3, r2, r3
  103ef4:	e1a01003 	mov	r1, r3
  103ef8:	ebfffac7 	bl	102a1c <nonlinear_state_eq>
  103efc:	e3a03000 	mov	r3, #0
  103f00:	e50b300c 	str	r3, [fp, #-12]
  103f04:	ea00001d 	b	103f80 <b_ut+0x118>
  103f08:	e51b300c 	ldr	r3, [fp, #-12]
  103f0c:	e1a03183 	lsl	r3, r3, #3
  103f10:	e59b2004 	ldr	r2, [fp, #4]
  103f14:	e0823003 	add	r3, r2, r3
  103f18:	e51b200c 	ldr	r2, [fp, #-12]
  103f1c:	e1a02182 	lsl	r2, r2, #3
  103f20:	e59b1004 	ldr	r1, [fp, #4]
  103f24:	e0812002 	add	r2, r1, r2
  103f28:	edd21b00 	vldr	d17, [r2]
  103f2c:	e51b2008 	ldr	r2, [fp, #-8]
  103f30:	e1a02182 	lsl	r2, r2, #3
  103f34:	e24b1903 	sub	r1, fp, #49152	; 0xc000
  103f38:	e2411004 	sub	r1, r1, #4
  103f3c:	e5111528 	ldr	r1, [r1, #-1320]	; 0xfffffad8
  103f40:	e0812002 	add	r2, r1, r2
  103f44:	edd22b00 	vldr	d18, [r2]
  103f48:	e51b2008 	ldr	r2, [fp, #-8]
  103f4c:	e1a01282 	lsl	r1, r2, #5
  103f50:	e51b200c 	ldr	r2, [fp, #-12]
  103f54:	e0812002 	add	r2, r1, r2
  103f58:	e1a02182 	lsl	r2, r2, #3
  103f5c:	e59b1008 	ldr	r1, [fp, #8]
  103f60:	e0812002 	add	r2, r1, r2
  103f64:	edd20b00 	vldr	d16, [r2]
  103f68:	ee620ba0 	vmul.f64	d16, d18, d16
  103f6c:	ee710ba0 	vadd.f64	d16, d17, d16
  103f70:	edc30b00 	vstr	d16, [r3]
  103f74:	e51b300c 	ldr	r3, [fp, #-12]
  103f78:	e2833001 	add	r3, r3, #1
  103f7c:	e50b300c 	str	r3, [fp, #-12]
  103f80:	e51b300c 	ldr	r3, [fp, #-12]
  103f84:	e353001f 	cmp	r3, #31
  103f88:	daffffde 	ble	103f08 <b_ut+0xa0>
  103f8c:	e51b3008 	ldr	r3, [fp, #-8]
  103f90:	e2833001 	add	r3, r3, #1
  103f94:	e50b3008 	str	r3, [fp, #-8]
  103f98:	e51b3008 	ldr	r3, [fp, #-8]
  103f9c:	e3530040 	cmp	r3, #64	; 0x40
  103fa0:	daffffc7 	ble	103ec4 <b_ut+0x5c>
  103fa4:	e3a03000 	mov	r3, #0
  103fa8:	e50b300c 	str	r3, [fp, #-12]
  103fac:	ea000021 	b	104038 <b_ut+0x1d0>
  103fb0:	e3a03000 	mov	r3, #0
  103fb4:	e50b3010 	str	r3, [fp, #-16]
  103fb8:	ea000018 	b	104020 <b_ut+0x1b8>
  103fbc:	e51b300c 	ldr	r3, [fp, #-12]
  103fc0:	e1a02283 	lsl	r2, r3, #5
  103fc4:	e51b3010 	ldr	r3, [fp, #-16]
  103fc8:	e0823003 	add	r3, r2, r3
  103fcc:	e1a03183 	lsl	r3, r3, #3
  103fd0:	e59b2010 	ldr	r2, [fp, #16]
  103fd4:	e0823003 	add	r3, r2, r3
  103fd8:	e51b200c 	ldr	r2, [fp, #-12]
  103fdc:	e1a01282 	lsl	r1, r2, #5
  103fe0:	e51b2010 	ldr	r2, [fp, #-16]
  103fe4:	e0812002 	add	r2, r1, r2
  103fe8:	e1a02182 	lsl	r2, r2, #3
  103fec:	e59b1008 	ldr	r1, [fp, #8]
  103ff0:	e0812002 	add	r2, r1, r2
  103ff4:	edd21b00 	vldr	d17, [r2]
  103ff8:	e51b2010 	ldr	r2, [fp, #-16]
  103ffc:	e1a02182 	lsl	r2, r2, #3
  104000:	e59b1004 	ldr	r1, [fp, #4]
  104004:	e0812002 	add	r2, r1, r2
  104008:	edd20b00 	vldr	d16, [r2]
  10400c:	ee710be0 	vsub.f64	d16, d17, d16
  104010:	edc30b00 	vstr	d16, [r3]
  104014:	e51b3010 	ldr	r3, [fp, #-16]
  104018:	e2833001 	add	r3, r3, #1
  10401c:	e50b3010 	str	r3, [fp, #-16]
  104020:	e51b3010 	ldr	r3, [fp, #-16]
  104024:	e353001f 	cmp	r3, #31
  104028:	daffffe3 	ble	103fbc <b_ut+0x154>
  10402c:	e51b300c 	ldr	r3, [fp, #-12]
  104030:	e2833001 	add	r3, r3, #1
  104034:	e50b300c 	str	r3, [fp, #-12]
  104038:	e51b300c 	ldr	r3, [fp, #-12]
  10403c:	e3530040 	cmp	r3, #64	; 0x40
  104040:	daffffda 	ble	103fb0 <b_ut+0x148>
  104044:	e24b3b21 	sub	r3, fp, #33792	; 0x8400
  104048:	e2433004 	sub	r3, r3, #4
  10404c:	e2433020 	sub	r3, r3, #32
  104050:	e3082408 	movw	r2, #33800	; 0x8408
  104054:	e3a01000 	mov	r1, #0
  104058:	e1a00003 	mov	r0, r3
  10405c:	eb0011e0 	bl	1087e4 <memset>
  104060:	e3a03000 	mov	r3, #0
  104064:	e50b3010 	str	r3, [fp, #-16]
  104068:	ea000015 	b	1040c4 <b_ut+0x25c>
  10406c:	e51b2010 	ldr	r2, [fp, #-16]
  104070:	e1a03002 	mov	r3, r2
  104074:	e1a03283 	lsl	r3, r3, #5
  104078:	e0833002 	add	r3, r3, r2
  10407c:	e1a03083 	lsl	r3, r3, #1
  104080:	e1a01003 	mov	r1, r3
  104084:	e51b3010 	ldr	r3, [fp, #-16]
  104088:	e1a03183 	lsl	r3, r3, #3
  10408c:	e24b2903 	sub	r2, fp, #49152	; 0xc000
  104090:	e2422004 	sub	r2, r2, #4
  104094:	e512252c 	ldr	r2, [r2, #-1324]	; 0xfffffad4
  104098:	e0823003 	add	r3, r2, r3
  10409c:	e1c320d0 	ldrd	r2, [r3]
  1040a0:	e24b0902 	sub	r0, fp, #32768	; 0x8000
  1040a4:	e2400004 	sub	r0, r0, #4
  1040a8:	e2400e42 	sub	r0, r0, #1056	; 0x420
  1040ac:	e1a01181 	lsl	r1, r1, #3
  1040b0:	e0801001 	add	r1, r0, r1
  1040b4:	e1c120f0 	strd	r2, [r1]
  1040b8:	e51b3010 	ldr	r3, [fp, #-16]
  1040bc:	e2833001 	add	r3, r3, #1
  1040c0:	e50b3010 	str	r3, [fp, #-16]
  1040c4:	e51b3010 	ldr	r3, [fp, #-16]
  1040c8:	e3530040 	cmp	r3, #64	; 0x40
  1040cc:	daffffe6 	ble	10406c <b_ut+0x204>
  1040d0:	e3a03000 	mov	r3, #0
  1040d4:	e50b300c 	str	r3, [fp, #-12]
  1040d8:	ea00008a 	b	104308 <b_ut+0x4a0>
  1040dc:	e3a03000 	mov	r3, #0
  1040e0:	e50b3010 	str	r3, [fp, #-16]
  1040e4:	ea000042 	b	1041f4 <b_ut+0x38c>
  1040e8:	e51b3010 	ldr	r3, [fp, #-16]
  1040ec:	e1a02283 	lsl	r2, r3, #5
  1040f0:	e51b300c 	ldr	r3, [fp, #-12]
  1040f4:	e0823003 	add	r3, r2, r3
  1040f8:	e24b2903 	sub	r2, fp, #49152	; 0xc000
  1040fc:	e2422004 	sub	r2, r2, #4
  104100:	e2422e52 	sub	r2, r2, #1312	; 0x520
  104104:	e1a03183 	lsl	r3, r3, #3
  104108:	e0821003 	add	r1, r2, r3
  10410c:	e3a02000 	mov	r2, #0
  104110:	e3a03000 	mov	r3, #0
  104114:	e1c120f0 	strd	r2, [r1]
  104118:	e3a03000 	mov	r3, #0
  10411c:	e50b3014 	str	r3, [fp, #-20]	; 0xffffffec
  104120:	ea00002d 	b	1041dc <b_ut+0x374>
  104124:	e51b3010 	ldr	r3, [fp, #-16]
  104128:	e1a02283 	lsl	r2, r3, #5
  10412c:	e51b300c 	ldr	r3, [fp, #-12]
  104130:	e0821003 	add	r1, r2, r3
  104134:	e51b3010 	ldr	r3, [fp, #-16]
  104138:	e1a02283 	lsl	r2, r3, #5
  10413c:	e51b300c 	ldr	r3, [fp, #-12]
  104140:	e0823003 	add	r3, r2, r3
  104144:	e24b2903 	sub	r2, fp, #49152	; 0xc000
  104148:	e2422004 	sub	r2, r2, #4
  10414c:	e2422e52 	sub	r2, r2, #1312	; 0x520
  104150:	e1a03183 	lsl	r3, r3, #3
  104154:	e0823003 	add	r3, r2, r3
  104158:	edd31b00 	vldr	d17, [r3]
  10415c:	e51b3014 	ldr	r3, [fp, #-20]	; 0xffffffec
  104160:	e1a02283 	lsl	r2, r3, #5
  104164:	e51b300c 	ldr	r3, [fp, #-12]
  104168:	e0823003 	add	r3, r2, r3
  10416c:	e1a03183 	lsl	r3, r3, #3
  104170:	e59b2010 	ldr	r2, [fp, #16]
  104174:	e0823003 	add	r3, r2, r3
  104178:	edd32b00 	vldr	d18, [r3]
  10417c:	e51b2010 	ldr	r2, [fp, #-16]
  104180:	e1a03002 	mov	r3, r2
  104184:	e1a03303 	lsl	r3, r3, #6
  104188:	e0832002 	add	r2, r3, r2
  10418c:	e51b3014 	ldr	r3, [fp, #-20]	; 0xffffffec
  104190:	e0823003 	add	r3, r2, r3
  104194:	e24b2902 	sub	r2, fp, #32768	; 0x8000
  104198:	e2422004 	sub	r2, r2, #4
  10419c:	e2422e42 	sub	r2, r2, #1056	; 0x420
  1041a0:	e1a03183 	lsl	r3, r3, #3
  1041a4:	e0823003 	add	r3, r2, r3
  1041a8:	edd30b00 	vldr	d16, [r3]
  1041ac:	ee620ba0 	vmul.f64	d16, d18, d16
  1041b0:	ee710ba0 	vadd.f64	d16, d17, d16
  1041b4:	e24b3903 	sub	r3, fp, #49152	; 0xc000
  1041b8:	e2433004 	sub	r3, r3, #4
  1041bc:	e2433e52 	sub	r3, r3, #1312	; 0x520
  1041c0:	e1a02003 	mov	r2, r3
  1041c4:	e1a03181 	lsl	r3, r1, #3
  1041c8:	e0823003 	add	r3, r2, r3
  1041cc:	edc30b00 	vstr	d16, [r3]
  1041d0:	e51b3014 	ldr	r3, [fp, #-20]	; 0xffffffec
  1041d4:	e2833001 	add	r3, r3, #1
  1041d8:	e50b3014 	str	r3, [fp, #-20]	; 0xffffffec
  1041dc:	e51b3014 	ldr	r3, [fp, #-20]	; 0xffffffec
  1041e0:	e3530040 	cmp	r3, #64	; 0x40
  1041e4:	daffffce 	ble	104124 <b_ut+0x2bc>
  1041e8:	e51b3010 	ldr	r3, [fp, #-16]
  1041ec:	e2833001 	add	r3, r3, #1
  1041f0:	e50b3010 	str	r3, [fp, #-16]
  1041f4:	e51b3010 	ldr	r3, [fp, #-16]
  1041f8:	e3530040 	cmp	r3, #64	; 0x40
  1041fc:	daffffb9 	ble	1040e8 <b_ut+0x280>
  104200:	e3a03000 	mov	r3, #0
  104204:	e50b3010 	str	r3, [fp, #-16]
  104208:	ea000038 	b	1042f0 <b_ut+0x488>
  10420c:	e3a02000 	mov	r2, #0
  104210:	e3a03000 	mov	r3, #0
  104214:	e14b21fc 	strd	r2, [fp, #-28]	; 0xffffffe4
  104218:	e3a03000 	mov	r3, #0
  10421c:	e50b3014 	str	r3, [fp, #-20]	; 0xffffffec
  104220:	ea000018 	b	104288 <b_ut+0x420>
  104224:	e51b3014 	ldr	r3, [fp, #-20]	; 0xffffffec
  104228:	e1a02283 	lsl	r2, r3, #5
  10422c:	e51b300c 	ldr	r3, [fp, #-12]
  104230:	e0823003 	add	r3, r2, r3
  104234:	e24b2903 	sub	r2, fp, #49152	; 0xc000
  104238:	e2422004 	sub	r2, r2, #4
  10423c:	e2422e52 	sub	r2, r2, #1312	; 0x520
  104240:	e1a03183 	lsl	r3, r3, #3
  104244:	e0823003 	add	r3, r2, r3
  104248:	edd31b00 	vldr	d17, [r3]
  10424c:	e51b3014 	ldr	r3, [fp, #-20]	; 0xffffffec
  104250:	e1a02283 	lsl	r2, r3, #5
  104254:	e51b3010 	ldr	r3, [fp, #-16]
  104258:	e0823003 	add	r3, r2, r3
  10425c:	e1a03183 	lsl	r3, r3, #3
  104260:	e59b2010 	ldr	r2, [fp, #16]
  104264:	e0823003 	add	r3, r2, r3
  104268:	edd30b00 	vldr	d16, [r3]
  10426c:	ee610ba0 	vmul.f64	d16, d17, d16
  104270:	ed5b1b07 	vldr	d17, [fp, #-28]	; 0xffffffe4
  104274:	ee710ba0 	vadd.f64	d16, d17, d16
  104278:	ed4b0b07 	vstr	d16, [fp, #-28]	; 0xffffffe4
  10427c:	e51b3014 	ldr	r3, [fp, #-20]	; 0xffffffec
  104280:	e2833001 	add	r3, r3, #1
  104284:	e50b3014 	str	r3, [fp, #-20]	; 0xffffffec
  104288:	e51b3014 	ldr	r3, [fp, #-20]	; 0xffffffec
  10428c:	e3530040 	cmp	r3, #64	; 0x40
  104290:	daffffe3 	ble	104224 <b_ut+0x3bc>
  104294:	e51b3010 	ldr	r3, [fp, #-16]
  104298:	e1a02283 	lsl	r2, r3, #5
  10429c:	e51b300c 	ldr	r3, [fp, #-12]
  1042a0:	e0823003 	add	r3, r2, r3
  1042a4:	e1a03183 	lsl	r3, r3, #3
  1042a8:	e59b200c 	ldr	r2, [fp, #12]
  1042ac:	e0823003 	add	r3, r2, r3
  1042b0:	e51b2010 	ldr	r2, [fp, #-16]
  1042b4:	e1a01282 	lsl	r1, r2, #5
  1042b8:	e51b200c 	ldr	r2, [fp, #-12]
  1042bc:	e0812002 	add	r2, r1, r2
  1042c0:	e1a02182 	lsl	r2, r2, #3
  1042c4:	e24b1903 	sub	r1, fp, #49152	; 0xc000
  1042c8:	e2411004 	sub	r1, r1, #4
  1042cc:	e5111530 	ldr	r1, [r1, #-1328]	; 0xfffffad0
  1042d0:	e0812002 	add	r2, r1, r2
  1042d4:	edd21b00 	vldr	d17, [r2]
  1042d8:	ed5b0b07 	vldr	d16, [fp, #-28]	; 0xffffffe4
  1042dc:	ee710ba0 	vadd.f64	d16, d17, d16
  1042e0:	edc30b00 	vstr	d16, [r3]
  1042e4:	e51b3010 	ldr	r3, [fp, #-16]
  1042e8:	e2833001 	add	r3, r3, #1
  1042ec:	e50b3010 	str	r3, [fp, #-16]
  1042f0:	e51b3010 	ldr	r3, [fp, #-16]
  1042f4:	e353001f 	cmp	r3, #31
  1042f8:	daffffc3 	ble	10420c <b_ut+0x3a4>
  1042fc:	e51b300c 	ldr	r3, [fp, #-12]
  104300:	e2833001 	add	r3, r3, #1
  104304:	e50b300c 	str	r3, [fp, #-12]
  104308:	e51b300c 	ldr	r3, [fp, #-12]
  10430c:	e353001f 	cmp	r3, #31
  104310:	daffff71 	ble	1040dc <b_ut+0x274>
  104314:	e320f000 	nop	{0}
  104318:	e24bd004 	sub	sp, fp, #4
  10431c:	e8bd8800 	pop	{fp, pc}

00104320 <c_ut>:
  104320:	e92d4800 	push	{fp, lr}
  104324:	e28db004 	add	fp, sp, #4
  104328:	e24ddc86 	sub	sp, sp, #34304	; 0x8600
  10432c:	e24dd040 	sub	sp, sp, #64	; 0x40
  104330:	e24b3902 	sub	r3, fp, #32768	; 0x8000
  104334:	e2433004 	sub	r3, r3, #4
  104338:	e5030634 	str	r0, [r3, #-1588]	; 0xfffff9cc
  10433c:	e24b3902 	sub	r3, fp, #32768	; 0x8000
  104340:	e2433004 	sub	r3, r3, #4
  104344:	e5031638 	str	r1, [r3, #-1592]	; 0xfffff9c8
  104348:	e24b3902 	sub	r3, fp, #32768	; 0x8000
  10434c:	e2433004 	sub	r3, r3, #4
  104350:	e503263c 	str	r2, [r3, #-1596]	; 0xfffff9c4
  104354:	e59b100c 	ldr	r1, [fp, #12]
  104358:	e3a02000 	mov	r2, #0
  10435c:	e3a03000 	mov	r3, #0
  104360:	e1c120f0 	strd	r2, [r1]
  104364:	e3a03000 	mov	r3, #0
  104368:	e50b3008 	str	r3, [fp, #-8]
  10436c:	ea000020 	b	1043f4 <c_ut+0xd4>
  104370:	e51b3008 	ldr	r3, [fp, #-8]
  104374:	e1a03283 	lsl	r3, r3, #5
  104378:	e1a03183 	lsl	r3, r3, #3
  10437c:	e24b2902 	sub	r2, fp, #32768	; 0x8000
  104380:	e2422004 	sub	r2, r2, #4
  104384:	e5122634 	ldr	r2, [r2, #-1588]	; 0xfffff9cc
  104388:	e0823003 	add	r3, r2, r3
  10438c:	e1a00003 	mov	r0, r3
  104390:	ebfff996 	bl	1029f0 <measurement_eq>
  104394:	e14b02f4 	strd	r0, [fp, #-36]	; 0xffffffdc
  104398:	e59b300c 	ldr	r3, [fp, #12]
  10439c:	edd31b00 	vldr	d17, [r3]
  1043a0:	e51b3008 	ldr	r3, [fp, #-8]
  1043a4:	e1a03183 	lsl	r3, r3, #3
  1043a8:	e24b2902 	sub	r2, fp, #32768	; 0x8000
  1043ac:	e2422004 	sub	r2, r2, #4
  1043b0:	e5122638 	ldr	r2, [r2, #-1592]	; 0xfffff9c8
  1043b4:	e0823003 	add	r3, r2, r3
  1043b8:	edd32b00 	vldr	d18, [r3]
  1043bc:	ed5b0b09 	vldr	d16, [fp, #-36]	; 0xffffffdc
  1043c0:	ee620ba0 	vmul.f64	d16, d18, d16
  1043c4:	ee710ba0 	vadd.f64	d16, d17, d16
  1043c8:	e59b300c 	ldr	r3, [fp, #12]
  1043cc:	edc30b00 	vstr	d16, [r3]
  1043d0:	e51b3008 	ldr	r3, [fp, #-8]
  1043d4:	e1a03183 	lsl	r3, r3, #3
  1043d8:	e59b2010 	ldr	r2, [fp, #16]
  1043dc:	e0821003 	add	r1, r2, r3
  1043e0:	e14b22d4 	ldrd	r2, [fp, #-36]	; 0xffffffdc
  1043e4:	e1c120f0 	strd	r2, [r1]
  1043e8:	e51b3008 	ldr	r3, [fp, #-8]
  1043ec:	e2833001 	add	r3, r3, #1
  1043f0:	e50b3008 	str	r3, [fp, #-8]
  1043f4:	e51b3008 	ldr	r3, [fp, #-8]
  1043f8:	e3530040 	cmp	r3, #64	; 0x40
  1043fc:	daffffdb 	ble	104370 <c_ut+0x50>
  104400:	e3a03000 	mov	r3, #0
  104404:	e50b300c 	str	r3, [fp, #-12]
  104408:	ea00000f 	b	10444c <c_ut+0x12c>
  10440c:	e51b300c 	ldr	r3, [fp, #-12]
  104410:	e1a03183 	lsl	r3, r3, #3
  104414:	e59b2018 	ldr	r2, [fp, #24]
  104418:	e0823003 	add	r3, r2, r3
  10441c:	e51b200c 	ldr	r2, [fp, #-12]
  104420:	e1a02182 	lsl	r2, r2, #3
  104424:	e59b1010 	ldr	r1, [fp, #16]
  104428:	e0812002 	add	r2, r1, r2
  10442c:	edd21b00 	vldr	d17, [r2]
  104430:	e59b200c 	ldr	r2, [fp, #12]
  104434:	edd20b00 	vldr	d16, [r2]
  104438:	ee710be0 	vsub.f64	d16, d17, d16
  10443c:	edc30b00 	vstr	d16, [r3]
  104440:	e51b300c 	ldr	r3, [fp, #-12]
  104444:	e2833001 	add	r3, r3, #1
  104448:	e50b300c 	str	r3, [fp, #-12]
  10444c:	e51b300c 	ldr	r3, [fp, #-12]
  104450:	e3530040 	cmp	r3, #64	; 0x40
  104454:	daffffec 	ble	10440c <c_ut+0xec>
  104458:	e24b3b21 	sub	r3, fp, #33792	; 0x8400
  10445c:	e2433004 	sub	r3, r3, #4
  104460:	e2433028 	sub	r3, r3, #40	; 0x28
  104464:	e3082408 	movw	r2, #33800	; 0x8408
  104468:	e3a01000 	mov	r1, #0
  10446c:	e1a00003 	mov	r0, r3
  104470:	eb0010db 	bl	1087e4 <memset>
  104474:	e3a03000 	mov	r3, #0
  104478:	e50b300c 	str	r3, [fp, #-12]
  10447c:	ea000016 	b	1044dc <c_ut+0x1bc>
  104480:	e51b200c 	ldr	r2, [fp, #-12]
  104484:	e1a03002 	mov	r3, r2
  104488:	e1a03283 	lsl	r3, r3, #5
  10448c:	e0833002 	add	r3, r3, r2
  104490:	e1a03083 	lsl	r3, r3, #1
  104494:	e1a01003 	mov	r1, r3
  104498:	e51b300c 	ldr	r3, [fp, #-12]
  10449c:	e1a03183 	lsl	r3, r3, #3
  1044a0:	e24b2902 	sub	r2, fp, #32768	; 0x8000
  1044a4:	e2422004 	sub	r2, r2, #4
  1044a8:	e512263c 	ldr	r2, [r2, #-1596]	; 0xfffff9c4
  1044ac:	e0823003 	add	r3, r2, r3
  1044b0:	e1c320d0 	ldrd	r2, [r3]
  1044b4:	e24b0902 	sub	r0, fp, #32768	; 0x8000
  1044b8:	e2400004 	sub	r0, r0, #4
  1044bc:	e2400e42 	sub	r0, r0, #1056	; 0x420
  1044c0:	e1a01181 	lsl	r1, r1, #3
  1044c4:	e0801001 	add	r1, r0, r1
  1044c8:	e2411008 	sub	r1, r1, #8
  1044cc:	e1c120f0 	strd	r2, [r1]
  1044d0:	e51b300c 	ldr	r3, [fp, #-12]
  1044d4:	e2833001 	add	r3, r3, #1
  1044d8:	e50b300c 	str	r3, [fp, #-12]
  1044dc:	e51b300c 	ldr	r3, [fp, #-12]
  1044e0:	e3530040 	cmp	r3, #64	; 0x40
  1044e4:	daffffe5 	ble	104480 <c_ut+0x160>
  1044e8:	e3a02000 	mov	r2, #0
  1044ec:	e3a03000 	mov	r3, #0
  1044f0:	e14b21f4 	strd	r2, [fp, #-20]	; 0xffffffec
  1044f4:	e3a03000 	mov	r3, #0
  1044f8:	e50b300c 	str	r3, [fp, #-12]
  1044fc:	ea00004a 	b	10462c <c_ut+0x30c>
  104500:	e24b3902 	sub	r3, fp, #32768	; 0x8000
  104504:	e2433004 	sub	r3, r3, #4
  104508:	e2433e63 	sub	r3, r3, #1584	; 0x630
  10450c:	e1a02003 	mov	r2, r3
  104510:	e51b300c 	ldr	r3, [fp, #-12]
  104514:	e1a03183 	lsl	r3, r3, #3
  104518:	e0821003 	add	r1, r2, r3
  10451c:	e3a02000 	mov	r2, #0
  104520:	e3a03000 	mov	r3, #0
  104524:	e1c120f0 	strd	r2, [r1]
  104528:	e3a03000 	mov	r3, #0
  10452c:	e50b3018 	str	r3, [fp, #-24]	; 0xffffffe8
  104530:	ea000026 	b	1045d0 <c_ut+0x2b0>
  104534:	e24b3902 	sub	r3, fp, #32768	; 0x8000
  104538:	e2433004 	sub	r3, r3, #4
  10453c:	e2433e63 	sub	r3, r3, #1584	; 0x630
  104540:	e1a02003 	mov	r2, r3
  104544:	e51b300c 	ldr	r3, [fp, #-12]
  104548:	e1a03183 	lsl	r3, r3, #3
  10454c:	e0823003 	add	r3, r2, r3
  104550:	edd31b00 	vldr	d17, [r3]
  104554:	e51b3018 	ldr	r3, [fp, #-24]	; 0xffffffe8
  104558:	e1a03183 	lsl	r3, r3, #3
  10455c:	e59b2018 	ldr	r2, [fp, #24]
  104560:	e0823003 	add	r3, r2, r3
  104564:	edd32b00 	vldr	d18, [r3]
  104568:	e51b200c 	ldr	r2, [fp, #-12]
  10456c:	e1a03002 	mov	r3, r2
  104570:	e1a03303 	lsl	r3, r3, #6
  104574:	e0832002 	add	r2, r3, r2
  104578:	e51b3018 	ldr	r3, [fp, #-24]	; 0xffffffe8
  10457c:	e0823003 	add	r3, r2, r3
  104580:	e24b2902 	sub	r2, fp, #32768	; 0x8000
  104584:	e2422004 	sub	r2, r2, #4
  104588:	e2422e42 	sub	r2, r2, #1056	; 0x420
  10458c:	e1a03183 	lsl	r3, r3, #3
  104590:	e0823003 	add	r3, r2, r3
  104594:	e2433008 	sub	r3, r3, #8
  104598:	edd30b00 	vldr	d16, [r3]
  10459c:	ee620ba0 	vmul.f64	d16, d18, d16
  1045a0:	ee710ba0 	vadd.f64	d16, d17, d16
  1045a4:	e24b3902 	sub	r3, fp, #32768	; 0x8000
  1045a8:	e2433004 	sub	r3, r3, #4
  1045ac:	e2433e63 	sub	r3, r3, #1584	; 0x630
  1045b0:	e1a02003 	mov	r2, r3
  1045b4:	e51b300c 	ldr	r3, [fp, #-12]
  1045b8:	e1a03183 	lsl	r3, r3, #3
  1045bc:	e0823003 	add	r3, r2, r3
  1045c0:	edc30b00 	vstr	d16, [r3]
  1045c4:	e51b3018 	ldr	r3, [fp, #-24]	; 0xffffffe8
  1045c8:	e2833001 	add	r3, r3, #1
  1045cc:	e50b3018 	str	r3, [fp, #-24]	; 0xffffffe8
  1045d0:	e51b3018 	ldr	r3, [fp, #-24]	; 0xffffffe8
  1045d4:	e3530040 	cmp	r3, #64	; 0x40
  1045d8:	daffffd5 	ble	104534 <c_ut+0x214>
  1045dc:	e24b3902 	sub	r3, fp, #32768	; 0x8000
  1045e0:	e2433004 	sub	r3, r3, #4
  1045e4:	e2433e63 	sub	r3, r3, #1584	; 0x630
  1045e8:	e1a02003 	mov	r2, r3
  1045ec:	e51b300c 	ldr	r3, [fp, #-12]
  1045f0:	e1a03183 	lsl	r3, r3, #3
  1045f4:	e0823003 	add	r3, r2, r3
  1045f8:	edd31b00 	vldr	d17, [r3]
  1045fc:	e51b300c 	ldr	r3, [fp, #-12]
  104600:	e1a03183 	lsl	r3, r3, #3
  104604:	e59b2018 	ldr	r2, [fp, #24]
  104608:	e0823003 	add	r3, r2, r3
  10460c:	edd30b00 	vldr	d16, [r3]
  104610:	ee610ba0 	vmul.f64	d16, d17, d16
  104614:	ed5b1b05 	vldr	d17, [fp, #-20]	; 0xffffffec
  104618:	ee710ba0 	vadd.f64	d16, d17, d16
  10461c:	ed4b0b05 	vstr	d16, [fp, #-20]	; 0xffffffec
  104620:	e51b300c 	ldr	r3, [fp, #-12]
  104624:	e2833001 	add	r3, r3, #1
  104628:	e50b300c 	str	r3, [fp, #-12]
  10462c:	e51b300c 	ldr	r3, [fp, #-12]
  104630:	e3530040 	cmp	r3, #64	; 0x40
  104634:	daffffb1 	ble	104500 <c_ut+0x1e0>
  104638:	ed5b1b05 	vldr	d17, [fp, #-20]	; 0xffffffec
  10463c:	eddb0b01 	vldr	d16, [fp, #4]
  104640:	ee710ba0 	vadd.f64	d16, d17, d16
  104644:	e59b3014 	ldr	r3, [fp, #20]
  104648:	edc30b00 	vstr	d16, [r3]
  10464c:	e320f000 	nop	{0}
  104650:	e24bd004 	sub	sp, fp, #4
  104654:	e8bd8800 	pop	{fp, pc}

00104658 <ut>:
  104658:	e92d4800 	push	{fp, lr}
  10465c:	e28db004 	add	fp, sp, #4
  104660:	e24ddc85 	sub	sp, sp, #34048	; 0x8500
  104664:	e24dd068 	sub	sp, sp, #104	; 0x68
  104668:	e24bcc85 	sub	ip, fp, #34048	; 0x8500
  10466c:	e24cc004 	sub	ip, ip, #4
  104670:	e24cc060 	sub	ip, ip, #96	; 0x60
  104674:	e1cc00f0 	strd	r0, [ip]
  104678:	e24b1902 	sub	r1, fp, #32768	; 0x8000
  10467c:	e2411004 	sub	r1, r1, #4
  104680:	e5012564 	str	r2, [r1, #-1380]	; 0xfffffa9c
  104684:	e24b2902 	sub	r2, fp, #32768	; 0x8000
  104688:	e2422004 	sub	r2, r2, #4
  10468c:	e5023568 	str	r3, [r2, #-1384]	; 0xfffffa98
  104690:	e59b301c 	ldr	r3, [fp, #28]
  104694:	e5933004 	ldr	r3, [r3, #4]
  104698:	e5933000 	ldr	r3, [r3]
  10469c:	e50b3008 	str	r3, [fp, #-8]
  1046a0:	e59b301c 	ldr	r3, [fp, #28]
  1046a4:	e5933004 	ldr	r3, [r3, #4]
  1046a8:	eddb0b03 	vldr	d16, [fp, #12]
  1046ac:	eefd7be0 	vcvt.s32.f64	s15, d16
  1046b0:	ee172a90 	vmov	r2, s15
  1046b4:	e5832000 	str	r2, [r3]
  1046b8:	e3a02008 	mov	r2, #8
  1046bc:	e51b1008 	ldr	r1, [fp, #-8]
  1046c0:	e59b001c 	ldr	r0, [fp, #28]
  1046c4:	eb00056a 	bl	105c74 <emxEnsureCapacity>
  1046c8:	eddb0b03 	vldr	d16, [fp, #12]
  1046cc:	eefd7be0 	vcvt.s32.f64	s15, d16
  1046d0:	ee173a90 	vmov	r3, s15
  1046d4:	e50b300c 	str	r3, [fp, #-12]
  1046d8:	e3a03000 	mov	r3, #0
  1046dc:	e50b3008 	str	r3, [fp, #-8]
  1046e0:	ea00000a 	b	104710 <ut+0xb8>
  1046e4:	e59b301c 	ldr	r3, [fp, #28]
  1046e8:	e5932000 	ldr	r2, [r3]
  1046ec:	e51b3008 	ldr	r3, [fp, #-8]
  1046f0:	e1a03183 	lsl	r3, r3, #3
  1046f4:	e0821003 	add	r1, r2, r3
  1046f8:	e3a02000 	mov	r2, #0
  1046fc:	e3a03000 	mov	r3, #0
  104700:	e1c120f0 	strd	r2, [r1]
  104704:	e51b3008 	ldr	r3, [fp, #-8]
  104708:	e2833001 	add	r3, r3, #1
  10470c:	e50b3008 	str	r3, [fp, #-8]
  104710:	e51b2008 	ldr	r2, [fp, #-8]
  104714:	e51b300c 	ldr	r3, [fp, #-12]
  104718:	e1520003 	cmp	r2, r3
  10471c:	bafffff0 	blt	1046e4 <ut+0x8c>
  104720:	e59b3020 	ldr	r3, [fp, #32]
  104724:	e5933004 	ldr	r3, [r3, #4]
  104728:	e5933000 	ldr	r3, [r3]
  10472c:	e59b2020 	ldr	r2, [fp, #32]
  104730:	e5922004 	ldr	r2, [r2, #4]
  104734:	e2822004 	add	r2, r2, #4
  104738:	e5922000 	ldr	r2, [r2]
  10473c:	e0030392 	mul	r3, r2, r3
  104740:	e50b3008 	str	r3, [fp, #-8]
  104744:	e59b3020 	ldr	r3, [fp, #32]
  104748:	e5933004 	ldr	r3, [r3, #4]
  10474c:	eddb0b03 	vldr	d16, [fp, #12]
  104750:	eefd7be0 	vcvt.s32.f64	s15, d16
  104754:	ee172a90 	vmov	r2, s15
  104758:	e5832000 	str	r2, [r3]
  10475c:	e59b3020 	ldr	r3, [fp, #32]
  104760:	e5933004 	ldr	r3, [r3, #4]
  104764:	e2833004 	add	r3, r3, #4
  104768:	e3a02041 	mov	r2, #65	; 0x41
  10476c:	e5832000 	str	r2, [r3]
  104770:	e3a02008 	mov	r2, #8
  104774:	e51b1008 	ldr	r1, [fp, #-8]
  104778:	e59b0020 	ldr	r0, [fp, #32]
  10477c:	eb00053c 	bl	105c74 <emxEnsureCapacity>
  104780:	eddb0b03 	vldr	d16, [fp, #12]
  104784:	eefd7be0 	vcvt.s32.f64	s15, d16
  104788:	ee172a90 	vmov	r2, s15
  10478c:	e1a03002 	mov	r3, r2
  104790:	e1a03303 	lsl	r3, r3, #6
  104794:	e0833002 	add	r3, r3, r2
  104798:	e50b300c 	str	r3, [fp, #-12]
  10479c:	e3a03000 	mov	r3, #0
  1047a0:	e50b3008 	str	r3, [fp, #-8]
  1047a4:	ea00000a 	b	1047d4 <ut+0x17c>
  1047a8:	e59b3020 	ldr	r3, [fp, #32]
  1047ac:	e5932000 	ldr	r2, [r3]
  1047b0:	e51b3008 	ldr	r3, [fp, #-8]
  1047b4:	e1a03183 	lsl	r3, r3, #3
  1047b8:	e0821003 	add	r1, r2, r3
  1047bc:	e3a02000 	mov	r2, #0
  1047c0:	e3a03000 	mov	r3, #0
  1047c4:	e1c120f0 	strd	r2, [r1]
  1047c8:	e51b3008 	ldr	r3, [fp, #-8]
  1047cc:	e2833001 	add	r3, r3, #1
  1047d0:	e50b3008 	str	r3, [fp, #-8]
  1047d4:	e51b2008 	ldr	r2, [fp, #-8]
  1047d8:	e51b300c 	ldr	r3, [fp, #-12]
  1047dc:	e1520003 	cmp	r2, r3
  1047e0:	bafffff0 	blt	1047a8 <ut+0x150>
  1047e4:	e24b3044 	sub	r3, fp, #68	; 0x44
  1047e8:	e3a01001 	mov	r1, #1
  1047ec:	e1a00003 	mov	r0, r3
  1047f0:	eb0005c9 	bl	105f1c <emxInit_int32_T>
  1047f4:	e3a03000 	mov	r3, #0
  1047f8:	e50b3010 	str	r3, [fp, #-16]
  1047fc:	ea0000bd 	b	104af8 <ut+0x4a0>
  104800:	e24b3c85 	sub	r3, fp, #34048	; 0x8500
  104804:	e2433004 	sub	r3, r3, #4
  104808:	e2433060 	sub	r3, r3, #96	; 0x60
  10480c:	edd30b00 	vldr	d16, [r3]
  104810:	eef50b40 	vcmp.f64	d16, #0.0
  104814:	eef1fa10 	vmrs	APSR_nzcv, fpscr
  104818:	1a000057 	bne	10497c <ut+0x324>
  10481c:	e59b3020 	ldr	r3, [fp, #32]
  104820:	e5933004 	ldr	r3, [r3, #4]
  104824:	e5933000 	ldr	r3, [r3]
  104828:	e50b300c 	str	r3, [fp, #-12]
  10482c:	e51b3044 	ldr	r3, [fp, #-68]	; 0xffffffbc
  104830:	e5933004 	ldr	r3, [r3, #4]
  104834:	e5933000 	ldr	r3, [r3]
  104838:	e50b3008 	str	r3, [fp, #-8]
  10483c:	e51b3044 	ldr	r3, [fp, #-68]	; 0xffffffbc
  104840:	e5933004 	ldr	r3, [r3, #4]
  104844:	e51b200c 	ldr	r2, [fp, #-12]
  104848:	e5832000 	str	r2, [r3]
  10484c:	e51b3044 	ldr	r3, [fp, #-68]	; 0xffffffbc
  104850:	e3a02004 	mov	r2, #4
  104854:	e51b1008 	ldr	r1, [fp, #-8]
  104858:	e1a00003 	mov	r0, r3
  10485c:	eb000504 	bl	105c74 <emxEnsureCapacity>
  104860:	e3a03000 	mov	r3, #0
  104864:	e50b3008 	str	r3, [fp, #-8]
  104868:	ea000009 	b	104894 <ut+0x23c>
  10486c:	e51b3044 	ldr	r3, [fp, #-68]	; 0xffffffbc
  104870:	e5932000 	ldr	r2, [r3]
  104874:	e51b3008 	ldr	r3, [fp, #-8]
  104878:	e1a03103 	lsl	r3, r3, #2
  10487c:	e0823003 	add	r3, r2, r3
  104880:	e51b2008 	ldr	r2, [fp, #-8]
  104884:	e5832000 	str	r2, [r3]
  104888:	e51b3008 	ldr	r3, [fp, #-8]
  10488c:	e2833001 	add	r3, r3, #1
  104890:	e50b3008 	str	r3, [fp, #-8]
  104894:	e51b2008 	ldr	r2, [fp, #-8]
  104898:	e51b300c 	ldr	r3, [fp, #-12]
  10489c:	e1520003 	cmp	r2, r3
  1048a0:	bafffff1 	blt	10486c <ut+0x214>
  1048a4:	e51b3010 	ldr	r3, [fp, #-16]
  1048a8:	e1a03283 	lsl	r3, r3, #5
  1048ac:	e1a03183 	lsl	r3, r3, #3
  1048b0:	e24b2902 	sub	r2, fp, #32768	; 0x8000
  1048b4:	e2422004 	sub	r2, r2, #4
  1048b8:	e5122564 	ldr	r2, [r2, #-1380]	; 0xfffffa9c
  1048bc:	e0822003 	add	r2, r2, r3
  1048c0:	e24b3c85 	sub	r3, fp, #34048	; 0x8500
  1048c4:	e2433004 	sub	r3, r3, #4
  1048c8:	e2433048 	sub	r3, r3, #72	; 0x48
  1048cc:	e1a01003 	mov	r1, r3
  1048d0:	e1a00002 	mov	r0, r2
  1048d4:	ebfff850 	bl	102a1c <nonlinear_state_eq>
  1048d8:	e51b3044 	ldr	r3, [fp, #-68]	; 0xffffffbc
  1048dc:	e5933004 	ldr	r3, [r3, #4]
  1048e0:	e5933000 	ldr	r3, [r3]
  1048e4:	e50b3018 	str	r3, [fp, #-24]	; 0xffffffe8
  1048e8:	e3a03000 	mov	r3, #0
  1048ec:	e50b3008 	str	r3, [fp, #-8]
  1048f0:	ea00001c 	b	104968 <ut+0x310>
  1048f4:	e59b3020 	ldr	r3, [fp, #32]
  1048f8:	e5932000 	ldr	r2, [r3]
  1048fc:	e51b3044 	ldr	r3, [fp, #-68]	; 0xffffffbc
  104900:	e5931000 	ldr	r1, [r3]
  104904:	e51b3008 	ldr	r3, [fp, #-8]
  104908:	e1a03103 	lsl	r3, r3, #2
  10490c:	e0813003 	add	r3, r1, r3
  104910:	e5931000 	ldr	r1, [r3]
  104914:	e59b3020 	ldr	r3, [fp, #32]
  104918:	e5933004 	ldr	r3, [r3, #4]
  10491c:	e5933000 	ldr	r3, [r3]
  104920:	e51b0010 	ldr	r0, [fp, #-16]
  104924:	e0030390 	mul	r3, r0, r3
  104928:	e0813003 	add	r3, r1, r3
  10492c:	e1a03183 	lsl	r3, r3, #3
  104930:	e0821003 	add	r1, r2, r3
  104934:	e24b3902 	sub	r3, fp, #32768	; 0x8000
  104938:	e2433004 	sub	r3, r3, #4
  10493c:	e2433d15 	sub	r3, r3, #1344	; 0x540
  104940:	e1a02003 	mov	r2, r3
  104944:	e51b3008 	ldr	r3, [fp, #-8]
  104948:	e1a03183 	lsl	r3, r3, #3
  10494c:	e0823003 	add	r3, r2, r3
  104950:	e2433008 	sub	r3, r3, #8
  104954:	e1c320d0 	ldrd	r2, [r3]
  104958:	e1c120f0 	strd	r2, [r1]
  10495c:	e51b3008 	ldr	r3, [fp, #-8]
  104960:	e2833001 	add	r3, r3, #1
  104964:	e50b3008 	str	r3, [fp, #-8]
  104968:	e51b2008 	ldr	r2, [fp, #-8]
  10496c:	e51b3018 	ldr	r3, [fp, #-24]	; 0xffffffe8
  104970:	e1520003 	cmp	r2, r3
  104974:	baffffde 	blt	1048f4 <ut+0x29c>
  104978:	ea000024 	b	104a10 <ut+0x3b8>
  10497c:	e59b3020 	ldr	r3, [fp, #32]
  104980:	e5933004 	ldr	r3, [r3, #4]
  104984:	e5933000 	ldr	r3, [r3]
  104988:	e50b300c 	str	r3, [fp, #-12]
  10498c:	e51b3010 	ldr	r3, [fp, #-16]
  104990:	e1a03283 	lsl	r3, r3, #5
  104994:	e1a03183 	lsl	r3, r3, #3
  104998:	e24b2902 	sub	r2, fp, #32768	; 0x8000
  10499c:	e2422004 	sub	r2, r2, #4
  1049a0:	e5122564 	ldr	r2, [r2, #-1380]	; 0xfffffa9c
  1049a4:	e0823003 	add	r3, r2, r3
  1049a8:	e1a00003 	mov	r0, r3
  1049ac:	ebfff80f 	bl	1029f0 <measurement_eq>
  1049b0:	e14b03f4 	strd	r0, [fp, #-52]	; 0xffffffcc
  1049b4:	e3a03000 	mov	r3, #0
  1049b8:	e50b3008 	str	r3, [fp, #-8]
  1049bc:	ea00000f 	b	104a00 <ut+0x3a8>
  1049c0:	e59b3020 	ldr	r3, [fp, #32]
  1049c4:	e5932000 	ldr	r2, [r3]
  1049c8:	e59b3020 	ldr	r3, [fp, #32]
  1049cc:	e5933004 	ldr	r3, [r3, #4]
  1049d0:	e5933000 	ldr	r3, [r3]
  1049d4:	e51b1010 	ldr	r1, [fp, #-16]
  1049d8:	e0010391 	mul	r1, r1, r3
  1049dc:	e51b3008 	ldr	r3, [fp, #-8]
  1049e0:	e0813003 	add	r3, r1, r3
  1049e4:	e1a03183 	lsl	r3, r3, #3
  1049e8:	e0821003 	add	r1, r2, r3
  1049ec:	e14b23d4 	ldrd	r2, [fp, #-52]	; 0xffffffcc
  1049f0:	e1c120f0 	strd	r2, [r1]
  1049f4:	e51b3008 	ldr	r3, [fp, #-8]
  1049f8:	e2833001 	add	r3, r3, #1
  1049fc:	e50b3008 	str	r3, [fp, #-8]
  104a00:	e51b2008 	ldr	r2, [fp, #-8]
  104a04:	e51b300c 	ldr	r3, [fp, #-12]
  104a08:	e1520003 	cmp	r2, r3
  104a0c:	baffffeb 	blt	1049c0 <ut+0x368>
  104a10:	e59b301c 	ldr	r3, [fp, #28]
  104a14:	e5933004 	ldr	r3, [r3, #4]
  104a18:	e5933000 	ldr	r3, [r3]
  104a1c:	e50b3008 	str	r3, [fp, #-8]
  104a20:	e3a02008 	mov	r2, #8
  104a24:	e51b1008 	ldr	r1, [fp, #-8]
  104a28:	e59b001c 	ldr	r0, [fp, #28]
  104a2c:	eb000490 	bl	105c74 <emxEnsureCapacity>
  104a30:	e59b301c 	ldr	r3, [fp, #28]
  104a34:	e5933004 	ldr	r3, [r3, #4]
  104a38:	e5933000 	ldr	r3, [r3]
  104a3c:	e50b300c 	str	r3, [fp, #-12]
  104a40:	e3a03000 	mov	r3, #0
  104a44:	e50b3008 	str	r3, [fp, #-8]
  104a48:	ea000023 	b	104adc <ut+0x484>
  104a4c:	e59b301c 	ldr	r3, [fp, #28]
  104a50:	e5932000 	ldr	r2, [r3]
  104a54:	e51b3008 	ldr	r3, [fp, #-8]
  104a58:	e1a03183 	lsl	r3, r3, #3
  104a5c:	e0823003 	add	r3, r2, r3
  104a60:	e59b201c 	ldr	r2, [fp, #28]
  104a64:	e5921000 	ldr	r1, [r2]
  104a68:	e51b2008 	ldr	r2, [fp, #-8]
  104a6c:	e1a02182 	lsl	r2, r2, #3
  104a70:	e0812002 	add	r2, r1, r2
  104a74:	edd21b00 	vldr	d17, [r2]
  104a78:	e51b2010 	ldr	r2, [fp, #-16]
  104a7c:	e1a02182 	lsl	r2, r2, #3
  104a80:	e24b1902 	sub	r1, fp, #32768	; 0x8000
  104a84:	e2411004 	sub	r1, r1, #4
  104a88:	e5111568 	ldr	r1, [r1, #-1384]	; 0xfffffa98
  104a8c:	e0812002 	add	r2, r1, r2
  104a90:	edd22b00 	vldr	d18, [r2]
  104a94:	e59b2020 	ldr	r2, [fp, #32]
  104a98:	e5921000 	ldr	r1, [r2]
  104a9c:	e59b2020 	ldr	r2, [fp, #32]
  104aa0:	e5922004 	ldr	r2, [r2, #4]
  104aa4:	e5922000 	ldr	r2, [r2]
  104aa8:	e51b0010 	ldr	r0, [fp, #-16]
  104aac:	e0000290 	mul	r0, r0, r2
  104ab0:	e51b2008 	ldr	r2, [fp, #-8]
  104ab4:	e0802002 	add	r2, r0, r2
  104ab8:	e1a02182 	lsl	r2, r2, #3
  104abc:	e0812002 	add	r2, r1, r2
  104ac0:	edd20b00 	vldr	d16, [r2]
  104ac4:	ee620ba0 	vmul.f64	d16, d18, d16
  104ac8:	ee710ba0 	vadd.f64	d16, d17, d16
  104acc:	edc30b00 	vstr	d16, [r3]
  104ad0:	e51b3008 	ldr	r3, [fp, #-8]
  104ad4:	e2833001 	add	r3, r3, #1
  104ad8:	e50b3008 	str	r3, [fp, #-8]
  104adc:	e51b2008 	ldr	r2, [fp, #-8]
  104ae0:	e51b300c 	ldr	r3, [fp, #-12]
  104ae4:	e1520003 	cmp	r2, r3
  104ae8:	baffffd7 	blt	104a4c <ut+0x3f4>
  104aec:	e51b3010 	ldr	r3, [fp, #-16]
  104af0:	e2833001 	add	r3, r3, #1
  104af4:	e50b3010 	str	r3, [fp, #-16]
  104af8:	e51b3010 	ldr	r3, [fp, #-16]
  104afc:	e3530040 	cmp	r3, #64	; 0x40
  104b00:	daffff3e 	ble	104800 <ut+0x1a8>
  104b04:	e24b3044 	sub	r3, fp, #68	; 0x44
  104b08:	e1a00003 	mov	r0, r3
  104b0c:	eb0004b6 	bl	105dec <emxFree_int32_T>
  104b10:	e59b302c 	ldr	r3, [fp, #44]	; 0x2c
  104b14:	e5933004 	ldr	r3, [r3, #4]
  104b18:	e5933000 	ldr	r3, [r3]
  104b1c:	e59b202c 	ldr	r2, [fp, #44]	; 0x2c
  104b20:	e5922004 	ldr	r2, [r2, #4]
  104b24:	e2822004 	add	r2, r2, #4
  104b28:	e5922000 	ldr	r2, [r2]
  104b2c:	e0030392 	mul	r3, r2, r3
  104b30:	e50b3008 	str	r3, [fp, #-8]
  104b34:	e59b302c 	ldr	r3, [fp, #44]	; 0x2c
  104b38:	e5933004 	ldr	r3, [r3, #4]
  104b3c:	e59b2020 	ldr	r2, [fp, #32]
  104b40:	e5922004 	ldr	r2, [r2, #4]
  104b44:	e5922000 	ldr	r2, [r2]
  104b48:	e5832000 	str	r2, [r3]
  104b4c:	e59b302c 	ldr	r3, [fp, #44]	; 0x2c
  104b50:	e5933004 	ldr	r3, [r3, #4]
  104b54:	e2833004 	add	r3, r3, #4
  104b58:	e3a02041 	mov	r2, #65	; 0x41
  104b5c:	e5832000 	str	r2, [r3]
  104b60:	e3a02008 	mov	r2, #8
  104b64:	e51b1008 	ldr	r1, [fp, #-8]
  104b68:	e59b002c 	ldr	r0, [fp, #44]	; 0x2c
  104b6c:	eb000440 	bl	105c74 <emxEnsureCapacity>
  104b70:	e3a03000 	mov	r3, #0
  104b74:	e50b3008 	str	r3, [fp, #-8]
  104b78:	ea00002f 	b	104c3c <ut+0x5e4>
  104b7c:	e59b3020 	ldr	r3, [fp, #32]
  104b80:	e5933004 	ldr	r3, [r3, #4]
  104b84:	e5933000 	ldr	r3, [r3]
  104b88:	e50b300c 	str	r3, [fp, #-12]
  104b8c:	e3a03000 	mov	r3, #0
  104b90:	e50b3014 	str	r3, [fp, #-20]	; 0xffffffec
  104b94:	ea000021 	b	104c20 <ut+0x5c8>
  104b98:	e59b302c 	ldr	r3, [fp, #44]	; 0x2c
  104b9c:	e5932000 	ldr	r2, [r3]
  104ba0:	e59b302c 	ldr	r3, [fp, #44]	; 0x2c
  104ba4:	e5933004 	ldr	r3, [r3, #4]
  104ba8:	e5933000 	ldr	r3, [r3]
  104bac:	e51b1008 	ldr	r1, [fp, #-8]
  104bb0:	e0010391 	mul	r1, r1, r3
  104bb4:	e51b3014 	ldr	r3, [fp, #-20]	; 0xffffffec
  104bb8:	e0813003 	add	r3, r1, r3
  104bbc:	e1a03183 	lsl	r3, r3, #3
  104bc0:	e0823003 	add	r3, r2, r3
  104bc4:	e59b2020 	ldr	r2, [fp, #32]
  104bc8:	e5921000 	ldr	r1, [r2]
  104bcc:	e59b2020 	ldr	r2, [fp, #32]
  104bd0:	e5922004 	ldr	r2, [r2, #4]
  104bd4:	e5922000 	ldr	r2, [r2]
  104bd8:	e51b0008 	ldr	r0, [fp, #-8]
  104bdc:	e0000290 	mul	r0, r0, r2
  104be0:	e51b2014 	ldr	r2, [fp, #-20]	; 0xffffffec
  104be4:	e0802002 	add	r2, r0, r2
  104be8:	e1a02182 	lsl	r2, r2, #3
  104bec:	e0812002 	add	r2, r1, r2
  104bf0:	edd21b00 	vldr	d17, [r2]
  104bf4:	e59b201c 	ldr	r2, [fp, #28]
  104bf8:	e5921000 	ldr	r1, [r2]
  104bfc:	e51b2014 	ldr	r2, [fp, #-20]	; 0xffffffec
  104c00:	e1a02182 	lsl	r2, r2, #3
  104c04:	e0812002 	add	r2, r1, r2
  104c08:	edd20b00 	vldr	d16, [r2]
  104c0c:	ee710be0 	vsub.f64	d16, d17, d16
  104c10:	edc30b00 	vstr	d16, [r3]
  104c14:	e51b3014 	ldr	r3, [fp, #-20]	; 0xffffffec
  104c18:	e2833001 	add	r3, r3, #1
  104c1c:	e50b3014 	str	r3, [fp, #-20]	; 0xffffffec
  104c20:	e51b2014 	ldr	r2, [fp, #-20]	; 0xffffffec
  104c24:	e51b300c 	ldr	r3, [fp, #-12]
  104c28:	e1520003 	cmp	r2, r3
  104c2c:	baffffd9 	blt	104b98 <ut+0x540>
  104c30:	e51b3008 	ldr	r3, [fp, #-8]
  104c34:	e2833001 	add	r3, r3, #1
  104c38:	e50b3008 	str	r3, [fp, #-8]
  104c3c:	e51b3008 	ldr	r3, [fp, #-8]
  104c40:	e3530040 	cmp	r3, #64	; 0x40
  104c44:	daffffcc 	ble	104b7c <ut+0x524>
  104c48:	e24b3b21 	sub	r3, fp, #33792	; 0x8400
  104c4c:	e2433004 	sub	r3, r3, #4
  104c50:	e2433048 	sub	r3, r3, #72	; 0x48
  104c54:	e3082408 	movw	r2, #33800	; 0x8408
  104c58:	e3a01000 	mov	r1, #0
  104c5c:	e1a00003 	mov	r0, r3
  104c60:	eb000edf 	bl	1087e4 <memset>
  104c64:	e3a03000 	mov	r3, #0
  104c68:	e50b3018 	str	r3, [fp, #-24]	; 0xffffffe8
  104c6c:	ea000014 	b	104cc4 <ut+0x66c>
  104c70:	e51b2018 	ldr	r2, [fp, #-24]	; 0xffffffe8
  104c74:	e1a03002 	mov	r3, r2
  104c78:	e1a03283 	lsl	r3, r3, #5
  104c7c:	e0833002 	add	r3, r3, r2
  104c80:	e1a03083 	lsl	r3, r3, #1
  104c84:	e1a01003 	mov	r1, r3
  104c88:	e51b3018 	ldr	r3, [fp, #-24]	; 0xffffffe8
  104c8c:	e1a03183 	lsl	r3, r3, #3
  104c90:	e59b2004 	ldr	r2, [fp, #4]
  104c94:	e0823003 	add	r3, r2, r3
  104c98:	e1c320d0 	ldrd	r2, [r3]
  104c9c:	e24b0902 	sub	r0, fp, #32768	; 0x8000
  104ca0:	e2400004 	sub	r0, r0, #4
  104ca4:	e2400d11 	sub	r0, r0, #1088	; 0x440
  104ca8:	e1a01181 	lsl	r1, r1, #3
  104cac:	e0801001 	add	r1, r0, r1
  104cb0:	e2411008 	sub	r1, r1, #8
  104cb4:	e1c120f0 	strd	r2, [r1]
  104cb8:	e51b3018 	ldr	r3, [fp, #-24]	; 0xffffffe8
  104cbc:	e2833001 	add	r3, r3, #1
  104cc0:	e50b3018 	str	r3, [fp, #-24]	; 0xffffffe8
  104cc4:	e51b3018 	ldr	r3, [fp, #-24]	; 0xffffffe8
  104cc8:	e3530040 	cmp	r3, #64	; 0x40
  104ccc:	daffffe7 	ble	104c70 <ut+0x618>
  104cd0:	e24b3c85 	sub	r3, fp, #34048	; 0x8500
  104cd4:	e2433004 	sub	r3, r3, #4
  104cd8:	e243304c 	sub	r3, r3, #76	; 0x4c
  104cdc:	e3a01002 	mov	r1, #2
  104ce0:	e1a00003 	mov	r0, r3
  104ce4:	eb0004c2 	bl	105ff4 <emxInit_real_T>
  104ce8:	e59b302c 	ldr	r3, [fp, #44]	; 0x2c
  104cec:	e5933004 	ldr	r3, [r3, #4]
  104cf0:	e5933000 	ldr	r3, [r3]
  104cf4:	e50b3038 	str	r3, [fp, #-56]	; 0xffffffc8
  104cf8:	e24b3902 	sub	r3, fp, #32768	; 0x8000
  104cfc:	e2433004 	sub	r3, r3, #4
  104d00:	e513354c 	ldr	r3, [r3, #-1356]	; 0xfffffab4
  104d04:	e5933004 	ldr	r3, [r3, #4]
  104d08:	e5933000 	ldr	r3, [r3]
  104d0c:	e24b2902 	sub	r2, fp, #32768	; 0x8000
  104d10:	e2422004 	sub	r2, r2, #4
  104d14:	e512254c 	ldr	r2, [r2, #-1356]	; 0xfffffab4
  104d18:	e5922004 	ldr	r2, [r2, #4]
  104d1c:	e2822004 	add	r2, r2, #4
  104d20:	e5922000 	ldr	r2, [r2]
  104d24:	e0030392 	mul	r3, r2, r3
  104d28:	e50b3008 	str	r3, [fp, #-8]
  104d2c:	e24b3902 	sub	r3, fp, #32768	; 0x8000
  104d30:	e2433004 	sub	r3, r3, #4
  104d34:	e513354c 	ldr	r3, [r3, #-1356]	; 0xfffffab4
  104d38:	e5933004 	ldr	r3, [r3, #4]
  104d3c:	e51b2038 	ldr	r2, [fp, #-56]	; 0xffffffc8
  104d40:	e5832000 	str	r2, [r3]
  104d44:	e24b3902 	sub	r3, fp, #32768	; 0x8000
  104d48:	e2433004 	sub	r3, r3, #4
  104d4c:	e513354c 	ldr	r3, [r3, #-1356]	; 0xfffffab4
  104d50:	e5933004 	ldr	r3, [r3, #4]
  104d54:	e2833004 	add	r3, r3, #4
  104d58:	e3a02041 	mov	r2, #65	; 0x41
  104d5c:	e5832000 	str	r2, [r3]
  104d60:	e24b3902 	sub	r3, fp, #32768	; 0x8000
  104d64:	e2433004 	sub	r3, r3, #4
  104d68:	e513354c 	ldr	r3, [r3, #-1356]	; 0xfffffab4
  104d6c:	e3a02008 	mov	r2, #8
  104d70:	e51b1008 	ldr	r1, [fp, #-8]
  104d74:	e1a00003 	mov	r0, r3
  104d78:	eb0003bd 	bl	105c74 <emxEnsureCapacity>
  104d7c:	e59b302c 	ldr	r3, [fp, #44]	; 0x2c
  104d80:	e5933004 	ldr	r3, [r3, #4]
  104d84:	e5933000 	ldr	r3, [r3]
  104d88:	e50b303c 	str	r3, [fp, #-60]	; 0xffffffc4
  104d8c:	e24b3902 	sub	r3, fp, #32768	; 0x8000
  104d90:	e2433004 	sub	r3, r3, #4
  104d94:	e513354c 	ldr	r3, [r3, #-1356]	; 0xfffffab4
  104d98:	e5933004 	ldr	r3, [r3, #4]
  104d9c:	e5933000 	ldr	r3, [r3]
  104da0:	e24b2902 	sub	r2, fp, #32768	; 0x8000
  104da4:	e2422004 	sub	r2, r2, #4
  104da8:	e512254c 	ldr	r2, [r2, #-1356]	; 0xfffffab4
  104dac:	e5922004 	ldr	r2, [r2, #4]
  104db0:	e2822004 	add	r2, r2, #4
  104db4:	e5922000 	ldr	r2, [r2]
  104db8:	e0030392 	mul	r3, r2, r3
  104dbc:	e50b3008 	str	r3, [fp, #-8]
  104dc0:	e24b3902 	sub	r3, fp, #32768	; 0x8000
  104dc4:	e2433004 	sub	r3, r3, #4
  104dc8:	e513354c 	ldr	r3, [r3, #-1356]	; 0xfffffab4
  104dcc:	e5933004 	ldr	r3, [r3, #4]
  104dd0:	e2833004 	add	r3, r3, #4
  104dd4:	e3a02041 	mov	r2, #65	; 0x41
  104dd8:	e5832000 	str	r2, [r3]
  104ddc:	e24b3902 	sub	r3, fp, #32768	; 0x8000
  104de0:	e2433004 	sub	r3, r3, #4
  104de4:	e513354c 	ldr	r3, [r3, #-1356]	; 0xfffffab4
  104de8:	e3a02008 	mov	r2, #8
  104dec:	e51b1008 	ldr	r1, [fp, #-8]
  104df0:	e1a00003 	mov	r0, r3
  104df4:	eb00039e 	bl	105c74 <emxEnsureCapacity>
  104df8:	e3a03000 	mov	r3, #0
  104dfc:	e50b3008 	str	r3, [fp, #-8]
  104e00:	ea000024 	b	104e98 <ut+0x840>
  104e04:	e24b3902 	sub	r3, fp, #32768	; 0x8000
  104e08:	e2433004 	sub	r3, r3, #4
  104e0c:	e513354c 	ldr	r3, [r3, #-1356]	; 0xfffffab4
  104e10:	e5933004 	ldr	r3, [r3, #4]
  104e14:	e5933000 	ldr	r3, [r3]
  104e18:	e50b300c 	str	r3, [fp, #-12]
  104e1c:	e3a03000 	mov	r3, #0
  104e20:	e50b3014 	str	r3, [fp, #-20]	; 0xffffffec
  104e24:	ea000014 	b	104e7c <ut+0x824>
  104e28:	e24b3902 	sub	r3, fp, #32768	; 0x8000
  104e2c:	e2433004 	sub	r3, r3, #4
  104e30:	e513354c 	ldr	r3, [r3, #-1356]	; 0xfffffab4
  104e34:	e5932000 	ldr	r2, [r3]
  104e38:	e24b3902 	sub	r3, fp, #32768	; 0x8000
  104e3c:	e2433004 	sub	r3, r3, #4
  104e40:	e513354c 	ldr	r3, [r3, #-1356]	; 0xfffffab4
  104e44:	e5933004 	ldr	r3, [r3, #4]
  104e48:	e5933000 	ldr	r3, [r3]
  104e4c:	e51b1008 	ldr	r1, [fp, #-8]
  104e50:	e0010391 	mul	r1, r1, r3
  104e54:	e51b3014 	ldr	r3, [fp, #-20]	; 0xffffffec
  104e58:	e0813003 	add	r3, r1, r3
  104e5c:	e1a03183 	lsl	r3, r3, #3
  104e60:	e0821003 	add	r1, r2, r3
  104e64:	e3a02000 	mov	r2, #0
  104e68:	e3a03000 	mov	r3, #0
  104e6c:	e1c120f0 	strd	r2, [r1]
  104e70:	e51b3014 	ldr	r3, [fp, #-20]	; 0xffffffec
  104e74:	e2833001 	add	r3, r3, #1
  104e78:	e50b3014 	str	r3, [fp, #-20]	; 0xffffffec
  104e7c:	e51b2014 	ldr	r2, [fp, #-20]	; 0xffffffec
  104e80:	e51b300c 	ldr	r3, [fp, #-12]
  104e84:	e1520003 	cmp	r2, r3
  104e88:	baffffe6 	blt	104e28 <ut+0x7d0>
  104e8c:	e51b3008 	ldr	r3, [fp, #-8]
  104e90:	e2833001 	add	r3, r3, #1
  104e94:	e50b3008 	str	r3, [fp, #-8]
  104e98:	e51b3008 	ldr	r3, [fp, #-8]
  104e9c:	e3530040 	cmp	r3, #64	; 0x40
  104ea0:	daffffd7 	ble	104e04 <ut+0x7ac>
  104ea4:	e59b302c 	ldr	r3, [fp, #44]	; 0x2c
  104ea8:	e5933004 	ldr	r3, [r3, #4]
  104eac:	e5933000 	ldr	r3, [r3]
  104eb0:	e3530000 	cmp	r3, #0
  104eb4:	0a000091 	beq	105100 <ut+0xaa8>
  104eb8:	e59b302c 	ldr	r3, [fp, #44]	; 0x2c
  104ebc:	e5933004 	ldr	r3, [r3, #4]
  104ec0:	e5933000 	ldr	r3, [r3]
  104ec4:	e1a03303 	lsl	r3, r3, #6
  104ec8:	e50b3018 	str	r3, [fp, #-24]	; 0xffffffe8
  104ecc:	e3a03000 	mov	r3, #0
  104ed0:	e50b3014 	str	r3, [fp, #-20]	; 0xffffffec
  104ed4:	ea00001c 	b	104f4c <ut+0x8f4>
  104ed8:	e51b2014 	ldr	r2, [fp, #-20]	; 0xffffffec
  104edc:	e51b303c 	ldr	r3, [fp, #-60]	; 0xffffffc4
  104ee0:	e0823003 	add	r3, r2, r3
  104ee4:	e50b3008 	str	r3, [fp, #-8]
  104ee8:	e51b3014 	ldr	r3, [fp, #-20]	; 0xffffffec
  104eec:	e50b301c 	str	r3, [fp, #-28]	; 0xffffffe4
  104ef0:	ea00000c 	b	104f28 <ut+0x8d0>
  104ef4:	e24b3902 	sub	r3, fp, #32768	; 0x8000
  104ef8:	e2433004 	sub	r3, r3, #4
  104efc:	e513354c 	ldr	r3, [r3, #-1356]	; 0xfffffab4
  104f00:	e5932000 	ldr	r2, [r3]
  104f04:	e51b301c 	ldr	r3, [fp, #-28]	; 0xffffffe4
  104f08:	e1a03183 	lsl	r3, r3, #3
  104f0c:	e0821003 	add	r1, r2, r3
  104f10:	e3a02000 	mov	r2, #0
  104f14:	e3a03000 	mov	r3, #0
  104f18:	e1c120f0 	strd	r2, [r1]
  104f1c:	e51b301c 	ldr	r3, [fp, #-28]	; 0xffffffe4
  104f20:	e2833001 	add	r3, r3, #1
  104f24:	e50b301c 	str	r3, [fp, #-28]	; 0xffffffe4
  104f28:	e51b301c 	ldr	r3, [fp, #-28]	; 0xffffffe4
  104f2c:	e2832001 	add	r2, r3, #1
  104f30:	e51b3008 	ldr	r3, [fp, #-8]
  104f34:	e1520003 	cmp	r2, r3
  104f38:	daffffed 	ble	104ef4 <ut+0x89c>
  104f3c:	e51b2014 	ldr	r2, [fp, #-20]	; 0xffffffec
  104f40:	e51b303c 	ldr	r3, [fp, #-60]	; 0xffffffc4
  104f44:	e0823003 	add	r3, r2, r3
  104f48:	e50b3014 	str	r3, [fp, #-20]	; 0xffffffec
  104f4c:	e51b303c 	ldr	r3, [fp, #-60]	; 0xffffffc4
  104f50:	e3530000 	cmp	r3, #0
  104f54:	da000003 	ble	104f68 <ut+0x910>
  104f58:	e51b2014 	ldr	r2, [fp, #-20]	; 0xffffffec
  104f5c:	e51b3018 	ldr	r3, [fp, #-24]	; 0xffffffe8
  104f60:	e1520003 	cmp	r2, r3
  104f64:	daffffdb 	ble	104ed8 <ut+0x880>
  104f68:	e3a03000 	mov	r3, #0
  104f6c:	e50b300c 	str	r3, [fp, #-12]
  104f70:	e3a03000 	mov	r3, #0
  104f74:	e50b3014 	str	r3, [fp, #-20]	; 0xffffffec
  104f78:	ea000059 	b	1050e4 <ut+0xa8c>
  104f7c:	e3e03000 	mvn	r3, #0
  104f80:	e50b3020 	str	r3, [fp, #-32]	; 0xffffffe0
  104f84:	e51b300c 	ldr	r3, [fp, #-12]
  104f88:	e50b3024 	str	r3, [fp, #-36]	; 0xffffffdc
  104f8c:	ea000047 	b	1050b0 <ut+0xa58>
  104f90:	e24b3902 	sub	r3, fp, #32768	; 0x8000
  104f94:	e2433004 	sub	r3, r3, #4
  104f98:	e2433d11 	sub	r3, r3, #1088	; 0x440
  104f9c:	e1a02003 	mov	r2, r3
  104fa0:	e51b3024 	ldr	r3, [fp, #-36]	; 0xffffffdc
  104fa4:	e1a03183 	lsl	r3, r3, #3
  104fa8:	e0823003 	add	r3, r2, r3
  104fac:	e2433008 	sub	r3, r3, #8
  104fb0:	edd30b00 	vldr	d16, [r3]
  104fb4:	eef50b40 	vcmp.f64	d16, #0.0
  104fb8:	eef1fa10 	vmrs	APSR_nzcv, fpscr
  104fbc:	0a000034 	beq	105094 <ut+0xa3c>
  104fc0:	e51b3020 	ldr	r3, [fp, #-32]	; 0xffffffe0
  104fc4:	e50b3028 	str	r3, [fp, #-40]	; 0xffffffd8
  104fc8:	e51b2014 	ldr	r2, [fp, #-20]	; 0xffffffec
  104fcc:	e51b303c 	ldr	r3, [fp, #-60]	; 0xffffffc4
  104fd0:	e0823003 	add	r3, r2, r3
  104fd4:	e50b3008 	str	r3, [fp, #-8]
  104fd8:	e51b3014 	ldr	r3, [fp, #-20]	; 0xffffffec
  104fdc:	e50b301c 	str	r3, [fp, #-28]	; 0xffffffe4
  104fe0:	ea000026 	b	105080 <ut+0xa28>
  104fe4:	e51b3028 	ldr	r3, [fp, #-40]	; 0xffffffd8
  104fe8:	e2833001 	add	r3, r3, #1
  104fec:	e50b3028 	str	r3, [fp, #-40]	; 0xffffffd8
  104ff0:	e24b3902 	sub	r3, fp, #32768	; 0x8000
  104ff4:	e2433004 	sub	r3, r3, #4
  104ff8:	e513354c 	ldr	r3, [r3, #-1356]	; 0xfffffab4
  104ffc:	e5932000 	ldr	r2, [r3]
  105000:	e51b301c 	ldr	r3, [fp, #-28]	; 0xffffffe4
  105004:	e1a03183 	lsl	r3, r3, #3
  105008:	e0823003 	add	r3, r2, r3
  10500c:	e24b2902 	sub	r2, fp, #32768	; 0x8000
  105010:	e2422004 	sub	r2, r2, #4
  105014:	e512254c 	ldr	r2, [r2, #-1356]	; 0xfffffab4
  105018:	e5921000 	ldr	r1, [r2]
  10501c:	e51b201c 	ldr	r2, [fp, #-28]	; 0xffffffe4
  105020:	e1a02182 	lsl	r2, r2, #3
  105024:	e0812002 	add	r2, r1, r2
  105028:	edd21b00 	vldr	d17, [r2]
  10502c:	e24b2902 	sub	r2, fp, #32768	; 0x8000
  105030:	e2422004 	sub	r2, r2, #4
  105034:	e2422d11 	sub	r2, r2, #1088	; 0x440
  105038:	e1a01002 	mov	r1, r2
  10503c:	e51b2024 	ldr	r2, [fp, #-36]	; 0xffffffdc
  105040:	e1a02182 	lsl	r2, r2, #3
  105044:	e0812002 	add	r2, r1, r2
  105048:	e2422008 	sub	r2, r2, #8
  10504c:	edd22b00 	vldr	d18, [r2]
  105050:	e59b202c 	ldr	r2, [fp, #44]	; 0x2c
  105054:	e5921000 	ldr	r1, [r2]
  105058:	e51b2028 	ldr	r2, [fp, #-40]	; 0xffffffd8
  10505c:	e1a02182 	lsl	r2, r2, #3
  105060:	e0812002 	add	r2, r1, r2
  105064:	edd20b00 	vldr	d16, [r2]
  105068:	ee620ba0 	vmul.f64	d16, d18, d16
  10506c:	ee710ba0 	vadd.f64	d16, d17, d16
  105070:	edc30b00 	vstr	d16, [r3]
  105074:	e51b301c 	ldr	r3, [fp, #-28]	; 0xffffffe4
  105078:	e2833001 	add	r3, r3, #1
  10507c:	e50b301c 	str	r3, [fp, #-28]	; 0xffffffe4
  105080:	e51b301c 	ldr	r3, [fp, #-28]	; 0xffffffe4
  105084:	e2832001 	add	r2, r3, #1
  105088:	e51b3008 	ldr	r3, [fp, #-8]
  10508c:	e1520003 	cmp	r2, r3
  105090:	daffffd3 	ble	104fe4 <ut+0x98c>
  105094:	e51b2020 	ldr	r2, [fp, #-32]	; 0xffffffe0
  105098:	e51b303c 	ldr	r3, [fp, #-60]	; 0xffffffc4
  10509c:	e0823003 	add	r3, r2, r3
  1050a0:	e50b3020 	str	r3, [fp, #-32]	; 0xffffffe0
  1050a4:	e51b3024 	ldr	r3, [fp, #-36]	; 0xffffffdc
  1050a8:	e2833001 	add	r3, r3, #1
  1050ac:	e50b3024 	str	r3, [fp, #-36]	; 0xffffffdc
  1050b0:	e51b3024 	ldr	r3, [fp, #-36]	; 0xffffffdc
  1050b4:	e2832001 	add	r2, r3, #1
  1050b8:	e51b300c 	ldr	r3, [fp, #-12]
  1050bc:	e2833041 	add	r3, r3, #65	; 0x41
  1050c0:	e1520003 	cmp	r2, r3
  1050c4:	daffffb1 	ble	104f90 <ut+0x938>
  1050c8:	e51b300c 	ldr	r3, [fp, #-12]
  1050cc:	e2833041 	add	r3, r3, #65	; 0x41
  1050d0:	e50b300c 	str	r3, [fp, #-12]
  1050d4:	e51b2014 	ldr	r2, [fp, #-20]	; 0xffffffec
  1050d8:	e51b303c 	ldr	r3, [fp, #-60]	; 0xffffffc4
  1050dc:	e0823003 	add	r3, r2, r3
  1050e0:	e50b3014 	str	r3, [fp, #-20]	; 0xffffffec
  1050e4:	e51b303c 	ldr	r3, [fp, #-60]	; 0xffffffc4
  1050e8:	e3530000 	cmp	r3, #0
  1050ec:	da000003 	ble	105100 <ut+0xaa8>
  1050f0:	e51b2014 	ldr	r2, [fp, #-20]	; 0xffffffec
  1050f4:	e51b3018 	ldr	r3, [fp, #-24]	; 0xffffffe8
  1050f8:	e1520003 	cmp	r2, r3
  1050fc:	daffff9e 	ble	104f7c <ut+0x924>
  105100:	e24b3c85 	sub	r3, fp, #34048	; 0x8500
  105104:	e2433004 	sub	r3, r3, #4
  105108:	e2433050 	sub	r3, r3, #80	; 0x50
  10510c:	e3a01002 	mov	r1, #2
  105110:	e1a00003 	mov	r0, r3
  105114:	eb0003b6 	bl	105ff4 <emxInit_real_T>
  105118:	e24b3902 	sub	r3, fp, #32768	; 0x8000
  10511c:	e2433004 	sub	r3, r3, #4
  105120:	e5133550 	ldr	r3, [r3, #-1360]	; 0xfffffab0
  105124:	e5933004 	ldr	r3, [r3, #4]
  105128:	e5933000 	ldr	r3, [r3]
  10512c:	e24b2902 	sub	r2, fp, #32768	; 0x8000
  105130:	e2422004 	sub	r2, r2, #4
  105134:	e5122550 	ldr	r2, [r2, #-1360]	; 0xfffffab0
  105138:	e5922004 	ldr	r2, [r2, #4]
  10513c:	e2822004 	add	r2, r2, #4
  105140:	e5922000 	ldr	r2, [r2]
  105144:	e0030392 	mul	r3, r2, r3
  105148:	e50b3008 	str	r3, [fp, #-8]
  10514c:	e24b3902 	sub	r3, fp, #32768	; 0x8000
  105150:	e2433004 	sub	r3, r3, #4
  105154:	e5133550 	ldr	r3, [r3, #-1360]	; 0xfffffab0
  105158:	e5933004 	ldr	r3, [r3, #4]
  10515c:	e3a02041 	mov	r2, #65	; 0x41
  105160:	e5832000 	str	r2, [r3]
  105164:	e24b3902 	sub	r3, fp, #32768	; 0x8000
  105168:	e2433004 	sub	r3, r3, #4
  10516c:	e5133550 	ldr	r3, [r3, #-1360]	; 0xfffffab0
  105170:	e5933004 	ldr	r3, [r3, #4]
  105174:	e2833004 	add	r3, r3, #4
  105178:	e59b202c 	ldr	r2, [fp, #44]	; 0x2c
  10517c:	e5922004 	ldr	r2, [r2, #4]
  105180:	e5922000 	ldr	r2, [r2]
  105184:	e5832000 	str	r2, [r3]
  105188:	e24b3902 	sub	r3, fp, #32768	; 0x8000
  10518c:	e2433004 	sub	r3, r3, #4
  105190:	e5133550 	ldr	r3, [r3, #-1360]	; 0xfffffab0
  105194:	e3a02008 	mov	r2, #8
  105198:	e51b1008 	ldr	r1, [fp, #-8]
  10519c:	e1a00003 	mov	r0, r3
  1051a0:	eb0002b3 	bl	105c74 <emxEnsureCapacity>
  1051a4:	e59b302c 	ldr	r3, [fp, #44]	; 0x2c
  1051a8:	e5933004 	ldr	r3, [r3, #4]
  1051ac:	e5933000 	ldr	r3, [r3]
  1051b0:	e50b300c 	str	r3, [fp, #-12]
  1051b4:	e3a03000 	mov	r3, #0
  1051b8:	e50b3008 	str	r3, [fp, #-8]
  1051bc:	ea000027 	b	105260 <ut+0xc08>
  1051c0:	e3a03000 	mov	r3, #0
  1051c4:	e50b3014 	str	r3, [fp, #-20]	; 0xffffffec
  1051c8:	ea00001e 	b	105248 <ut+0xbf0>
  1051cc:	e24b3902 	sub	r3, fp, #32768	; 0x8000
  1051d0:	e2433004 	sub	r3, r3, #4
  1051d4:	e5133550 	ldr	r3, [r3, #-1360]	; 0xfffffab0
  1051d8:	e5932000 	ldr	r2, [r3]
  1051dc:	e24b3902 	sub	r3, fp, #32768	; 0x8000
  1051e0:	e2433004 	sub	r3, r3, #4
  1051e4:	e5133550 	ldr	r3, [r3, #-1360]	; 0xfffffab0
  1051e8:	e5933004 	ldr	r3, [r3, #4]
  1051ec:	e5933000 	ldr	r3, [r3]
  1051f0:	e51b1008 	ldr	r1, [fp, #-8]
  1051f4:	e0010391 	mul	r1, r1, r3
  1051f8:	e51b3014 	ldr	r3, [fp, #-20]	; 0xffffffec
  1051fc:	e0813003 	add	r3, r1, r3
  105200:	e1a03183 	lsl	r3, r3, #3
  105204:	e0821003 	add	r1, r2, r3
  105208:	e59b302c 	ldr	r3, [fp, #44]	; 0x2c
  10520c:	e5932000 	ldr	r2, [r3]
  105210:	e59b302c 	ldr	r3, [fp, #44]	; 0x2c
  105214:	e5933004 	ldr	r3, [r3, #4]
  105218:	e5933000 	ldr	r3, [r3]
  10521c:	e51b0014 	ldr	r0, [fp, #-20]	; 0xffffffec
  105220:	e0000390 	mul	r0, r0, r3
  105224:	e51b3008 	ldr	r3, [fp, #-8]
  105228:	e0803003 	add	r3, r0, r3
  10522c:	e1a03183 	lsl	r3, r3, #3
  105230:	e0823003 	add	r3, r2, r3
  105234:	e1c320d0 	ldrd	r2, [r3]
  105238:	e1c120f0 	strd	r2, [r1]
  10523c:	e51b3014 	ldr	r3, [fp, #-20]	; 0xffffffec
  105240:	e2833001 	add	r3, r3, #1
  105244:	e50b3014 	str	r3, [fp, #-20]	; 0xffffffec
  105248:	e51b3014 	ldr	r3, [fp, #-20]	; 0xffffffec
  10524c:	e3530040 	cmp	r3, #64	; 0x40
  105250:	daffffdd 	ble	1051cc <ut+0xb74>
  105254:	e51b3008 	ldr	r3, [fp, #-8]
  105258:	e2833001 	add	r3, r3, #1
  10525c:	e50b3008 	str	r3, [fp, #-8]
  105260:	e51b2008 	ldr	r2, [fp, #-8]
  105264:	e51b300c 	ldr	r3, [fp, #-12]
  105268:	e1520003 	cmp	r2, r3
  10526c:	baffffd3 	blt	1051c0 <ut+0xb68>
  105270:	e24b3c85 	sub	r3, fp, #34048	; 0x8500
  105274:	e2433004 	sub	r3, r3, #4
  105278:	e2433054 	sub	r3, r3, #84	; 0x54
  10527c:	e3a01002 	mov	r1, #2
  105280:	e1a00003 	mov	r0, r3
  105284:	eb00035a 	bl	105ff4 <emxInit_real_T>
  105288:	e24b3902 	sub	r3, fp, #32768	; 0x8000
  10528c:	e2433004 	sub	r3, r3, #4
  105290:	e513354c 	ldr	r3, [r3, #-1356]	; 0xfffffab4
  105294:	e5933004 	ldr	r3, [r3, #4]
  105298:	e5933000 	ldr	r3, [r3]
  10529c:	e50b3038 	str	r3, [fp, #-56]	; 0xffffffc8
  1052a0:	e24b3902 	sub	r3, fp, #32768	; 0x8000
  1052a4:	e2433004 	sub	r3, r3, #4
  1052a8:	e5133550 	ldr	r3, [r3, #-1360]	; 0xfffffab0
  1052ac:	e5933004 	ldr	r3, [r3, #4]
  1052b0:	e2833004 	add	r3, r3, #4
  1052b4:	e5933000 	ldr	r3, [r3]
  1052b8:	e50b3040 	str	r3, [fp, #-64]	; 0xffffffc0
  1052bc:	e24b3902 	sub	r3, fp, #32768	; 0x8000
  1052c0:	e2433004 	sub	r3, r3, #4
  1052c4:	e5133554 	ldr	r3, [r3, #-1364]	; 0xfffffaac
  1052c8:	e5933004 	ldr	r3, [r3, #4]
  1052cc:	e5933000 	ldr	r3, [r3]
  1052d0:	e24b2902 	sub	r2, fp, #32768	; 0x8000
  1052d4:	e2422004 	sub	r2, r2, #4
  1052d8:	e5122554 	ldr	r2, [r2, #-1364]	; 0xfffffaac
  1052dc:	e5922004 	ldr	r2, [r2, #4]
  1052e0:	e2822004 	add	r2, r2, #4
  1052e4:	e5922000 	ldr	r2, [r2]
  1052e8:	e0030392 	mul	r3, r2, r3
  1052ec:	e50b3008 	str	r3, [fp, #-8]
  1052f0:	e24b3902 	sub	r3, fp, #32768	; 0x8000
  1052f4:	e2433004 	sub	r3, r3, #4
  1052f8:	e5133554 	ldr	r3, [r3, #-1364]	; 0xfffffaac
  1052fc:	e5933004 	ldr	r3, [r3, #4]
  105300:	e51b2038 	ldr	r2, [fp, #-56]	; 0xffffffc8
  105304:	e5832000 	str	r2, [r3]
  105308:	e24b3902 	sub	r3, fp, #32768	; 0x8000
  10530c:	e2433004 	sub	r3, r3, #4
  105310:	e5133554 	ldr	r3, [r3, #-1364]	; 0xfffffaac
  105314:	e5933004 	ldr	r3, [r3, #4]
  105318:	e2833004 	add	r3, r3, #4
  10531c:	e51b2040 	ldr	r2, [fp, #-64]	; 0xffffffc0
  105320:	e5832000 	str	r2, [r3]
  105324:	e24b3902 	sub	r3, fp, #32768	; 0x8000
  105328:	e2433004 	sub	r3, r3, #4
  10532c:	e5133554 	ldr	r3, [r3, #-1364]	; 0xfffffaac
  105330:	e3a02008 	mov	r2, #8
  105334:	e51b1008 	ldr	r1, [fp, #-8]
  105338:	e1a00003 	mov	r0, r3
  10533c:	eb00024c 	bl	105c74 <emxEnsureCapacity>
  105340:	e24b3902 	sub	r3, fp, #32768	; 0x8000
  105344:	e2433004 	sub	r3, r3, #4
  105348:	e513354c 	ldr	r3, [r3, #-1356]	; 0xfffffab4
  10534c:	e5933004 	ldr	r3, [r3, #4]
  105350:	e5933000 	ldr	r3, [r3]
  105354:	e50b303c 	str	r3, [fp, #-60]	; 0xffffffc4
  105358:	e24b3902 	sub	r3, fp, #32768	; 0x8000
  10535c:	e2433004 	sub	r3, r3, #4
  105360:	e5133554 	ldr	r3, [r3, #-1364]	; 0xfffffaac
  105364:	e5933004 	ldr	r3, [r3, #4]
  105368:	e5933000 	ldr	r3, [r3]
  10536c:	e24b2902 	sub	r2, fp, #32768	; 0x8000
  105370:	e2422004 	sub	r2, r2, #4
  105374:	e5122554 	ldr	r2, [r2, #-1364]	; 0xfffffaac
  105378:	e5922004 	ldr	r2, [r2, #4]
  10537c:	e2822004 	add	r2, r2, #4
  105380:	e5922000 	ldr	r2, [r2]
  105384:	e0030392 	mul	r3, r2, r3
  105388:	e50b3008 	str	r3, [fp, #-8]
  10538c:	e24b3902 	sub	r3, fp, #32768	; 0x8000
  105390:	e2433004 	sub	r3, r3, #4
  105394:	e5133554 	ldr	r3, [r3, #-1364]	; 0xfffffaac
  105398:	e3a02008 	mov	r2, #8
  10539c:	e51b1008 	ldr	r1, [fp, #-8]
  1053a0:	e1a00003 	mov	r0, r3
  1053a4:	eb000232 	bl	105c74 <emxEnsureCapacity>
  1053a8:	e24b3902 	sub	r3, fp, #32768	; 0x8000
  1053ac:	e2433004 	sub	r3, r3, #4
  1053b0:	e5133554 	ldr	r3, [r3, #-1364]	; 0xfffffaac
  1053b4:	e5933004 	ldr	r3, [r3, #4]
  1053b8:	e5933004 	ldr	r3, [r3, #4]
  1053bc:	e50b300c 	str	r3, [fp, #-12]
  1053c0:	e3a03000 	mov	r3, #0
  1053c4:	e50b3008 	str	r3, [fp, #-8]
  1053c8:	ea000024 	b	105460 <ut+0xe08>
  1053cc:	e24b3902 	sub	r3, fp, #32768	; 0x8000
  1053d0:	e2433004 	sub	r3, r3, #4
  1053d4:	e5133554 	ldr	r3, [r3, #-1364]	; 0xfffffaac
  1053d8:	e5933004 	ldr	r3, [r3, #4]
  1053dc:	e5933000 	ldr	r3, [r3]
  1053e0:	e50b3018 	str	r3, [fp, #-24]	; 0xffffffe8
  1053e4:	e3a03000 	mov	r3, #0
  1053e8:	e50b3014 	str	r3, [fp, #-20]	; 0xffffffec
  1053ec:	ea000014 	b	105444 <ut+0xdec>
  1053f0:	e24b3902 	sub	r3, fp, #32768	; 0x8000
  1053f4:	e2433004 	sub	r3, r3, #4
  1053f8:	e5133554 	ldr	r3, [r3, #-1364]	; 0xfffffaac
  1053fc:	e5932000 	ldr	r2, [r3]
  105400:	e24b3902 	sub	r3, fp, #32768	; 0x8000
  105404:	e2433004 	sub	r3, r3, #4
  105408:	e5133554 	ldr	r3, [r3, #-1364]	; 0xfffffaac
  10540c:	e5933004 	ldr	r3, [r3, #4]
  105410:	e5933000 	ldr	r3, [r3]
  105414:	e51b1008 	ldr	r1, [fp, #-8]
  105418:	e0010391 	mul	r1, r1, r3
  10541c:	e51b3014 	ldr	r3, [fp, #-20]	; 0xffffffec
  105420:	e0813003 	add	r3, r1, r3
  105424:	e1a03183 	lsl	r3, r3, #3
  105428:	e0821003 	add	r1, r2, r3
  10542c:	e3a02000 	mov	r2, #0
  105430:	e3a03000 	mov	r3, #0
  105434:	e1c120f0 	strd	r2, [r1]
  105438:	e51b3014 	ldr	r3, [fp, #-20]	; 0xffffffec
  10543c:	e2833001 	add	r3, r3, #1
  105440:	e50b3014 	str	r3, [fp, #-20]	; 0xffffffec
  105444:	e51b2014 	ldr	r2, [fp, #-20]	; 0xffffffec
  105448:	e51b3018 	ldr	r3, [fp, #-24]	; 0xffffffe8
  10544c:	e1520003 	cmp	r2, r3
  105450:	baffffe6 	blt	1053f0 <ut+0xd98>
  105454:	e51b3008 	ldr	r3, [fp, #-8]
  105458:	e2833001 	add	r3, r3, #1
  10545c:	e50b3008 	str	r3, [fp, #-8]
  105460:	e51b2008 	ldr	r2, [fp, #-8]
  105464:	e51b300c 	ldr	r3, [fp, #-12]
  105468:	e1520003 	cmp	r2, r3
  10546c:	baffffd6 	blt	1053cc <ut+0xd74>
  105470:	e24b3902 	sub	r3, fp, #32768	; 0x8000
  105474:	e2433004 	sub	r3, r3, #4
  105478:	e513354c 	ldr	r3, [r3, #-1356]	; 0xfffffab4
  10547c:	e5933004 	ldr	r3, [r3, #4]
  105480:	e5933000 	ldr	r3, [r3]
  105484:	e3530000 	cmp	r3, #0
  105488:	0a0000a2 	beq	105718 <ut+0x10c0>
  10548c:	e24b3902 	sub	r3, fp, #32768	; 0x8000
  105490:	e2433004 	sub	r3, r3, #4
  105494:	e5133550 	ldr	r3, [r3, #-1360]	; 0xfffffab0
  105498:	e5933004 	ldr	r3, [r3, #4]
  10549c:	e2833004 	add	r3, r3, #4
  1054a0:	e5933000 	ldr	r3, [r3]
  1054a4:	e3530000 	cmp	r3, #0
  1054a8:	0a00009a 	beq	105718 <ut+0x10c0>
  1054ac:	e24b3902 	sub	r3, fp, #32768	; 0x8000
  1054b0:	e2433004 	sub	r3, r3, #4
  1054b4:	e513354c 	ldr	r3, [r3, #-1356]	; 0xfffffab4
  1054b8:	e5933004 	ldr	r3, [r3, #4]
  1054bc:	e5933000 	ldr	r3, [r3]
  1054c0:	e24b2902 	sub	r2, fp, #32768	; 0x8000
  1054c4:	e2422004 	sub	r2, r2, #4
  1054c8:	e5122550 	ldr	r2, [r2, #-1360]	; 0xfffffab0
  1054cc:	e5922004 	ldr	r2, [r2, #4]
  1054d0:	e2822004 	add	r2, r2, #4
  1054d4:	e5922000 	ldr	r2, [r2]
  1054d8:	e2422001 	sub	r2, r2, #1
  1054dc:	e0030392 	mul	r3, r2, r3
  1054e0:	e50b3018 	str	r3, [fp, #-24]	; 0xffffffe8
  1054e4:	e3a03000 	mov	r3, #0
  1054e8:	e50b3014 	str	r3, [fp, #-20]	; 0xffffffec
  1054ec:	ea00001c 	b	105564 <ut+0xf0c>
  1054f0:	e51b2014 	ldr	r2, [fp, #-20]	; 0xffffffec
  1054f4:	e51b303c 	ldr	r3, [fp, #-60]	; 0xffffffc4
  1054f8:	e0823003 	add	r3, r2, r3
  1054fc:	e50b3008 	str	r3, [fp, #-8]
  105500:	e51b3014 	ldr	r3, [fp, #-20]	; 0xffffffec
  105504:	e50b301c 	str	r3, [fp, #-28]	; 0xffffffe4
  105508:	ea00000c 	b	105540 <ut+0xee8>
  10550c:	e24b3902 	sub	r3, fp, #32768	; 0x8000
  105510:	e2433004 	sub	r3, r3, #4
  105514:	e5133554 	ldr	r3, [r3, #-1364]	; 0xfffffaac
  105518:	e5932000 	ldr	r2, [r3]
  10551c:	e51b301c 	ldr	r3, [fp, #-28]	; 0xffffffe4
  105520:	e1a03183 	lsl	r3, r3, #3
  105524:	e0821003 	add	r1, r2, r3
  105528:	e3a02000 	mov	r2, #0
  10552c:	e3a03000 	mov	r3, #0
  105530:	e1c120f0 	strd	r2, [r1]
  105534:	e51b301c 	ldr	r3, [fp, #-28]	; 0xffffffe4
  105538:	e2833001 	add	r3, r3, #1
  10553c:	e50b301c 	str	r3, [fp, #-28]	; 0xffffffe4
  105540:	e51b301c 	ldr	r3, [fp, #-28]	; 0xffffffe4
  105544:	e2832001 	add	r2, r3, #1
  105548:	e51b3008 	ldr	r3, [fp, #-8]
  10554c:	e1520003 	cmp	r2, r3
  105550:	daffffed 	ble	10550c <ut+0xeb4>
  105554:	e51b2014 	ldr	r2, [fp, #-20]	; 0xffffffec
  105558:	e51b303c 	ldr	r3, [fp, #-60]	; 0xffffffc4
  10555c:	e0823003 	add	r3, r2, r3
  105560:	e50b3014 	str	r3, [fp, #-20]	; 0xffffffec
  105564:	e51b303c 	ldr	r3, [fp, #-60]	; 0xffffffc4
  105568:	e3530000 	cmp	r3, #0
  10556c:	da000003 	ble	105580 <ut+0xf28>
  105570:	e51b2014 	ldr	r2, [fp, #-20]	; 0xffffffec
  105574:	e51b3018 	ldr	r3, [fp, #-24]	; 0xffffffe8
  105578:	e1520003 	cmp	r2, r3
  10557c:	daffffdb 	ble	1054f0 <ut+0xe98>
  105580:	e3a03000 	mov	r3, #0
  105584:	e50b300c 	str	r3, [fp, #-12]
  105588:	e3a03000 	mov	r3, #0
  10558c:	e50b3014 	str	r3, [fp, #-20]	; 0xffffffec
  105590:	ea000059 	b	1056fc <ut+0x10a4>
  105594:	e3e03000 	mvn	r3, #0
  105598:	e50b3020 	str	r3, [fp, #-32]	; 0xffffffe0
  10559c:	e51b300c 	ldr	r3, [fp, #-12]
  1055a0:	e50b3024 	str	r3, [fp, #-36]	; 0xffffffdc
  1055a4:	ea000047 	b	1056c8 <ut+0x1070>
  1055a8:	e24b3902 	sub	r3, fp, #32768	; 0x8000
  1055ac:	e2433004 	sub	r3, r3, #4
  1055b0:	e5133550 	ldr	r3, [r3, #-1360]	; 0xfffffab0
  1055b4:	e5932000 	ldr	r2, [r3]
  1055b8:	e51b3024 	ldr	r3, [fp, #-36]	; 0xffffffdc
  1055bc:	e1a03183 	lsl	r3, r3, #3
  1055c0:	e0823003 	add	r3, r2, r3
  1055c4:	edd30b00 	vldr	d16, [r3]
  1055c8:	eef50b40 	vcmp.f64	d16, #0.0
  1055cc:	eef1fa10 	vmrs	APSR_nzcv, fpscr
  1055d0:	0a000035 	beq	1056ac <ut+0x1054>
  1055d4:	e51b3020 	ldr	r3, [fp, #-32]	; 0xffffffe0
  1055d8:	e50b3028 	str	r3, [fp, #-40]	; 0xffffffd8
  1055dc:	e51b2014 	ldr	r2, [fp, #-20]	; 0xffffffec
  1055e0:	e51b303c 	ldr	r3, [fp, #-60]	; 0xffffffc4
  1055e4:	e0823003 	add	r3, r2, r3
  1055e8:	e50b3008 	str	r3, [fp, #-8]
  1055ec:	e51b3014 	ldr	r3, [fp, #-20]	; 0xffffffec
  1055f0:	e50b301c 	str	r3, [fp, #-28]	; 0xffffffe4
  1055f4:	ea000027 	b	105698 <ut+0x1040>
  1055f8:	e51b3028 	ldr	r3, [fp, #-40]	; 0xffffffd8
  1055fc:	e2833001 	add	r3, r3, #1
  105600:	e50b3028 	str	r3, [fp, #-40]	; 0xffffffd8
  105604:	e24b3902 	sub	r3, fp, #32768	; 0x8000
  105608:	e2433004 	sub	r3, r3, #4
  10560c:	e5133554 	ldr	r3, [r3, #-1364]	; 0xfffffaac
  105610:	e5932000 	ldr	r2, [r3]
  105614:	e51b301c 	ldr	r3, [fp, #-28]	; 0xffffffe4
  105618:	e1a03183 	lsl	r3, r3, #3
  10561c:	e0823003 	add	r3, r2, r3
  105620:	e24b2902 	sub	r2, fp, #32768	; 0x8000
  105624:	e2422004 	sub	r2, r2, #4
  105628:	e5122554 	ldr	r2, [r2, #-1364]	; 0xfffffaac
  10562c:	e5921000 	ldr	r1, [r2]
  105630:	e51b201c 	ldr	r2, [fp, #-28]	; 0xffffffe4
  105634:	e1a02182 	lsl	r2, r2, #3
  105638:	e0812002 	add	r2, r1, r2
  10563c:	edd21b00 	vldr	d17, [r2]
  105640:	e24b2902 	sub	r2, fp, #32768	; 0x8000
  105644:	e2422004 	sub	r2, r2, #4
  105648:	e5122550 	ldr	r2, [r2, #-1360]	; 0xfffffab0
  10564c:	e5921000 	ldr	r1, [r2]
  105650:	e51b2024 	ldr	r2, [fp, #-36]	; 0xffffffdc
  105654:	e1a02182 	lsl	r2, r2, #3
  105658:	e0812002 	add	r2, r1, r2
  10565c:	edd22b00 	vldr	d18, [r2]
  105660:	e24b2902 	sub	r2, fp, #32768	; 0x8000
  105664:	e2422004 	sub	r2, r2, #4
  105668:	e512254c 	ldr	r2, [r2, #-1356]	; 0xfffffab4
  10566c:	e5921000 	ldr	r1, [r2]
  105670:	e51b2028 	ldr	r2, [fp, #-40]	; 0xffffffd8
  105674:	e1a02182 	lsl	r2, r2, #3
  105678:	e0812002 	add	r2, r1, r2
  10567c:	edd20b00 	vldr	d16, [r2]
  105680:	ee620ba0 	vmul.f64	d16, d18, d16
  105684:	ee710ba0 	vadd.f64	d16, d17, d16
  105688:	edc30b00 	vstr	d16, [r3]
  10568c:	e51b301c 	ldr	r3, [fp, #-28]	; 0xffffffe4
  105690:	e2833001 	add	r3, r3, #1
  105694:	e50b301c 	str	r3, [fp, #-28]	; 0xffffffe4
  105698:	e51b301c 	ldr	r3, [fp, #-28]	; 0xffffffe4
  10569c:	e2832001 	add	r2, r3, #1
  1056a0:	e51b3008 	ldr	r3, [fp, #-8]
  1056a4:	e1520003 	cmp	r2, r3
  1056a8:	daffffd2 	ble	1055f8 <ut+0xfa0>
  1056ac:	e51b2020 	ldr	r2, [fp, #-32]	; 0xffffffe0
  1056b0:	e51b303c 	ldr	r3, [fp, #-60]	; 0xffffffc4
  1056b4:	e0823003 	add	r3, r2, r3
  1056b8:	e50b3020 	str	r3, [fp, #-32]	; 0xffffffe0
  1056bc:	e51b3024 	ldr	r3, [fp, #-36]	; 0xffffffdc
  1056c0:	e2833001 	add	r3, r3, #1
  1056c4:	e50b3024 	str	r3, [fp, #-36]	; 0xffffffdc
  1056c8:	e51b3024 	ldr	r3, [fp, #-36]	; 0xffffffdc
  1056cc:	e2832001 	add	r2, r3, #1
  1056d0:	e51b300c 	ldr	r3, [fp, #-12]
  1056d4:	e2833041 	add	r3, r3, #65	; 0x41
  1056d8:	e1520003 	cmp	r2, r3
  1056dc:	daffffb1 	ble	1055a8 <ut+0xf50>
  1056e0:	e51b300c 	ldr	r3, [fp, #-12]
  1056e4:	e2833041 	add	r3, r3, #65	; 0x41
  1056e8:	e50b300c 	str	r3, [fp, #-12]
  1056ec:	e51b2014 	ldr	r2, [fp, #-20]	; 0xffffffec
  1056f0:	e51b303c 	ldr	r3, [fp, #-60]	; 0xffffffc4
  1056f4:	e0823003 	add	r3, r2, r3
  1056f8:	e50b3014 	str	r3, [fp, #-20]	; 0xffffffec
  1056fc:	e51b303c 	ldr	r3, [fp, #-60]	; 0xffffffc4
  105700:	e3530000 	cmp	r3, #0
  105704:	da000003 	ble	105718 <ut+0x10c0>
  105708:	e51b2014 	ldr	r2, [fp, #-20]	; 0xffffffec
  10570c:	e51b3018 	ldr	r3, [fp, #-24]	; 0xffffffe8
  105710:	e1520003 	cmp	r2, r3
  105714:	daffff9e 	ble	105594 <ut+0xf3c>
  105718:	e24b3c85 	sub	r3, fp, #34048	; 0x8500
  10571c:	e2433004 	sub	r3, r3, #4
  105720:	e2433050 	sub	r3, r3, #80	; 0x50
  105724:	e1a00003 	mov	r0, r3
  105728:	eb0001d5 	bl	105e84 <emxFree_real_T>
  10572c:	e24b3c85 	sub	r3, fp, #34048	; 0x8500
  105730:	e2433004 	sub	r3, r3, #4
  105734:	e243304c 	sub	r3, r3, #76	; 0x4c
  105738:	e1a00003 	mov	r0, r3
  10573c:	eb0001d0 	bl	105e84 <emxFree_real_T>
  105740:	e24b3902 	sub	r3, fp, #32768	; 0x8000
  105744:	e2433004 	sub	r3, r3, #4
  105748:	e5133554 	ldr	r3, [r3, #-1364]	; 0xfffffaac
  10574c:	e5933004 	ldr	r3, [r3, #4]
  105750:	e5932000 	ldr	r2, [r3]
  105754:	e59b3028 	ldr	r3, [fp, #40]	; 0x28
  105758:	e5832000 	str	r2, [r3]
  10575c:	e59b3028 	ldr	r3, [fp, #40]	; 0x28
  105760:	e2833004 	add	r3, r3, #4
  105764:	e24b2902 	sub	r2, fp, #32768	; 0x8000
  105768:	e2422004 	sub	r2, r2, #4
  10576c:	e5122554 	ldr	r2, [r2, #-1364]	; 0xfffffaac
  105770:	e5922004 	ldr	r2, [r2, #4]
  105774:	e5922004 	ldr	r2, [r2, #4]
  105778:	e5832000 	str	r2, [r3]
  10577c:	e24b3902 	sub	r3, fp, #32768	; 0x8000
  105780:	e2433004 	sub	r3, r3, #4
  105784:	e5133554 	ldr	r3, [r3, #-1364]	; 0xfffffaac
  105788:	e5933004 	ldr	r3, [r3, #4]
  10578c:	e5933000 	ldr	r3, [r3]
  105790:	e24b2902 	sub	r2, fp, #32768	; 0x8000
  105794:	e2422004 	sub	r2, r2, #4
  105798:	e5122554 	ldr	r2, [r2, #-1364]	; 0xfffffaac
  10579c:	e5922004 	ldr	r2, [r2, #4]
  1057a0:	e2822004 	add	r2, r2, #4
  1057a4:	e5922000 	ldr	r2, [r2]
  1057a8:	e0030392 	mul	r3, r2, r3
  1057ac:	e50b300c 	str	r3, [fp, #-12]
  1057b0:	e3a03000 	mov	r3, #0
  1057b4:	e50b3008 	str	r3, [fp, #-8]
  1057b8:	ea000015 	b	105814 <ut+0x11bc>
  1057bc:	e51b3008 	ldr	r3, [fp, #-8]
  1057c0:	e1a03183 	lsl	r3, r3, #3
  1057c4:	e59b2024 	ldr	r2, [fp, #36]	; 0x24
  1057c8:	e0823003 	add	r3, r2, r3
  1057cc:	e24b2902 	sub	r2, fp, #32768	; 0x8000
  1057d0:	e2422004 	sub	r2, r2, #4
  1057d4:	e5122554 	ldr	r2, [r2, #-1364]	; 0xfffffaac
  1057d8:	e5921000 	ldr	r1, [r2]
  1057dc:	e51b2008 	ldr	r2, [fp, #-8]
  1057e0:	e1a02182 	lsl	r2, r2, #3
  1057e4:	e0812002 	add	r2, r1, r2
  1057e8:	edd21b00 	vldr	d17, [r2]
  1057ec:	e51b2008 	ldr	r2, [fp, #-8]
  1057f0:	e1a02182 	lsl	r2, r2, #3
  1057f4:	e59b1014 	ldr	r1, [fp, #20]
  1057f8:	e0812002 	add	r2, r1, r2
  1057fc:	edd20b00 	vldr	d16, [r2]
  105800:	ee710ba0 	vadd.f64	d16, d17, d16
  105804:	edc30b00 	vstr	d16, [r3]
  105808:	e51b3008 	ldr	r3, [fp, #-8]
  10580c:	e2833001 	add	r3, r3, #1
  105810:	e50b3008 	str	r3, [fp, #-8]
  105814:	e51b2008 	ldr	r2, [fp, #-8]
  105818:	e51b300c 	ldr	r3, [fp, #-12]
  10581c:	e1520003 	cmp	r2, r3
  105820:	baffffe5 	blt	1057bc <ut+0x1164>
  105824:	e24b3c85 	sub	r3, fp, #34048	; 0x8500
  105828:	e2433004 	sub	r3, r3, #4
  10582c:	e2433054 	sub	r3, r3, #84	; 0x54
  105830:	e1a00003 	mov	r0, r3
  105834:	eb000192 	bl	105e84 <emxFree_real_T>
  105838:	e320f000 	nop	{0}
  10583c:	e24bd004 	sub	sp, fp, #4
  105840:	e8bd8800 	pop	{fp, pc}

00105844 <Cholesky_terminate>:
  105844:	e52db004 	push	{fp}		; (str fp, [sp, #-4]!)
  105848:	e28db000 	add	fp, sp, #0
  10584c:	e320f000 	nop	{0}
  105850:	e24bd000 	sub	sp, fp, #0
  105854:	e49db004 	pop	{fp}		; (ldr fp, [sp], #4)
  105858:	e12fff1e 	bx	lr

0010585c <emxCreateND_real_T>:
  10585c:	e92d4810 	push	{r4, fp, lr}
  105860:	e28db008 	add	fp, sp, #8
  105864:	e24dd01c 	sub	sp, sp, #28
  105868:	e50b0020 	str	r0, [fp, #-32]	; 0xffffffe0
  10586c:	e50b1024 	str	r1, [fp, #-36]	; 0xffffffdc
  105870:	e24b3018 	sub	r3, fp, #24
  105874:	e51b1020 	ldr	r1, [fp, #-32]	; 0xffffffe0
  105878:	e1a00003 	mov	r0, r3
  10587c:	eb000212 	bl	1060cc <emxInit_real_T1>
  105880:	e3a03001 	mov	r3, #1
  105884:	e50b3010 	str	r3, [fp, #-16]
  105888:	e3a03000 	mov	r3, #0
  10588c:	e50b3014 	str	r3, [fp, #-20]	; 0xffffffec
  105890:	ea000015 	b	1058ec <emxCreateND_real_T+0x90>
  105894:	e51b3014 	ldr	r3, [fp, #-20]	; 0xffffffec
  105898:	e1a03103 	lsl	r3, r3, #2
  10589c:	e51b2024 	ldr	r2, [fp, #-36]	; 0xffffffdc
  1058a0:	e0823003 	add	r3, r2, r3
  1058a4:	e5932000 	ldr	r2, [r3]
  1058a8:	e51b3010 	ldr	r3, [fp, #-16]
  1058ac:	e0030392 	mul	r3, r2, r3
  1058b0:	e50b3010 	str	r3, [fp, #-16]
  1058b4:	e51b3018 	ldr	r3, [fp, #-24]	; 0xffffffe8
  1058b8:	e5932004 	ldr	r2, [r3, #4]
  1058bc:	e51b3014 	ldr	r3, [fp, #-20]	; 0xffffffec
  1058c0:	e1a03103 	lsl	r3, r3, #2
  1058c4:	e0823003 	add	r3, r2, r3
  1058c8:	e51b2014 	ldr	r2, [fp, #-20]	; 0xffffffec
  1058cc:	e1a02102 	lsl	r2, r2, #2
  1058d0:	e51b1024 	ldr	r1, [fp, #-36]	; 0xffffffdc
  1058d4:	e0812002 	add	r2, r1, r2
  1058d8:	e5922000 	ldr	r2, [r2]
  1058dc:	e5832000 	str	r2, [r3]
  1058e0:	e51b3014 	ldr	r3, [fp, #-20]	; 0xffffffec
  1058e4:	e2833001 	add	r3, r3, #1
  1058e8:	e50b3014 	str	r3, [fp, #-20]	; 0xffffffec
  1058ec:	e51b2014 	ldr	r2, [fp, #-20]	; 0xffffffec
  1058f0:	e51b3020 	ldr	r3, [fp, #-32]	; 0xffffffe0
  1058f4:	e1520003 	cmp	r2, r3
  1058f8:	baffffe5 	blt	105894 <emxCreateND_real_T+0x38>
  1058fc:	e51b4018 	ldr	r4, [fp, #-24]	; 0xffffffe8
  105900:	e51b3010 	ldr	r3, [fp, #-16]
  105904:	e3a01008 	mov	r1, #8
  105908:	e1a00003 	mov	r0, r3
  10590c:	eb000955 	bl	107e68 <calloc>
  105910:	e1a03000 	mov	r3, r0
  105914:	e5843000 	str	r3, [r4]
  105918:	e51b3018 	ldr	r3, [fp, #-24]	; 0xffffffe8
  10591c:	e51b2020 	ldr	r2, [fp, #-32]	; 0xffffffe0
  105920:	e583200c 	str	r2, [r3, #12]
  105924:	e51b3018 	ldr	r3, [fp, #-24]	; 0xffffffe8
  105928:	e51b2010 	ldr	r2, [fp, #-16]
  10592c:	e5832008 	str	r2, [r3, #8]
  105930:	e51b3018 	ldr	r3, [fp, #-24]	; 0xffffffe8
  105934:	e1a00003 	mov	r0, r3
  105938:	e24bd008 	sub	sp, fp, #8
  10593c:	e8bd8810 	pop	{r4, fp, pc}

00105940 <emxCreateWrapperND_real_T>:
  105940:	e92d4800 	push	{fp, lr}
  105944:	e28db004 	add	fp, sp, #4
  105948:	e24dd020 	sub	sp, sp, #32
  10594c:	e50b0018 	str	r0, [fp, #-24]	; 0xffffffe8
  105950:	e50b101c 	str	r1, [fp, #-28]	; 0xffffffe4
  105954:	e50b2020 	str	r2, [fp, #-32]	; 0xffffffe0
  105958:	e24b3010 	sub	r3, fp, #16
  10595c:	e51b101c 	ldr	r1, [fp, #-28]	; 0xffffffe4
  105960:	e1a00003 	mov	r0, r3
  105964:	eb0001d8 	bl	1060cc <emxInit_real_T1>
  105968:	e3a03001 	mov	r3, #1
  10596c:	e50b3008 	str	r3, [fp, #-8]
  105970:	e3a03000 	mov	r3, #0
  105974:	e50b300c 	str	r3, [fp, #-12]
  105978:	ea000015 	b	1059d4 <emxCreateWrapperND_real_T+0x94>
  10597c:	e51b300c 	ldr	r3, [fp, #-12]
  105980:	e1a03103 	lsl	r3, r3, #2
  105984:	e51b2020 	ldr	r2, [fp, #-32]	; 0xffffffe0
  105988:	e0823003 	add	r3, r2, r3
  10598c:	e5932000 	ldr	r2, [r3]
  105990:	e51b3008 	ldr	r3, [fp, #-8]
  105994:	e0030392 	mul	r3, r2, r3
  105998:	e50b3008 	str	r3, [fp, #-8]
  10599c:	e51b3010 	ldr	r3, [fp, #-16]
  1059a0:	e5932004 	ldr	r2, [r3, #4]
  1059a4:	e51b300c 	ldr	r3, [fp, #-12]
  1059a8:	e1a03103 	lsl	r3, r3, #2
  1059ac:	e0823003 	add	r3, r2, r3
  1059b0:	e51b200c 	ldr	r2, [fp, #-12]
  1059b4:	e1a02102 	lsl	r2, r2, #2
  1059b8:	e51b1020 	ldr	r1, [fp, #-32]	; 0xffffffe0
  1059bc:	e0812002 	add	r2, r1, r2
  1059c0:	e5922000 	ldr	r2, [r2]
  1059c4:	e5832000 	str	r2, [r3]
  1059c8:	e51b300c 	ldr	r3, [fp, #-12]
  1059cc:	e2833001 	add	r3, r3, #1
  1059d0:	e50b300c 	str	r3, [fp, #-12]
  1059d4:	e51b200c 	ldr	r2, [fp, #-12]
  1059d8:	e51b301c 	ldr	r3, [fp, #-28]	; 0xffffffe4
  1059dc:	e1520003 	cmp	r2, r3
  1059e0:	baffffe5 	blt	10597c <emxCreateWrapperND_real_T+0x3c>
  1059e4:	e51b3010 	ldr	r3, [fp, #-16]
  1059e8:	e51b2018 	ldr	r2, [fp, #-24]	; 0xffffffe8
  1059ec:	e5832000 	str	r2, [r3]
  1059f0:	e51b3010 	ldr	r3, [fp, #-16]
  1059f4:	e51b201c 	ldr	r2, [fp, #-28]	; 0xffffffe4
  1059f8:	e583200c 	str	r2, [r3, #12]
  1059fc:	e51b3010 	ldr	r3, [fp, #-16]
  105a00:	e51b2008 	ldr	r2, [fp, #-8]
  105a04:	e5832008 	str	r2, [r3, #8]
  105a08:	e51b3010 	ldr	r3, [fp, #-16]
  105a0c:	e3a02000 	mov	r2, #0
  105a10:	e5c32010 	strb	r2, [r3, #16]
  105a14:	e51b3010 	ldr	r3, [fp, #-16]
  105a18:	e1a00003 	mov	r0, r3
  105a1c:	e24bd004 	sub	sp, fp, #4
  105a20:	e8bd8800 	pop	{fp, pc}

00105a24 <emxCreateWrapper_real_T>:
  105a24:	e92d4800 	push	{fp, lr}
  105a28:	e28db004 	add	fp, sp, #4
  105a2c:	e24dd028 	sub	sp, sp, #40	; 0x28
  105a30:	e50b0020 	str	r0, [fp, #-32]	; 0xffffffe0
  105a34:	e50b1024 	str	r1, [fp, #-36]	; 0xffffffdc
  105a38:	e50b2028 	str	r2, [fp, #-40]	; 0xffffffd8
  105a3c:	e51b3024 	ldr	r3, [fp, #-36]	; 0xffffffdc
  105a40:	e50b3018 	str	r3, [fp, #-24]	; 0xffffffe8
  105a44:	e51b3028 	ldr	r3, [fp, #-40]	; 0xffffffd8
  105a48:	e50b3014 	str	r3, [fp, #-20]	; 0xffffffec
  105a4c:	e24b3010 	sub	r3, fp, #16
  105a50:	e3a01002 	mov	r1, #2
  105a54:	e1a00003 	mov	r0, r3
  105a58:	eb00019b 	bl	1060cc <emxInit_real_T1>
  105a5c:	e3a03001 	mov	r3, #1
  105a60:	e50b3008 	str	r3, [fp, #-8]
  105a64:	e3a03000 	mov	r3, #0
  105a68:	e50b300c 	str	r3, [fp, #-12]
  105a6c:	ea000015 	b	105ac8 <emxCreateWrapper_real_T+0xa4>
  105a70:	e51b300c 	ldr	r3, [fp, #-12]
  105a74:	e1a03103 	lsl	r3, r3, #2
  105a78:	e24b2004 	sub	r2, fp, #4
  105a7c:	e0823003 	add	r3, r2, r3
  105a80:	e5132014 	ldr	r2, [r3, #-20]	; 0xffffffec
  105a84:	e51b3008 	ldr	r3, [fp, #-8]
  105a88:	e0030392 	mul	r3, r2, r3
  105a8c:	e50b3008 	str	r3, [fp, #-8]
  105a90:	e51b3010 	ldr	r3, [fp, #-16]
  105a94:	e5932004 	ldr	r2, [r3, #4]
  105a98:	e51b300c 	ldr	r3, [fp, #-12]
  105a9c:	e1a03103 	lsl	r3, r3, #2
  105aa0:	e0822003 	add	r2, r2, r3
  105aa4:	e51b300c 	ldr	r3, [fp, #-12]
  105aa8:	e1a03103 	lsl	r3, r3, #2
  105aac:	e24b1004 	sub	r1, fp, #4
  105ab0:	e0813003 	add	r3, r1, r3
  105ab4:	e5133014 	ldr	r3, [r3, #-20]	; 0xffffffec
  105ab8:	e5823000 	str	r3, [r2]
  105abc:	e51b300c 	ldr	r3, [fp, #-12]
  105ac0:	e2833001 	add	r3, r3, #1
  105ac4:	e50b300c 	str	r3, [fp, #-12]
  105ac8:	e51b300c 	ldr	r3, [fp, #-12]
  105acc:	e3530001 	cmp	r3, #1
  105ad0:	daffffe6 	ble	105a70 <emxCreateWrapper_real_T+0x4c>
  105ad4:	e51b3010 	ldr	r3, [fp, #-16]
  105ad8:	e51b2020 	ldr	r2, [fp, #-32]	; 0xffffffe0
  105adc:	e5832000 	str	r2, [r3]
  105ae0:	e51b3010 	ldr	r3, [fp, #-16]
  105ae4:	e3a02002 	mov	r2, #2
  105ae8:	e583200c 	str	r2, [r3, #12]
  105aec:	e51b3010 	ldr	r3, [fp, #-16]
  105af0:	e51b2008 	ldr	r2, [fp, #-8]
  105af4:	e5832008 	str	r2, [r3, #8]
  105af8:	e51b3010 	ldr	r3, [fp, #-16]
  105afc:	e3a02000 	mov	r2, #0
  105b00:	e5c32010 	strb	r2, [r3, #16]
  105b04:	e51b3010 	ldr	r3, [fp, #-16]
  105b08:	e1a00003 	mov	r0, r3
  105b0c:	e24bd004 	sub	sp, fp, #4
  105b10:	e8bd8800 	pop	{fp, pc}

00105b14 <emxCreate_real_T>:
  105b14:	e92d4810 	push	{r4, fp, lr}
  105b18:	e28db008 	add	fp, sp, #8
  105b1c:	e24dd024 	sub	sp, sp, #36	; 0x24
  105b20:	e50b0028 	str	r0, [fp, #-40]	; 0xffffffd8
  105b24:	e50b102c 	str	r1, [fp, #-44]	; 0xffffffd4
  105b28:	e51b3028 	ldr	r3, [fp, #-40]	; 0xffffffd8
  105b2c:	e50b3020 	str	r3, [fp, #-32]	; 0xffffffe0
  105b30:	e51b302c 	ldr	r3, [fp, #-44]	; 0xffffffd4
  105b34:	e50b301c 	str	r3, [fp, #-28]	; 0xffffffe4
  105b38:	e24b3018 	sub	r3, fp, #24
  105b3c:	e3a01002 	mov	r1, #2
  105b40:	e1a00003 	mov	r0, r3
  105b44:	eb000160 	bl	1060cc <emxInit_real_T1>
  105b48:	e3a03001 	mov	r3, #1
  105b4c:	e50b3010 	str	r3, [fp, #-16]
  105b50:	e3a03000 	mov	r3, #0
  105b54:	e50b3014 	str	r3, [fp, #-20]	; 0xffffffec
  105b58:	ea000015 	b	105bb4 <emxCreate_real_T+0xa0>
  105b5c:	e51b3014 	ldr	r3, [fp, #-20]	; 0xffffffec
  105b60:	e1a03103 	lsl	r3, r3, #2
  105b64:	e24b200c 	sub	r2, fp, #12
  105b68:	e0823003 	add	r3, r2, r3
  105b6c:	e5132014 	ldr	r2, [r3, #-20]	; 0xffffffec
  105b70:	e51b3010 	ldr	r3, [fp, #-16]
  105b74:	e0030392 	mul	r3, r2, r3
  105b78:	e50b3010 	str	r3, [fp, #-16]
  105b7c:	e51b3018 	ldr	r3, [fp, #-24]	; 0xffffffe8
  105b80:	e5932004 	ldr	r2, [r3, #4]
  105b84:	e51b3014 	ldr	r3, [fp, #-20]	; 0xffffffec
  105b88:	e1a03103 	lsl	r3, r3, #2
  105b8c:	e0822003 	add	r2, r2, r3
  105b90:	e51b3014 	ldr	r3, [fp, #-20]	; 0xffffffec
  105b94:	e1a03103 	lsl	r3, r3, #2
  105b98:	e24b100c 	sub	r1, fp, #12
  105b9c:	e0813003 	add	r3, r1, r3
  105ba0:	e5133014 	ldr	r3, [r3, #-20]	; 0xffffffec
  105ba4:	e5823000 	str	r3, [r2]
  105ba8:	e51b3014 	ldr	r3, [fp, #-20]	; 0xffffffec
  105bac:	e2833001 	add	r3, r3, #1
  105bb0:	e50b3014 	str	r3, [fp, #-20]	; 0xffffffec
  105bb4:	e51b3014 	ldr	r3, [fp, #-20]	; 0xffffffec
  105bb8:	e3530001 	cmp	r3, #1
  105bbc:	daffffe6 	ble	105b5c <emxCreate_real_T+0x48>
  105bc0:	e51b4018 	ldr	r4, [fp, #-24]	; 0xffffffe8
  105bc4:	e51b3010 	ldr	r3, [fp, #-16]
  105bc8:	e3a01008 	mov	r1, #8
  105bcc:	e1a00003 	mov	r0, r3
  105bd0:	eb0008a4 	bl	107e68 <calloc>
  105bd4:	e1a03000 	mov	r3, r0
  105bd8:	e5843000 	str	r3, [r4]
  105bdc:	e51b3018 	ldr	r3, [fp, #-24]	; 0xffffffe8
  105be0:	e3a02002 	mov	r2, #2
  105be4:	e583200c 	str	r2, [r3, #12]
  105be8:	e51b3018 	ldr	r3, [fp, #-24]	; 0xffffffe8
  105bec:	e51b2010 	ldr	r2, [fp, #-16]
  105bf0:	e5832008 	str	r2, [r3, #8]
  105bf4:	e51b3018 	ldr	r3, [fp, #-24]	; 0xffffffe8
  105bf8:	e1a00003 	mov	r0, r3
  105bfc:	e24bd008 	sub	sp, fp, #8
  105c00:	e8bd8810 	pop	{r4, fp, pc}

00105c04 <emxDestroyArray_real_T>:
  105c04:	e92d4800 	push	{fp, lr}
  105c08:	e28db004 	add	fp, sp, #4
  105c0c:	e24dd008 	sub	sp, sp, #8
  105c10:	e50b0008 	str	r0, [fp, #-8]
  105c14:	e24b3008 	sub	r3, fp, #8
  105c18:	e1a00003 	mov	r0, r3
  105c1c:	eb000098 	bl	105e84 <emxFree_real_T>
  105c20:	e320f000 	nop	{0}
  105c24:	e24bd004 	sub	sp, fp, #4
  105c28:	e8bd8800 	pop	{fp, pc}

00105c2c <emxInitArray_real_T>:
  105c2c:	e92d4800 	push	{fp, lr}
  105c30:	e28db004 	add	fp, sp, #4
  105c34:	e24dd008 	sub	sp, sp, #8
  105c38:	e50b0008 	str	r0, [fp, #-8]
  105c3c:	e50b100c 	str	r1, [fp, #-12]
  105c40:	e51b100c 	ldr	r1, [fp, #-12]
  105c44:	e51b0008 	ldr	r0, [fp, #-8]
  105c48:	eb00011f 	bl	1060cc <emxInit_real_T1>
  105c4c:	e320f000 	nop	{0}
  105c50:	e24bd004 	sub	sp, fp, #4
  105c54:	e8bd8800 	pop	{fp, pc}

00105c58 <Cholesky_initialize>:
  105c58:	e92d4800 	push	{fp, lr}
  105c5c:	e28db004 	add	fp, sp, #4
  105c60:	e3a00008 	mov	r0, #8
  105c64:	ebfff1ea 	bl	102414 <rt_InitInfAndNaN>
  105c68:	eb0004c4 	bl	106f80 <c_eml_rand_mt19937ar_stateful_i>
  105c6c:	e320f000 	nop	{0}
  105c70:	e8bd8800 	pop	{fp, pc}

00105c74 <emxEnsureCapacity>:
  105c74:	e92d4800 	push	{fp, lr}
  105c78:	e28db004 	add	fp, sp, #4
  105c7c:	e24dd020 	sub	sp, sp, #32
  105c80:	e50b0018 	str	r0, [fp, #-24]	; 0xffffffe8
  105c84:	e50b101c 	str	r1, [fp, #-28]	; 0xffffffe4
  105c88:	e50b2020 	str	r2, [fp, #-32]	; 0xffffffe0
  105c8c:	e3a03001 	mov	r3, #1
  105c90:	e50b3008 	str	r3, [fp, #-8]
  105c94:	e3a03000 	mov	r3, #0
  105c98:	e50b300c 	str	r3, [fp, #-12]
  105c9c:	ea00000b 	b	105cd0 <emxEnsureCapacity+0x5c>
  105ca0:	e51b3018 	ldr	r3, [fp, #-24]	; 0xffffffe8
  105ca4:	e5932004 	ldr	r2, [r3, #4]
  105ca8:	e51b300c 	ldr	r3, [fp, #-12]
  105cac:	e1a03103 	lsl	r3, r3, #2
  105cb0:	e0823003 	add	r3, r2, r3
  105cb4:	e5932000 	ldr	r2, [r3]
  105cb8:	e51b3008 	ldr	r3, [fp, #-8]
  105cbc:	e0030392 	mul	r3, r2, r3
  105cc0:	e50b3008 	str	r3, [fp, #-8]
  105cc4:	e51b300c 	ldr	r3, [fp, #-12]
  105cc8:	e2833001 	add	r3, r3, #1
  105ccc:	e50b300c 	str	r3, [fp, #-12]
  105cd0:	e51b3018 	ldr	r3, [fp, #-24]	; 0xffffffe8
  105cd4:	e593200c 	ldr	r2, [r3, #12]
  105cd8:	e51b300c 	ldr	r3, [fp, #-12]
  105cdc:	e1520003 	cmp	r2, r3
  105ce0:	caffffee 	bgt	105ca0 <emxEnsureCapacity+0x2c>
  105ce4:	e51b3018 	ldr	r3, [fp, #-24]	; 0xffffffe8
  105ce8:	e5932008 	ldr	r2, [r3, #8]
  105cec:	e51b3008 	ldr	r3, [fp, #-8]
  105cf0:	e1520003 	cmp	r2, r3
  105cf4:	aa000039 	bge	105de0 <emxEnsureCapacity+0x16c>
  105cf8:	e51b3018 	ldr	r3, [fp, #-24]	; 0xffffffe8
  105cfc:	e5933008 	ldr	r3, [r3, #8]
  105d00:	e50b300c 	str	r3, [fp, #-12]
  105d04:	e51b300c 	ldr	r3, [fp, #-12]
  105d08:	e353000f 	cmp	r3, #15
  105d0c:	ca00000b 	bgt	105d40 <emxEnsureCapacity+0xcc>
  105d10:	e3a03010 	mov	r3, #16
  105d14:	e50b300c 	str	r3, [fp, #-12]
  105d18:	ea000008 	b	105d40 <emxEnsureCapacity+0xcc>
  105d1c:	e51b300c 	ldr	r3, [fp, #-12]
  105d20:	e3730107 	cmn	r3, #-1073741823	; 0xc0000001
  105d24:	da000002 	ble	105d34 <emxEnsureCapacity+0xc0>
  105d28:	e3e03102 	mvn	r3, #-2147483648	; 0x80000000
  105d2c:	e50b300c 	str	r3, [fp, #-12]
  105d30:	ea000002 	b	105d40 <emxEnsureCapacity+0xcc>
  105d34:	e51b300c 	ldr	r3, [fp, #-12]
  105d38:	e1a03083 	lsl	r3, r3, #1
  105d3c:	e50b300c 	str	r3, [fp, #-12]
  105d40:	e51b200c 	ldr	r2, [fp, #-12]
  105d44:	e51b3008 	ldr	r3, [fp, #-8]
  105d48:	e1520003 	cmp	r2, r3
  105d4c:	bafffff2 	blt	105d1c <emxEnsureCapacity+0xa8>
  105d50:	e51b300c 	ldr	r3, [fp, #-12]
  105d54:	e51b2020 	ldr	r2, [fp, #-32]	; 0xffffffe0
  105d58:	e1a01002 	mov	r1, r2
  105d5c:	e1a00003 	mov	r0, r3
  105d60:	eb000840 	bl	107e68 <calloc>
  105d64:	e1a03000 	mov	r3, r0
  105d68:	e50b3010 	str	r3, [fp, #-16]
  105d6c:	e51b3018 	ldr	r3, [fp, #-24]	; 0xffffffe8
  105d70:	e5933000 	ldr	r3, [r3]
  105d74:	e3530000 	cmp	r3, #0
  105d78:	0a00000f 	beq	105dbc <emxEnsureCapacity+0x148>
  105d7c:	e51b3018 	ldr	r3, [fp, #-24]	; 0xffffffe8
  105d80:	e5931000 	ldr	r1, [r3]
  105d84:	e51b3020 	ldr	r3, [fp, #-32]	; 0xffffffe0
  105d88:	e51b201c 	ldr	r2, [fp, #-28]	; 0xffffffe4
  105d8c:	e0030392 	mul	r3, r2, r3
  105d90:	e1a02003 	mov	r2, r3
  105d94:	e51b0010 	ldr	r0, [fp, #-16]
  105d98:	eb000a4c 	bl	1086d0 <memcpy>
  105d9c:	e51b3018 	ldr	r3, [fp, #-24]	; 0xffffffe8
  105da0:	e5d33010 	ldrb	r3, [r3, #16]
  105da4:	e3530000 	cmp	r3, #0
  105da8:	0a000003 	beq	105dbc <emxEnsureCapacity+0x148>
  105dac:	e51b3018 	ldr	r3, [fp, #-24]	; 0xffffffe8
  105db0:	e5933000 	ldr	r3, [r3]
  105db4:	e1a00003 	mov	r0, r3
  105db8:	eb000863 	bl	107f4c <free>
  105dbc:	e51b3018 	ldr	r3, [fp, #-24]	; 0xffffffe8
  105dc0:	e51b2010 	ldr	r2, [fp, #-16]
  105dc4:	e5832000 	str	r2, [r3]
  105dc8:	e51b3018 	ldr	r3, [fp, #-24]	; 0xffffffe8
  105dcc:	e51b200c 	ldr	r2, [fp, #-12]
  105dd0:	e5832008 	str	r2, [r3, #8]
  105dd4:	e51b3018 	ldr	r3, [fp, #-24]	; 0xffffffe8
  105dd8:	e3a02001 	mov	r2, #1
  105ddc:	e5c32010 	strb	r2, [r3, #16]
  105de0:	e320f000 	nop	{0}
  105de4:	e24bd004 	sub	sp, fp, #4
  105de8:	e8bd8800 	pop	{fp, pc}

00105dec <emxFree_int32_T>:
  105dec:	e92d4800 	push	{fp, lr}
  105df0:	e28db004 	add	fp, sp, #4
  105df4:	e24dd008 	sub	sp, sp, #8
  105df8:	e50b0008 	str	r0, [fp, #-8]
  105dfc:	e51b3008 	ldr	r3, [fp, #-8]
  105e00:	e5933000 	ldr	r3, [r3]
  105e04:	e3530000 	cmp	r3, #0
  105e08:	0a00001a 	beq	105e78 <emxFree_int32_T+0x8c>
  105e0c:	e51b3008 	ldr	r3, [fp, #-8]
  105e10:	e5933000 	ldr	r3, [r3]
  105e14:	e5933000 	ldr	r3, [r3]
  105e18:	e3530000 	cmp	r3, #0
  105e1c:	0a000009 	beq	105e48 <emxFree_int32_T+0x5c>
  105e20:	e51b3008 	ldr	r3, [fp, #-8]
  105e24:	e5933000 	ldr	r3, [r3]
  105e28:	e5d33010 	ldrb	r3, [r3, #16]
  105e2c:	e3530000 	cmp	r3, #0
  105e30:	0a000004 	beq	105e48 <emxFree_int32_T+0x5c>
  105e34:	e51b3008 	ldr	r3, [fp, #-8]
  105e38:	e5933000 	ldr	r3, [r3]
  105e3c:	e5933000 	ldr	r3, [r3]
  105e40:	e1a00003 	mov	r0, r3
  105e44:	eb000840 	bl	107f4c <free>
  105e48:	e51b3008 	ldr	r3, [fp, #-8]
  105e4c:	e5933000 	ldr	r3, [r3]
  105e50:	e5933004 	ldr	r3, [r3, #4]
  105e54:	e1a00003 	mov	r0, r3
  105e58:	eb00083b 	bl	107f4c <free>
  105e5c:	e51b3008 	ldr	r3, [fp, #-8]
  105e60:	e5933000 	ldr	r3, [r3]
  105e64:	e1a00003 	mov	r0, r3
  105e68:	eb000837 	bl	107f4c <free>
  105e6c:	e51b3008 	ldr	r3, [fp, #-8]
  105e70:	e3a02000 	mov	r2, #0
  105e74:	e5832000 	str	r2, [r3]
  105e78:	e320f000 	nop	{0}
  105e7c:	e24bd004 	sub	sp, fp, #4
  105e80:	e8bd8800 	pop	{fp, pc}

00105e84 <emxFree_real_T>:
  105e84:	e92d4800 	push	{fp, lr}
  105e88:	e28db004 	add	fp, sp, #4
  105e8c:	e24dd008 	sub	sp, sp, #8
  105e90:	e50b0008 	str	r0, [fp, #-8]
  105e94:	e51b3008 	ldr	r3, [fp, #-8]
  105e98:	e5933000 	ldr	r3, [r3]
  105e9c:	e3530000 	cmp	r3, #0
  105ea0:	0a00001a 	beq	105f10 <emxFree_real_T+0x8c>
  105ea4:	e51b3008 	ldr	r3, [fp, #-8]
  105ea8:	e5933000 	ldr	r3, [r3]
  105eac:	e5933000 	ldr	r3, [r3]
  105eb0:	e3530000 	cmp	r3, #0
  105eb4:	0a000009 	beq	105ee0 <emxFree_real_T+0x5c>
  105eb8:	e51b3008 	ldr	r3, [fp, #-8]
  105ebc:	e5933000 	ldr	r3, [r3]
  105ec0:	e5d33010 	ldrb	r3, [r3, #16]
  105ec4:	e3530000 	cmp	r3, #0
  105ec8:	0a000004 	beq	105ee0 <emxFree_real_T+0x5c>
  105ecc:	e51b3008 	ldr	r3, [fp, #-8]
  105ed0:	e5933000 	ldr	r3, [r3]
  105ed4:	e5933000 	ldr	r3, [r3]
  105ed8:	e1a00003 	mov	r0, r3
  105edc:	eb00081a 	bl	107f4c <free>
  105ee0:	e51b3008 	ldr	r3, [fp, #-8]
  105ee4:	e5933000 	ldr	r3, [r3]
  105ee8:	e5933004 	ldr	r3, [r3, #4]
  105eec:	e1a00003 	mov	r0, r3
  105ef0:	eb000815 	bl	107f4c <free>
  105ef4:	e51b3008 	ldr	r3, [fp, #-8]
  105ef8:	e5933000 	ldr	r3, [r3]
  105efc:	e1a00003 	mov	r0, r3
  105f00:	eb000811 	bl	107f4c <free>
  105f04:	e51b3008 	ldr	r3, [fp, #-8]
  105f08:	e3a02000 	mov	r2, #0
  105f0c:	e5832000 	str	r2, [r3]
  105f10:	e320f000 	nop	{0}
  105f14:	e24bd004 	sub	sp, fp, #4
  105f18:	e8bd8800 	pop	{fp, pc}

00105f1c <emxInit_int32_T>:
  105f1c:	e92d4800 	push	{fp, lr}
  105f20:	e28db004 	add	fp, sp, #4
  105f24:	e24dd010 	sub	sp, sp, #16
  105f28:	e50b0010 	str	r0, [fp, #-16]
  105f2c:	e50b1014 	str	r1, [fp, #-20]	; 0xffffffec
  105f30:	e3a00014 	mov	r0, #20
  105f34:	eb0007fe 	bl	107f34 <malloc>
  105f38:	e1a03000 	mov	r3, r0
  105f3c:	e1a02003 	mov	r2, r3
  105f40:	e51b3010 	ldr	r3, [fp, #-16]
  105f44:	e5832000 	str	r2, [r3]
  105f48:	e51b3010 	ldr	r3, [fp, #-16]
  105f4c:	e5933000 	ldr	r3, [r3]
  105f50:	e50b300c 	str	r3, [fp, #-12]
  105f54:	e51b300c 	ldr	r3, [fp, #-12]
  105f58:	e3a02000 	mov	r2, #0
  105f5c:	e5832000 	str	r2, [r3]
  105f60:	e51b300c 	ldr	r3, [fp, #-12]
  105f64:	e51b2014 	ldr	r2, [fp, #-20]	; 0xffffffec
  105f68:	e583200c 	str	r2, [r3, #12]
  105f6c:	e51b3014 	ldr	r3, [fp, #-20]	; 0xffffffec
  105f70:	e1a03103 	lsl	r3, r3, #2
  105f74:	e1a00003 	mov	r0, r3
  105f78:	eb0007ed 	bl	107f34 <malloc>
  105f7c:	e1a03000 	mov	r3, r0
  105f80:	e1a02003 	mov	r2, r3
  105f84:	e51b300c 	ldr	r3, [fp, #-12]
  105f88:	e5832004 	str	r2, [r3, #4]
  105f8c:	e51b300c 	ldr	r3, [fp, #-12]
  105f90:	e3a02000 	mov	r2, #0
  105f94:	e5832008 	str	r2, [r3, #8]
  105f98:	e51b300c 	ldr	r3, [fp, #-12]
  105f9c:	e3a02001 	mov	r2, #1
  105fa0:	e5c32010 	strb	r2, [r3, #16]
  105fa4:	e3a03000 	mov	r3, #0
  105fa8:	e50b3008 	str	r3, [fp, #-8]
  105fac:	ea000009 	b	105fd8 <emxInit_int32_T+0xbc>
  105fb0:	e51b300c 	ldr	r3, [fp, #-12]
  105fb4:	e5932004 	ldr	r2, [r3, #4]
  105fb8:	e51b3008 	ldr	r3, [fp, #-8]
  105fbc:	e1a03103 	lsl	r3, r3, #2
  105fc0:	e0823003 	add	r3, r2, r3
  105fc4:	e3a02000 	mov	r2, #0
  105fc8:	e5832000 	str	r2, [r3]
  105fcc:	e51b3008 	ldr	r3, [fp, #-8]
  105fd0:	e2833001 	add	r3, r3, #1
  105fd4:	e50b3008 	str	r3, [fp, #-8]
  105fd8:	e51b2008 	ldr	r2, [fp, #-8]
  105fdc:	e51b3014 	ldr	r3, [fp, #-20]	; 0xffffffec
  105fe0:	e1520003 	cmp	r2, r3
  105fe4:	bafffff1 	blt	105fb0 <emxInit_int32_T+0x94>
  105fe8:	e320f000 	nop	{0}
  105fec:	e24bd004 	sub	sp, fp, #4
  105ff0:	e8bd8800 	pop	{fp, pc}

00105ff4 <emxInit_real_T>:
  105ff4:	e92d4800 	push	{fp, lr}
  105ff8:	e28db004 	add	fp, sp, #4
  105ffc:	e24dd010 	sub	sp, sp, #16
  106000:	e50b0010 	str	r0, [fp, #-16]
  106004:	e50b1014 	str	r1, [fp, #-20]	; 0xffffffec
  106008:	e3a00014 	mov	r0, #20
  10600c:	eb0007c8 	bl	107f34 <malloc>
  106010:	e1a03000 	mov	r3, r0
  106014:	e1a02003 	mov	r2, r3
  106018:	e51b3010 	ldr	r3, [fp, #-16]
  10601c:	e5832000 	str	r2, [r3]
  106020:	e51b3010 	ldr	r3, [fp, #-16]
  106024:	e5933000 	ldr	r3, [r3]
  106028:	e50b300c 	str	r3, [fp, #-12]
  10602c:	e51b300c 	ldr	r3, [fp, #-12]
  106030:	e3a02000 	mov	r2, #0
  106034:	e5832000 	str	r2, [r3]
  106038:	e51b300c 	ldr	r3, [fp, #-12]
  10603c:	e51b2014 	ldr	r2, [fp, #-20]	; 0xffffffec
  106040:	e583200c 	str	r2, [r3, #12]
  106044:	e51b3014 	ldr	r3, [fp, #-20]	; 0xffffffec
  106048:	e1a03103 	lsl	r3, r3, #2
  10604c:	e1a00003 	mov	r0, r3
  106050:	eb0007b7 	bl	107f34 <malloc>
  106054:	e1a03000 	mov	r3, r0
  106058:	e1a02003 	mov	r2, r3
  10605c:	e51b300c 	ldr	r3, [fp, #-12]
  106060:	e5832004 	str	r2, [r3, #4]
  106064:	e51b300c 	ldr	r3, [fp, #-12]
  106068:	e3a02000 	mov	r2, #0
  10606c:	e5832008 	str	r2, [r3, #8]
  106070:	e51b300c 	ldr	r3, [fp, #-12]
  106074:	e3a02001 	mov	r2, #1
  106078:	e5c32010 	strb	r2, [r3, #16]
  10607c:	e3a03000 	mov	r3, #0
  106080:	e50b3008 	str	r3, [fp, #-8]
  106084:	ea000009 	b	1060b0 <emxInit_real_T+0xbc>
  106088:	e51b300c 	ldr	r3, [fp, #-12]
  10608c:	e5932004 	ldr	r2, [r3, #4]
  106090:	e51b3008 	ldr	r3, [fp, #-8]
  106094:	e1a03103 	lsl	r3, r3, #2
  106098:	e0823003 	add	r3, r2, r3
  10609c:	e3a02000 	mov	r2, #0
  1060a0:	e5832000 	str	r2, [r3]
  1060a4:	e51b3008 	ldr	r3, [fp, #-8]
  1060a8:	e2833001 	add	r3, r3, #1
  1060ac:	e50b3008 	str	r3, [fp, #-8]
  1060b0:	e51b2008 	ldr	r2, [fp, #-8]
  1060b4:	e51b3014 	ldr	r3, [fp, #-20]	; 0xffffffec
  1060b8:	e1520003 	cmp	r2, r3
  1060bc:	bafffff1 	blt	106088 <emxInit_real_T+0x94>
  1060c0:	e320f000 	nop	{0}
  1060c4:	e24bd004 	sub	sp, fp, #4
  1060c8:	e8bd8800 	pop	{fp, pc}

001060cc <emxInit_real_T1>:
  1060cc:	e92d4800 	push	{fp, lr}
  1060d0:	e28db004 	add	fp, sp, #4
  1060d4:	e24dd010 	sub	sp, sp, #16
  1060d8:	e50b0010 	str	r0, [fp, #-16]
  1060dc:	e50b1014 	str	r1, [fp, #-20]	; 0xffffffec
  1060e0:	e3a00014 	mov	r0, #20
  1060e4:	eb000792 	bl	107f34 <malloc>
  1060e8:	e1a03000 	mov	r3, r0
  1060ec:	e1a02003 	mov	r2, r3
  1060f0:	e51b3010 	ldr	r3, [fp, #-16]
  1060f4:	e5832000 	str	r2, [r3]
  1060f8:	e51b3010 	ldr	r3, [fp, #-16]
  1060fc:	e5933000 	ldr	r3, [r3]
  106100:	e50b300c 	str	r3, [fp, #-12]
  106104:	e51b300c 	ldr	r3, [fp, #-12]
  106108:	e3a02000 	mov	r2, #0
  10610c:	e5832000 	str	r2, [r3]
  106110:	e51b300c 	ldr	r3, [fp, #-12]
  106114:	e51b2014 	ldr	r2, [fp, #-20]	; 0xffffffec
  106118:	e583200c 	str	r2, [r3, #12]
