
soc_dma.axf:     file format elf32-littlearm


Disassembly of section .text:

00100040 <__cs3_interrupt_vector>:
  100040:	18 f0 9f e5 18 f0 9f e5 18 f0 9f e5 18 f0 9f e5     ................
  100050:	18 f0 9f e5 18 f0 9f e5 18 f0 9f e5 18 f0 9f e5     ................
  100060:	80 00 10 00 70 0f 11 00 74 0f 11 00 78 0f 11 00     ....p...t...x...
  100070:	7c 0f 11 00 6c 0f 11 00 80 0f 11 00 84 0f 11 00     |...l...........

00100080 <__cs3_reset>:
  100080:	ea000022 	b	100110 <_start>

00100084 <__cs3_start_c>:
  100084:	e3008002 	movw	r8, #2
  100088:	e92d4080 	push	{r7, lr}
  10008c:	e3408000 	movt	r8, #0
  100090:	e3580000 	cmp	r8, #0
  100094:	0a00001c 	beq	10010c <__cs3_start_c+0x88>
  100098:	e305ea84 	movw	lr, #23172	; 0x5a84
  10009c:	e2488001 	sub	r8, r8, #1
  1000a0:	e3a04000 	mov	r4, #0
  1000a4:	e3a05000 	mov	r5, #0
  1000a8:	e340e012 	movt	lr, #18
  1000ac:	e99e1005 	ldmib	lr, {r0, r2, ip}
  1000b0:	e1500002 	cmp	r0, r2
  1000b4:	0082200c 	addeq	r2, r2, ip
  1000b8:	0a000007 	beq	1000dc <__cs3_start_c+0x58>
  1000bc:	e35c0000 	cmp	ip, #0
  1000c0:	0a000005 	beq	1000dc <__cs3_start_c+0x58>
  1000c4:	e1a03000 	mov	r3, r0
  1000c8:	e0c360d8 	ldrd	r6, [r3], #8
  1000cc:	e0431000 	sub	r1, r3, r0
  1000d0:	e0c260f8 	strd	r6, [r2], #8
  1000d4:	e151000c 	cmp	r1, ip
  1000d8:	1afffffa 	bne	1000c8 <__cs3_start_c+0x44>
  1000dc:	e59e0010 	ldr	r0, [lr, #16]
  1000e0:	e3500000 	cmp	r0, #0
  1000e4:	11a03002 	movne	r3, r2
  1000e8:	0a000003 	beq	1000fc <__cs3_start_c+0x78>
  1000ec:	e0c340f8 	strd	r4, [r3], #8
  1000f0:	e0431002 	sub	r1, r3, r2
  1000f4:	e1500001 	cmp	r0, r1
  1000f8:	1afffffb 	bne	1000ec <__cs3_start_c+0x68>
  1000fc:	e2488001 	sub	r8, r8, #1
  100100:	e28ee014 	add	lr, lr, #20
  100104:	e3780001 	cmn	r8, #1
  100108:	1affffe7 	bne	1000ac <__cs3_start_c+0x28>
  10010c:	eb004349 	bl	110e38 <__cs3_premain>

00100110 <_start>:
  100110:	e51fd000 	ldr	sp, [pc, #-0]	; 100118 <_start+0x8>
  100114:	eaffffda 	b	100084 <__cs3_start_c>
  100118:	01100040 	.word	0x01100040

0010011c <deregister_tm_clones>:
  10011c:	e59f3024 	ldr	r3, [pc, #36]	; 100148 <deregister_tm_clones+0x2c>
  100120:	e30009c0 	movw	r0, #2496	; 0x9c0
  100124:	e3400013 	movt	r0, #19
  100128:	e0433000 	sub	r3, r3, r0
  10012c:	e3530006 	cmp	r3, #6
  100130:	912fff1e 	bxls	lr
  100134:	e3003000 	movw	r3, #0
  100138:	e3403000 	movt	r3, #0
  10013c:	e3530000 	cmp	r3, #0
  100140:	012fff1e 	bxeq	lr
  100144:	e12fff13 	bx	r3
  100148:	001309c3 	.word	0x001309c3

0010014c <register_tm_clones>:
  10014c:	e30039c0 	movw	r3, #2496	; 0x9c0
  100150:	e30009c0 	movw	r0, #2496	; 0x9c0
  100154:	e3403013 	movt	r3, #19
  100158:	e3400013 	movt	r0, #19
  10015c:	e0431000 	sub	r1, r3, r0
  100160:	e1a01141 	asr	r1, r1, #2
  100164:	e0811fa1 	add	r1, r1, r1, lsr #31
  100168:	e1b010c1 	asrs	r1, r1, #1
  10016c:	012fff1e 	bxeq	lr
  100170:	e3003000 	movw	r3, #0
  100174:	e3403000 	movt	r3, #0
  100178:	e3530000 	cmp	r3, #0
  10017c:	012fff1e 	bxeq	lr
  100180:	e12fff13 	bx	r3

00100184 <__do_global_dtors_aux>:
  100184:	e92d4010 	push	{r4, lr}
  100188:	e30049c0 	movw	r4, #2496	; 0x9c0
  10018c:	e3404013 	movt	r4, #19
  100190:	e5d43000 	ldrb	r3, [r4]
  100194:	e3530000 	cmp	r3, #0
  100198:	18bd8010 	popne	{r4, pc}
  10019c:	ebffffde 	bl	10011c <deregister_tm_clones>
  1001a0:	e3003000 	movw	r3, #0
  1001a4:	e3403000 	movt	r3, #0
  1001a8:	e3530000 	cmp	r3, #0
  1001ac:	0a000002 	beq	1001bc <__do_global_dtors_aux+0x38>
  1001b0:	e3010000 	movw	r0, #4096	; 0x1000
  1001b4:	e3400011 	movt	r0, #17
  1001b8:	e320f000 	nop	{0}
  1001bc:	e3a03001 	mov	r3, #1
  1001c0:	e5c43000 	strb	r3, [r4]
  1001c4:	e8bd8010 	pop	{r4, pc}

001001c8 <frame_dummy>:
  1001c8:	e3003000 	movw	r3, #0
  1001cc:	e92d4010 	push	{r4, lr}
  1001d0:	e3403000 	movt	r3, #0
  1001d4:	e3530000 	cmp	r3, #0
  1001d8:	0a000004 	beq	1001f0 <frame_dummy+0x28>
  1001dc:	e30019c4 	movw	r1, #2500	; 0x9c4
  1001e0:	e3010000 	movw	r0, #4096	; 0x1000
  1001e4:	e3401013 	movt	r1, #19
  1001e8:	e3400011 	movt	r0, #17
  1001ec:	e320f000 	nop	{0}
  1001f0:	e3080000 	movw	r0, #32768	; 0x8000
  1001f4:	e3400012 	movt	r0, #18
  1001f8:	e5903000 	ldr	r3, [r0]
  1001fc:	e3530000 	cmp	r3, #0
  100200:	1a000001 	bne	10020c <frame_dummy+0x44>
  100204:	e8bd4010 	pop	{r4, lr}
  100208:	eaffffcf 	b	10014c <register_tm_clones>
  10020c:	e3003000 	movw	r3, #0
  100210:	e3403000 	movt	r3, #0
  100214:	e3530000 	cmp	r3, #0
  100218:	0afffff9 	beq	100204 <frame_dummy+0x3c>
  10021c:	e12fff33 	blx	r3
  100220:	eafffff7 	b	100204 <frame_dummy+0x3c>

00100224 <main>:
  100224:	e92d4800 	push	{fp, lr}
  100228:	e28db004 	add	fp, sp, #4
  10022c:	e24dd010 	sub	sp, sp, #16
  100230:	e3010010 	movw	r0, #4112	; 0x1010
  100234:	e3400011 	movt	r0, #17
  100238:	eb0021c3 	bl	10894c <printf>
  10023c:	e301004c 	movw	r0, #4172	; 0x104c
  100240:	e3400011 	movt	r0, #17
  100244:	eb0021c0 	bl	10894c <printf>
  100248:	e3010088 	movw	r0, #4232	; 0x1088
  10024c:	e3400011 	movt	r0, #17
  100250:	eb0021bd 	bl	10894c <printf>
  100254:	e30100c4 	movw	r0, #4292	; 0x10c4
  100258:	e3400011 	movt	r0, #17
  10025c:	eb0021ba 	bl	10894c <printf>
  100260:	e3010100 	movw	r0, #4352	; 0x1100
  100264:	e3400011 	movt	r0, #17
  100268:	eb0021b7 	bl	10894c <printf>
  10026c:	e3010128 	movw	r0, #4392	; 0x1128
  100270:	e3400011 	movt	r0, #17
  100274:	eb0021b4 	bl	10894c <printf>
  100278:	e3a03000 	mov	r3, #0
  10027c:	e50b3008 	str	r3, [fp, #-8]
  100280:	e3a00009 	mov	r0, #9
  100284:	eb000050 	bl	1003cc <cache_configuration>
  100288:	e3a0301f 	mov	r3, #31
  10028c:	e50b300c 	str	r3, [fp, #-12]
  100290:	e3a0301f 	mov	r3, #31
  100294:	e50b3010 	str	r3, [fp, #-16]
  100298:	e51b3008 	ldr	r3, [fp, #-8]
  10029c:	e3530000 	cmp	r3, #0
  1002a0:	1a00000d 	bne	1002dc <main+0xb8>
  1002a4:	e3a00003 	mov	r0, #3
  1002a8:	eb000456 	bl	101408 <alt_acp_id_map_dynamic_read_set>
  1002ac:	e50b0008 	str	r0, [fp, #-8]
  1002b0:	e3a00004 	mov	r0, #4
  1002b4:	eb0004b8 	bl	10159c <alt_acp_id_map_dynamic_write_set>
  1002b8:	e50b0008 	str	r0, [fp, #-8]
  1002bc:	e51b100c 	ldr	r1, [fp, #-12]
  1002c0:	e3a00000 	mov	r0, #0
  1002c4:	eb000519 	bl	101730 <alt_acp_id_map_dynamic_read_options_set>
  1002c8:	e50b0008 	str	r0, [fp, #-8]
  1002cc:	e51b1010 	ldr	r1, [fp, #-16]
  1002d0:	e3a00000 	mov	r0, #0
  1002d4:	eb00052a 	bl	101784 <alt_acp_id_map_dynamic_write_options_set>
  1002d8:	e50b0008 	str	r0, [fp, #-8]
  1002dc:	e51b3008 	ldr	r3, [fp, #-8]
  1002e0:	e3530000 	cmp	r3, #0
  1002e4:	1a000031 	bne	1003b0 <main+0x18c>
  1002e8:	e3010144 	movw	r0, #4420	; 0x1144
  1002ec:	e3400011 	movt	r0, #17
  1002f0:	eb002195 	bl	10894c <printf>
  1002f4:	e301017c 	movw	r0, #4476	; 0x117c
  1002f8:	e3400011 	movt	r0, #17
  1002fc:	eb002192 	bl	10894c <printf>
  100300:	e3a01d22 	mov	r1, #2176	; 0x880
  100304:	e3a00000 	mov	r0, #0
  100308:	e34c0001 	movt	r0, #49153	; 0xc001
  10030c:	eb000733 	bl	101fe0 <fpga_dma_init>
  100310:	e3010190 	movw	r0, #4496	; 0x1190
  100314:	e3400011 	movt	r0, #17
  100318:	eb00218b 	bl	10894c <printf>
  10031c:	e30101a8 	movw	r0, #4520	; 0x11a8
  100320:	e3400011 	movt	r0, #17
  100324:	eb002188 	bl	10894c <printf>
  100328:	e3a01001 	mov	r1, #1
  10032c:	e3a00e32 	mov	r0, #800	; 0x320
  100330:	eb0007b1 	bl	1021fc <pmu_init_ns>
  100334:	eb0007de 	bl	1022b4 <pmu_counter_enable>
  100338:	eb0007d4 	bl	102290 <pmu_getres_ns>
  10033c:	e50b0014 	str	r0, [fp, #-20]	; 0xffffffec
  100340:	e30101c8 	movw	r0, #4552	; 0x11c8
  100344:	e3400011 	movt	r0, #17
  100348:	eb00217f 	bl	10894c <printf>
  10034c:	ed5b7a05 	vldr	s15, [fp, #-20]	; 0xffffffec
  100350:	eef70ae7 	vcvt.f64.f32	d16, s15
  100354:	ec532b30 	vmov	r2, r3, d16
  100358:	e30101f4 	movw	r0, #4596	; 0x11f4
  10035c:	e3400011 	movt	r0, #17
  100360:	eb002179 	bl	10894c <printf>
  100364:	e3010010 	movw	r0, #4112	; 0x1010
  100368:	e3400011 	movt	r0, #17
  10036c:	eb002176 	bl	10894c <printf>
  100370:	e3010234 	movw	r0, #4660	; 0x1234
  100374:	e3400011 	movt	r0, #17
  100378:	eb002173 	bl	10894c <printf>
  10037c:	e3010010 	movw	r0, #4112	; 0x1010
  100380:	e3400011 	movt	r0, #17
  100384:	eb002170 	bl	10894c <printf>
  100388:	e3010254 	movw	r0, #4692	; 0x1254
  10038c:	e3400011 	movt	r0, #17
  100390:	eb00216d 	bl	10894c <printf>
  100394:	eb00162f 	bl	105c58 <Cholesky_initialize>
  100398:	e3010270 	movw	r0, #4720	; 0x1270
  10039c:	e3400011 	movt	r0, #17
  1003a0:	eb002169 	bl	10894c <printf>
  1003a4:	eb00011a 	bl	100814 <main_example>
  1003a8:	e3a03000 	mov	r3, #0
  1003ac:	ea000003 	b	1003c0 <main+0x19c>
  1003b0:	e3010164 	movw	r0, #4452	; 0x1164
  1003b4:	e3400011 	movt	r0, #17
  1003b8:	eb002163 	bl	10894c <printf>
  1003bc:	e3a03001 	mov	r3, #1
  1003c0:	e1a00003 	mov	r0, r3
  1003c4:	e24bd004 	sub	sp, fp, #4
  1003c8:	e8bd8800 	pop	{fp, pc}

001003cc <cache_configuration>:
  1003cc:	e92d4800 	push	{fp, lr}
  1003d0:	e28db004 	add	fp, sp, #4
  1003d4:	e24dd008 	sub	sp, sp, #8
  1003d8:	e50b0008 	str	r0, [fp, #-8]
  1003dc:	e51b3008 	ldr	r3, [fp, #-8]
  1003e0:	e3530000 	cmp	r3, #0
  1003e4:	ca000003 	bgt	1003f8 <cache_configuration+0x2c>
  1003e8:	e301028c 	movw	r0, #4748	; 0x128c
  1003ec:	e3400011 	movt	r0, #17
  1003f0:	eb002155 	bl	10894c <printf>
  1003f4:	ea0000a2 	b	100684 <cache_configuration+0x2b8>
  1003f8:	e51b3008 	ldr	r3, [fp, #-8]
  1003fc:	e3530001 	cmp	r3, #1
  100400:	ca000004 	bgt	100418 <cache_configuration+0x4c>
  100404:	e30102a8 	movw	r0, #4776	; 0x12a8
  100408:	e3400011 	movt	r0, #17
  10040c:	eb00214e 	bl	10894c <printf>
  100410:	eb00017c 	bl	100a08 <enable_MMU>
  100414:	ea00009a 	b	100684 <cache_configuration+0x2b8>
  100418:	e51b3008 	ldr	r3, [fp, #-8]
  10041c:	e3530002 	cmp	r3, #2
  100420:	ca000005 	bgt	10043c <cache_configuration+0x70>
  100424:	e30102c8 	movw	r0, #4808	; 0x12c8
  100428:	e3400011 	movt	r0, #17
  10042c:	eb002146 	bl	10894c <printf>
  100430:	eb000174 	bl	100a08 <enable_MMU>
  100434:	eb0001bf 	bl	100b38 <initialize_L2C>
  100438:	ea000091 	b	100684 <cache_configuration+0x2b8>
  10043c:	e51b3008 	ldr	r3, [fp, #-8]
  100440:	e3530003 	cmp	r3, #3
  100444:	ca000006 	bgt	100464 <cache_configuration+0x98>
  100448:	e30102f4 	movw	r0, #4852	; 0x12f4
  10044c:	e3400011 	movt	r0, #17
  100450:	eb00213d 	bl	10894c <printf>
  100454:	eb00016b 	bl	100a08 <enable_MMU>
  100458:	eb0001b6 	bl	100b38 <initialize_L2C>
  10045c:	eb000219 	bl	100cc8 <enable_SCU>
  100460:	ea000087 	b	100684 <cache_configuration+0x2b8>
  100464:	e51b3008 	ldr	r3, [fp, #-8]
  100468:	e3530004 	cmp	r3, #4
  10046c:	ca000007 	bgt	100490 <cache_configuration+0xc4>
  100470:	e3010328 	movw	r0, #4904	; 0x1328
  100474:	e3400011 	movt	r0, #17
  100478:	eb002133 	bl	10894c <printf>
  10047c:	eb000161 	bl	100a08 <enable_MMU>
  100480:	eb0001ac 	bl	100b38 <initialize_L2C>
  100484:	eb00020f 	bl	100cc8 <enable_SCU>
  100488:	eb0001d0 	bl	100bd0 <enable_L1_I>
  10048c:	ea00007c 	b	100684 <cache_configuration+0x2b8>
  100490:	e51b3008 	ldr	r3, [fp, #-8]
  100494:	e3530005 	cmp	r3, #5
  100498:	ca000008 	bgt	1004c0 <cache_configuration+0xf4>
  10049c:	e3010340 	movw	r0, #4928	; 0x1340
  1004a0:	e3400011 	movt	r0, #17
  1004a4:	eb002128 	bl	10894c <printf>
  1004a8:	eb000156 	bl	100a08 <enable_MMU>
  1004ac:	eb0001a1 	bl	100b38 <initialize_L2C>
  1004b0:	eb000204 	bl	100cc8 <enable_SCU>
  1004b4:	eb0001c5 	bl	100bd0 <enable_L1_I>
  1004b8:	eb0001c8 	bl	100be0 <enable_branch_prediction>
  1004bc:	ea000070 	b	100684 <cache_configuration+0x2b8>
  1004c0:	e51b3008 	ldr	r3, [fp, #-8]
  1004c4:	e3530006 	cmp	r3, #6
  1004c8:	ca000009 	bgt	1004f4 <cache_configuration+0x128>
  1004cc:	e3010370 	movw	r0, #4976	; 0x1370
  1004d0:	e3400011 	movt	r0, #17
  1004d4:	eb00211c 	bl	10894c <printf>
  1004d8:	eb00014a 	bl	100a08 <enable_MMU>
  1004dc:	eb000195 	bl	100b38 <initialize_L2C>
  1004e0:	eb0001f8 	bl	100cc8 <enable_SCU>
  1004e4:	eb0001b5 	bl	100bc0 <enable_L1_D>
  1004e8:	eb0001b8 	bl	100bd0 <enable_L1_I>
  1004ec:	eb0001bb 	bl	100be0 <enable_branch_prediction>
  1004f0:	ea000063 	b	100684 <cache_configuration+0x2b8>
  1004f4:	e51b3008 	ldr	r3, [fp, #-8]
  1004f8:	e3530007 	cmp	r3, #7
  1004fc:	ca00000a 	bgt	10052c <cache_configuration+0x160>
  100500:	e30103a4 	movw	r0, #5028	; 0x13a4
  100504:	e3400011 	movt	r0, #17
  100508:	eb00210f 	bl	10894c <printf>
  10050c:	eb00013d 	bl	100a08 <enable_MMU>
  100510:	eb000188 	bl	100b38 <initialize_L2C>
  100514:	eb0001d7 	bl	100c78 <enable_L1_D_side_prefetch>
  100518:	eb0001ea 	bl	100cc8 <enable_SCU>
  10051c:	eb0001a7 	bl	100bc0 <enable_L1_D>
  100520:	eb0001aa 	bl	100bd0 <enable_L1_I>
  100524:	eb0001ad 	bl	100be0 <enable_branch_prediction>
  100528:	ea000055 	b	100684 <cache_configuration+0x2b8>
  10052c:	e51b3008 	ldr	r3, [fp, #-8]
  100530:	e3530008 	cmp	r3, #8
  100534:	ca000008 	bgt	10055c <cache_configuration+0x190>
  100538:	e30103f0 	movw	r0, #5104	; 0x13f0
  10053c:	e3400011 	movt	r0, #17
  100540:	eb002101 	bl	10894c <printf>
  100544:	eb00012f 	bl	100a08 <enable_MMU>
  100548:	eb00017a 	bl	100b38 <initialize_L2C>
  10054c:	eb0001c9 	bl	100c78 <enable_L1_D_side_prefetch>
  100550:	eb0001dc 	bl	100cc8 <enable_SCU>
  100554:	eb000190 	bl	100b9c <enable_caches>
  100558:	ea000049 	b	100684 <cache_configuration+0x2b8>
  10055c:	e51b3008 	ldr	r3, [fp, #-8]
  100560:	e3530009 	cmp	r3, #9
  100564:	ca000009 	bgt	100590 <cache_configuration+0x1c4>
  100568:	e301043c 	movw	r0, #5180	; 0x143c
  10056c:	e3400011 	movt	r0, #17
  100570:	eb0020f5 	bl	10894c <printf>
  100574:	eb000123 	bl	100a08 <enable_MMU>
  100578:	eb00016e 	bl	100b38 <initialize_L2C>
  10057c:	eb0001bd 	bl	100c78 <enable_L1_D_side_prefetch>
  100580:	eb0001c0 	bl	100c88 <enable_L2_prefetch_hint>
  100584:	eb0001cf 	bl	100cc8 <enable_SCU>
  100588:	eb000183 	bl	100b9c <enable_caches>
  10058c:	ea00003c 	b	100684 <cache_configuration+0x2b8>
  100590:	e51b3008 	ldr	r3, [fp, #-8]
  100594:	e353000a 	cmp	r3, #10
  100598:	ca00000a 	bgt	1005c8 <cache_configuration+0x1fc>
  10059c:	e3010470 	movw	r0, #5232	; 0x1470
  1005a0:	e3400011 	movt	r0, #17
  1005a4:	eb0020e8 	bl	10894c <printf>
  1005a8:	eb000116 	bl	100a08 <enable_MMU>
  1005ac:	eb000161 	bl	100b38 <initialize_L2C>
  1005b0:	eb0001b0 	bl	100c78 <enable_L1_D_side_prefetch>
  1005b4:	eb0001b3 	bl	100c88 <enable_L2_prefetch_hint>
  1005b8:	eb0001c2 	bl	100cc8 <enable_SCU>
  1005bc:	eb0001a1 	bl	100c48 <enable_write_full_line_zeros>
  1005c0:	eb000175 	bl	100b9c <enable_caches>
  1005c4:	ea00002e 	b	100684 <cache_configuration+0x2b8>
  1005c8:	e51b3008 	ldr	r3, [fp, #-8]
  1005cc:	e353000b 	cmp	r3, #11
  1005d0:	ca00000b 	bgt	100604 <cache_configuration+0x238>
  1005d4:	e30104ac 	movw	r0, #5292	; 0x14ac
  1005d8:	e3400011 	movt	r0, #17
  1005dc:	eb0020da 	bl	10894c <printf>
  1005e0:	eb000108 	bl	100a08 <enable_MMU>
  1005e4:	eb000153 	bl	100b38 <initialize_L2C>
  1005e8:	eb0001a2 	bl	100c78 <enable_L1_D_side_prefetch>
  1005ec:	eb0001a5 	bl	100c88 <enable_L2_prefetch_hint>
  1005f0:	eb0001b4 	bl	100cc8 <enable_SCU>
  1005f4:	eb0001b8 	bl	100cdc <enable_L2_speculative_linefill>
  1005f8:	eb000192 	bl	100c48 <enable_write_full_line_zeros>
  1005fc:	eb000166 	bl	100b9c <enable_caches>
  100600:	ea00001f 	b	100684 <cache_configuration+0x2b8>
  100604:	e51b3008 	ldr	r3, [fp, #-8]
  100608:	e353000c 	cmp	r3, #12
  10060c:	ca00000c 	bgt	100644 <cache_configuration+0x278>
  100610:	e30104f8 	movw	r0, #5368	; 0x14f8
  100614:	e3400011 	movt	r0, #17
  100618:	eb0020cb 	bl	10894c <printf>
  10061c:	eb0000f9 	bl	100a08 <enable_MMU>
  100620:	eb000144 	bl	100b38 <initialize_L2C>
  100624:	eb000193 	bl	100c78 <enable_L1_D_side_prefetch>
  100628:	eb000196 	bl	100c88 <enable_L2_prefetch_hint>
  10062c:	eb0001a5 	bl	100cc8 <enable_SCU>
  100630:	eb0001a9 	bl	100cdc <enable_L2_speculative_linefill>
  100634:	eb000183 	bl	100c48 <enable_write_full_line_zeros>
  100638:	eb000179 	bl	100c24 <enable_early_BRESP>
  10063c:	eb000156 	bl	100b9c <enable_caches>
  100640:	ea00000f 	b	100684 <cache_configuration+0x2b8>
  100644:	e51b3008 	ldr	r3, [fp, #-8]
  100648:	e353000d 	cmp	r3, #13
  10064c:	ca00000c 	bgt	100684 <cache_configuration+0x2b8>
  100650:	e3010538 	movw	r0, #5432	; 0x1538
  100654:	e3400011 	movt	r0, #17
  100658:	eb0020bb 	bl	10894c <printf>
  10065c:	eb0000e9 	bl	100a08 <enable_MMU>
  100660:	eb000134 	bl	100b38 <initialize_L2C>
  100664:	eb000183 	bl	100c78 <enable_L1_D_side_prefetch>
  100668:	eb000186 	bl	100c88 <enable_L2_prefetch_hint>
  10066c:	eb000195 	bl	100cc8 <enable_SCU>
  100670:	eb000199 	bl	100cdc <enable_L2_speculative_linefill>
  100674:	eb000173 	bl	100c48 <enable_write_full_line_zeros>
  100678:	eb000169 	bl	100c24 <enable_early_BRESP>
  10067c:	eb00015f 	bl	100c00 <enable_store_buffer_device_limitation>
  100680:	eb000145 	bl	100b9c <enable_caches>
  100684:	e320f000 	nop	{0}
  100688:	e24bd004 	sub	sp, fp, #4
  10068c:	e8bd8800 	pop	{fp, pc}

00100690 <print_src_dst>:
  100690:	e92d4800 	push	{fp, lr}
  100694:	e28db004 	add	fp, sp, #4
  100698:	e24dd020 	sub	sp, sp, #32
  10069c:	e50b0018 	str	r0, [fp, #-24]	; 0xffffffe8
  1006a0:	e50b101c 	str	r1, [fp, #-28]	; 0xffffffe4
  1006a4:	e50b2020 	str	r2, [fp, #-32]	; 0xffffffe0
  1006a8:	e51b3018 	ldr	r3, [fp, #-24]	; 0xffffffe8
  1006ac:	e50b300c 	str	r3, [fp, #-12]
  1006b0:	e51b301c 	ldr	r3, [fp, #-28]	; 0xffffffe4
  1006b4:	e50b3010 	str	r3, [fp, #-16]
  1006b8:	e3010594 	movw	r0, #5524	; 0x1594
  1006bc:	e3400011 	movt	r0, #17
  1006c0:	eb0020a1 	bl	10894c <printf>
  1006c4:	e3a03000 	mov	r3, #0
  1006c8:	e50b3008 	str	r3, [fp, #-8]
  1006cc:	ea000012 	b	10071c <print_src_dst+0x8c>
  1006d0:	e51b300c 	ldr	r3, [fp, #-12]
  1006d4:	e5d33000 	ldrb	r3, [r3]
  1006d8:	e1a01003 	mov	r1, r3
  1006dc:	e30105a0 	movw	r0, #5536	; 0x15a0
  1006e0:	e3400011 	movt	r0, #17
  1006e4:	eb002098 	bl	10894c <printf>
  1006e8:	e51b300c 	ldr	r3, [fp, #-12]
  1006ec:	e2833001 	add	r3, r3, #1
  1006f0:	e50b300c 	str	r3, [fp, #-12]
  1006f4:	e51b3020 	ldr	r3, [fp, #-32]	; 0xffffffe0
  1006f8:	e2432001 	sub	r2, r3, #1
  1006fc:	e51b3008 	ldr	r3, [fp, #-8]
  100700:	e1520003 	cmp	r2, r3
  100704:	da000001 	ble	100710 <print_src_dst+0x80>
  100708:	e3a0002c 	mov	r0, #44	; 0x2c
  10070c:	eb00209e 	bl	10898c <putchar>
  100710:	e51b3008 	ldr	r3, [fp, #-8]
  100714:	e2833001 	add	r3, r3, #1
  100718:	e50b3008 	str	r3, [fp, #-8]
  10071c:	e51b2008 	ldr	r2, [fp, #-8]
  100720:	e51b3020 	ldr	r3, [fp, #-32]	; 0xffffffe0
  100724:	e1520003 	cmp	r2, r3
  100728:	baffffe8 	blt	1006d0 <print_src_dst+0x40>
  10072c:	e30105a4 	movw	r0, #5540	; 0x15a4
  100730:	e3400011 	movt	r0, #17
  100734:	eb002084 	bl	10894c <printf>
  100738:	e30105a8 	movw	r0, #5544	; 0x15a8
  10073c:	e3400011 	movt	r0, #17
  100740:	eb002081 	bl	10894c <printf>
  100744:	e3a03000 	mov	r3, #0
  100748:	e50b3008 	str	r3, [fp, #-8]
  10074c:	ea000012 	b	10079c <print_src_dst+0x10c>
  100750:	e51b3010 	ldr	r3, [fp, #-16]
  100754:	e5d33000 	ldrb	r3, [r3]
  100758:	e1a01003 	mov	r1, r3
  10075c:	e30105a0 	movw	r0, #5536	; 0x15a0
  100760:	e3400011 	movt	r0, #17
  100764:	eb002078 	bl	10894c <printf>
  100768:	e51b3010 	ldr	r3, [fp, #-16]
  10076c:	e2833001 	add	r3, r3, #1
  100770:	e50b3010 	str	r3, [fp, #-16]
  100774:	e51b3020 	ldr	r3, [fp, #-32]	; 0xffffffe0
  100778:	e2432001 	sub	r2, r3, #1
  10077c:	e51b3008 	ldr	r3, [fp, #-8]
  100780:	e1520003 	cmp	r2, r3
  100784:	da000001 	ble	100790 <print_src_dst+0x100>
  100788:	e3a0002c 	mov	r0, #44	; 0x2c
  10078c:	eb00207e 	bl	10898c <putchar>
  100790:	e51b3008 	ldr	r3, [fp, #-8]
  100794:	e2833001 	add	r3, r3, #1
  100798:	e50b3008 	str	r3, [fp, #-8]
  10079c:	e51b2008 	ldr	r2, [fp, #-8]
  1007a0:	e51b3020 	ldr	r3, [fp, #-32]	; 0xffffffe0
  1007a4:	e1520003 	cmp	r2, r3
  1007a8:	baffffe8 	blt	100750 <print_src_dst+0xc0>
  1007ac:	e30105a4 	movw	r0, #5540	; 0x15a4
  1007b0:	e3400011 	movt	r0, #17
  1007b4:	eb002064 	bl	10894c <printf>
  1007b8:	e320f000 	nop	{0}
  1007bc:	e24bd004 	sub	sp, fp, #4
  1007c0:	e8bd8800 	pop	{fp, pc}

001007c4 <ukf_transfer_done>:
  1007c4:	e92d4800 	push	{fp, lr}
  1007c8:	e28db004 	add	fp, sp, #4
  1007cc:	e24dd008 	sub	sp, sp, #8
  1007d0:	e50b0008 	str	r0, [fp, #-8]
  1007d4:	e51b0008 	ldr	r0, [fp, #-8]
  1007d8:	eb000003 	bl	1007ec <ukf_read_reg>
  1007dc:	e1a03000 	mov	r3, r0
  1007e0:	e1a00003 	mov	r0, r3
  1007e4:	e24bd004 	sub	sp, fp, #4
  1007e8:	e8bd8800 	pop	{fp, pc}

001007ec <ukf_read_reg>:
  1007ec:	e52db004 	push	{fp}		; (str fp, [sp, #-4]!)
  1007f0:	e28db000 	add	fp, sp, #0
  1007f4:	e24dd00c 	sub	sp, sp, #12
  1007f8:	e50b0008 	str	r0, [fp, #-8]
  1007fc:	e51b3008 	ldr	r3, [fp, #-8]
  100800:	e5933064 	ldr	r3, [r3, #100]	; 0x64
  100804:	e1a00003 	mov	r0, r3
  100808:	e24bd000 	sub	sp, fp, #0
  10080c:	e49db004 	pop	{fp}		; (ldr fp, [sp], #4)
  100810:	e12fff1e 	bx	lr

00100814 <main_example>:
  100814:	e92d4800 	push	{fp, lr}
  100818:	e28db004 	add	fp, sp, #4
  10081c:	eb001734 	bl	1064f4 <example>
  100820:	e320f000 	nop	{0}
  100824:	e8bd8800 	pop	{fp, pc}

00100828 <_close>:
  100828:	e52db004 	push	{fp}		; (str fp, [sp, #-4]!)
  10082c:	e28db000 	add	fp, sp, #0
  100830:	e24dd00c 	sub	sp, sp, #12
  100834:	e50b0008 	str	r0, [fp, #-8]
  100838:	e51b3008 	ldr	r3, [fp, #-8]
  10083c:	e3530001 	cmp	r3, #1
  100840:	1a000001 	bne	10084c <_close+0x24>
  100844:	e3a03000 	mov	r3, #0
  100848:	ea000000 	b	100850 <_close+0x28>
  10084c:	e3e03000 	mvn	r3, #0
  100850:	e1a00003 	mov	r0, r3
  100854:	e24bd000 	sub	sp, fp, #0
  100858:	e49db004 	pop	{fp}		; (ldr fp, [sp], #4)
  10085c:	e12fff1e 	bx	lr

00100860 <_fstat>:
  100860:	e52db004 	push	{fp}		; (str fp, [sp, #-4]!)
  100864:	e28db000 	add	fp, sp, #0
  100868:	e24dd00c 	sub	sp, sp, #12
  10086c:	e50b0008 	str	r0, [fp, #-8]
  100870:	e50b100c 	str	r1, [fp, #-12]
  100874:	e51b3008 	ldr	r3, [fp, #-8]
  100878:	e3530001 	cmp	r3, #1
  10087c:	1a000001 	bne	100888 <_fstat+0x28>
  100880:	e3a03000 	mov	r3, #0
  100884:	ea000000 	b	10088c <_fstat+0x2c>
  100888:	e3e03000 	mvn	r3, #0
  10088c:	e1a00003 	mov	r0, r3
  100890:	e24bd000 	sub	sp, fp, #0
  100894:	e49db004 	pop	{fp}		; (ldr fp, [sp], #4)
  100898:	e12fff1e 	bx	lr

0010089c <_isatty>:
  10089c:	e52db004 	push	{fp}		; (str fp, [sp, #-4]!)
  1008a0:	e28db000 	add	fp, sp, #0
  1008a4:	e24dd00c 	sub	sp, sp, #12
  1008a8:	e50b0008 	str	r0, [fp, #-8]
  1008ac:	e51b3008 	ldr	r3, [fp, #-8]
  1008b0:	e3530001 	cmp	r3, #1
  1008b4:	1a000001 	bne	1008c0 <_isatty+0x24>
  1008b8:	e3a03001 	mov	r3, #1
  1008bc:	ea000000 	b	1008c4 <_isatty+0x28>
  1008c0:	e3e03000 	mvn	r3, #0
  1008c4:	e1a00003 	mov	r0, r3
  1008c8:	e24bd000 	sub	sp, fp, #0
  1008cc:	e49db004 	pop	{fp}		; (ldr fp, [sp], #4)
  1008d0:	e12fff1e 	bx	lr

001008d4 <_lseek>:
  1008d4:	e52db004 	push	{fp}		; (str fp, [sp, #-4]!)
  1008d8:	e28db000 	add	fp, sp, #0
  1008dc:	e24dd014 	sub	sp, sp, #20
  1008e0:	e50b0008 	str	r0, [fp, #-8]
  1008e4:	e50b100c 	str	r1, [fp, #-12]
  1008e8:	e50b2010 	str	r2, [fp, #-16]
  1008ec:	e51b3008 	ldr	r3, [fp, #-8]
  1008f0:	e3530001 	cmp	r3, #1
  1008f4:	1a000001 	bne	100900 <_lseek+0x2c>
  1008f8:	e3a03000 	mov	r3, #0
  1008fc:	ea000000 	b	100904 <_lseek+0x30>
  100900:	e3e03000 	mvn	r3, #0
  100904:	e1a00003 	mov	r0, r3
  100908:	e24bd000 	sub	sp, fp, #0
  10090c:	e49db004 	pop	{fp}		; (ldr fp, [sp], #4)
  100910:	e12fff1e 	bx	lr

00100914 <_read>:
  100914:	e52db004 	push	{fp}		; (str fp, [sp, #-4]!)
  100918:	e28db000 	add	fp, sp, #0
  10091c:	e24dd014 	sub	sp, sp, #20
  100920:	e50b0008 	str	r0, [fp, #-8]
  100924:	e50b100c 	str	r1, [fp, #-12]
  100928:	e50b2010 	str	r2, [fp, #-16]
  10092c:	e3e03000 	mvn	r3, #0
  100930:	e1a00003 	mov	r0, r3
  100934:	e24bd000 	sub	sp, fp, #0
  100938:	e49db004 	pop	{fp}		; (ldr fp, [sp], #4)
  10093c:	e12fff1e 	bx	lr

00100940 <_write>:
  100940:	e52db004 	push	{fp}		; (str fp, [sp, #-4]!)
  100944:	e28db000 	add	fp, sp, #0
  100948:	e24dd01c 	sub	sp, sp, #28
  10094c:	e50b0010 	str	r0, [fp, #-16]
  100950:	e50b1014 	str	r1, [fp, #-20]	; 0xffffffec
  100954:	e50b2018 	str	r2, [fp, #-24]	; 0xffffffe8
  100958:	e50b301c 	str	r3, [fp, #-28]	; 0xffffffe4
  10095c:	e51b3010 	ldr	r3, [fp, #-16]
  100960:	e3530001 	cmp	r3, #1
  100964:	0a000001 	beq	100970 <_write+0x30>
  100968:	e3e03000 	mvn	r3, #0
  10096c:	ea000019 	b	1009d8 <_write+0x98>
  100970:	e3a03000 	mov	r3, #0
  100974:	e50b3008 	str	r3, [fp, #-8]
  100978:	ea000011 	b	1009c4 <_write+0x84>
  10097c:	e320f000 	nop	{0}
  100980:	e3023014 	movw	r3, #8212	; 0x2014
  100984:	e34f3fc0 	movt	r3, #65472	; 0xffc0
  100988:	e5933000 	ldr	r3, [r3]
  10098c:	e1a032a3 	lsr	r3, r3, #5
  100990:	e2033001 	and	r3, r3, #1
  100994:	e3530001 	cmp	r3, #1
  100998:	1afffff8 	bne	100980 <_write+0x40>
  10099c:	e3a03a02 	mov	r3, #8192	; 0x2000
  1009a0:	e34f3fc0 	movt	r3, #65472	; 0xffc0
  1009a4:	e51b2008 	ldr	r2, [fp, #-8]
  1009a8:	e51b1014 	ldr	r1, [fp, #-20]	; 0xffffffec
  1009ac:	e0812002 	add	r2, r1, r2
  1009b0:	e5d22000 	ldrb	r2, [r2]
  1009b4:	e5832000 	str	r2, [r3]
  1009b8:	e51b3008 	ldr	r3, [fp, #-8]
  1009bc:	e2833001 	add	r3, r3, #1
  1009c0:	e50b3008 	str	r3, [fp, #-8]
  1009c4:	e51b2008 	ldr	r2, [fp, #-8]
  1009c8:	e51b3018 	ldr	r3, [fp, #-24]	; 0xffffffe8
  1009cc:	e1520003 	cmp	r2, r3
  1009d0:	3affffe9 	bcc	10097c <_write+0x3c>
  1009d4:	e51b3018 	ldr	r3, [fp, #-24]	; 0xffffffe8
  1009d8:	e1a00003 	mov	r0, r3
  1009dc:	e24bd000 	sub	sp, fp, #0
  1009e0:	e49db004 	pop	{fp}		; (ldr fp, [sp], #4)
  1009e4:	e12fff1e 	bx	lr

001009e8 <enable_all_caches>:
  1009e8:	e52de004 	push	{lr}		; (str lr, [sp, #-4]!)
  1009ec:	eb000005 	bl	100a08 <enable_MMU>
  1009f0:	eb000050 	bl	100b38 <initialize_L2C>
  1009f4:	eb00009f 	bl	100c78 <enable_L1_D_side_prefetch>
  1009f8:	eb0000a2 	bl	100c88 <enable_L2_prefetch_hint>
  1009fc:	eb0000b1 	bl	100cc8 <enable_SCU>
  100a00:	eb000065 	bl	100b9c <enable_caches>
  100a04:	e49df004 	pop	{pc}		; (ldr pc, [sp], #4)

00100a08 <enable_MMU>:
  100a08:	e92d4eb0 	push	{r4, r5, r7, r9, sl, fp, lr}
  100a0c:	e59f0378 	ldr	r0, [pc, #888]	; 100d8c <invalidate_and_flush+0x9c>
  100a10:	e3a01000 	mov	r1, #0
  100a14:	e5801100 	str	r1, [r0, #256]	; 0x100
  100a18:	ee110f10 	mrc	15, 0, r0, cr1, cr0, {0}
  100a1c:	e3c00a01 	bic	r0, r0, #4096	; 0x1000
  100a20:	e3c00004 	bic	r0, r0, #4
  100a24:	e3c00001 	bic	r0, r0, #1
  100a28:	e3c00b02 	bic	r0, r0, #2048	; 0x800
  100a2c:	ee010f10 	mcr	15, 0, r0, cr1, cr0, {0}
  100a30:	e3a00000 	mov	r0, #0
  100a34:	ee080f17 	mcr	15, 0, r0, cr8, cr7, {0}
  100a38:	ee070fd5 	mcr	15, 0, r0, cr7, cr5, {6}
  100a3c:	ee300f30 	mrc	15, 1, r0, cr0, cr0, {1}
  100a40:	e3100003 	tst	r0, #3
  100a44:	e3a00000 	mov	r0, #0
  100a48:	1e070f15 	mcrne	15, 0, r0, cr7, cr5, {0}
  100a4c:	ee300f30 	mrc	15, 1, r0, cr0, cr0, {1}
  100a50:	e2103407 	ands	r3, r0, #117440512	; 0x7000000
  100a54:	e1a03ba3 	lsr	r3, r3, #23
  100a58:	0a00001a 	beq	100ac8 <Finished>
  100a5c:	e3a0a000 	mov	sl, #0

00100a60 <Loop1>:
  100a60:	e08a20aa 	add	r2, sl, sl, lsr #1
  100a64:	e1a01230 	lsr	r1, r0, r2
  100a68:	e2011007 	and	r1, r1, #7
  100a6c:	e3510002 	cmp	r1, #2
  100a70:	ba000011 	blt	100abc <Skip>
  100a74:	ee40af10 	mcr	15, 2, sl, cr0, cr0, {0}
  100a78:	f57ff06f 	isb	sy
  100a7c:	ee301f10 	mrc	15, 1, r1, cr0, cr0, {0}
  100a80:	e2012007 	and	r2, r1, #7
  100a84:	e2822004 	add	r2, r2, #4
  100a88:	e59f4300 	ldr	r4, [pc, #768]	; 100d90 <invalidate_and_flush+0xa0>
  100a8c:	e01441a1 	ands	r4, r4, r1, lsr #3
  100a90:	e16f5f14 	clz	r5, r4
  100a94:	e59f72f8 	ldr	r7, [pc, #760]	; 100d94 <invalidate_and_flush+0xa4>
  100a98:	e01776a1 	ands	r7, r7, r1, lsr #13

00100a9c <Loop2>:
  100a9c:	e1a09004 	mov	r9, r4

00100aa0 <Loop3>:
  100aa0:	e18ab519 	orr	fp, sl, r9, lsl r5
  100aa4:	e18bb217 	orr	fp, fp, r7, lsl r2
  100aa8:	ee07bf56 	mcr	15, 0, fp, cr7, cr6, {2}
  100aac:	e2599001 	subs	r9, r9, #1
  100ab0:	aafffffa 	bge	100aa0 <Loop3>
  100ab4:	e2577001 	subs	r7, r7, #1
  100ab8:	aafffff7 	bge	100a9c <Loop2>

00100abc <Skip>:
  100abc:	e28aa002 	add	sl, sl, #2
  100ac0:	e153000a 	cmp	r3, sl
  100ac4:	caffffe5 	bgt	100a60 <Loop1>

00100ac8 <Finished>:
  100ac8:	e3a00000 	mov	r0, #0
  100acc:	ee070fd5 	mcr	15, 0, r0, cr7, cr5, {6}
  100ad0:	e3a00000 	mov	r0, #0
  100ad4:	ee020f50 	mcr	15, 0, r0, cr2, cr0, {2}
  100ad8:	e59f02b8 	ldr	r0, [pc, #696]	; 100d98 <invalidate_and_flush+0xa8>
  100adc:	e3a01008 	mov	r1, #8
  100ae0:	e3811040 	orr	r1, r1, #64	; 0x40
  100ae4:	e1800001 	orr	r0, r0, r1
  100ae8:	ee020f10 	mcr	15, 0, r0, cr2, cr0, {0}
  100aec:	e59f02a4 	ldr	r0, [pc, #676]	; 100d98 <invalidate_and_flush+0xa8>
  100af0:	e59f12a4 	ldr	r1, [pc, #676]	; 100d9c <invalidate_and_flush+0xac>

00100af4 <init_ttb_1>:
  100af4:	e3510b02 	cmp	r1, #2048	; 0x800
  100af8:	459f22a0 	ldrmi	r2, [pc, #672]	; 100da0 <invalidate_and_flush+0xb0>
  100afc:	559f22a0 	ldrpl	r2, [pc, #672]	; 100da4 <invalidate_and_flush+0xb4>
  100b00:	e1823a01 	orr	r3, r2, r1, lsl #20
  100b04:	e7803101 	str	r3, [r0, r1, lsl #2]
  100b08:	e2511001 	subs	r1, r1, #1
  100b0c:	5afffff8 	bpl	100af4 <init_ttb_1>
  100b10:	ee130f10 	mrc	15, 0, r0, cr3, cr0, {0}
  100b14:	e3e00000 	mvn	r0, #0
  100b18:	ee030f10 	mcr	15, 0, r0, cr3, cr0, {0}
  100b1c:	ee110f10 	mrc	15, 0, r0, cr1, cr0, {0}
  100b20:	e3c00a01 	bic	r0, r0, #4096	; 0x1000
  100b24:	e3c00004 	bic	r0, r0, #4
  100b28:	e3c00002 	bic	r0, r0, #2
  100b2c:	e3800001 	orr	r0, r0, #1
  100b30:	ee010f10 	mcr	15, 0, r0, cr1, cr0, {0}
  100b34:	e8bd8eb0 	pop	{r4, r5, r7, r9, sl, fp, pc}

00100b38 <initialize_L2C>:
  100b38:	e59f024c 	ldr	r0, [pc, #588]	; 100d8c <invalidate_and_flush+0x9c>
  100b3c:	e3a01000 	mov	r1, #0
  100b40:	e5801100 	str	r1, [r0, #256]	; 0x100
  100b44:	e3a01806 	mov	r1, #393216	; 0x60000
  100b48:	e3811202 	orr	r1, r1, #536870912	; 0x20000000
  100b4c:	e3811201 	orr	r1, r1, #268435456	; 0x10000000
  100b50:	e5801104 	str	r1, [r0, #260]	; 0x104
  100b54:	e3a01000 	mov	r1, #0
  100b58:	e5801108 	str	r1, [r0, #264]	; 0x108
  100b5c:	e3a01000 	mov	r1, #0
  100b60:	e580110c 	str	r1, [r0, #268]	; 0x10c
  100b64:	e3a010ff 	mov	r1, #255	; 0xff
  100b68:	e580177c 	str	r1, [r0, #1916]	; 0x77c

00100b6c <poll_invalidate>:
  100b6c:	e590177c 	ldr	r1, [r0, #1916]	; 0x77c
  100b70:	e3110001 	tst	r1, #1
  100b74:	1afffffc 	bne	100b6c <poll_invalidate>
  100b78:	e3a01007 	mov	r1, #7
  100b7c:	e5801200 	str	r1, [r0, #512]	; 0x200
  100b80:	e3a01008 	mov	r1, #8
  100b84:	e5801204 	str	r1, [r0, #516]	; 0x204
  100b88:	e3a0100c 	mov	r1, #12
  100b8c:	e5801208 	str	r1, [r0, #520]	; 0x208
  100b90:	e3a01000 	mov	r1, #0
  100b94:	e5801100 	str	r1, [r0, #256]	; 0x100
  100b98:	e12fff1e 	bx	lr

00100b9c <enable_caches>:
  100b9c:	ee110f10 	mrc	15, 0, r0, cr1, cr0, {0}
  100ba0:	e3800a01 	orr	r0, r0, #4096	; 0x1000
  100ba4:	e3800004 	orr	r0, r0, #4
  100ba8:	e3800b02 	orr	r0, r0, #2048	; 0x800
  100bac:	ee010f10 	mcr	15, 0, r0, cr1, cr0, {0}
  100bb0:	e59f01d4 	ldr	r0, [pc, #468]	; 100d8c <invalidate_and_flush+0x9c>
  100bb4:	e3a01001 	mov	r1, #1
  100bb8:	e5801100 	str	r1, [r0, #256]	; 0x100
  100bbc:	e12fff1e 	bx	lr

00100bc0 <enable_L1_D>:
  100bc0:	ee110f10 	mrc	15, 0, r0, cr1, cr0, {0}
  100bc4:	e3800004 	orr	r0, r0, #4
  100bc8:	ee010f10 	mcr	15, 0, r0, cr1, cr0, {0}
  100bcc:	e12fff1e 	bx	lr

00100bd0 <enable_L1_I>:
  100bd0:	ee110f10 	mrc	15, 0, r0, cr1, cr0, {0}
  100bd4:	e3800a01 	orr	r0, r0, #4096	; 0x1000
  100bd8:	ee010f10 	mcr	15, 0, r0, cr1, cr0, {0}
  100bdc:	e12fff1e 	bx	lr

00100be0 <enable_branch_prediction>:
  100be0:	ee110f10 	mrc	15, 0, r0, cr1, cr0, {0}
  100be4:	e3800b02 	orr	r0, r0, #2048	; 0x800
  100be8:	ee010f10 	mcr	15, 0, r0, cr1, cr0, {0}
  100bec:	e12fff1e 	bx	lr

00100bf0 <enable_L2>:
  100bf0:	e59f0194 	ldr	r0, [pc, #404]	; 100d8c <invalidate_and_flush+0x9c>
  100bf4:	e3a01001 	mov	r1, #1
  100bf8:	e5801100 	str	r1, [r0, #256]	; 0x100
  100bfc:	e12fff1e 	bx	lr

00100c00 <enable_store_buffer_device_limitation>:
  100c00:	e59f0184 	ldr	r0, [pc, #388]	; 100d8c <invalidate_and_flush+0x9c>
  100c04:	e3a01000 	mov	r1, #0
  100c08:	e5801100 	str	r1, [r0, #256]	; 0x100
  100c0c:	e5901104 	ldr	r1, [r0, #260]	; 0x104
  100c10:	e3811b02 	orr	r1, r1, #2048	; 0x800
  100c14:	e5801104 	str	r1, [r0, #260]	; 0x104
  100c18:	e3a01001 	mov	r1, #1
  100c1c:	e5801100 	str	r1, [r0, #256]	; 0x100
  100c20:	e12fff1e 	bx	lr

00100c24 <enable_early_BRESP>:
  100c24:	e59f0160 	ldr	r0, [pc, #352]	; 100d8c <invalidate_and_flush+0x9c>
  100c28:	e3a01000 	mov	r1, #0
  100c2c:	e5801100 	str	r1, [r0, #256]	; 0x100
  100c30:	e5901104 	ldr	r1, [r0, #260]	; 0x104
  100c34:	e3811101 	orr	r1, r1, #1073741824	; 0x40000000
  100c38:	e5801104 	str	r1, [r0, #260]	; 0x104
  100c3c:	e3a01001 	mov	r1, #1
  100c40:	e5801100 	str	r1, [r0, #256]	; 0x100
  100c44:	e12fff1e 	bx	lr

00100c48 <enable_write_full_line_zeros>:
  100c48:	e59f013c 	ldr	r0, [pc, #316]	; 100d8c <invalidate_and_flush+0x9c>
  100c4c:	e3a01000 	mov	r1, #0
  100c50:	e5801100 	str	r1, [r0, #256]	; 0x100
  100c54:	e5901104 	ldr	r1, [r0, #260]	; 0x104
  100c58:	e3811101 	orr	r1, r1, #1073741824	; 0x40000000
  100c5c:	e5801104 	str	r1, [r0, #260]	; 0x104
  100c60:	e3a01001 	mov	r1, #1
  100c64:	e5801100 	str	r1, [r0, #256]	; 0x100
  100c68:	ee110f30 	mrc	15, 0, r0, cr1, cr0, {1}
  100c6c:	e3800008 	orr	r0, r0, #8
  100c70:	ee010f30 	mcr	15, 0, r0, cr1, cr0, {1}
  100c74:	e12fff1e 	bx	lr

00100c78 <enable_L1_D_side_prefetch>:
  100c78:	ee110f30 	mrc	15, 0, r0, cr1, cr0, {1}
  100c7c:	e3800004 	orr	r0, r0, #4
  100c80:	ee010f30 	mcr	15, 0, r0, cr1, cr0, {1}
  100c84:	e12fff1e 	bx	lr

00100c88 <enable_L2_prefetch_hint>:
  100c88:	ee110f30 	mrc	15, 0, r0, cr1, cr0, {1}
  100c8c:	e3800002 	orr	r0, r0, #2
  100c90:	ee010f30 	mcr	15, 0, r0, cr1, cr0, {1}
  100c94:	e12fff1e 	bx	lr

00100c98 <enable_exclusive_caching>:
  100c98:	e59f00ec 	ldr	r0, [pc, #236]	; 100d8c <invalidate_and_flush+0x9c>
  100c9c:	e3a01000 	mov	r1, #0
  100ca0:	e5801100 	str	r1, [r0, #256]	; 0x100
  100ca4:	e5901104 	ldr	r1, [r0, #260]	; 0x104
  100ca8:	e3811a01 	orr	r1, r1, #4096	; 0x1000
  100cac:	e5801104 	str	r1, [r0, #260]	; 0x104
  100cb0:	e3a01001 	mov	r1, #1
  100cb4:	e5801100 	str	r1, [r0, #256]	; 0x100
  100cb8:	ee110f30 	mrc	15, 0, r0, cr1, cr0, {1}
  100cbc:	e3800080 	orr	r0, r0, #128	; 0x80
  100cc0:	ee010f30 	mcr	15, 0, r0, cr1, cr0, {1}
  100cc4:	e12fff1e 	bx	lr

00100cc8 <enable_SCU>:
  100cc8:	ee9f0f10 	mrc	15, 4, r0, cr15, cr0, {0}
  100ccc:	e5901000 	ldr	r1, [r0]
  100cd0:	e3811001 	orr	r1, r1, #1
  100cd4:	e5801000 	str	r1, [r0]
  100cd8:	e12fff1e 	bx	lr

00100cdc <enable_L2_speculative_linefill>:
  100cdc:	ee9f0f10 	mrc	15, 4, r0, cr15, cr0, {0}
  100ce0:	e5901000 	ldr	r1, [r0]
  100ce4:	e3811008 	orr	r1, r1, #8
  100ce8:	e5801000 	str	r1, [r0]
  100cec:	e12fff1e 	bx	lr

00100cf0 <invalidate_and_flush>:
  100cf0:	e92d4eb0 	push	{r4, r5, r7, r9, sl, fp, lr}
  100cf4:	e3a00000 	mov	r0, #0
  100cf8:	ee070fd5 	mcr	15, 0, r0, cr7, cr5, {6}
  100cfc:	ee300f30 	mrc	15, 1, r0, cr0, cr0, {1}
  100d00:	e3a00000 	mov	r0, #0
  100d04:	ee070f15 	mcr	15, 0, r0, cr7, cr5, {0}
  100d08:	ee300f30 	mrc	15, 1, r0, cr0, cr0, {1}
  100d0c:	e2103407 	ands	r3, r0, #117440512	; 0x7000000
  100d10:	e1a03ba3 	lsr	r3, r3, #23
  100d14:	0a00001a 	beq	100d84 <invalidate_and_flush+0x94>
  100d18:	e3a0a000 	mov	sl, #0
  100d1c:	e08a20aa 	add	r2, sl, sl, lsr #1
  100d20:	e1a01230 	lsr	r1, r0, r2
  100d24:	e2011007 	and	r1, r1, #7
  100d28:	e3510002 	cmp	r1, #2
  100d2c:	ba000011 	blt	100d78 <invalidate_and_flush+0x88>
  100d30:	ee40af10 	mcr	15, 2, sl, cr0, cr0, {0}
  100d34:	f57ff06f 	isb	sy
  100d38:	ee301f10 	mrc	15, 1, r1, cr0, cr0, {0}
  100d3c:	e2012007 	and	r2, r1, #7
  100d40:	e2822004 	add	r2, r2, #4
  100d44:	e59f4044 	ldr	r4, [pc, #68]	; 100d90 <invalidate_and_flush+0xa0>
  100d48:	e01441a1 	ands	r4, r4, r1, lsr #3
  100d4c:	e16f5f14 	clz	r5, r4
  100d50:	e59f703c 	ldr	r7, [pc, #60]	; 100d94 <invalidate_and_flush+0xa4>
  100d54:	e01776a1 	ands	r7, r7, r1, lsr #13
  100d58:	e1a09004 	mov	r9, r4
  100d5c:	e18ab519 	orr	fp, sl, r9, lsl r5
  100d60:	e18bb217 	orr	fp, fp, r7, lsl r2
  100d64:	ee07bf56 	mcr	15, 0, fp, cr7, cr6, {2}
  100d68:	e2599001 	subs	r9, r9, #1
  100d6c:	aafffffa 	bge	100d5c <invalidate_and_flush+0x6c>
  100d70:	e2577001 	subs	r7, r7, #1
  100d74:	aafffff7 	bge	100d58 <invalidate_and_flush+0x68>
  100d78:	e28aa002 	add	sl, sl, #2
  100d7c:	e153000a 	cmp	r3, sl
  100d80:	caffffe5 	bgt	100d1c <invalidate_and_flush+0x2c>
  100d84:	f57ff04f 	dsb	sy
  100d88:	e8bd8eb0 	pop	{r4, r5, r7, r9, sl, fp, pc}
  100d8c:	fffef000 	.word	0xfffef000
  100d90:	000003ff 	.word	0x000003ff
  100d94:	00007fff 	.word	0x00007fff
  100d98:	0012c000 	.word	0x0012c000
  100d9c:	00000fff 	.word	0x00000fff
  100da0:	00017c0e 	.word	0x00017c0e
  100da4:	00002c02 	.word	0x00002c02

00100da8 <alt_addr_space_remap>:
  100da8:	e52db004 	push	{fp}		; (str fp, [sp, #-4]!)
  100dac:	e28db000 	add	fp, sp, #0
  100db0:	e24dd014 	sub	sp, sp, #20
  100db4:	e1a0c000 	mov	ip, r0
  100db8:	e1a00001 	mov	r0, r1
  100dbc:	e1a01002 	mov	r1, r2
  100dc0:	e1a02003 	mov	r2, r3
  100dc4:	e1a0300c 	mov	r3, ip
  100dc8:	e54b300d 	strb	r3, [fp, #-13]
  100dcc:	e1a03000 	mov	r3, r0
  100dd0:	e54b300e 	strb	r3, [fp, #-14]
  100dd4:	e1a03001 	mov	r3, r1
  100dd8:	e54b300f 	strb	r3, [fp, #-15]
  100ddc:	e1a03002 	mov	r3, r2
  100de0:	e54b3010 	strb	r3, [fp, #-16]
  100de4:	e3a03000 	mov	r3, #0
  100de8:	e50b3008 	str	r3, [fp, #-8]
  100dec:	e55b300d 	ldrb	r3, [fp, #-13]
  100df0:	e3530000 	cmp	r3, #0
  100df4:	0a000008 	beq	100e1c <alt_addr_space_remap+0x74>
  100df8:	e55b300d 	ldrb	r3, [fp, #-13]
  100dfc:	e3530001 	cmp	r3, #1
  100e00:	1a000003 	bne	100e14 <alt_addr_space_remap+0x6c>
  100e04:	e51b3008 	ldr	r3, [fp, #-8]
  100e08:	e3833001 	orr	r3, r3, #1
  100e0c:	e50b3008 	str	r3, [fp, #-8]
  100e10:	ea000001 	b	100e1c <alt_addr_space_remap+0x74>
  100e14:	e3e0300a 	mvn	r3, #10
  100e18:	ea000028 	b	100ec0 <alt_addr_space_remap+0x118>
  100e1c:	e55b300e 	ldrb	r3, [fp, #-14]
  100e20:	e3530000 	cmp	r3, #0
  100e24:	0a000008 	beq	100e4c <alt_addr_space_remap+0xa4>
  100e28:	e55b300e 	ldrb	r3, [fp, #-14]
  100e2c:	e3530001 	cmp	r3, #1
  100e30:	1a000003 	bne	100e44 <alt_addr_space_remap+0x9c>
  100e34:	e51b3008 	ldr	r3, [fp, #-8]
  100e38:	e3833002 	orr	r3, r3, #2
  100e3c:	e50b3008 	str	r3, [fp, #-8]
  100e40:	ea000001 	b	100e4c <alt_addr_space_remap+0xa4>
  100e44:	e3e0300a 	mvn	r3, #10
  100e48:	ea00001c 	b	100ec0 <alt_addr_space_remap+0x118>
  100e4c:	e55b300f 	ldrb	r3, [fp, #-15]
  100e50:	e3530000 	cmp	r3, #0
  100e54:	0a000008 	beq	100e7c <alt_addr_space_remap+0xd4>
  100e58:	e55b300f 	ldrb	r3, [fp, #-15]
  100e5c:	e3530001 	cmp	r3, #1
  100e60:	1a000003 	bne	100e74 <alt_addr_space_remap+0xcc>
  100e64:	e51b3008 	ldr	r3, [fp, #-8]
  100e68:	e3833008 	orr	r3, r3, #8
  100e6c:	e50b3008 	str	r3, [fp, #-8]
  100e70:	ea000001 	b	100e7c <alt_addr_space_remap+0xd4>
  100e74:	e3e0300a 	mvn	r3, #10
  100e78:	ea000010 	b	100ec0 <alt_addr_space_remap+0x118>
  100e7c:	e55b3010 	ldrb	r3, [fp, #-16]
  100e80:	e3530000 	cmp	r3, #0
  100e84:	0a000008 	beq	100eac <alt_addr_space_remap+0x104>
  100e88:	e55b3010 	ldrb	r3, [fp, #-16]
  100e8c:	e3530001 	cmp	r3, #1
  100e90:	1a000003 	bne	100ea4 <alt_addr_space_remap+0xfc>
  100e94:	e51b3008 	ldr	r3, [fp, #-8]
  100e98:	e3833010 	orr	r3, r3, #16
  100e9c:	e50b3008 	str	r3, [fp, #-8]
  100ea0:	ea000001 	b	100eac <alt_addr_space_remap+0x104>
  100ea4:	e3e0300a 	mvn	r3, #10
  100ea8:	ea000004 	b	100ec0 <alt_addr_space_remap+0x118>
  100eac:	e3a03000 	mov	r3, #0
  100eb0:	e34f3f80 	movt	r3, #65408	; 0xff80
  100eb4:	e51b2008 	ldr	r2, [fp, #-8]
  100eb8:	e5832000 	str	r2, [r3]
  100ebc:	e3a03000 	mov	r3, #0
  100ec0:	e1a00003 	mov	r0, r3
  100ec4:	e24bd000 	sub	sp, fp, #0
  100ec8:	e49db004 	pop	{fp}		; (ldr fp, [sp], #4)
  100ecc:	e12fff1e 	bx	lr

00100ed0 <alt_mpu_addr_space_remap_0_to_sdram>:
  100ed0:	e92d4800 	push	{fp, lr}
  100ed4:	e28db004 	add	fp, sp, #4
  100ed8:	e24dd008 	sub	sp, sp, #8
  100edc:	e30f3c04 	movw	r3, #64516	; 0xfc04
  100ee0:	e34f3ffe 	movt	r3, #65534	; 0xfffe
  100ee4:	e5933000 	ldr	r3, [r3]
  100ee8:	e1a03a23 	lsr	r3, r3, #20
  100eec:	e1a03a03 	lsl	r3, r3, #20
  100ef0:	e50b3008 	str	r3, [fp, #-8]
  100ef4:	e51b1008 	ldr	r1, [fp, #-8]
  100ef8:	e3a00000 	mov	r0, #0
  100efc:	eb000027 	bl	100fa0 <alt_l2_addr_filter_cfg_set>
  100f00:	e1a03000 	mov	r3, r0
  100f04:	e1a00003 	mov	r0, r3
  100f08:	e24bd004 	sub	sp, fp, #4
  100f0c:	e8bd8800 	pop	{fp, pc}

00100f10 <alt_l2_addr_filter_cfg_get>:
  100f10:	e52db004 	push	{fp}		; (str fp, [sp, #-4]!)
  100f14:	e28db000 	add	fp, sp, #0
  100f18:	e24dd014 	sub	sp, sp, #20
  100f1c:	e50b0010 	str	r0, [fp, #-16]
  100f20:	e50b1014 	str	r1, [fp, #-20]	; 0xffffffec
  100f24:	e3a03b3f 	mov	r3, #64512	; 0xfc00
  100f28:	e34f3ffe 	movt	r3, #65534	; 0xfffe
  100f2c:	e5933000 	ldr	r3, [r3]
  100f30:	e50b3008 	str	r3, [fp, #-8]
  100f34:	e30f3c04 	movw	r3, #64516	; 0xfc04
  100f38:	e34f3ffe 	movt	r3, #65534	; 0xfffe
  100f3c:	e5933000 	ldr	r3, [r3]
  100f40:	e50b300c 	str	r3, [fp, #-12]
  100f44:	e51b3010 	ldr	r3, [fp, #-16]
  100f48:	e3530000 	cmp	r3, #0
  100f4c:	0a000002 	beq	100f5c <alt_l2_addr_filter_cfg_get+0x4c>
  100f50:	e51b3014 	ldr	r3, [fp, #-20]	; 0xffffffec
  100f54:	e3530000 	cmp	r3, #0
  100f58:	1a000001 	bne	100f64 <alt_l2_addr_filter_cfg_get+0x54>
  100f5c:	e3e03008 	mvn	r3, #8
  100f60:	ea00000a 	b	100f90 <alt_l2_addr_filter_cfg_get+0x80>
  100f64:	e51b3008 	ldr	r3, [fp, #-8]
  100f68:	e1a03a23 	lsr	r3, r3, #20
  100f6c:	e1a03a03 	lsl	r3, r3, #20
  100f70:	e51b2010 	ldr	r2, [fp, #-16]
  100f74:	e5823000 	str	r3, [r2]
  100f78:	e51b300c 	ldr	r3, [fp, #-12]
  100f7c:	e1a03a23 	lsr	r3, r3, #20
  100f80:	e1a03a03 	lsl	r3, r3, #20
  100f84:	e51b2014 	ldr	r2, [fp, #-20]	; 0xffffffec
  100f88:	e5823000 	str	r3, [r2]
  100f8c:	e3a03000 	mov	r3, #0
  100f90:	e1a00003 	mov	r0, r3
  100f94:	e24bd000 	sub	sp, fp, #0
  100f98:	e49db004 	pop	{fp}		; (ldr fp, [sp], #4)
  100f9c:	e12fff1e 	bx	lr

00100fa0 <alt_l2_addr_filter_cfg_set>:
  100fa0:	e52db004 	push	{fp}		; (str fp, [sp, #-4]!)
  100fa4:	e28db000 	add	fp, sp, #0
  100fa8:	e24dd00c 	sub	sp, sp, #12
  100fac:	e50b0008 	str	r0, [fp, #-8]
  100fb0:	e50b100c 	str	r1, [fp, #-12]
  100fb4:	e51b3008 	ldr	r3, [fp, #-8]
  100fb8:	e7f33053 	ubfx	r3, r3, #0, #20
  100fbc:	e3530000 	cmp	r3, #0
  100fc0:	1a000003 	bne	100fd4 <alt_l2_addr_filter_cfg_set+0x34>
  100fc4:	e51b300c 	ldr	r3, [fp, #-12]
  100fc8:	e7f33053 	ubfx	r3, r3, #0, #20
  100fcc:	e3530000 	cmp	r3, #0
  100fd0:	0a000001 	beq	100fdc <alt_l2_addr_filter_cfg_set+0x3c>
  100fd4:	e3e03007 	mvn	r3, #7
  100fd8:	ea000010 	b	101020 <alt_l2_addr_filter_cfg_set+0x80>
  100fdc:	e51b300c 	ldr	r3, [fp, #-12]
  100fe0:	e3530103 	cmp	r3, #-1073741824	; 0xc0000000
  100fe4:	9a000001 	bls	100ff0 <alt_l2_addr_filter_cfg_set+0x50>
  100fe8:	e3e03007 	mvn	r3, #7
  100fec:	ea00000b 	b	101020 <alt_l2_addr_filter_cfg_set+0x80>
  100ff0:	e30f3c04 	movw	r3, #64516	; 0xfc04
  100ff4:	e34f3ffe 	movt	r3, #65534	; 0xfffe
  100ff8:	e51b200c 	ldr	r2, [fp, #-12]
  100ffc:	e5832000 	str	r2, [r3]
  101000:	e51b3008 	ldr	r3, [fp, #-8]
  101004:	e3833001 	orr	r3, r3, #1
  101008:	e50b3008 	str	r3, [fp, #-8]
  10100c:	e3a03b3f 	mov	r3, #64512	; 0xfc00
  101010:	e34f3ffe 	movt	r3, #65534	; 0xfffe
  101014:	e51b2008 	ldr	r2, [fp, #-8]
  101018:	e5832000 	str	r2, [r3]
  10101c:	e3a03000 	mov	r3, #0
  101020:	e1a00003 	mov	r0, r3
  101024:	e24bd000 	sub	sp, fp, #0
  101028:	e49db004 	pop	{fp}		; (ldr fp, [sp], #4)
  10102c:	e12fff1e 	bx	lr

00101030 <alt_acp_id_map_fixed_read_set>:
  101030:	e52db004 	push	{fp}		; (str fp, [sp, #-4]!)
  101034:	e28db000 	add	fp, sp, #0
  101038:	e24dd014 	sub	sp, sp, #20
  10103c:	e50b0008 	str	r0, [fp, #-8]
  101040:	e50b100c 	str	r1, [fp, #-12]
  101044:	e50b3014 	str	r3, [fp, #-20]	; 0xffffffec
  101048:	e1a03002 	mov	r3, r2
  10104c:	e54b300d 	strb	r3, [fp, #-13]
  101050:	e51b3008 	ldr	r3, [fp, #-8]
  101054:	e3530a01 	cmp	r3, #4096	; 0x1000
  101058:	2a000002 	bcs	101068 <alt_acp_id_map_fixed_read_set+0x38>
  10105c:	e51b300c 	ldr	r3, [fp, #-12]
  101060:	e3530007 	cmp	r3, #7
  101064:	9a000001 	bls	101070 <alt_acp_id_map_fixed_read_set+0x40>
  101068:	e3e03008 	mvn	r3, #8
  10106c:	ea000066 	b	10120c <alt_acp_id_map_fixed_read_set+0x1dc>
  101070:	e51b300c 	ldr	r3, [fp, #-12]
  101074:	e2433002 	sub	r3, r3, #2
  101078:	e3530004 	cmp	r3, #4
  10107c:	979ff103 	ldrls	pc, [pc, r3, lsl #2]
  101080:	ea00005e 	b	101200 <alt_acp_id_map_fixed_read_set+0x1d0>
  101084:	00101098 	.word	0x00101098
  101088:	001010e0 	.word	0x001010e0
  10108c:	00101128 	.word	0x00101128
  101090:	00101170 	.word	0x00101170
  101094:	001011b8 	.word	0x001011b8
  101098:	e3a02a07 	mov	r2, #28672	; 0x7000
  10109c:	e34f2f70 	movt	r2, #65392	; 0xff70
  1010a0:	e51b3008 	ldr	r3, [fp, #-8]
  1010a4:	e1a01803 	lsl	r1, r3, #16
  1010a8:	e3a03000 	mov	r3, #0
  1010ac:	e3403fff 	movt	r3, #4095	; 0xfff
  1010b0:	e0033001 	and	r3, r3, r1
  1010b4:	e55b100d 	ldrb	r1, [fp, #-13]
  1010b8:	e1a01601 	lsl	r1, r1, #12
  1010bc:	e2011a03 	and	r1, r1, #12288	; 0x3000
  1010c0:	e1831001 	orr	r1, r3, r1
  1010c4:	e51b3014 	ldr	r3, [fp, #-20]	; 0xffffffec
  1010c8:	e1a03203 	lsl	r3, r3, #4
  1010cc:	e2033e1f 	and	r3, r3, #496	; 0x1f0
  1010d0:	e1813003 	orr	r3, r1, r3
  1010d4:	e3833102 	orr	r3, r3, #-2147483648	; 0x80000000
  1010d8:	e5823000 	str	r3, [r2]
  1010dc:	ea000049 	b	101208 <alt_acp_id_map_fixed_read_set+0x1d8>
  1010e0:	e3072008 	movw	r2, #28680	; 0x7008
  1010e4:	e34f2f70 	movt	r2, #65392	; 0xff70
  1010e8:	e51b3008 	ldr	r3, [fp, #-8]
  1010ec:	e1a01803 	lsl	r1, r3, #16
  1010f0:	e3a03000 	mov	r3, #0
  1010f4:	e3403fff 	movt	r3, #4095	; 0xfff
  1010f8:	e0033001 	and	r3, r3, r1
  1010fc:	e55b100d 	ldrb	r1, [fp, #-13]
  101100:	e1a01601 	lsl	r1, r1, #12
  101104:	e2011a03 	and	r1, r1, #12288	; 0x3000
  101108:	e1831001 	orr	r1, r3, r1
  10110c:	e51b3014 	ldr	r3, [fp, #-20]	; 0xffffffec
  101110:	e1a03203 	lsl	r3, r3, #4
  101114:	e2033e1f 	and	r3, r3, #496	; 0x1f0
  101118:	e1813003 	orr	r3, r1, r3
  10111c:	e3833102 	orr	r3, r3, #-2147483648	; 0x80000000
  101120:	e5823000 	str	r3, [r2]
  101124:	ea000037 	b	101208 <alt_acp_id_map_fixed_read_set+0x1d8>
  101128:	e3072010 	movw	r2, #28688	; 0x7010
  10112c:	e34f2f70 	movt	r2, #65392	; 0xff70
  101130:	e51b3008 	ldr	r3, [fp, #-8]
  101134:	e1a01803 	lsl	r1, r3, #16
  101138:	e3a03000 	mov	r3, #0
  10113c:	e3403fff 	movt	r3, #4095	; 0xfff
  101140:	e0033001 	and	r3, r3, r1
  101144:	e55b100d 	ldrb	r1, [fp, #-13]
  101148:	e1a01601 	lsl	r1, r1, #12
  10114c:	e2011a03 	and	r1, r1, #12288	; 0x3000
  101150:	e1831001 	orr	r1, r3, r1
  101154:	e51b3014 	ldr	r3, [fp, #-20]	; 0xffffffec
  101158:	e1a03203 	lsl	r3, r3, #4
  10115c:	e2033e1f 	and	r3, r3, #496	; 0x1f0
  101160:	e1813003 	orr	r3, r1, r3
  101164:	e3833102 	orr	r3, r3, #-2147483648	; 0x80000000
  101168:	e5823000 	str	r3, [r2]
  10116c:	ea000025 	b	101208 <alt_acp_id_map_fixed_read_set+0x1d8>
  101170:	e3072018 	movw	r2, #28696	; 0x7018
  101174:	e34f2f70 	movt	r2, #65392	; 0xff70
  101178:	e51b3008 	ldr	r3, [fp, #-8]
  10117c:	e1a01803 	lsl	r1, r3, #16
  101180:	e3a03000 	mov	r3, #0
  101184:	e3403fff 	movt	r3, #4095	; 0xfff
  101188:	e0033001 	and	r3, r3, r1
  10118c:	e55b100d 	ldrb	r1, [fp, #-13]
  101190:	e1a01601 	lsl	r1, r1, #12
  101194:	e2011a03 	and	r1, r1, #12288	; 0x3000
  101198:	e1831001 	orr	r1, r3, r1
  10119c:	e51b3014 	ldr	r3, [fp, #-20]	; 0xffffffec
  1011a0:	e1a03203 	lsl	r3, r3, #4
  1011a4:	e2033e1f 	and	r3, r3, #496	; 0x1f0
  1011a8:	e1813003 	orr	r3, r1, r3
  1011ac:	e3833102 	orr	r3, r3, #-2147483648	; 0x80000000
  1011b0:	e5823000 	str	r3, [r2]
  1011b4:	ea000013 	b	101208 <alt_acp_id_map_fixed_read_set+0x1d8>
  1011b8:	e3072020 	movw	r2, #28704	; 0x7020
  1011bc:	e34f2f70 	movt	r2, #65392	; 0xff70
  1011c0:	e51b3008 	ldr	r3, [fp, #-8]
  1011c4:	e1a01803 	lsl	r1, r3, #16
  1011c8:	e3a03000 	mov	r3, #0
  1011cc:	e3403fff 	movt	r3, #4095	; 0xfff
  1011d0:	e0033001 	and	r3, r3, r1
  1011d4:	e55b100d 	ldrb	r1, [fp, #-13]
  1011d8:	e1a01601 	lsl	r1, r1, #12
  1011dc:	e2011a03 	and	r1, r1, #12288	; 0x3000
  1011e0:	e1831001 	orr	r1, r3, r1
  1011e4:	e51b3014 	ldr	r3, [fp, #-20]	; 0xffffffec
  1011e8:	e1a03203 	lsl	r3, r3, #4
  1011ec:	e2033e1f 	and	r3, r3, #496	; 0x1f0
  1011f0:	e1813003 	orr	r3, r1, r3
  1011f4:	e3833102 	orr	r3, r3, #-2147483648	; 0x80000000
  1011f8:	e5823000 	str	r3, [r2]
  1011fc:	ea000001 	b	101208 <alt_acp_id_map_fixed_read_set+0x1d8>
  101200:	e3e03008 	mvn	r3, #8
  101204:	ea000000 	b	10120c <alt_acp_id_map_fixed_read_set+0x1dc>
  101208:	e3a03000 	mov	r3, #0
  10120c:	e1a00003 	mov	r0, r3
  101210:	e24bd000 	sub	sp, fp, #0
  101214:	e49db004 	pop	{fp}		; (ldr fp, [sp], #4)
  101218:	e12fff1e 	bx	lr

0010121c <alt_acp_id_map_fixed_write_set>:
  10121c:	e52db004 	push	{fp}		; (str fp, [sp, #-4]!)
  101220:	e28db000 	add	fp, sp, #0
  101224:	e24dd014 	sub	sp, sp, #20
  101228:	e50b0008 	str	r0, [fp, #-8]
  10122c:	e50b100c 	str	r1, [fp, #-12]
  101230:	e50b3014 	str	r3, [fp, #-20]	; 0xffffffec
  101234:	e1a03002 	mov	r3, r2
  101238:	e54b300d 	strb	r3, [fp, #-13]
  10123c:	e51b3008 	ldr	r3, [fp, #-8]
  101240:	e3530a01 	cmp	r3, #4096	; 0x1000
  101244:	2a000002 	bcs	101254 <alt_acp_id_map_fixed_write_set+0x38>
  101248:	e51b300c 	ldr	r3, [fp, #-12]
  10124c:	e3530007 	cmp	r3, #7
  101250:	9a000001 	bls	10125c <alt_acp_id_map_fixed_write_set+0x40>
  101254:	e3e03008 	mvn	r3, #8
  101258:	ea000066 	b	1013f8 <alt_acp_id_map_fixed_write_set+0x1dc>
  10125c:	e51b300c 	ldr	r3, [fp, #-12]
  101260:	e2433002 	sub	r3, r3, #2
  101264:	e3530004 	cmp	r3, #4
  101268:	979ff103 	ldrls	pc, [pc, r3, lsl #2]
  10126c:	ea00005e 	b	1013ec <alt_acp_id_map_fixed_write_set+0x1d0>
  101270:	00101284 	.word	0x00101284
  101274:	001012cc 	.word	0x001012cc
  101278:	00101314 	.word	0x00101314
  10127c:	0010135c 	.word	0x0010135c
  101280:	001013a4 	.word	0x001013a4
  101284:	e3072004 	movw	r2, #28676	; 0x7004
  101288:	e34f2f70 	movt	r2, #65392	; 0xff70
  10128c:	e51b3008 	ldr	r3, [fp, #-8]
  101290:	e1a01803 	lsl	r1, r3, #16
  101294:	e3a03000 	mov	r3, #0
  101298:	e3403fff 	movt	r3, #4095	; 0xfff
  10129c:	e0033001 	and	r3, r3, r1
  1012a0:	e55b100d 	ldrb	r1, [fp, #-13]
  1012a4:	e1a01601 	lsl	r1, r1, #12
  1012a8:	e2011a03 	and	r1, r1, #12288	; 0x3000
  1012ac:	e1831001 	orr	r1, r3, r1
  1012b0:	e51b3014 	ldr	r3, [fp, #-20]	; 0xffffffec
  1012b4:	e1a03203 	lsl	r3, r3, #4
  1012b8:	e2033e1f 	and	r3, r3, #496	; 0x1f0
  1012bc:	e1813003 	orr	r3, r1, r3
  1012c0:	e3833102 	orr	r3, r3, #-2147483648	; 0x80000000
  1012c4:	e5823000 	str	r3, [r2]
  1012c8:	ea000049 	b	1013f4 <alt_acp_id_map_fixed_write_set+0x1d8>
  1012cc:	e307200c 	movw	r2, #28684	; 0x700c
  1012d0:	e34f2f70 	movt	r2, #65392	; 0xff70
  1012d4:	e51b3008 	ldr	r3, [fp, #-8]
  1012d8:	e1a01803 	lsl	r1, r3, #16
  1012dc:	e3a03000 	mov	r3, #0
  1012e0:	e3403fff 	movt	r3, #4095	; 0xfff
  1012e4:	e0033001 	and	r3, r3, r1
  1012e8:	e55b100d 	ldrb	r1, [fp, #-13]
  1012ec:	e1a01601 	lsl	r1, r1, #12
  1012f0:	e2011a03 	and	r1, r1, #12288	; 0x3000
  1012f4:	e1831001 	orr	r1, r3, r1
  1012f8:	e51b3014 	ldr	r3, [fp, #-20]	; 0xffffffec
  1012fc:	e1a03203 	lsl	r3, r3, #4
  101300:	e2033e1f 	and	r3, r3, #496	; 0x1f0
  101304:	e1813003 	orr	r3, r1, r3
  101308:	e3833102 	orr	r3, r3, #-2147483648	; 0x80000000
  10130c:	e5823000 	str	r3, [r2]
  101310:	ea000037 	b	1013f4 <alt_acp_id_map_fixed_write_set+0x1d8>
  101314:	e3072014 	movw	r2, #28692	; 0x7014
  101318:	e34f2f70 	movt	r2, #65392	; 0xff70
  10131c:	e51b3008 	ldr	r3, [fp, #-8]
  101320:	e1a01803 	lsl	r1, r3, #16
  101324:	e3a03000 	mov	r3, #0
  101328:	e3403fff 	movt	r3, #4095	; 0xfff
  10132c:	e0033001 	and	r3, r3, r1
  101330:	e55b100d 	ldrb	r1, [fp, #-13]
  101334:	e1a01601 	lsl	r1, r1, #12
  101338:	e2011a03 	and	r1, r1, #12288	; 0x3000
  10133c:	e1831001 	orr	r1, r3, r1
  101340:	e51b3014 	ldr	r3, [fp, #-20]	; 0xffffffec
  101344:	e1a03203 	lsl	r3, r3, #4
  101348:	e2033e1f 	and	r3, r3, #496	; 0x1f0
  10134c:	e1813003 	orr	r3, r1, r3
  101350:	e3833102 	orr	r3, r3, #-2147483648	; 0x80000000
  101354:	e5823000 	str	r3, [r2]
  101358:	ea000025 	b	1013f4 <alt_acp_id_map_fixed_write_set+0x1d8>
  10135c:	e307201c 	movw	r2, #28700	; 0x701c
  101360:	e34f2f70 	movt	r2, #65392	; 0xff70
  101364:	e51b3008 	ldr	r3, [fp, #-8]
  101368:	e1a01803 	lsl	r1, r3, #16
  10136c:	e3a03000 	mov	r3, #0
  101370:	e3403fff 	movt	r3, #4095	; 0xfff
  101374:	e0033001 	and	r3, r3, r1
  101378:	e55b100d 	ldrb	r1, [fp, #-13]
  10137c:	e1a01601 	lsl	r1, r1, #12
  101380:	e2011a03 	and	r1, r1, #12288	; 0x3000
  101384:	e1831001 	orr	r1, r3, r1
  101388:	e51b3014 	ldr	r3, [fp, #-20]	; 0xffffffec
  10138c:	e1a03203 	lsl	r3, r3, #4
  101390:	e2033e1f 	and	r3, r3, #496	; 0x1f0
  101394:	e1813003 	orr	r3, r1, r3
  101398:	e3833102 	orr	r3, r3, #-2147483648	; 0x80000000
  10139c:	e5823000 	str	r3, [r2]
  1013a0:	ea000013 	b	1013f4 <alt_acp_id_map_fixed_write_set+0x1d8>
  1013a4:	e3072024 	movw	r2, #28708	; 0x7024
  1013a8:	e34f2f70 	movt	r2, #65392	; 0xff70
  1013ac:	e51b3008 	ldr	r3, [fp, #-8]
  1013b0:	e1a01803 	lsl	r1, r3, #16
  1013b4:	e3a03000 	mov	r3, #0
  1013b8:	e3403fff 	movt	r3, #4095	; 0xfff
  1013bc:	e0033001 	and	r3, r3, r1
  1013c0:	e55b100d 	ldrb	r1, [fp, #-13]
  1013c4:	e1a01601 	lsl	r1, r1, #12
  1013c8:	e2011a03 	and	r1, r1, #12288	; 0x3000
  1013cc:	e1831001 	orr	r1, r3, r1
  1013d0:	e51b3014 	ldr	r3, [fp, #-20]	; 0xffffffec
  1013d4:	e1a03203 	lsl	r3, r3, #4
  1013d8:	e2033e1f 	and	r3, r3, #496	; 0x1f0
  1013dc:	e1813003 	orr	r3, r1, r3
  1013e0:	e3833102 	orr	r3, r3, #-2147483648	; 0x80000000
  1013e4:	e5823000 	str	r3, [r2]
  1013e8:	ea000001 	b	1013f4 <alt_acp_id_map_fixed_write_set+0x1d8>
  1013ec:	e3e03008 	mvn	r3, #8
  1013f0:	ea000000 	b	1013f8 <alt_acp_id_map_fixed_write_set+0x1dc>
  1013f4:	e3a03000 	mov	r3, #0
  1013f8:	e1a00003 	mov	r0, r3
  1013fc:	e24bd000 	sub	sp, fp, #0
  101400:	e49db004 	pop	{fp}		; (ldr fp, [sp], #4)
  101404:	e12fff1e 	bx	lr

00101408 <alt_acp_id_map_dynamic_read_set>:
  101408:	e52db004 	push	{fp}		; (str fp, [sp, #-4]!)
  10140c:	e28db000 	add	fp, sp, #0
  101410:	e24dd014 	sub	sp, sp, #20
  101414:	e50b0010 	str	r0, [fp, #-16]
  101418:	e51b3010 	ldr	r3, [fp, #-16]
  10141c:	e3530007 	cmp	r3, #7
  101420:	9a000001 	bls	10142c <alt_acp_id_map_dynamic_read_set+0x24>
  101424:	e3e03008 	mvn	r3, #8
  101428:	ea000057 	b	10158c <alt_acp_id_map_dynamic_read_set+0x184>
  10142c:	e51b3010 	ldr	r3, [fp, #-16]
  101430:	e2433002 	sub	r3, r3, #2
  101434:	e3530004 	cmp	r3, #4
  101438:	979ff103 	ldrls	pc, [pc, r3, lsl #2]
  10143c:	ea000045 	b	101558 <alt_acp_id_map_dynamic_read_set+0x150>
  101440:	00101454 	.word	0x00101454
  101444:	00101488 	.word	0x00101488
  101448:	001014bc 	.word	0x001014bc
  10144c:	001014f0 	.word	0x001014f0
  101450:	00101524 	.word	0x00101524
  101454:	e3a03a07 	mov	r3, #28672	; 0x7000
  101458:	e34f3f70 	movt	r3, #65392	; 0xff70
  10145c:	e5933000 	ldr	r3, [r3]
  101460:	e1a03223 	lsr	r3, r3, #4
  101464:	e203301f 	and	r3, r3, #31
  101468:	e50b3008 	str	r3, [fp, #-8]
  10146c:	e3a03a07 	mov	r3, #28672	; 0x7000
  101470:	e34f3f70 	movt	r3, #65392	; 0xff70
  101474:	e5933000 	ldr	r3, [r3]
  101478:	e1a03623 	lsr	r3, r3, #12
  10147c:	e2033003 	and	r3, r3, #3
  101480:	e50b300c 	str	r3, [fp, #-12]
  101484:	ea000035 	b	101560 <alt_acp_id_map_dynamic_read_set+0x158>
  101488:	e3073008 	movw	r3, #28680	; 0x7008
  10148c:	e34f3f70 	movt	r3, #65392	; 0xff70
  101490:	e5933000 	ldr	r3, [r3]
  101494:	e1a03223 	lsr	r3, r3, #4
  101498:	e203301f 	and	r3, r3, #31
  10149c:	e50b3008 	str	r3, [fp, #-8]
  1014a0:	e3073008 	movw	r3, #28680	; 0x7008
  1014a4:	e34f3f70 	movt	r3, #65392	; 0xff70
  1014a8:	e5933000 	ldr	r3, [r3]
  1014ac:	e1a03623 	lsr	r3, r3, #12
  1014b0:	e2033003 	and	r3, r3, #3
  1014b4:	e50b300c 	str	r3, [fp, #-12]
  1014b8:	ea000028 	b	101560 <alt_acp_id_map_dynamic_read_set+0x158>
  1014bc:	e3073010 	movw	r3, #28688	; 0x7010
  1014c0:	e34f3f70 	movt	r3, #65392	; 0xff70
  1014c4:	e5933000 	ldr	r3, [r3]
  1014c8:	e1a03223 	lsr	r3, r3, #4
  1014cc:	e203301f 	and	r3, r3, #31
  1014d0:	e50b3008 	str	r3, [fp, #-8]
  1014d4:	e3073010 	movw	r3, #28688	; 0x7010
  1014d8:	e34f3f70 	movt	r3, #65392	; 0xff70
  1014dc:	e5933000 	ldr	r3, [r3]
  1014e0:	e1a03623 	lsr	r3, r3, #12
  1014e4:	e2033003 	and	r3, r3, #3
  1014e8:	e50b300c 	str	r3, [fp, #-12]
  1014ec:	ea00001b 	b	101560 <alt_acp_id_map_dynamic_read_set+0x158>
  1014f0:	e3073018 	movw	r3, #28696	; 0x7018
  1014f4:	e34f3f70 	movt	r3, #65392	; 0xff70
  1014f8:	e5933000 	ldr	r3, [r3]
  1014fc:	e1a03223 	lsr	r3, r3, #4
  101500:	e203301f 	and	r3, r3, #31
  101504:	e50b3008 	str	r3, [fp, #-8]
  101508:	e3073018 	movw	r3, #28696	; 0x7018
  10150c:	e34f3f70 	movt	r3, #65392	; 0xff70
  101510:	e5933000 	ldr	r3, [r3]
  101514:	e1a03623 	lsr	r3, r3, #12
  101518:	e2033003 	and	r3, r3, #3
  10151c:	e50b300c 	str	r3, [fp, #-12]
  101520:	ea00000e 	b	101560 <alt_acp_id_map_dynamic_read_set+0x158>
  101524:	e3073020 	movw	r3, #28704	; 0x7020
  101528:	e34f3f70 	movt	r3, #65392	; 0xff70
  10152c:	e5933000 	ldr	r3, [r3]
  101530:	e1a03223 	lsr	r3, r3, #4
  101534:	e203301f 	and	r3, r3, #31
  101538:	e50b3008 	str	r3, [fp, #-8]
  10153c:	e3073020 	movw	r3, #28704	; 0x7020
  101540:	e34f3f70 	movt	r3, #65392	; 0xff70
  101544:	e5933000 	ldr	r3, [r3]
  101548:	e1a03623 	lsr	r3, r3, #12
  10154c:	e2033003 	and	r3, r3, #3
  101550:	e50b300c 	str	r3, [fp, #-12]
  101554:	ea000001 	b	101560 <alt_acp_id_map_dynamic_read_set+0x158>
  101558:	e3e03008 	mvn	r3, #8
  10155c:	ea00000a 	b	10158c <alt_acp_id_map_dynamic_read_set+0x184>
  101560:	e3073028 	movw	r3, #28712	; 0x7028
  101564:	e34f3f70 	movt	r3, #65392	; 0xff70
  101568:	e51b200c 	ldr	r2, [fp, #-12]
  10156c:	e1a02602 	lsl	r2, r2, #12
  101570:	e2021a03 	and	r1, r2, #12288	; 0x3000
  101574:	e51b2008 	ldr	r2, [fp, #-8]
  101578:	e1a02202 	lsl	r2, r2, #4
  10157c:	e2022e1f 	and	r2, r2, #496	; 0x1f0
  101580:	e1812002 	orr	r2, r1, r2
  101584:	e5832000 	str	r2, [r3]
  101588:	e3a03000 	mov	r3, #0
  10158c:	e1a00003 	mov	r0, r3
  101590:	e24bd000 	sub	sp, fp, #0
  101594:	e49db004 	pop	{fp}		; (ldr fp, [sp], #4)
  101598:	e12fff1e 	bx	lr

0010159c <alt_acp_id_map_dynamic_write_set>:
  10159c:	e52db004 	push	{fp}		; (str fp, [sp, #-4]!)
  1015a0:	e28db000 	add	fp, sp, #0
  1015a4:	e24dd014 	sub	sp, sp, #20
  1015a8:	e50b0010 	str	r0, [fp, #-16]
  1015ac:	e51b3010 	ldr	r3, [fp, #-16]
  1015b0:	e3530007 	cmp	r3, #7
  1015b4:	9a000001 	bls	1015c0 <alt_acp_id_map_dynamic_write_set+0x24>
  1015b8:	e3e03008 	mvn	r3, #8
  1015bc:	ea000057 	b	101720 <alt_acp_id_map_dynamic_write_set+0x184>
  1015c0:	e51b3010 	ldr	r3, [fp, #-16]
  1015c4:	e2433002 	sub	r3, r3, #2
  1015c8:	e3530004 	cmp	r3, #4
  1015cc:	979ff103 	ldrls	pc, [pc, r3, lsl #2]
  1015d0:	ea000045 	b	1016ec <alt_acp_id_map_dynamic_write_set+0x150>
  1015d4:	001015e8 	.word	0x001015e8
  1015d8:	0010161c 	.word	0x0010161c
  1015dc:	00101650 	.word	0x00101650
  1015e0:	00101684 	.word	0x00101684
  1015e4:	001016b8 	.word	0x001016b8
  1015e8:	e3073004 	movw	r3, #28676	; 0x7004
  1015ec:	e34f3f70 	movt	r3, #65392	; 0xff70
  1015f0:	e5933000 	ldr	r3, [r3]
  1015f4:	e1a03223 	lsr	r3, r3, #4
  1015f8:	e203301f 	and	r3, r3, #31
  1015fc:	e50b3008 	str	r3, [fp, #-8]
  101600:	e3073004 	movw	r3, #28676	; 0x7004
  101604:	e34f3f70 	movt	r3, #65392	; 0xff70
  101608:	e5933000 	ldr	r3, [r3]
  10160c:	e1a03623 	lsr	r3, r3, #12
  101610:	e2033003 	and	r3, r3, #3
  101614:	e50b300c 	str	r3, [fp, #-12]
  101618:	ea000035 	b	1016f4 <alt_acp_id_map_dynamic_write_set+0x158>
  10161c:	e307300c 	movw	r3, #28684	; 0x700c
  101620:	e34f3f70 	movt	r3, #65392	; 0xff70
  101624:	e5933000 	ldr	r3, [r3]
  101628:	e1a03223 	lsr	r3, r3, #4
  10162c:	e203301f 	and	r3, r3, #31
  101630:	e50b3008 	str	r3, [fp, #-8]
  101634:	e307300c 	movw	r3, #28684	; 0x700c
  101638:	e34f3f70 	movt	r3, #65392	; 0xff70
  10163c:	e5933000 	ldr	r3, [r3]
  101640:	e1a03623 	lsr	r3, r3, #12
  101644:	e2033003 	and	r3, r3, #3
  101648:	e50b300c 	str	r3, [fp, #-12]
  10164c:	ea000028 	b	1016f4 <alt_acp_id_map_dynamic_write_set+0x158>
  101650:	e3073014 	movw	r3, #28692	; 0x7014
  101654:	e34f3f70 	movt	r3, #65392	; 0xff70
  101658:	e5933000 	ldr	r3, [r3]
  10165c:	e1a03223 	lsr	r3, r3, #4
  101660:	e203301f 	and	r3, r3, #31
  101664:	e50b3008 	str	r3, [fp, #-8]
  101668:	e3073014 	movw	r3, #28692	; 0x7014
  10166c:	e34f3f70 	movt	r3, #65392	; 0xff70
  101670:	e5933000 	ldr	r3, [r3]
  101674:	e1a03623 	lsr	r3, r3, #12
  101678:	e2033003 	and	r3, r3, #3
  10167c:	e50b300c 	str	r3, [fp, #-12]
  101680:	ea00001b 	b	1016f4 <alt_acp_id_map_dynamic_write_set+0x158>
  101684:	e307301c 	movw	r3, #28700	; 0x701c
  101688:	e34f3f70 	movt	r3, #65392	; 0xff70
  10168c:	e5933000 	ldr	r3, [r3]
  101690:	e1a03223 	lsr	r3, r3, #4
  101694:	e203301f 	and	r3, r3, #31
  101698:	e50b3008 	str	r3, [fp, #-8]
  10169c:	e307301c 	movw	r3, #28700	; 0x701c
  1016a0:	e34f3f70 	movt	r3, #65392	; 0xff70
  1016a4:	e5933000 	ldr	r3, [r3]
  1016a8:	e1a03623 	lsr	r3, r3, #12
  1016ac:	e2033003 	and	r3, r3, #3
  1016b0:	e50b300c 	str	r3, [fp, #-12]
  1016b4:	ea00000e 	b	1016f4 <alt_acp_id_map_dynamic_write_set+0x158>
  1016b8:	e3073024 	movw	r3, #28708	; 0x7024
  1016bc:	e34f3f70 	movt	r3, #65392	; 0xff70
  1016c0:	e5933000 	ldr	r3, [r3]
  1016c4:	e1a03223 	lsr	r3, r3, #4
  1016c8:	e203301f 	and	r3, r3, #31
  1016cc:	e50b3008 	str	r3, [fp, #-8]
  1016d0:	e3073024 	movw	r3, #28708	; 0x7024
  1016d4:	e34f3f70 	movt	r3, #65392	; 0xff70
  1016d8:	e5933000 	ldr	r3, [r3]
  1016dc:	e1a03623 	lsr	r3, r3, #12
  1016e0:	e2033003 	and	r3, r3, #3
  1016e4:	e50b300c 	str	r3, [fp, #-12]
  1016e8:	ea000001 	b	1016f4 <alt_acp_id_map_dynamic_write_set+0x158>
  1016ec:	e3e03008 	mvn	r3, #8
  1016f0:	ea00000a 	b	101720 <alt_acp_id_map_dynamic_write_set+0x184>
  1016f4:	e307302c 	movw	r3, #28716	; 0x702c
  1016f8:	e34f3f70 	movt	r3, #65392	; 0xff70
  1016fc:	e51b200c 	ldr	r2, [fp, #-12]
  101700:	e1a02602 	lsl	r2, r2, #12
  101704:	e2021a03 	and	r1, r2, #12288	; 0x3000
  101708:	e51b2008 	ldr	r2, [fp, #-8]
  10170c:	e1a02202 	lsl	r2, r2, #4
  101710:	e2022e1f 	and	r2, r2, #496	; 0x1f0
  101714:	e1812002 	orr	r2, r1, r2
  101718:	e5832000 	str	r2, [r3]
  10171c:	e3a03000 	mov	r3, #0
  101720:	e1a00003 	mov	r0, r3
  101724:	e24bd000 	sub	sp, fp, #0
  101728:	e49db004 	pop	{fp}		; (ldr fp, [sp], #4)
  10172c:	e12fff1e 	bx	lr

00101730 <alt_acp_id_map_dynamic_read_options_set>:
  101730:	e52db004 	push	{fp}		; (str fp, [sp, #-4]!)
  101734:	e28db000 	add	fp, sp, #0
  101738:	e24dd00c 	sub	sp, sp, #12
  10173c:	e1a03000 	mov	r3, r0
  101740:	e50b100c 	str	r1, [fp, #-12]
  101744:	e54b3005 	strb	r3, [fp, #-5]
  101748:	e3073028 	movw	r3, #28712	; 0x7028
  10174c:	e34f3f70 	movt	r3, #65392	; 0xff70
  101750:	e55b2005 	ldrb	r2, [fp, #-5]
  101754:	e1a02602 	lsl	r2, r2, #12
  101758:	e2021a03 	and	r1, r2, #12288	; 0x3000
  10175c:	e51b200c 	ldr	r2, [fp, #-12]
  101760:	e1a02202 	lsl	r2, r2, #4
  101764:	e2022e1f 	and	r2, r2, #496	; 0x1f0
  101768:	e1812002 	orr	r2, r1, r2
  10176c:	e5832000 	str	r2, [r3]
  101770:	e3a03000 	mov	r3, #0
  101774:	e1a00003 	mov	r0, r3
  101778:	e24bd000 	sub	sp, fp, #0
  10177c:	e49db004 	pop	{fp}		; (ldr fp, [sp], #4)
  101780:	e12fff1e 	bx	lr

00101784 <alt_acp_id_map_dynamic_write_options_set>:
  101784:	e52db004 	push	{fp}		; (str fp, [sp, #-4]!)
  101788:	e28db000 	add	fp, sp, #0
  10178c:	e24dd00c 	sub	sp, sp, #12
  101790:	e1a03000 	mov	r3, r0
  101794:	e50b100c 	str	r1, [fp, #-12]
  101798:	e54b3005 	strb	r3, [fp, #-5]
  10179c:	e307302c 	movw	r3, #28716	; 0x702c
  1017a0:	e34f3f70 	movt	r3, #65392	; 0xff70
  1017a4:	e55b2005 	ldrb	r2, [fp, #-5]
  1017a8:	e1a02602 	lsl	r2, r2, #12
  1017ac:	e2021a03 	and	r1, r2, #12288	; 0x3000
  1017b0:	e51b200c 	ldr	r2, [fp, #-12]
  1017b4:	e1a02202 	lsl	r2, r2, #4
  1017b8:	e2022e1f 	and	r2, r2, #496	; 0x1f0
  1017bc:	e1812002 	orr	r2, r1, r2
  1017c0:	e5832000 	str	r2, [r3]
  1017c4:	e3a03000 	mov	r3, #0
  1017c8:	e1a00003 	mov	r0, r3
  1017cc:	e24bd000 	sub	sp, fp, #0
  1017d0:	e49db004 	pop	{fp}		; (ldr fp, [sp], #4)
  1017d4:	e12fff1e 	bx	lr

001017d8 <alt_acp_id_map_read_options_get>:
  1017d8:	e52db004 	push	{fp}		; (str fp, [sp, #-4]!)
  1017dc:	e28db000 	add	fp, sp, #0
  1017e0:	e24dd014 	sub	sp, sp, #20
  1017e4:	e50b0008 	str	r0, [fp, #-8]
  1017e8:	e50b100c 	str	r1, [fp, #-12]
  1017ec:	e50b2010 	str	r2, [fp, #-16]
  1017f0:	e50b3014 	str	r3, [fp, #-20]	; 0xffffffec
  1017f4:	e51b3008 	ldr	r3, [fp, #-8]
  1017f8:	e3530007 	cmp	r3, #7
  1017fc:	9a000001 	bls	101808 <alt_acp_id_map_read_options_get+0x30>
  101800:	e3e03008 	mvn	r3, #8
  101804:	ea0000c7 	b	101b28 <alt_acp_id_map_read_options_get+0x350>
  101808:	e51b3008 	ldr	r3, [fp, #-8]
  10180c:	e2433002 	sub	r3, r3, #2
  101810:	e3530005 	cmp	r3, #5
  101814:	979ff103 	ldrls	pc, [pc, r3, lsl #2]
  101818:	ea0000bf 	b	101b1c <alt_acp_id_map_read_options_get+0x344>
  10181c:	00101834 	.word	0x00101834
  101820:	001018bc 	.word	0x001018bc
  101824:	00101944 	.word	0x00101944
  101828:	001019cc 	.word	0x001019cc
  10182c:	00101a54 	.word	0x00101a54
  101830:	00101adc 	.word	0x00101adc
  101834:	e3073030 	movw	r3, #28720	; 0x7030
  101838:	e34f3f70 	movt	r3, #65392	; 0xff70
  10183c:	e5933000 	ldr	r3, [r3]
  101840:	e1a03223 	lsr	r3, r3, #4
  101844:	e203201f 	and	r2, r3, #31
  101848:	e59b3004 	ldr	r3, [fp, #4]
  10184c:	e5832000 	str	r2, [r3]
  101850:	e3073030 	movw	r3, #28720	; 0x7030
  101854:	e34f3f70 	movt	r3, #65392	; 0xff70
  101858:	e5933000 	ldr	r3, [r3]
  10185c:	e1a03623 	lsr	r3, r3, #12
  101860:	e2033003 	and	r3, r3, #3
  101864:	e6ef2073 	uxtb	r2, r3
  101868:	e51b3014 	ldr	r3, [fp, #-20]	; 0xffffffec
  10186c:	e5c32000 	strb	r2, [r3]
  101870:	e3073030 	movw	r3, #28720	; 0x7030
  101874:	e34f3f70 	movt	r3, #65392	; 0xff70
  101878:	e5933000 	ldr	r3, [r3]
  10187c:	e1a03823 	lsr	r3, r3, #16
  101880:	e7eb2053 	ubfx	r2, r3, #0, #12
  101884:	e51b3010 	ldr	r3, [fp, #-16]
  101888:	e5832000 	str	r2, [r3]
  10188c:	e3073030 	movw	r3, #28720	; 0x7030
  101890:	e34f3f70 	movt	r3, #65392	; 0xff70
  101894:	e5933000 	ldr	r3, [r3]
  101898:	e1a03fa3 	lsr	r3, r3, #31
  10189c:	e2033001 	and	r3, r3, #1
  1018a0:	e3530000 	cmp	r3, #0
  1018a4:	13a03001 	movne	r3, #1
  1018a8:	03a03000 	moveq	r3, #0
  1018ac:	e6ef2073 	uxtb	r2, r3
  1018b0:	e51b300c 	ldr	r3, [fp, #-12]
  1018b4:	e5c32000 	strb	r2, [r3]
  1018b8:	ea000099 	b	101b24 <alt_acp_id_map_read_options_get+0x34c>
  1018bc:	e3073038 	movw	r3, #28728	; 0x7038
  1018c0:	e34f3f70 	movt	r3, #65392	; 0xff70
  1018c4:	e5933000 	ldr	r3, [r3]
  1018c8:	e1a03223 	lsr	r3, r3, #4
  1018cc:	e203201f 	and	r2, r3, #31
  1018d0:	e59b3004 	ldr	r3, [fp, #4]
  1018d4:	e5832000 	str	r2, [r3]
  1018d8:	e3073038 	movw	r3, #28728	; 0x7038
  1018dc:	e34f3f70 	movt	r3, #65392	; 0xff70
  1018e0:	e5933000 	ldr	r3, [r3]
  1018e4:	e1a03623 	lsr	r3, r3, #12
  1018e8:	e2033003 	and	r3, r3, #3
  1018ec:	e6ef2073 	uxtb	r2, r3
  1018f0:	e51b3014 	ldr	r3, [fp, #-20]	; 0xffffffec
  1018f4:	e5c32000 	strb	r2, [r3]
  1018f8:	e3073038 	movw	r3, #28728	; 0x7038
  1018fc:	e34f3f70 	movt	r3, #65392	; 0xff70
  101900:	e5933000 	ldr	r3, [r3]
  101904:	e1a03823 	lsr	r3, r3, #16
  101908:	e7eb2053 	ubfx	r2, r3, #0, #12
  10190c:	e51b3010 	ldr	r3, [fp, #-16]
  101910:	e5832000 	str	r2, [r3]
  101914:	e3073038 	movw	r3, #28728	; 0x7038
  101918:	e34f3f70 	movt	r3, #65392	; 0xff70
  10191c:	e5933000 	ldr	r3, [r3]
  101920:	e1a03fa3 	lsr	r3, r3, #31
  101924:	e2033001 	and	r3, r3, #1
  101928:	e3530000 	cmp	r3, #0
  10192c:	13a03001 	movne	r3, #1
  101930:	03a03000 	moveq	r3, #0
  101934:	e6ef2073 	uxtb	r2, r3
  101938:	e51b300c 	ldr	r3, [fp, #-12]
  10193c:	e5c32000 	strb	r2, [r3]
  101940:	ea000077 	b	101b24 <alt_acp_id_map_read_options_get+0x34c>
  101944:	e3073040 	movw	r3, #28736	; 0x7040
  101948:	e34f3f70 	movt	r3, #65392	; 0xff70
  10194c:	e5933000 	ldr	r3, [r3]
  101950:	e1a03223 	lsr	r3, r3, #4
  101954:	e203201f 	and	r2, r3, #31
  101958:	e59b3004 	ldr	r3, [fp, #4]
  10195c:	e5832000 	str	r2, [r3]
  101960:	e3073040 	movw	r3, #28736	; 0x7040
  101964:	e34f3f70 	movt	r3, #65392	; 0xff70
  101968:	e5933000 	ldr	r3, [r3]
  10196c:	e1a03623 	lsr	r3, r3, #12
  101970:	e2033003 	and	r3, r3, #3
  101974:	e6ef2073 	uxtb	r2, r3
  101978:	e51b3014 	ldr	r3, [fp, #-20]	; 0xffffffec
  10197c:	e5c32000 	strb	r2, [r3]
  101980:	e3073040 	movw	r3, #28736	; 0x7040
  101984:	e34f3f70 	movt	r3, #65392	; 0xff70
  101988:	e5933000 	ldr	r3, [r3]
  10198c:	e1a03823 	lsr	r3, r3, #16
  101990:	e7eb2053 	ubfx	r2, r3, #0, #12
  101994:	e51b3010 	ldr	r3, [fp, #-16]
  101998:	e5832000 	str	r2, [r3]
  10199c:	e3073040 	movw	r3, #28736	; 0x7040
  1019a0:	e34f3f70 	movt	r3, #65392	; 0xff70
  1019a4:	e5933000 	ldr	r3, [r3]
  1019a8:	e1a03fa3 	lsr	r3, r3, #31
  1019ac:	e2033001 	and	r3, r3, #1
  1019b0:	e3530000 	cmp	r3, #0
  1019b4:	13a03001 	movne	r3, #1
  1019b8:	03a03000 	moveq	r3, #0
  1019bc:	e6ef2073 	uxtb	r2, r3
  1019c0:	e51b300c 	ldr	r3, [fp, #-12]
  1019c4:	e5c32000 	strb	r2, [r3]
  1019c8:	ea000055 	b	101b24 <alt_acp_id_map_read_options_get+0x34c>
  1019cc:	e3073048 	movw	r3, #28744	; 0x7048
  1019d0:	e34f3f70 	movt	r3, #65392	; 0xff70
  1019d4:	e5933000 	ldr	r3, [r3]
  1019d8:	e1a03223 	lsr	r3, r3, #4
  1019dc:	e203201f 	and	r2, r3, #31
  1019e0:	e59b3004 	ldr	r3, [fp, #4]
  1019e4:	e5832000 	str	r2, [r3]
  1019e8:	e3073048 	movw	r3, #28744	; 0x7048
  1019ec:	e34f3f70 	movt	r3, #65392	; 0xff70
  1019f0:	e5933000 	ldr	r3, [r3]
  1019f4:	e1a03623 	lsr	r3, r3, #12
  1019f8:	e2033003 	and	r3, r3, #3
  1019fc:	e6ef2073 	uxtb	r2, r3
  101a00:	e51b3014 	ldr	r3, [fp, #-20]	; 0xffffffec
  101a04:	e5c32000 	strb	r2, [r3]
  101a08:	e3073048 	movw	r3, #28744	; 0x7048
  101a0c:	e34f3f70 	movt	r3, #65392	; 0xff70
  101a10:	e5933000 	ldr	r3, [r3]
  101a14:	e1a03823 	lsr	r3, r3, #16
  101a18:	e7eb2053 	ubfx	r2, r3, #0, #12
  101a1c:	e51b3010 	ldr	r3, [fp, #-16]
  101a20:	e5832000 	str	r2, [r3]
  101a24:	e3073048 	movw	r3, #28744	; 0x7048
  101a28:	e34f3f70 	movt	r3, #65392	; 0xff70
  101a2c:	e5933000 	ldr	r3, [r3]
  101a30:	e1a03fa3 	lsr	r3, r3, #31
  101a34:	e2033001 	and	r3, r3, #1
  101a38:	e3530000 	cmp	r3, #0
  101a3c:	13a03001 	movne	r3, #1
  101a40:	03a03000 	moveq	r3, #0
  101a44:	e6ef2073 	uxtb	r2, r3
  101a48:	e51b300c 	ldr	r3, [fp, #-12]
  101a4c:	e5c32000 	strb	r2, [r3]
  101a50:	ea000033 	b	101b24 <alt_acp_id_map_read_options_get+0x34c>
  101a54:	e3073050 	movw	r3, #28752	; 0x7050
  101a58:	e34f3f70 	movt	r3, #65392	; 0xff70
  101a5c:	e5933000 	ldr	r3, [r3]
  101a60:	e1a03223 	lsr	r3, r3, #4
  101a64:	e203201f 	and	r2, r3, #31
  101a68:	e59b3004 	ldr	r3, [fp, #4]
  101a6c:	e5832000 	str	r2, [r3]
  101a70:	e3073050 	movw	r3, #28752	; 0x7050
  101a74:	e34f3f70 	movt	r3, #65392	; 0xff70
  101a78:	e5933000 	ldr	r3, [r3]
  101a7c:	e1a03623 	lsr	r3, r3, #12
  101a80:	e2033003 	and	r3, r3, #3
  101a84:	e6ef2073 	uxtb	r2, r3
  101a88:	e51b3014 	ldr	r3, [fp, #-20]	; 0xffffffec
  101a8c:	e5c32000 	strb	r2, [r3]
  101a90:	e3073050 	movw	r3, #28752	; 0x7050
  101a94:	e34f3f70 	movt	r3, #65392	; 0xff70
  101a98:	e5933000 	ldr	r3, [r3]
  101a9c:	e1a03823 	lsr	r3, r3, #16
  101aa0:	e7eb2053 	ubfx	r2, r3, #0, #12
  101aa4:	e51b3010 	ldr	r3, [fp, #-16]
  101aa8:	e5832000 	str	r2, [r3]
  101aac:	e3073050 	movw	r3, #28752	; 0x7050
  101ab0:	e34f3f70 	movt	r3, #65392	; 0xff70
  101ab4:	e5933000 	ldr	r3, [r3]
  101ab8:	e1a03fa3 	lsr	r3, r3, #31
  101abc:	e2033001 	and	r3, r3, #1
  101ac0:	e3530000 	cmp	r3, #0
  101ac4:	13a03001 	movne	r3, #1
  101ac8:	03a03000 	moveq	r3, #0
  101acc:	e6ef2073 	uxtb	r2, r3
  101ad0:	e51b300c 	ldr	r3, [fp, #-12]
  101ad4:	e5c32000 	strb	r2, [r3]
  101ad8:	ea000011 	b	101b24 <alt_acp_id_map_read_options_get+0x34c>
  101adc:	e3073058 	movw	r3, #28760	; 0x7058
  101ae0:	e34f3f70 	movt	r3, #65392	; 0xff70
  101ae4:	e5933000 	ldr	r3, [r3]
  101ae8:	e1a03223 	lsr	r3, r3, #4
  101aec:	e203201f 	and	r2, r3, #31
  101af0:	e59b3004 	ldr	r3, [fp, #4]
  101af4:	e5832000 	str	r2, [r3]
  101af8:	e3073058 	movw	r3, #28760	; 0x7058
  101afc:	e34f3f70 	movt	r3, #65392	; 0xff70
  101b00:	e5933000 	ldr	r3, [r3]
  101b04:	e1a03623 	lsr	r3, r3, #12
  101b08:	e2033003 	and	r3, r3, #3
  101b0c:	e6ef2073 	uxtb	r2, r3
  101b10:	e51b3014 	ldr	r3, [fp, #-20]	; 0xffffffec
  101b14:	e5c32000 	strb	r2, [r3]
  101b18:	ea000001 	b	101b24 <alt_acp_id_map_read_options_get+0x34c>
  101b1c:	e3e03008 	mvn	r3, #8
  101b20:	ea000000 	b	101b28 <alt_acp_id_map_read_options_get+0x350>
  101b24:	e3a03000 	mov	r3, #0
  101b28:	e1a00003 	mov	r0, r3
  101b2c:	e24bd000 	sub	sp, fp, #0
  101b30:	e49db004 	pop	{fp}		; (ldr fp, [sp], #4)
  101b34:	e12fff1e 	bx	lr

00101b38 <alt_acp_id_map_write_options_get>:
  101b38:	e52db004 	push	{fp}		; (str fp, [sp, #-4]!)
  101b3c:	e28db000 	add	fp, sp, #0
  101b40:	e24dd014 	sub	sp, sp, #20
  101b44:	e50b0008 	str	r0, [fp, #-8]
  101b48:	e50b100c 	str	r1, [fp, #-12]
  101b4c:	e50b2010 	str	r2, [fp, #-16]
  101b50:	e50b3014 	str	r3, [fp, #-20]	; 0xffffffec
  101b54:	e51b3008 	ldr	r3, [fp, #-8]
  101b58:	e3530007 	cmp	r3, #7
  101b5c:	9a000001 	bls	101b68 <alt_acp_id_map_write_options_get+0x30>
  101b60:	e3e03008 	mvn	r3, #8
  101b64:	ea0000c7 	b	101e88 <alt_acp_id_map_write_options_get+0x350>
  101b68:	e51b3008 	ldr	r3, [fp, #-8]
  101b6c:	e2433002 	sub	r3, r3, #2
  101b70:	e3530005 	cmp	r3, #5
  101b74:	979ff103 	ldrls	pc, [pc, r3, lsl #2]
  101b78:	ea0000bf 	b	101e7c <alt_acp_id_map_write_options_get+0x344>
  101b7c:	00101b94 	.word	0x00101b94
  101b80:	00101c1c 	.word	0x00101c1c
  101b84:	00101ca4 	.word	0x00101ca4
  101b88:	00101d2c 	.word	0x00101d2c
  101b8c:	00101db4 	.word	0x00101db4
  101b90:	00101e3c 	.word	0x00101e3c
  101b94:	e3073034 	movw	r3, #28724	; 0x7034
  101b98:	e34f3f70 	movt	r3, #65392	; 0xff70
  101b9c:	e5933000 	ldr	r3, [r3]
  101ba0:	e1a03223 	lsr	r3, r3, #4
  101ba4:	e203201f 	and	r2, r3, #31
  101ba8:	e59b3004 	ldr	r3, [fp, #4]
  101bac:	e5832000 	str	r2, [r3]
  101bb0:	e3073034 	movw	r3, #28724	; 0x7034
  101bb4:	e34f3f70 	movt	r3, #65392	; 0xff70
  101bb8:	e5933000 	ldr	r3, [r3]
  101bbc:	e1a03623 	lsr	r3, r3, #12
  101bc0:	e2033003 	and	r3, r3, #3
  101bc4:	e6ef2073 	uxtb	r2, r3
  101bc8:	e51b3014 	ldr	r3, [fp, #-20]	; 0xffffffec
  101bcc:	e5c32000 	strb	r2, [r3]
  101bd0:	e3073034 	movw	r3, #28724	; 0x7034
  101bd4:	e34f3f70 	movt	r3, #65392	; 0xff70
  101bd8:	e5933000 	ldr	r3, [r3]
  101bdc:	e1a03823 	lsr	r3, r3, #16
  101be0:	e7eb2053 	ubfx	r2, r3, #0, #12
  101be4:	e51b3010 	ldr	r3, [fp, #-16]
  101be8:	e5832000 	str	r2, [r3]
  101bec:	e3073034 	movw	r3, #28724	; 0x7034
  101bf0:	e34f3f70 	movt	r3, #65392	; 0xff70
  101bf4:	e5933000 	ldr	r3, [r3]
  101bf8:	e1a03fa3 	lsr	r3, r3, #31
  101bfc:	e2033001 	and	r3, r3, #1
  101c00:	e3530000 	cmp	r3, #0
  101c04:	13a03001 	movne	r3, #1
  101c08:	03a03000 	moveq	r3, #0
  101c0c:	e6ef2073 	uxtb	r2, r3
  101c10:	e51b300c 	ldr	r3, [fp, #-12]
  101c14:	e5c32000 	strb	r2, [r3]
  101c18:	ea000099 	b	101e84 <alt_acp_id_map_write_options_get+0x34c>
  101c1c:	e307303c 	movw	r3, #28732	; 0x703c
  101c20:	e34f3f70 	movt	r3, #65392	; 0xff70
  101c24:	e5933000 	ldr	r3, [r3]
  101c28:	e1a03223 	lsr	r3, r3, #4
  101c2c:	e203201f 	and	r2, r3, #31
  101c30:	e59b3004 	ldr	r3, [fp, #4]
  101c34:	e5832000 	str	r2, [r3]
  101c38:	e307303c 	movw	r3, #28732	; 0x703c
  101c3c:	e34f3f70 	movt	r3, #65392	; 0xff70
  101c40:	e5933000 	ldr	r3, [r3]
  101c44:	e1a03623 	lsr	r3, r3, #12
  101c48:	e2033003 	and	r3, r3, #3
  101c4c:	e6ef2073 	uxtb	r2, r3
  101c50:	e51b3014 	ldr	r3, [fp, #-20]	; 0xffffffec
  101c54:	e5c32000 	strb	r2, [r3]
  101c58:	e307303c 	movw	r3, #28732	; 0x703c
  101c5c:	e34f3f70 	movt	r3, #65392	; 0xff70
  101c60:	e5933000 	ldr	r3, [r3]
  101c64:	e1a03823 	lsr	r3, r3, #16
  101c68:	e7eb2053 	ubfx	r2, r3, #0, #12
  101c6c:	e51b3010 	ldr	r3, [fp, #-16]
  101c70:	e5832000 	str	r2, [r3]
  101c74:	e307303c 	movw	r3, #28732	; 0x703c
  101c78:	e34f3f70 	movt	r3, #65392	; 0xff70
  101c7c:	e5933000 	ldr	r3, [r3]
  101c80:	e1a03fa3 	lsr	r3, r3, #31
  101c84:	e2033001 	and	r3, r3, #1
  101c88:	e3530000 	cmp	r3, #0
  101c8c:	13a03001 	movne	r3, #1
  101c90:	03a03000 	moveq	r3, #0
  101c94:	e6ef2073 	uxtb	r2, r3
  101c98:	e51b300c 	ldr	r3, [fp, #-12]
  101c9c:	e5c32000 	strb	r2, [r3]
  101ca0:	ea000077 	b	101e84 <alt_acp_id_map_write_options_get+0x34c>
  101ca4:	e3073044 	movw	r3, #28740	; 0x7044
  101ca8:	e34f3f70 	movt	r3, #65392	; 0xff70
  101cac:	e5933000 	ldr	r3, [r3]
  101cb0:	e1a03223 	lsr	r3, r3, #4
  101cb4:	e203201f 	and	r2, r3, #31
  101cb8:	e59b3004 	ldr	r3, [fp, #4]
  101cbc:	e5832000 	str	r2, [r3]
  101cc0:	e3073044 	movw	r3, #28740	; 0x7044
  101cc4:	e34f3f70 	movt	r3, #65392	; 0xff70
  101cc8:	e5933000 	ldr	r3, [r3]
  101ccc:	e1a03623 	lsr	r3, r3, #12
  101cd0:	e2033003 	and	r3, r3, #3
  101cd4:	e6ef2073 	uxtb	r2, r3
  101cd8:	e51b3014 	ldr	r3, [fp, #-20]	; 0xffffffec
  101cdc:	e5c32000 	strb	r2, [r3]
  101ce0:	e3073044 	movw	r3, #28740	; 0x7044
  101ce4:	e34f3f70 	movt	r3, #65392	; 0xff70
  101ce8:	e5933000 	ldr	r3, [r3]
  101cec:	e1a03823 	lsr	r3, r3, #16
  101cf0:	e7eb2053 	ubfx	r2, r3, #0, #12
  101cf4:	e51b3010 	ldr	r3, [fp, #-16]
  101cf8:	e5832000 	str	r2, [r3]
  101cfc:	e3073044 	movw	r3, #28740	; 0x7044
  101d00:	e34f3f70 	movt	r3, #65392	; 0xff70
  101d04:	e5933000 	ldr	r3, [r3]
  101d08:	e1a03fa3 	lsr	r3, r3, #31
  101d0c:	e2033001 	and	r3, r3, #1
  101d10:	e3530000 	cmp	r3, #0
  101d14:	13a03001 	movne	r3, #1
  101d18:	03a03000 	moveq	r3, #0
  101d1c:	e6ef2073 	uxtb	r2, r3
  101d20:	e51b300c 	ldr	r3, [fp, #-12]
  101d24:	e5c32000 	strb	r2, [r3]
  101d28:	ea000055 	b	101e84 <alt_acp_id_map_write_options_get+0x34c>
  101d2c:	e307304c 	movw	r3, #28748	; 0x704c
  101d30:	e34f3f70 	movt	r3, #65392	; 0xff70
  101d34:	e5933000 	ldr	r3, [r3]
  101d38:	e1a03223 	lsr	r3, r3, #4
  101d3c:	e203201f 	and	r2, r3, #31
  101d40:	e59b3004 	ldr	r3, [fp, #4]
  101d44:	e5832000 	str	r2, [r3]
  101d48:	e307304c 	movw	r3, #28748	; 0x704c
  101d4c:	e34f3f70 	movt	r3, #65392	; 0xff70
  101d50:	e5933000 	ldr	r3, [r3]
  101d54:	e1a03623 	lsr	r3, r3, #12
  101d58:	e2033003 	and	r3, r3, #3
  101d5c:	e6ef2073 	uxtb	r2, r3
  101d60:	e51b3014 	ldr	r3, [fp, #-20]	; 0xffffffec
  101d64:	e5c32000 	strb	r2, [r3]
  101d68:	e307304c 	movw	r3, #28748	; 0x704c
  101d6c:	e34f3f70 	movt	r3, #65392	; 0xff70
  101d70:	e5933000 	ldr	r3, [r3]
  101d74:	e1a03823 	lsr	r3, r3, #16
  101d78:	e7eb2053 	ubfx	r2, r3, #0, #12
  101d7c:	e51b3010 	ldr	r3, [fp, #-16]
  101d80:	e5832000 	str	r2, [r3]
  101d84:	e307304c 	movw	r3, #28748	; 0x704c
  101d88:	e34f3f70 	movt	r3, #65392	; 0xff70
  101d8c:	e5933000 	ldr	r3, [r3]
  101d90:	e1a03fa3 	lsr	r3, r3, #31
  101d94:	e2033001 	and	r3, r3, #1
  101d98:	e3530000 	cmp	r3, #0
  101d9c:	13a03001 	movne	r3, #1
  101da0:	03a03000 	moveq	r3, #0
  101da4:	e6ef2073 	uxtb	r2, r3
  101da8:	e51b300c 	ldr	r3, [fp, #-12]
  101dac:	e5c32000 	strb	r2, [r3]
  101db0:	ea000033 	b	101e84 <alt_acp_id_map_write_options_get+0x34c>
  101db4:	e3073054 	movw	r3, #28756	; 0x7054
  101db8:	e34f3f70 	movt	r3, #65392	; 0xff70
  101dbc:	e5933000 	ldr	r3, [r3]
  101dc0:	e1a03223 	lsr	r3, r3, #4
  101dc4:	e203201f 	and	r2, r3, #31
  101dc8:	e59b3004 	ldr	r3, [fp, #4]
  101dcc:	e5832000 	str	r2, [r3]
  101dd0:	e3073054 	movw	r3, #28756	; 0x7054
  101dd4:	e34f3f70 	movt	r3, #65392	; 0xff70
  101dd8:	e5933000 	ldr	r3, [r3]
  101ddc:	e1a03623 	lsr	r3, r3, #12
  101de0:	e2033003 	and	r3, r3, #3
  101de4:	e6ef2073 	uxtb	r2, r3
  101de8:	e51b3014 	ldr	r3, [fp, #-20]	; 0xffffffec
  101dec:	e5c32000 	strb	r2, [r3]
  101df0:	e3073054 	movw	r3, #28756	; 0x7054
  101df4:	e34f3f70 	movt	r3, #65392	; 0xff70
  101df8:	e5933000 	ldr	r3, [r3]
  101dfc:	e1a03823 	lsr	r3, r3, #16
  101e00:	e7eb2053 	ubfx	r2, r3, #0, #12
  101e04:	e51b3010 	ldr	r3, [fp, #-16]
  101e08:	e5832000 	str	r2, [r3]
  101e0c:	e3073054 	movw	r3, #28756	; 0x7054
  101e10:	e34f3f70 	movt	r3, #65392	; 0xff70
  101e14:	e5933000 	ldr	r3, [r3]
  101e18:	e1a03fa3 	lsr	r3, r3, #31
  101e1c:	e2033001 	and	r3, r3, #1
  101e20:	e3530000 	cmp	r3, #0
  101e24:	13a03001 	movne	r3, #1
  101e28:	03a03000 	moveq	r3, #0
  101e2c:	e6ef2073 	uxtb	r2, r3
  101e30:	e51b300c 	ldr	r3, [fp, #-12]
  101e34:	e5c32000 	strb	r2, [r3]
  101e38:	ea000011 	b	101e84 <alt_acp_id_map_write_options_get+0x34c>
  101e3c:	e307305c 	movw	r3, #28764	; 0x705c
  101e40:	e34f3f70 	movt	r3, #65392	; 0xff70
  101e44:	e5933000 	ldr	r3, [r3]
  101e48:	e1a03223 	lsr	r3, r3, #4
  101e4c:	e203201f 	and	r2, r3, #31
  101e50:	e59b3004 	ldr	r3, [fp, #4]
  101e54:	e5832000 	str	r2, [r3]
  101e58:	e307305c 	movw	r3, #28764	; 0x705c
  101e5c:	e34f3f70 	movt	r3, #65392	; 0xff70
  101e60:	e5933000 	ldr	r3, [r3]
  101e64:	e1a03623 	lsr	r3, r3, #12
  101e68:	e2033003 	and	r3, r3, #3
  101e6c:	e6ef2073 	uxtb	r2, r3
  101e70:	e51b3014 	ldr	r3, [fp, #-20]	; 0xffffffec
  101e74:	e5c32000 	strb	r2, [r3]
  101e78:	ea000001 	b	101e84 <alt_acp_id_map_write_options_get+0x34c>
  101e7c:	e3e03008 	mvn	r3, #8
  101e80:	ea000000 	b	101e88 <alt_acp_id_map_write_options_get+0x350>
  101e84:	e3a03000 	mov	r3, #0
  101e88:	e1a00003 	mov	r0, r3
  101e8c:	e24bd000 	sub	sp, fp, #0
  101e90:	e49db004 	pop	{fp}		; (ldr fp, [sp], #4)
  101e94:	e12fff1e 	bx	lr

00101e98 <fpga_dma_read_reg>:
  101e98:	e52db004 	push	{fp}		; (str fp, [sp, #-4]!)
  101e9c:	e28db000 	add	fp, sp, #0
  101ea0:	e24dd00c 	sub	sp, sp, #12
  101ea4:	e50b0008 	str	r0, [fp, #-8]
  101ea8:	e50b100c 	str	r1, [fp, #-12]
  101eac:	e51b300c 	ldr	r3, [fp, #-12]
  101eb0:	e1a03103 	lsl	r3, r3, #2
  101eb4:	e51b2008 	ldr	r2, [fp, #-8]
  101eb8:	e0823003 	add	r3, r2, r3
  101ebc:	e5933000 	ldr	r3, [r3]
  101ec0:	e1a00003 	mov	r0, r3
  101ec4:	e24bd000 	sub	sp, fp, #0
  101ec8:	e49db004 	pop	{fp}		; (ldr fp, [sp], #4)
  101ecc:	e12fff1e 	bx	lr

00101ed0 <fpga_dma_write_reg>:
  101ed0:	e52db004 	push	{fp}		; (str fp, [sp, #-4]!)
  101ed4:	e28db000 	add	fp, sp, #0
  101ed8:	e24dd014 	sub	sp, sp, #20
  101edc:	e50b0008 	str	r0, [fp, #-8]
  101ee0:	e50b100c 	str	r1, [fp, #-12]
  101ee4:	e50b2010 	str	r2, [fp, #-16]
  101ee8:	e51b300c 	ldr	r3, [fp, #-12]
  101eec:	e1a03103 	lsl	r3, r3, #2
  101ef0:	e51b2008 	ldr	r2, [fp, #-8]
  101ef4:	e0823003 	add	r3, r2, r3
  101ef8:	e51b2010 	ldr	r2, [fp, #-16]
  101efc:	e5832000 	str	r2, [r3]
  101f00:	e320f000 	nop	{0}
  101f04:	e24bd000 	sub	sp, fp, #0
  101f08:	e49db004 	pop	{fp}		; (ldr fp, [sp], #4)
  101f0c:	e12fff1e 	bx	lr

00101f10 <fpga_dma_read_bit>:
  101f10:	e92d4800 	push	{fp, lr}
  101f14:	e28db004 	add	fp, sp, #4
  101f18:	e24dd010 	sub	sp, sp, #16
  101f1c:	e50b0008 	str	r0, [fp, #-8]
  101f20:	e50b100c 	str	r1, [fp, #-12]
  101f24:	e50b2010 	str	r2, [fp, #-16]
  101f28:	e51b100c 	ldr	r1, [fp, #-12]
  101f2c:	e51b0008 	ldr	r0, [fp, #-8]
  101f30:	ebffffd8 	bl	101e98 <fpga_dma_read_reg>
  101f34:	e1a02000 	mov	r2, r0
  101f38:	e51b3010 	ldr	r3, [fp, #-16]
  101f3c:	e0033002 	and	r3, r3, r2
  101f40:	e1a00003 	mov	r0, r3
  101f44:	e24bd004 	sub	sp, fp, #4
  101f48:	e8bd8800 	pop	{fp, pc}

00101f4c <fpga_dma_write_bit>:
  101f4c:	e92d4800 	push	{fp, lr}
  101f50:	e28db004 	add	fp, sp, #4
  101f54:	e24dd018 	sub	sp, sp, #24
  101f58:	e50b0010 	str	r0, [fp, #-16]
  101f5c:	e50b1014 	str	r1, [fp, #-20]	; 0xffffffec
  101f60:	e50b2018 	str	r2, [fp, #-24]	; 0xffffffe8
  101f64:	e50b301c 	str	r3, [fp, #-28]	; 0xffffffe4
  101f68:	e51b1014 	ldr	r1, [fp, #-20]	; 0xffffffec
  101f6c:	e51b0010 	ldr	r0, [fp, #-16]
  101f70:	ebffffc8 	bl	101e98 <fpga_dma_read_reg>
  101f74:	e50b0008 	str	r0, [fp, #-8]
  101f78:	e51b301c 	ldr	r3, [fp, #-28]	; 0xffffffe4
  101f7c:	e3530000 	cmp	r3, #0
  101f80:	1a000008 	bne	101fa8 <fpga_dma_write_bit+0x5c>
  101f84:	e51b3018 	ldr	r3, [fp, #-24]	; 0xffffffe8
  101f88:	e1e02003 	mvn	r2, r3
  101f8c:	e51b3008 	ldr	r3, [fp, #-8]
  101f90:	e0033002 	and	r3, r3, r2
  101f94:	e1a02003 	mov	r2, r3
  101f98:	e51b1014 	ldr	r1, [fp, #-20]	; 0xffffffec
  101f9c:	e51b0010 	ldr	r0, [fp, #-16]
  101fa0:	ebffffca 	bl	101ed0 <fpga_dma_write_reg>
  101fa4:	ea00000a 	b	101fd4 <fpga_dma_write_bit+0x88>
  101fa8:	e51b301c 	ldr	r3, [fp, #-28]	; 0xffffffe4
  101fac:	e3530001 	cmp	r3, #1
  101fb0:	1a000007 	bne	101fd4 <fpga_dma_write_bit+0x88>
  101fb4:	e51b2008 	ldr	r2, [fp, #-8]
  101fb8:	e51b3018 	ldr	r3, [fp, #-24]	; 0xffffffe8
  101fbc:	e1823003 	orr	r3, r2, r3
  101fc0:	e1a02003 	mov	r2, r3
  101fc4:	e51b1014 	ldr	r1, [fp, #-20]	; 0xffffffec
  101fc8:	e51b0010 	ldr	r0, [fp, #-16]
  101fcc:	ebffffbf 	bl	101ed0 <fpga_dma_write_reg>
  101fd0:	e320f000 	nop	{0}
  101fd4:	e320f000 	nop	{0}
  101fd8:	e24bd004 	sub	sp, fp, #4
  101fdc:	e8bd8800 	pop	{fp, pc}

00101fe0 <fpga_dma_init>:
  101fe0:	e92d4800 	push	{fp, lr}
  101fe4:	e28db004 	add	fp, sp, #4
  101fe8:	e24dd008 	sub	sp, sp, #8
  101fec:	e50b0008 	str	r0, [fp, #-8]
  101ff0:	e50b100c 	str	r1, [fp, #-12]
  101ff4:	e51b200c 	ldr	r2, [fp, #-12]
  101ff8:	e3a01006 	mov	r1, #6
  101ffc:	e51b0008 	ldr	r0, [fp, #-8]
  102000:	ebffffb2 	bl	101ed0 <fpga_dma_write_reg>
  102004:	e320f000 	nop	{0}
  102008:	e24bd004 	sub	sp, fp, #4
  10200c:	e8bd8800 	pop	{fp, pc}

00102010 <fpga_dma_config_transfer>:
  102010:	e92d4800 	push	{fp, lr}
  102014:	e28db004 	add	fp, sp, #4
  102018:	e24dd018 	sub	sp, sp, #24
  10201c:	e50b0010 	str	r0, [fp, #-16]
  102020:	e50b1014 	str	r1, [fp, #-20]	; 0xffffffec
  102024:	e50b2018 	str	r2, [fp, #-24]	; 0xffffffe8
  102028:	e50b301c 	str	r3, [fp, #-28]	; 0xffffffe4
  10202c:	e3a03000 	mov	r3, #0
  102030:	e3a02008 	mov	r2, #8
  102034:	e3a01006 	mov	r1, #6
  102038:	e51b0010 	ldr	r0, [fp, #-16]
  10203c:	ebffffc2 	bl	101f4c <fpga_dma_write_bit>
  102040:	e3a03000 	mov	r3, #0
  102044:	e3a02001 	mov	r2, #1
  102048:	e3a01000 	mov	r1, #0
  10204c:	e51b0010 	ldr	r0, [fp, #-16]
  102050:	ebffffbd 	bl	101f4c <fpga_dma_write_bit>
  102054:	e51b3014 	ldr	r3, [fp, #-20]	; 0xffffffec
  102058:	e1a02003 	mov	r2, r3
  10205c:	e3a01001 	mov	r1, #1
  102060:	e51b0010 	ldr	r0, [fp, #-16]
  102064:	ebffff99 	bl	101ed0 <fpga_dma_write_reg>
  102068:	e51b3018 	ldr	r3, [fp, #-24]	; 0xffffffe8
  10206c:	e1a02003 	mov	r2, r3
  102070:	e3a01002 	mov	r1, #2
  102074:	e51b0010 	ldr	r0, [fp, #-16]
  102078:	ebffff94 	bl	101ed0 <fpga_dma_write_reg>
  10207c:	e51b201c 	ldr	r2, [fp, #-28]	; 0xffffffe4
  102080:	e3a01003 	mov	r1, #3
  102084:	e51b0010 	ldr	r0, [fp, #-16]
  102088:	ebffff90 	bl	101ed0 <fpga_dma_write_reg>
  10208c:	e3a03000 	mov	r3, #0
  102090:	e50b3008 	str	r3, [fp, #-8]
  102094:	e3a03000 	mov	r3, #0
  102098:	e50b300c 	str	r3, [fp, #-12]
  10209c:	ea000005 	b	1020b8 <fpga_dma_config_transfer+0xa8>
  1020a0:	e51b3008 	ldr	r3, [fp, #-8]
  1020a4:	e2833001 	add	r3, r3, #1
  1020a8:	e50b3008 	str	r3, [fp, #-8]
  1020ac:	e51b300c 	ldr	r3, [fp, #-12]
  1020b0:	e2833001 	add	r3, r3, #1
  1020b4:	e50b300c 	str	r3, [fp, #-12]
  1020b8:	e51b300c 	ldr	r3, [fp, #-12]
  1020bc:	e3530009 	cmp	r3, #9
  1020c0:	dafffff6 	ble	1020a0 <fpga_dma_config_transfer+0x90>
  1020c4:	e320f000 	nop	{0}
  1020c8:	e24bd004 	sub	sp, fp, #4
  1020cc:	e8bd8800 	pop	{fp, pc}

001020d0 <fpga_dma_start_transfer>:
  1020d0:	e92d4800 	push	{fp, lr}
  1020d4:	e28db004 	add	fp, sp, #4
  1020d8:	e24dd008 	sub	sp, sp, #8
  1020dc:	e50b0008 	str	r0, [fp, #-8]
  1020e0:	e3a03001 	mov	r3, #1
  1020e4:	e3a02008 	mov	r2, #8
  1020e8:	e3a01006 	mov	r1, #6
  1020ec:	e51b0008 	ldr	r0, [fp, #-8]
  1020f0:	ebffff95 	bl	101f4c <fpga_dma_write_bit>
  1020f4:	e320f000 	nop	{0}
  1020f8:	e24bd004 	sub	sp, fp, #4
  1020fc:	e8bd8800 	pop	{fp, pc}

00102100 <fpga_dma_transfer_done>:
  102100:	e92d4800 	push	{fp, lr}
  102104:	e28db004 	add	fp, sp, #4
  102108:	e24dd008 	sub	sp, sp, #8
  10210c:	e50b0008 	str	r0, [fp, #-8]
  102110:	e3a02001 	mov	r2, #1
  102114:	e3a01000 	mov	r1, #0
  102118:	e51b0008 	ldr	r0, [fp, #-8]
  10211c:	ebffff7b 	bl	101f10 <fpga_dma_read_bit>
  102120:	e1a03000 	mov	r3, r0
  102124:	e1a00003 	mov	r0, r3
  102128:	e24bd004 	sub	sp, fp, #4
  10212c:	e8bd8800 	pop	{fp, pc}

00102130 <align_malloc>:
  102130:	e92d4800 	push	{fp, lr}
  102134:	e28db004 	add	fp, sp, #4
  102138:	e24dd018 	sub	sp, sp, #24
  10213c:	e50b0018 	str	r0, [fp, #-24]	; 0xffffffe8
  102140:	e50b101c 	str	r1, [fp, #-28]	; 0xffffffe4
  102144:	e51b3018 	ldr	r3, [fp, #-24]	; 0xffffffe8
  102148:	e1a03083 	lsl	r3, r3, #1
  10214c:	e1a00003 	mov	r0, r3
  102150:	eb001777 	bl	107f34 <malloc>
  102154:	e1a03000 	mov	r3, r0
  102158:	e50b3010 	str	r3, [fp, #-16]
  10215c:	e51b301c 	ldr	r3, [fp, #-28]	; 0xffffffe4
  102160:	e51b2010 	ldr	r2, [fp, #-16]
  102164:	e5832000 	str	r2, [r3]
  102168:	e51b3010 	ldr	r3, [fp, #-16]
  10216c:	e50b3008 	str	r3, [fp, #-8]
  102170:	e3a03000 	mov	r3, #0
  102174:	e50b300c 	str	r3, [fp, #-12]
  102178:	ea00000e 	b	1021b8 <align_malloc+0x88>
  10217c:	e51b3008 	ldr	r3, [fp, #-8]
  102180:	e51b1018 	ldr	r1, [fp, #-24]	; 0xffffffe8
  102184:	e1a00003 	mov	r0, r3
  102188:	eb001717 	bl	107dec <__aeabi_uidivmod>
  10218c:	e1a03001 	mov	r3, r1
  102190:	e3530000 	cmp	r3, #0
  102194:	1a000001 	bne	1021a0 <align_malloc+0x70>
  102198:	e51b3008 	ldr	r3, [fp, #-8]
  10219c:	ea00000a 	b	1021cc <align_malloc+0x9c>
  1021a0:	e51b3008 	ldr	r3, [fp, #-8]
  1021a4:	e2833001 	add	r3, r3, #1
  1021a8:	e50b3008 	str	r3, [fp, #-8]
  1021ac:	e51b300c 	ldr	r3, [fp, #-12]
  1021b0:	e2833001 	add	r3, r3, #1
  1021b4:	e50b300c 	str	r3, [fp, #-12]
  1021b8:	e51b200c 	ldr	r2, [fp, #-12]
  1021bc:	e51b3018 	ldr	r3, [fp, #-24]	; 0xffffffe8
  1021c0:	e1520003 	cmp	r2, r3
  1021c4:	3affffec 	bcc	10217c <align_malloc+0x4c>
  1021c8:	e3a03000 	mov	r3, #0
  1021cc:	e1a00003 	mov	r0, r3
  1021d0:	e24bd004 	sub	sp, fp, #4
  1021d4:	e8bd8800 	pop	{fp, pc}

001021d8 <pmu_init>:
  1021d8:	e52db004 	push	{fp}		; (str fp, [sp, #-4]!)
  1021dc:	e28db000 	add	fp, sp, #0
  1021e0:	ee190f1c 	mrc	15, 0, r0, cr9, cr12, {0}
  1021e4:	e3800001 	orr	r0, r0, #1
  1021e8:	ee090f1c 	mcr	15, 0, r0, cr9, cr12, {0}
  1021ec:	e320f000 	nop	{0}
  1021f0:	e24bd000 	sub	sp, fp, #0
  1021f4:	e49db004 	pop	{fp}		; (ldr fp, [sp], #4)
  1021f8:	e12fff1e 	bx	lr

001021fc <pmu_init_ns>:
  1021fc:	e92d4800 	push	{fp, lr}
  102200:	e28db004 	add	fp, sp, #4
  102204:	e24dd008 	sub	sp, sp, #8
  102208:	e50b0008 	str	r0, [fp, #-8]
  10220c:	e50b100c 	str	r1, [fp, #-12]
  102210:	ebfffff0 	bl	1021d8 <pmu_init>
  102214:	ee190f1c 	mrc	15, 0, r0, cr9, cr12, {0}
  102218:	e51b300c 	ldr	r3, [fp, #-12]
  10221c:	e3530001 	cmp	r3, #1
  102220:	1a000001 	bne	10222c <pmu_init_ns+0x30>
  102224:	e3c00008 	bic	r0, r0, #8
  102228:	ea000003 	b	10223c <pmu_init_ns+0x40>
  10222c:	e51b300c 	ldr	r3, [fp, #-12]
  102230:	e3530040 	cmp	r3, #64	; 0x40
  102234:	1a000000 	bne	10223c <pmu_init_ns+0x40>
  102238:	e3800008 	orr	r0, r0, #8
  10223c:	ee090f1c 	mcr	15, 0, r0, cr9, cr12, {0}
  102240:	e51b300c 	ldr	r3, [fp, #-12]
  102244:	ee073a90 	vmov	s15, r3
  102248:	eef87ae7 	vcvt.f32.s32	s15, s15
  10224c:	eef70ae7 	vcvt.f64.f32	d16, s15
  102250:	eddf1b0c 	vldr	d17, [pc, #48]	; 102288 <pmu_init_ns+0x8c>
  102254:	ee602ba1 	vmul.f64	d18, d16, d17
  102258:	e51b3008 	ldr	r3, [fp, #-8]
  10225c:	ee073a90 	vmov	s15, r3
  102260:	eef87ae7 	vcvt.f32.s32	s15, s15
  102264:	eef71ae7 	vcvt.f64.f32	d17, s15
  102268:	eec20ba1 	vdiv.f64	d16, d18, d17
  10226c:	eef77be0 	vcvt.f32.f64	s15, d16
  102270:	e30039e0 	movw	r3, #2528	; 0x9e0
  102274:	e3403013 	movt	r3, #19
  102278:	edc37a00 	vstr	s15, [r3]
  10227c:	e320f000 	nop	{0}
  102280:	e24bd004 	sub	sp, fp, #4
  102284:	e8bd8800 	pop	{fp, pc}
  102288:	00000000 	.word	0x00000000
  10228c:	408f4000 	.word	0x408f4000

00102290 <pmu_getres_ns>:
  102290:	e52db004 	push	{fp}		; (str fp, [sp, #-4]!)
  102294:	e28db000 	add	fp, sp, #0
  102298:	e30039e0 	movw	r3, #2528	; 0x9e0
  10229c:	e3403013 	movt	r3, #19
  1022a0:	e5933000 	ldr	r3, [r3]
  1022a4:	e1a00003 	mov	r0, r3
  1022a8:	e24bd000 	sub	sp, fp, #0
  1022ac:	e49db004 	pop	{fp}		; (ldr fp, [sp], #4)
  1022b0:	e12fff1e 	bx	lr

001022b4 <pmu_counter_enable>:
  1022b4:	e52db004 	push	{fp}		; (str fp, [sp, #-4]!)
  1022b8:	e28db000 	add	fp, sp, #0
  1022bc:	ee190f3c 	mrc	15, 0, r0, cr9, cr12, {1}
  1022c0:	e3800102 	orr	r0, r0, #-2147483648	; 0x80000000
  1022c4:	ee090f3c 	mcr	15, 0, r0, cr9, cr12, {1}
  1022c8:	e320f000 	nop	{0}
  1022cc:	e24bd000 	sub	sp, fp, #0
  1022d0:	e49db004 	pop	{fp}		; (ldr fp, [sp], #4)
  1022d4:	e12fff1e 	bx	lr

001022d8 <pmu_counter_disable>:
  1022d8:	e52db004 	push	{fp}		; (str fp, [sp, #-4]!)
  1022dc:	e28db000 	add	fp, sp, #0
  1022e0:	ee190f3c 	mrc	15, 0, r0, cr9, cr12, {1}
  1022e4:	e3e01102 	mvn	r1, #-2147483648	; 0x80000000
  1022e8:	e0000001 	and	r0, r0, r1
  1022ec:	ee090f3c 	mcr	15, 0, r0, cr9, cr12, {1}
  1022f0:	e320f000 	nop	{0}
  1022f4:	e24bd000 	sub	sp, fp, #0
  1022f8:	e49db004 	pop	{fp}		; (ldr fp, [sp], #4)
  1022fc:	e12fff1e 	bx	lr

00102300 <pmu_counter_reset>:
  102300:	e52db004 	push	{fp}		; (str fp, [sp, #-4]!)
  102304:	e28db000 	add	fp, sp, #0
  102308:	ee190f1c 	mrc	15, 0, r0, cr9, cr12, {0}
  10230c:	e3800004 	orr	r0, r0, #4
  102310:	ee090f1c 	mcr	15, 0, r0, cr9, cr12, {0}
  102314:	ee190f7c 	mrc	15, 0, r0, cr9, cr12, {3}
  102318:	e3800102 	orr	r0, r0, #-2147483648	; 0x80000000
  10231c:	ee090f7c 	mcr	15, 0, r0, cr9, cr12, {3}
  102320:	ee190f1c 	mrc	15, 0, r0, cr9, cr12, {0}
  102324:	e3800004 	orr	r0, r0, #4
  102328:	ee090f1c 	mcr	15, 0, r0, cr9, cr12, {0}
  10232c:	e320f000 	nop	{0}
  102330:	e24bd000 	sub	sp, fp, #0
  102334:	e49db004 	pop	{fp}		; (ldr fp, [sp], #4)
  102338:	e12fff1e 	bx	lr

0010233c <pmu_counter_read>:
  10233c:	e52db004 	push	{fp}		; (str fp, [sp, #-4]!)
  102340:	e28db000 	add	fp, sp, #0
  102344:	e24dd014 	sub	sp, sp, #20
  102348:	e50b0010 	str	r0, [fp, #-16]
  10234c:	e3a03000 	mov	r3, #0
  102350:	e50b3008 	str	r3, [fp, #-8]
  102354:	e3a03000 	mov	r3, #0
  102358:	e50b300c 	str	r3, [fp, #-12]
  10235c:	e51b3008 	ldr	r3, [fp, #-8]
  102360:	ee193f1d 	mrc	15, 0, r3, cr9, cr13, {0}
  102364:	e50b3008 	str	r3, [fp, #-8]
  102368:	e51b2008 	ldr	r2, [fp, #-8]
  10236c:	e51b3010 	ldr	r3, [fp, #-16]
  102370:	e5832000 	str	r2, [r3]
  102374:	ee190f7c 	mrc	15, 0, r0, cr9, cr12, {3}
  102378:	e2000102 	and	r0, r0, #-2147483648	; 0x80000000
  10237c:	e51b300c 	ldr	r3, [fp, #-12]
  102380:	e1a03000 	mov	r3, r0
  102384:	e50b300c 	str	r3, [fp, #-12]
  102388:	e51b300c 	ldr	r3, [fp, #-12]
  10238c:	e3530000 	cmp	r3, #0
  102390:	1a000001 	bne	10239c <pmu_counter_read+0x60>
  102394:	e3a03000 	mov	r3, #0
  102398:	ea000000 	b	1023a0 <pmu_counter_read+0x64>
  10239c:	e3a03001 	mov	r3, #1
  1023a0:	e1a00003 	mov	r0, r3
  1023a4:	e24bd000 	sub	sp, fp, #0
  1023a8:	e49db004 	pop	{fp}		; (ldr fp, [sp], #4)
  1023ac:	e12fff1e 	bx	lr

001023b0 <pmu_counter_read_ns>:
  1023b0:	e92d4800 	push	{fp, lr}
  1023b4:	e28db004 	add	fp, sp, #4
  1023b8:	e24dd010 	sub	sp, sp, #16
  1023bc:	e50b0010 	str	r0, [fp, #-16]
  1023c0:	e24b300c 	sub	r3, fp, #12
  1023c4:	e1a00003 	mov	r0, r3
  1023c8:	ebffffdb 	bl	10233c <pmu_counter_read>
  1023cc:	e50b0008 	str	r0, [fp, #-8]
  1023d0:	e51b300c 	ldr	r3, [fp, #-12]
  1023d4:	ee073a90 	vmov	s15, r3
  1023d8:	eeb87a67 	vcvt.f32.u32	s14, s15
  1023dc:	e30039e0 	movw	r3, #2528	; 0x9e0
  1023e0:	e3403013 	movt	r3, #19
  1023e4:	edd37a00 	vldr	s15, [r3]
  1023e8:	ee677a27 	vmul.f32	s15, s14, s15
  1023ec:	ee170a90 	vmov	r0, s15
  1023f0:	eb001686 	bl	107e10 <__aeabi_f2ulz>
  1023f4:	e1a02000 	mov	r2, r0
  1023f8:	e1a03001 	mov	r3, r1
  1023fc:	e51b1010 	ldr	r1, [fp, #-16]
  102400:	e1c120f0 	strd	r2, [r1]
  102404:	e51b3008 	ldr	r3, [fp, #-8]
  102408:	e1a00003 	mov	r0, r3
  10240c:	e24bd004 	sub	sp, fp, #4
  102410:	e8bd8800 	pop	{fp, pc}

00102414 <rt_InitInfAndNaN>:
  102414:	e92d4800 	push	{fp, lr}
  102418:	e28db004 	add	fp, sp, #4
  10241c:	e24dd008 	sub	sp, sp, #8
  102420:	e50b0008 	str	r0, [fp, #-8]
  102424:	eb000f5e 	bl	1061a4 <rtGetNaN>
  102428:	e30039f8 	movw	r3, #2552	; 0x9f8
  10242c:	e3403013 	movt	r3, #19
  102430:	e1c300f0 	strd	r0, [r3]
  102434:	eb000f8e 	bl	106274 <rtGetNaNF>
  102438:	e1a02000 	mov	r2, r0
  10243c:	e3003a08 	movw	r3, #2568	; 0xa08
  102440:	e3403013 	movt	r3, #19
  102444:	e5832000 	str	r2, [r3]
  102448:	eb000fa9 	bl	1062f4 <rtGetInf>
  10244c:	e30039e8 	movw	r3, #2536	; 0x9e8
  102450:	e3403013 	movt	r3, #19
  102454:	e1c300f0 	strd	r0, [r3]
  102458:	eb000fda 	bl	1063c8 <rtGetInfF>
  10245c:	e1a02000 	mov	r2, r0
  102460:	e3003a00 	movw	r3, #2560	; 0xa00
  102464:	e3403013 	movt	r3, #19
  102468:	e5832000 	str	r2, [r3]
  10246c:	eb000fe0 	bl	1063f4 <rtGetMinusInf>
  102470:	e30039f0 	movw	r3, #2544	; 0x9f0
  102474:	e3403013 	movt	r3, #19
  102478:	e1c300f0 	strd	r0, [r3]
  10247c:	eb001011 	bl	1064c8 <rtGetMinusInfF>
  102480:	e1a02000 	mov	r2, r0
  102484:	e3003a04 	movw	r3, #2564	; 0xa04
  102488:	e3403013 	movt	r3, #19
  10248c:	e5832000 	str	r2, [r3]
  102490:	e320f000 	nop	{0}
  102494:	e24bd004 	sub	sp, fp, #4
  102498:	e8bd8800 	pop	{fp, pc}

0010249c <rtIsInf>:
  10249c:	e52db004 	push	{fp}		; (str fp, [sp, #-4]!)
  1024a0:	e28db000 	add	fp, sp, #0
  1024a4:	e24dd00c 	sub	sp, sp, #12
  1024a8:	e14b00fc 	strd	r0, [fp, #-12]
  1024ac:	e30039e8 	movw	r3, #2536	; 0x9e8
  1024b0:	e3403013 	movt	r3, #19
  1024b4:	edd30b00 	vldr	d16, [r3]
  1024b8:	ed5b1b03 	vldr	d17, [fp, #-12]
  1024bc:	eef41b60 	vcmp.f64	d17, d16
  1024c0:	eef1fa10 	vmrs	APSR_nzcv, fpscr
  1024c4:	0a000006 	beq	1024e4 <rtIsInf+0x48>
  1024c8:	e30039f0 	movw	r3, #2544	; 0x9f0
  1024cc:	e3403013 	movt	r3, #19
  1024d0:	edd30b00 	vldr	d16, [r3]
  1024d4:	ed5b1b03 	vldr	d17, [fp, #-12]
  1024d8:	eef41b60 	vcmp.f64	d17, d16
  1024dc:	eef1fa10 	vmrs	APSR_nzcv, fpscr
  1024e0:	1a000001 	bne	1024ec <rtIsInf+0x50>
  1024e4:	e3a03001 	mov	r3, #1
  1024e8:	ea000000 	b	1024f0 <rtIsInf+0x54>
  1024ec:	e3a03000 	mov	r3, #0
  1024f0:	e1a00003 	mov	r0, r3
  1024f4:	e24bd000 	sub	sp, fp, #0
  1024f8:	e49db004 	pop	{fp}		; (ldr fp, [sp], #4)
  1024fc:	e12fff1e 	bx	lr

00102500 <rtIsInfF>:
  102500:	e52db004 	push	{fp}		; (str fp, [sp, #-4]!)
  102504:	e28db000 	add	fp, sp, #0
  102508:	e24dd00c 	sub	sp, sp, #12
  10250c:	e50b0008 	str	r0, [fp, #-8]
  102510:	e3003a00 	movw	r3, #2560	; 0xa00
  102514:	e3403013 	movt	r3, #19
  102518:	edd37a00 	vldr	s15, [r3]
  10251c:	ed1b7a02 	vldr	s14, [fp, #-8]
  102520:	eeb47a67 	vcmp.f32	s14, s15
  102524:	eef1fa10 	vmrs	APSR_nzcv, fpscr
  102528:	0a000006 	beq	102548 <rtIsInfF+0x48>
  10252c:	e3003a04 	movw	r3, #2564	; 0xa04
  102530:	e3403013 	movt	r3, #19
  102534:	edd37a00 	vldr	s15, [r3]
  102538:	ed1b7a02 	vldr	s14, [fp, #-8]
  10253c:	eeb47a67 	vcmp.f32	s14, s15
  102540:	eef1fa10 	vmrs	APSR_nzcv, fpscr
  102544:	1a000001 	bne	102550 <rtIsInfF+0x50>
  102548:	e3a03001 	mov	r3, #1
  10254c:	ea000000 	b	102554 <rtIsInfF+0x54>
  102550:	e3a03000 	mov	r3, #0
  102554:	e1a00003 	mov	r0, r3
  102558:	e24bd000 	sub	sp, fp, #0
  10255c:	e49db004 	pop	{fp}		; (ldr fp, [sp], #4)
  102560:	e12fff1e 	bx	lr

00102564 <rtIsNaN>:
  102564:	e52db004 	push	{fp}		; (str fp, [sp, #-4]!)
  102568:	e28db000 	add	fp, sp, #0
  10256c:	e24dd00c 	sub	sp, sp, #12
  102570:	e14b00fc 	strd	r0, [fp, #-12]
  102574:	ed5b1b03 	vldr	d17, [fp, #-12]
  102578:	ed5b0b03 	vldr	d16, [fp, #-12]
  10257c:	eef41b60 	vcmp.f64	d17, d16
  102580:	eef1fa10 	vmrs	APSR_nzcv, fpscr
  102584:	0a000001 	beq	102590 <rtIsNaN+0x2c>
  102588:	e3a03001 	mov	r3, #1
  10258c:	ea000000 	b	102594 <rtIsNaN+0x30>
  102590:	e3a03000 	mov	r3, #0
  102594:	e1a00003 	mov	r0, r3
  102598:	e24bd000 	sub	sp, fp, #0
  10259c:	e49db004 	pop	{fp}		; (ldr fp, [sp], #4)
  1025a0:	e12fff1e 	bx	lr

001025a4 <rtIsNaNF>:
  1025a4:	e52db004 	push	{fp}		; (str fp, [sp, #-4]!)
  1025a8:	e28db000 	add	fp, sp, #0
  1025ac:	e24dd00c 	sub	sp, sp, #12
  1025b0:	e50b0008 	str	r0, [fp, #-8]
  1025b4:	ed1b7a02 	vldr	s14, [fp, #-8]
  1025b8:	ed5b7a02 	vldr	s15, [fp, #-8]
  1025bc:	eeb47a67 	vcmp.f32	s14, s15
  1025c0:	eef1fa10 	vmrs	APSR_nzcv, fpscr
  1025c4:	0a000001 	beq	1025d0 <rtIsNaNF+0x2c>
  1025c8:	e3a03001 	mov	r3, #1
  1025cc:	ea000000 	b	1025d4 <rtIsNaNF+0x30>
  1025d0:	e3a03000 	mov	r3, #0
  1025d4:	e1a00003 	mov	r0, r3
  1025d8:	e24bd000 	sub	sp, fp, #0
  1025dc:	e49db004 	pop	{fp}		; (ldr fp, [sp], #4)
  1025e0:	e12fff1e 	bx	lr

001025e4 <Cholesky>:
  1025e4:	e92d4810 	push	{r4, fp, lr}
  1025e8:	e28db008 	add	fp, sp, #8
  1025ec:	e24ddf8b 	sub	sp, sp, #556	; 0x22c
  1025f0:	e50b0230 	str	r0, [fp, #-560]	; 0xfffffdd0
  1025f4:	e3a03000 	mov	r3, #0
  1025f8:	e50b3010 	str	r3, [fp, #-16]
  1025fc:	ea0000f5 	b	1029d8 <Cholesky+0x3f4>
  102600:	e51b3010 	ldr	r3, [fp, #-16]
  102604:	e1a02283 	lsl	r2, r3, #5
  102608:	e51b3010 	ldr	r3, [fp, #-16]
  10260c:	e0823003 	add	r3, r2, r3
  102610:	e1a03183 	lsl	r3, r3, #3
  102614:	e51b2230 	ldr	r2, [fp, #-560]	; 0xfffffdd0
  102618:	e0824003 	add	r4, r2, r3
  10261c:	e51b3010 	ldr	r3, [fp, #-16]
  102620:	e1a02283 	lsl	r2, r3, #5
  102624:	e51b3010 	ldr	r3, [fp, #-16]
  102628:	e0823003 	add	r3, r2, r3
  10262c:	e1a03183 	lsl	r3, r3, #3
  102630:	e51b2230 	ldr	r2, [fp, #-560]	; 0xfffffdd0
  102634:	e0823003 	add	r3, r2, r3
  102638:	e1c320d0 	ldrd	r2, [r3]
  10263c:	e1a00002 	mov	r0, r2
  102640:	e1a01003 	mov	r1, r3
  102644:	eb001357 	bl	1073a8 <sqrt>
  102648:	e1a02000 	mov	r2, r0
  10264c:	e1a03001 	mov	r3, r1
  102650:	e1c420f0 	strd	r2, [r4]
  102654:	e51b3010 	ldr	r3, [fp, #-16]
  102658:	e2833002 	add	r3, r3, #2
  10265c:	e3530020 	cmp	r3, #32
  102660:	da000004 	ble	102678 <Cholesky+0x94>
  102664:	e3a03001 	mov	r3, #1
  102668:	e50b3014 	str	r3, [fp, #-20]	; 0xffffffec
  10266c:	e3a03001 	mov	r3, #1
  102670:	e50b3018 	str	r3, [fp, #-24]	; 0xffffffe8
  102674:	ea000004 	b	10268c <Cholesky+0xa8>
  102678:	e51b3010 	ldr	r3, [fp, #-16]
  10267c:	e2833002 	add	r3, r3, #2
  102680:	e50b3014 	str	r3, [fp, #-20]	; 0xffffffec
  102684:	e3a03021 	mov	r3, #33	; 0x21
  102688:	e50b3018 	str	r3, [fp, #-24]	; 0xffffffe8
  10268c:	e51b3010 	ldr	r3, [fp, #-16]
  102690:	e2833002 	add	r3, r3, #2
  102694:	e3530020 	cmp	r3, #32
  102698:	da000002 	ble	1026a8 <Cholesky+0xc4>
  10269c:	e3a03001 	mov	r3, #1
  1026a0:	e50b301c 	str	r3, [fp, #-28]	; 0xffffffe4
  1026a4:	ea000002 	b	1026b4 <Cholesky+0xd0>
  1026a8:	e51b3010 	ldr	r3, [fp, #-16]
  1026ac:	e2833002 	add	r3, r3, #2
  1026b0:	e50b301c 	str	r3, [fp, #-28]	; 0xffffffe4
  1026b4:	e51b3010 	ldr	r3, [fp, #-16]
  1026b8:	e1a02283 	lsl	r2, r3, #5
  1026bc:	e51b3010 	ldr	r3, [fp, #-16]
  1026c0:	e0823003 	add	r3, r2, r3
  1026c4:	e1a03183 	lsl	r3, r3, #3
  1026c8:	e51b2230 	ldr	r2, [fp, #-560]	; 0xfffffdd0
  1026cc:	e0823003 	add	r3, r2, r3
  1026d0:	e1c320d0 	ldrd	r2, [r3]
  1026d4:	e14b22fc 	strd	r2, [fp, #-44]	; 0xffffffd4
  1026d8:	e51b2018 	ldr	r2, [fp, #-24]	; 0xffffffe8
  1026dc:	e51b3014 	ldr	r3, [fp, #-20]	; 0xffffffec
  1026e0:	e0423003 	sub	r3, r2, r3
  1026e4:	e50b3030 	str	r3, [fp, #-48]	; 0xffffffd0
  1026e8:	e3a03000 	mov	r3, #0
  1026ec:	e50b3020 	str	r3, [fp, #-32]	; 0xffffffe0
  1026f0:	ea000015 	b	10274c <Cholesky+0x168>
  1026f4:	e51b2014 	ldr	r2, [fp, #-20]	; 0xffffffec
  1026f8:	e51b3020 	ldr	r3, [fp, #-32]	; 0xffffffe0
  1026fc:	e0822003 	add	r2, r2, r3
  102700:	e51b3010 	ldr	r3, [fp, #-16]
  102704:	e1a03283 	lsl	r3, r3, #5
  102708:	e0823003 	add	r3, r2, r3
  10270c:	e243321e 	sub	r3, r3, #-536870911	; 0xe0000001
  102710:	e1a03183 	lsl	r3, r3, #3
  102714:	e51b2230 	ldr	r2, [fp, #-560]	; 0xfffffdd0
  102718:	e0823003 	add	r3, r2, r3
  10271c:	edd32b00 	vldr	d18, [r3]
  102720:	ed5b1b0b 	vldr	d17, [fp, #-44]	; 0xffffffd4
  102724:	eec20ba1 	vdiv.f64	d16, d18, d17
  102728:	e51b3020 	ldr	r3, [fp, #-32]	; 0xffffffe0
  10272c:	e1a03183 	lsl	r3, r3, #3
  102730:	e24b200c 	sub	r2, fp, #12
  102734:	e0823003 	add	r3, r2, r3
  102738:	e2433f4a 	sub	r3, r3, #296	; 0x128
  10273c:	edc30b00 	vstr	d16, [r3]
  102740:	e51b3020 	ldr	r3, [fp, #-32]	; 0xffffffe0
  102744:	e2833001 	add	r3, r3, #1
  102748:	e50b3020 	str	r3, [fp, #-32]	; 0xffffffe0
  10274c:	e51b2020 	ldr	r2, [fp, #-32]	; 0xffffffe0
  102750:	e51b3030 	ldr	r3, [fp, #-48]	; 0xffffffd0
  102754:	e1520003 	cmp	r2, r3
  102758:	baffffe5 	blt	1026f4 <Cholesky+0x110>
  10275c:	e51b2018 	ldr	r2, [fp, #-24]	; 0xffffffe8
  102760:	e51b3014 	ldr	r3, [fp, #-20]	; 0xffffffec
  102764:	e0423003 	sub	r3, r2, r3
  102768:	e50b3030 	str	r3, [fp, #-48]	; 0xffffffd0
  10276c:	e3a03000 	mov	r3, #0
  102770:	e50b3014 	str	r3, [fp, #-20]	; 0xffffffec
  102774:	ea000013 	b	1027c8 <Cholesky+0x1e4>
  102778:	e51b201c 	ldr	r2, [fp, #-28]	; 0xffffffe4
  10277c:	e51b3014 	ldr	r3, [fp, #-20]	; 0xffffffec
  102780:	e0822003 	add	r2, r2, r3
  102784:	e51b3010 	ldr	r3, [fp, #-16]
  102788:	e1a03283 	lsl	r3, r3, #5
  10278c:	e0823003 	add	r3, r2, r3
  102790:	e243321e 	sub	r3, r3, #-536870911	; 0xe0000001
  102794:	e1a03183 	lsl	r3, r3, #3
  102798:	e51b2230 	ldr	r2, [fp, #-560]	; 0xfffffdd0
  10279c:	e0821003 	add	r1, r2, r3
  1027a0:	e51b3014 	ldr	r3, [fp, #-20]	; 0xffffffec
  1027a4:	e1a03183 	lsl	r3, r3, #3
  1027a8:	e24b200c 	sub	r2, fp, #12
  1027ac:	e0823003 	add	r3, r2, r3
  1027b0:	e2433f4a 	sub	r3, r3, #296	; 0x128
  1027b4:	e1c320d0 	ldrd	r2, [r3]
  1027b8:	e1c120f0 	strd	r2, [r1]
  1027bc:	e51b3014 	ldr	r3, [fp, #-20]	; 0xffffffec
  1027c0:	e2833001 	add	r3, r3, #1
  1027c4:	e50b3014 	str	r3, [fp, #-20]	; 0xffffffec
  1027c8:	e51b2014 	ldr	r2, [fp, #-20]	; 0xffffffec
  1027cc:	e51b3030 	ldr	r3, [fp, #-48]	; 0xffffffd0
  1027d0:	e1520003 	cmp	r2, r3
  1027d4:	baffffe7 	blt	102778 <Cholesky+0x194>
  1027d8:	e3a03000 	mov	r3, #0
  1027dc:	e50b3024 	str	r3, [fp, #-36]	; 0xffffffdc
  1027e0:	ea000074 	b	1029b8 <Cholesky+0x3d4>
  1027e4:	e51b2010 	ldr	r2, [fp, #-16]
  1027e8:	e51b3024 	ldr	r3, [fp, #-36]	; 0xffffffdc
  1027ec:	e0823003 	add	r3, r2, r3
  1027f0:	e2833002 	add	r3, r3, #2
  1027f4:	e50b3034 	str	r3, [fp, #-52]	; 0xffffffcc
  1027f8:	e51b3034 	ldr	r3, [fp, #-52]	; 0xffffffcc
  1027fc:	e3530020 	cmp	r3, #32
  102800:	da000004 	ble	102818 <Cholesky+0x234>
  102804:	e3a03000 	mov	r3, #0
  102808:	e50b3014 	str	r3, [fp, #-20]	; 0xffffffec
  10280c:	e3e03000 	mvn	r3, #0
  102810:	e50b3018 	str	r3, [fp, #-24]	; 0xffffffe8
  102814:	ea000004 	b	10282c <Cholesky+0x248>
  102818:	e51b3034 	ldr	r3, [fp, #-52]	; 0xffffffcc
  10281c:	e2433001 	sub	r3, r3, #1
  102820:	e50b3014 	str	r3, [fp, #-20]	; 0xffffffec
  102824:	e3a0301f 	mov	r3, #31
  102828:	e50b3018 	str	r3, [fp, #-24]	; 0xffffffe8
  10282c:	e51b3034 	ldr	r3, [fp, #-52]	; 0xffffffcc
  102830:	e3530020 	cmp	r3, #32
  102834:	da000002 	ble	102844 <Cholesky+0x260>
  102838:	e3a03000 	mov	r3, #0
  10283c:	e50b301c 	str	r3, [fp, #-28]	; 0xffffffe4
  102840:	ea000002 	b	102850 <Cholesky+0x26c>
  102844:	e51b3034 	ldr	r3, [fp, #-52]	; 0xffffffcc
  102848:	e2433001 	sub	r3, r3, #1
  10284c:	e50b301c 	str	r3, [fp, #-28]	; 0xffffffe4
  102850:	e51b3010 	ldr	r3, [fp, #-16]
  102854:	e1a02283 	lsl	r2, r3, #5
  102858:	e51b3034 	ldr	r3, [fp, #-52]	; 0xffffffcc
  10285c:	e0823003 	add	r3, r2, r3
  102860:	e243321e 	sub	r3, r3, #-536870911	; 0xe0000001
  102864:	e1a03183 	lsl	r3, r3, #3
  102868:	e51b2230 	ldr	r2, [fp, #-560]	; 0xfffffdd0
  10286c:	e0823003 	add	r3, r2, r3
  102870:	e1c320d0 	ldrd	r2, [r3]
  102874:	e14b22fc 	strd	r2, [fp, #-44]	; 0xffffffd4
  102878:	e51b2018 	ldr	r2, [fp, #-24]	; 0xffffffe8
  10287c:	e51b3014 	ldr	r3, [fp, #-20]	; 0xffffffec
  102880:	e0423003 	sub	r3, r2, r3
  102884:	e50b3030 	str	r3, [fp, #-48]	; 0xffffffd0
  102888:	e3a03000 	mov	r3, #0
  10288c:	e50b3020 	str	r3, [fp, #-32]	; 0xffffffe0
  102890:	ea000020 	b	102918 <Cholesky+0x334>
  102894:	e51b2014 	ldr	r2, [fp, #-20]	; 0xffffffec
  102898:	e51b3020 	ldr	r3, [fp, #-32]	; 0xffffffe0
  10289c:	e0822003 	add	r2, r2, r3
  1028a0:	e51b3034 	ldr	r3, [fp, #-52]	; 0xffffffcc
  1028a4:	e2433001 	sub	r3, r3, #1
  1028a8:	e1a03283 	lsl	r3, r3, #5
  1028ac:	e0823003 	add	r3, r2, r3
  1028b0:	e1a03183 	lsl	r3, r3, #3
  1028b4:	e51b2230 	ldr	r2, [fp, #-560]	; 0xfffffdd0
  1028b8:	e0823003 	add	r3, r2, r3
  1028bc:	edd31b00 	vldr	d17, [r3]
  1028c0:	e51b201c 	ldr	r2, [fp, #-28]	; 0xffffffe4
  1028c4:	e51b3020 	ldr	r3, [fp, #-32]	; 0xffffffe0
  1028c8:	e0822003 	add	r2, r2, r3
  1028cc:	e51b3010 	ldr	r3, [fp, #-16]
  1028d0:	e1a03283 	lsl	r3, r3, #5
  1028d4:	e0823003 	add	r3, r2, r3
  1028d8:	e1a03183 	lsl	r3, r3, #3
  1028dc:	e51b2230 	ldr	r2, [fp, #-560]	; 0xfffffdd0
  1028e0:	e0823003 	add	r3, r2, r3
  1028e4:	edd32b00 	vldr	d18, [r3]
  1028e8:	ed5b0b0b 	vldr	d16, [fp, #-44]	; 0xffffffd4
  1028ec:	ee620ba0 	vmul.f64	d16, d18, d16
  1028f0:	ee710be0 	vsub.f64	d16, d17, d16
  1028f4:	e51b3020 	ldr	r3, [fp, #-32]	; 0xffffffe0
  1028f8:	e1a03183 	lsl	r3, r3, #3
  1028fc:	e24b200c 	sub	r2, fp, #12
  102900:	e0823003 	add	r3, r2, r3
  102904:	e2433e22 	sub	r3, r3, #544	; 0x220
  102908:	edc30b00 	vstr	d16, [r3]
  10290c:	e51b3020 	ldr	r3, [fp, #-32]	; 0xffffffe0
  102910:	e2833001 	add	r3, r3, #1
  102914:	e50b3020 	str	r3, [fp, #-32]	; 0xffffffe0
  102918:	e51b2020 	ldr	r2, [fp, #-32]	; 0xffffffe0
  10291c:	e51b3030 	ldr	r3, [fp, #-48]	; 0xffffffd0
  102920:	e1520003 	cmp	r2, r3
  102924:	daffffda 	ble	102894 <Cholesky+0x2b0>
  102928:	e51b2018 	ldr	r2, [fp, #-24]	; 0xffffffe8
  10292c:	e51b3014 	ldr	r3, [fp, #-20]	; 0xffffffec
  102930:	e0423003 	sub	r3, r2, r3
  102934:	e2833001 	add	r3, r3, #1
  102938:	e50b3030 	str	r3, [fp, #-48]	; 0xffffffd0
  10293c:	e3a03000 	mov	r3, #0
  102940:	e50b3014 	str	r3, [fp, #-20]	; 0xffffffec
  102944:	ea000014 	b	10299c <Cholesky+0x3b8>
  102948:	e51b2034 	ldr	r2, [fp, #-52]	; 0xffffffcc
  10294c:	e51b3014 	ldr	r3, [fp, #-20]	; 0xffffffec
  102950:	e0822003 	add	r2, r2, r3
  102954:	e51b3034 	ldr	r3, [fp, #-52]	; 0xffffffcc
  102958:	e2433001 	sub	r3, r3, #1
  10295c:	e1a03283 	lsl	r3, r3, #5
  102960:	e0823003 	add	r3, r2, r3
  102964:	e243321e 	sub	r3, r3, #-536870911	; 0xe0000001
  102968:	e1a03183 	lsl	r3, r3, #3
  10296c:	e51b2230 	ldr	r2, [fp, #-560]	; 0xfffffdd0
  102970:	e0821003 	add	r1, r2, r3
  102974:	e51b3014 	ldr	r3, [fp, #-20]	; 0xffffffec
  102978:	e1a03183 	lsl	r3, r3, #3
  10297c:	e24b200c 	sub	r2, fp, #12
  102980:	e0823003 	add	r3, r2, r3
  102984:	e2433e22 	sub	r3, r3, #544	; 0x220
  102988:	e1c320d0 	ldrd	r2, [r3]
  10298c:	e1c120f0 	strd	r2, [r1]
  102990:	e51b3014 	ldr	r3, [fp, #-20]	; 0xffffffec
  102994:	e2833001 	add	r3, r3, #1
  102998:	e50b3014 	str	r3, [fp, #-20]	; 0xffffffec
  10299c:	e51b2014 	ldr	r2, [fp, #-20]	; 0xffffffec
  1029a0:	e51b3030 	ldr	r3, [fp, #-48]	; 0xffffffd0
  1029a4:	e1520003 	cmp	r2, r3
  1029a8:	baffffe6 	blt	102948 <Cholesky+0x364>
  1029ac:	e51b3024 	ldr	r3, [fp, #-36]	; 0xffffffdc
  1029b0:	e2833001 	add	r3, r3, #1
  1029b4:	e50b3024 	str	r3, [fp, #-36]	; 0xffffffdc
  1029b8:	e51b3010 	ldr	r3, [fp, #-16]
  1029bc:	e263201e 	rsb	r2, r3, #30
  1029c0:	e51b3024 	ldr	r3, [fp, #-36]	; 0xffffffdc
  1029c4:	e1520003 	cmp	r2, r3
  1029c8:	aaffff85 	bge	1027e4 <Cholesky+0x200>
  1029cc:	e51b3010 	ldr	r3, [fp, #-16]
  1029d0:	e2833001 	add	r3, r3, #1
  1029d4:	e50b3010 	str	r3, [fp, #-16]
  1029d8:	e51b3010 	ldr	r3, [fp, #-16]
  1029dc:	e353001f 	cmp	r3, #31
  1029e0:	daffff06 	ble	102600 <Cholesky+0x1c>
  1029e4:	e320f000 	nop	{0}
  1029e8:	e24bd008 	sub	sp, fp, #8
  1029ec:	e8bd8810 	pop	{r4, fp, pc}

001029f0 <measurement_eq>:
  1029f0:	e52db004 	push	{fp}		; (str fp, [sp, #-4]!)
  1029f4:	e28db000 	add	fp, sp, #0
  1029f8:	e24dd00c 	sub	sp, sp, #12
  1029fc:	e50b0008 	str	r0, [fp, #-8]
  102a00:	e51b3008 	ldr	r3, [fp, #-8]
  102a04:	e1c320d0 	ldrd	r2, [r3]
  102a08:	e1a00002 	mov	r0, r2
  102a0c:	e1a01003 	mov	r1, r3
  102a10:	e24bd000 	sub	sp, fp, #0
  102a14:	e49db004 	pop	{fp}		; (ldr fp, [sp], #4)
  102a18:	e12fff1e 	bx	lr

00102a1c <nonlinear_state_eq>:
  102a1c:	e52db004 	push	{fp}		; (str fp, [sp, #-4]!)
  102a20:	e28db000 	add	fp, sp, #0
  102a24:	e24dd00c 	sub	sp, sp, #12
  102a28:	e50b0008 	str	r0, [fp, #-8]
  102a2c:	e50b100c 	str	r1, [fp, #-12]
  102a30:	e51b3008 	ldr	r3, [fp, #-8]
  102a34:	e1c320d8 	ldrd	r2, [r3, #8]
  102a38:	e51b100c 	ldr	r1, [fp, #-12]
  102a3c:	e1c120f0 	strd	r2, [r1]
  102a40:	e51b300c 	ldr	r3, [fp, #-12]
  102a44:	e2831008 	add	r1, r3, #8
  102a48:	e51b3008 	ldr	r3, [fp, #-8]
  102a4c:	e1c321d0 	ldrd	r2, [r3, #16]
  102a50:	e1c120f0 	strd	r2, [r1]
  102a54:	e51b300c 	ldr	r3, [fp, #-12]
  102a58:	e2833010 	add	r3, r3, #16
  102a5c:	e51b2008 	ldr	r2, [fp, #-8]
  102a60:	edd20b00 	vldr	d16, [r2]
  102a64:	eef61b00 	vmov.f64	d17, #96	; 0x3f000000  0.5
  102a68:	ee600ba1 	vmul.f64	d16, d16, d17
  102a6c:	edc30b00 	vstr	d16, [r3]
  102a70:	e51b300c 	ldr	r3, [fp, #-12]
  102a74:	e2831018 	add	r1, r3, #24
  102a78:	e51b3008 	ldr	r3, [fp, #-8]
  102a7c:	e1c322d0 	ldrd	r2, [r3, #32]
  102a80:	e1c120f0 	strd	r2, [r1]
  102a84:	e51b300c 	ldr	r3, [fp, #-12]
  102a88:	e2831020 	add	r1, r3, #32
  102a8c:	e51b3008 	ldr	r3, [fp, #-8]
  102a90:	e1c322d8 	ldrd	r2, [r3, #40]	; 0x28
  102a94:	e1c120f0 	strd	r2, [r1]
  102a98:	e51b300c 	ldr	r3, [fp, #-12]
  102a9c:	e2833028 	add	r3, r3, #40	; 0x28
  102aa0:	e51b2008 	ldr	r2, [fp, #-8]
  102aa4:	edd21b00 	vldr	d17, [r2]
  102aa8:	e51b2008 	ldr	r2, [fp, #-8]
  102aac:	e2822028 	add	r2, r2, #40	; 0x28
  102ab0:	edd20b00 	vldr	d16, [r2]
  102ab4:	ee710ba0 	vadd.f64	d16, d17, d16
  102ab8:	edc30b00 	vstr	d16, [r3]
  102abc:	e51b300c 	ldr	r3, [fp, #-12]
  102ac0:	e2831030 	add	r1, r3, #48	; 0x30
  102ac4:	e51b3008 	ldr	r3, [fp, #-8]
  102ac8:	e1c323d8 	ldrd	r2, [r3, #56]	; 0x38
  102acc:	e1c120f0 	strd	r2, [r1]
  102ad0:	e51b300c 	ldr	r3, [fp, #-12]
  102ad4:	e2831038 	add	r1, r3, #56	; 0x38
  102ad8:	e51b3008 	ldr	r3, [fp, #-8]
  102adc:	e1c324d0 	ldrd	r2, [r3, #64]	; 0x40
  102ae0:	e1c120f0 	strd	r2, [r1]
  102ae4:	e51b300c 	ldr	r3, [fp, #-12]
  102ae8:	e2833040 	add	r3, r3, #64	; 0x40
  102aec:	e51b2008 	ldr	r2, [fp, #-8]
  102af0:	e2822030 	add	r2, r2, #48	; 0x30
  102af4:	edd20b00 	vldr	d16, [r2]
  102af8:	eef61b00 	vmov.f64	d17, #96	; 0x3f000000  0.5
  102afc:	ee600ba1 	vmul.f64	d16, d16, d17
  102b00:	edc30b00 	vstr	d16, [r3]
  102b04:	e51b300c 	ldr	r3, [fp, #-12]
  102b08:	e2831048 	add	r1, r3, #72	; 0x48
  102b0c:	e51b3008 	ldr	r3, [fp, #-8]
  102b10:	e1c325d0 	ldrd	r2, [r3, #80]	; 0x50
  102b14:	e1c120f0 	strd	r2, [r1]
  102b18:	e51b300c 	ldr	r3, [fp, #-12]
  102b1c:	e2831050 	add	r1, r3, #80	; 0x50
  102b20:	e51b3008 	ldr	r3, [fp, #-8]
  102b24:	e1c325d8 	ldrd	r2, [r3, #88]	; 0x58
  102b28:	e1c120f0 	strd	r2, [r1]
  102b2c:	e51b300c 	ldr	r3, [fp, #-12]
  102b30:	e2833058 	add	r3, r3, #88	; 0x58
  102b34:	e51b2008 	ldr	r2, [fp, #-8]
  102b38:	e2822048 	add	r2, r2, #72	; 0x48
  102b3c:	edd21b00 	vldr	d17, [r2]
  102b40:	e51b2008 	ldr	r2, [fp, #-8]
  102b44:	e2822058 	add	r2, r2, #88	; 0x58
  102b48:	edd20b00 	vldr	d16, [r2]
  102b4c:	ee710ba0 	vadd.f64	d16, d17, d16
  102b50:	edc30b00 	vstr	d16, [r3]
  102b54:	e51b300c 	ldr	r3, [fp, #-12]
  102b58:	e2831060 	add	r1, r3, #96	; 0x60
  102b5c:	e51b3008 	ldr	r3, [fp, #-8]
  102b60:	e1c326d8 	ldrd	r2, [r3, #104]	; 0x68
  102b64:	e1c120f0 	strd	r2, [r1]
  102b68:	e51b300c 	ldr	r3, [fp, #-12]
  102b6c:	e2831068 	add	r1, r3, #104	; 0x68
  102b70:	e51b3008 	ldr	r3, [fp, #-8]
  102b74:	e1c327d0 	ldrd	r2, [r3, #112]	; 0x70
  102b78:	e1c120f0 	strd	r2, [r1]
  102b7c:	e51b300c 	ldr	r3, [fp, #-12]
  102b80:	e2833070 	add	r3, r3, #112	; 0x70
  102b84:	e51b2008 	ldr	r2, [fp, #-8]
  102b88:	e2822060 	add	r2, r2, #96	; 0x60
  102b8c:	edd20b00 	vldr	d16, [r2]
  102b90:	eef61b00 	vmov.f64	d17, #96	; 0x3f000000  0.5
  102b94:	ee600ba1 	vmul.f64	d16, d16, d17
  102b98:	edc30b00 	vstr	d16, [r3]
  102b9c:	e51b300c 	ldr	r3, [fp, #-12]
  102ba0:	e2831078 	add	r1, r3, #120	; 0x78
  102ba4:	e51b3008 	ldr	r3, [fp, #-8]
  102ba8:	e1c328d0 	ldrd	r2, [r3, #128]	; 0x80
  102bac:	e1c120f0 	strd	r2, [r1]
  102bb0:	e51b300c 	ldr	r3, [fp, #-12]
  102bb4:	e2831080 	add	r1, r3, #128	; 0x80
  102bb8:	e51b3008 	ldr	r3, [fp, #-8]
  102bbc:	e1c328d8 	ldrd	r2, [r3, #136]	; 0x88
  102bc0:	e1c120f0 	strd	r2, [r1]
  102bc4:	e51b300c 	ldr	r3, [fp, #-12]
  102bc8:	e2833088 	add	r3, r3, #136	; 0x88
  102bcc:	e51b2008 	ldr	r2, [fp, #-8]
  102bd0:	e2822078 	add	r2, r2, #120	; 0x78
  102bd4:	edd21b00 	vldr	d17, [r2]
  102bd8:	e51b2008 	ldr	r2, [fp, #-8]
  102bdc:	e2822088 	add	r2, r2, #136	; 0x88
  102be0:	edd20b00 	vldr	d16, [r2]
  102be4:	ee710ba0 	vadd.f64	d16, d17, d16
  102be8:	edc30b00 	vstr	d16, [r3]
  102bec:	e51b300c 	ldr	r3, [fp, #-12]
  102bf0:	e2831090 	add	r1, r3, #144	; 0x90
  102bf4:	e51b3008 	ldr	r3, [fp, #-8]
  102bf8:	e1c329d8 	ldrd	r2, [r3, #152]	; 0x98
  102bfc:	e1c120f0 	strd	r2, [r1]
  102c00:	e51b300c 	ldr	r3, [fp, #-12]
  102c04:	e2831098 	add	r1, r3, #152	; 0x98
  102c08:	e51b3008 	ldr	r3, [fp, #-8]
  102c0c:	e1c32ad0 	ldrd	r2, [r3, #160]	; 0xa0
  102c10:	e1c120f0 	strd	r2, [r1]
  102c14:	e51b300c 	ldr	r3, [fp, #-12]
  102c18:	e28330a0 	add	r3, r3, #160	; 0xa0
  102c1c:	e51b2008 	ldr	r2, [fp, #-8]
  102c20:	e2822090 	add	r2, r2, #144	; 0x90
  102c24:	edd20b00 	vldr	d16, [r2]
  102c28:	eef61b00 	vmov.f64	d17, #96	; 0x3f000000  0.5
  102c2c:	ee600ba1 	vmul.f64	d16, d16, d17
  102c30:	edc30b00 	vstr	d16, [r3]
  102c34:	e51b300c 	ldr	r3, [fp, #-12]
  102c38:	e28310a8 	add	r1, r3, #168	; 0xa8
  102c3c:	e51b3008 	ldr	r3, [fp, #-8]
  102c40:	e1c32bd0 	ldrd	r2, [r3, #176]	; 0xb0
  102c44:	e1c120f0 	strd	r2, [r1]
  102c48:	e51b300c 	ldr	r3, [fp, #-12]
  102c4c:	e28310b0 	add	r1, r3, #176	; 0xb0
  102c50:	e51b3008 	ldr	r3, [fp, #-8]
  102c54:	e1c32bd8 	ldrd	r2, [r3, #184]	; 0xb8
  102c58:	e1c120f0 	strd	r2, [r1]
  102c5c:	e51b300c 	ldr	r3, [fp, #-12]
  102c60:	e28330b8 	add	r3, r3, #184	; 0xb8
  102c64:	e51b2008 	ldr	r2, [fp, #-8]
  102c68:	e28220a8 	add	r2, r2, #168	; 0xa8
  102c6c:	edd21b00 	vldr	d17, [r2]
  102c70:	e51b2008 	ldr	r2, [fp, #-8]
  102c74:	e28220b8 	add	r2, r2, #184	; 0xb8
  102c78:	edd20b00 	vldr	d16, [r2]
  102c7c:	ee710ba0 	vadd.f64	d16, d17, d16
  102c80:	edc30b00 	vstr	d16, [r3]
  102c84:	e51b300c 	ldr	r3, [fp, #-12]
  102c88:	e28310c0 	add	r1, r3, #192	; 0xc0
  102c8c:	e51b3008 	ldr	r3, [fp, #-8]
  102c90:	e1c32cd8 	ldrd	r2, [r3, #200]	; 0xc8
  102c94:	e1c120f0 	strd	r2, [r1]
  102c98:	e51b300c 	ldr	r3, [fp, #-12]
  102c9c:	e28310c8 	add	r1, r3, #200	; 0xc8
  102ca0:	e51b3008 	ldr	r3, [fp, #-8]
  102ca4:	e1c32dd0 	ldrd	r2, [r3, #208]	; 0xd0
  102ca8:	e1c120f0 	strd	r2, [r1]
  102cac:	e51b300c 	ldr	r3, [fp, #-12]
  102cb0:	e28330d0 	add	r3, r3, #208	; 0xd0
  102cb4:	e51b2008 	ldr	r2, [fp, #-8]
  102cb8:	e28220c0 	add	r2, r2, #192	; 0xc0
  102cbc:	edd20b00 	vldr	d16, [r2]
  102cc0:	eef61b00 	vmov.f64	d17, #96	; 0x3f000000  0.5
  102cc4:	ee600ba1 	vmul.f64	d16, d16, d17
  102cc8:	edc30b00 	vstr	d16, [r3]
  102ccc:	e51b300c 	ldr	r3, [fp, #-12]
  102cd0:	e28310d8 	add	r1, r3, #216	; 0xd8
  102cd4:	e51b3008 	ldr	r3, [fp, #-8]
  102cd8:	e1c32ed0 	ldrd	r2, [r3, #224]	; 0xe0
  102cdc:	e1c120f0 	strd	r2, [r1]
  102ce0:	e51b300c 	ldr	r3, [fp, #-12]
  102ce4:	e28310e0 	add	r1, r3, #224	; 0xe0
  102ce8:	e51b3008 	ldr	r3, [fp, #-8]
  102cec:	e1c32ed8 	ldrd	r2, [r3, #232]	; 0xe8
  102cf0:	e1c120f0 	strd	r2, [r1]
  102cf4:	e51b300c 	ldr	r3, [fp, #-12]
  102cf8:	e28330e8 	add	r3, r3, #232	; 0xe8
  102cfc:	e51b2008 	ldr	r2, [fp, #-8]
  102d00:	e28220d8 	add	r2, r2, #216	; 0xd8
  102d04:	edd21b00 	vldr	d17, [r2]
  102d08:	e51b2008 	ldr	r2, [fp, #-8]
  102d0c:	e28220e8 	add	r2, r2, #232	; 0xe8
  102d10:	edd20b00 	vldr	d16, [r2]
  102d14:	ee710ba0 	vadd.f64	d16, d17, d16
  102d18:	edc30b00 	vstr	d16, [r3]
  102d1c:	e51b300c 	ldr	r3, [fp, #-12]
  102d20:	e28310f0 	add	r1, r3, #240	; 0xf0
  102d24:	e51b3008 	ldr	r3, [fp, #-8]
  102d28:	e1c32fd0 	ldrd	r2, [r3, #240]	; 0xf0
  102d2c:	e1c120f0 	strd	r2, [r1]
  102d30:	e51b300c 	ldr	r3, [fp, #-12]
  102d34:	e28310f8 	add	r1, r3, #248	; 0xf8
  102d38:	e51b3008 	ldr	r3, [fp, #-8]
  102d3c:	e1c32fd8 	ldrd	r2, [r3, #248]	; 0xf8
  102d40:	e1c120f0 	strd	r2, [r1]
  102d44:	e320f000 	nop	{0}
  102d48:	e24bd000 	sub	sp, fp, #0
  102d4c:	e49db004 	pop	{fp}		; (ldr fp, [sp], #4)
  102d50:	e12fff1e 	bx	lr
  102d54:	00000000 	andeq	r0, r0, r0

00102d58 <b_sigmas>:
  102d58:	e92d4800 	push	{fp, lr}
  102d5c:	e28db004 	add	fp, sp, #4
  102d60:	e24dd901 	sub	sp, sp, #16384	; 0x4000
  102d64:	e24dd030 	sub	sp, sp, #48	; 0x30
  102d68:	e24b3901 	sub	r3, fp, #16384	; 0x4000
  102d6c:	e2433004 	sub	r3, r3, #4
  102d70:	e5030024 	str	r0, [r3, #-36]	; 0xffffffdc
  102d74:	e24b3901 	sub	r3, fp, #16384	; 0x4000
  102d78:	e2433004 	sub	r3, r3, #4
  102d7c:	e5031028 	str	r1, [r3, #-40]	; 0xffffffd8
  102d80:	e24b3901 	sub	r3, fp, #16384	; 0x4000
  102d84:	e2433004 	sub	r3, r3, #4
  102d88:	e503202c 	str	r2, [r3, #-44]	; 0xffffffd4
  102d8c:	e24b3901 	sub	r3, fp, #16384	; 0x4000
  102d90:	e2433004 	sub	r3, r3, #4
  102d94:	e1a01003 	mov	r1, r3
  102d98:	e24b3a02 	sub	r3, fp, #8192	; 0x2000
  102d9c:	e2433004 	sub	r3, r3, #4
  102da0:	e2433010 	sub	r3, r3, #16
  102da4:	e3a02a02 	mov	r2, #8192	; 0x2000
  102da8:	e5111028 	ldr	r1, [r1, #-40]	; 0xffffffd8
  102dac:	e1a00003 	mov	r0, r3
  102db0:	eb001646 	bl	1086d0 <memcpy>
  102db4:	e24b3901 	sub	r3, fp, #16384	; 0x4000
  102db8:	e2433004 	sub	r3, r3, #4
  102dbc:	e2433018 	sub	r3, r3, #24
  102dc0:	e1a00003 	mov	r0, r3
  102dc4:	ebfffd79 	bl	1023b0 <pmu_counter_read_ns>
  102dc8:	e24b3a02 	sub	r3, fp, #8192	; 0x2000
  102dcc:	e2433004 	sub	r3, r3, #4
  102dd0:	e2433010 	sub	r3, r3, #16
  102dd4:	e1a00003 	mov	r0, r3
  102dd8:	ebfffe01 	bl	1025e4 <Cholesky>
  102ddc:	e24b3901 	sub	r3, fp, #16384	; 0x4000
  102de0:	e2433004 	sub	r3, r3, #4
  102de4:	e2433020 	sub	r3, r3, #32
  102de8:	e1a00003 	mov	r0, r3
  102dec:	ebfffd6f 	bl	1023b0 <pmu_counter_read_ns>
  102df0:	e24b3901 	sub	r3, fp, #16384	; 0x4000
  102df4:	e2433004 	sub	r3, r3, #4
  102df8:	e2433020 	sub	r3, r3, #32
  102dfc:	e1c300d0 	ldrd	r0, [r3]
  102e00:	e24b3901 	sub	r3, fp, #16384	; 0x4000
  102e04:	e2433004 	sub	r3, r3, #4
  102e08:	e2433010 	sub	r3, r3, #16
  102e0c:	e14320d8 	ldrd	r2, [r3, #-8]
  102e10:	e0502002 	subs	r2, r0, r2
  102e14:	e0c13003 	sbc	r3, r1, r3
  102e18:	e14b21f4 	strd	r2, [fp, #-20]	; 0xffffffec
  102e1c:	e3a03000 	mov	r3, #0
  102e20:	e50b3008 	str	r3, [fp, #-8]
  102e24:	ea000014 	b	102e7c <b_sigmas+0x124>
  102e28:	e24b3a02 	sub	r3, fp, #8192	; 0x2000
  102e2c:	e2433004 	sub	r3, r3, #4
  102e30:	e1a02003 	mov	r2, r3
  102e34:	e51b3008 	ldr	r3, [fp, #-8]
  102e38:	e1a03183 	lsl	r3, r3, #3
  102e3c:	e0823003 	add	r3, r2, r3
  102e40:	e2433010 	sub	r3, r3, #16
  102e44:	edd30b00 	vldr	d16, [r3]
  102e48:	eddf1b84 	vldr	d17, [pc, #528]	; 103060 <b_sigmas+0x308>
  102e4c:	ee600ba1 	vmul.f64	d16, d16, d17
  102e50:	e24b3a02 	sub	r3, fp, #8192	; 0x2000
  102e54:	e2433004 	sub	r3, r3, #4
  102e58:	e1a02003 	mov	r2, r3
  102e5c:	e51b3008 	ldr	r3, [fp, #-8]
  102e60:	e1a03183 	lsl	r3, r3, #3
  102e64:	e0823003 	add	r3, r2, r3
  102e68:	e2433010 	sub	r3, r3, #16
  102e6c:	edc30b00 	vstr	d16, [r3]
  102e70:	e51b3008 	ldr	r3, [fp, #-8]
  102e74:	e2833001 	add	r3, r3, #1
  102e78:	e50b3008 	str	r3, [fp, #-8]
  102e7c:	e51b3008 	ldr	r3, [fp, #-8]
  102e80:	e3530b01 	cmp	r3, #1024	; 0x400
  102e84:	baffffe7 	blt	102e28 <b_sigmas+0xd0>
  102e88:	e3a03000 	mov	r3, #0
  102e8c:	e50b3008 	str	r3, [fp, #-8]
  102e90:	ea00006a 	b	103040 <b_sigmas+0x2e8>
  102e94:	e51b3008 	ldr	r3, [fp, #-8]
  102e98:	e1a03183 	lsl	r3, r3, #3
  102e9c:	e24b2901 	sub	r2, fp, #16384	; 0x4000
  102ea0:	e2422004 	sub	r2, r2, #4
  102ea4:	e512202c 	ldr	r2, [r2, #-44]	; 0xffffffd4
  102ea8:	e0821003 	add	r1, r2, r3
  102eac:	e51b3008 	ldr	r3, [fp, #-8]
  102eb0:	e1a03183 	lsl	r3, r3, #3
  102eb4:	e24b2901 	sub	r2, fp, #16384	; 0x4000
  102eb8:	e2422004 	sub	r2, r2, #4
  102ebc:	e5122024 	ldr	r2, [r2, #-36]	; 0xffffffdc
  102ec0:	e0823003 	add	r3, r2, r3
  102ec4:	e1c320d0 	ldrd	r2, [r3]
  102ec8:	e1c120f0 	strd	r2, [r1]
  102ecc:	e3a03000 	mov	r3, #0
  102ed0:	e50b300c 	str	r3, [fp, #-12]
  102ed4:	ea000053 	b	103028 <b_sigmas+0x2d0>
  102ed8:	e51b3008 	ldr	r3, [fp, #-8]
  102edc:	e1a02283 	lsl	r2, r3, #5
  102ee0:	e51b300c 	ldr	r3, [fp, #-12]
  102ee4:	e0821003 	add	r1, r2, r3
  102ee8:	e51b300c 	ldr	r3, [fp, #-12]
  102eec:	e1a03183 	lsl	r3, r3, #3
  102ef0:	e24b2901 	sub	r2, fp, #16384	; 0x4000
  102ef4:	e2422004 	sub	r2, r2, #4
  102ef8:	e5122024 	ldr	r2, [r2, #-36]	; 0xffffffdc
  102efc:	e0823003 	add	r3, r2, r3
  102f00:	e1c320d0 	ldrd	r2, [r3]
  102f04:	e24b0901 	sub	r0, fp, #16384	; 0x4000
  102f08:	e2400004 	sub	r0, r0, #4
  102f0c:	e1a01181 	lsl	r1, r1, #3
  102f10:	e0801001 	add	r1, r0, r1
  102f14:	e2411010 	sub	r1, r1, #16
  102f18:	e1c120f0 	strd	r2, [r1]
  102f1c:	e51b3008 	ldr	r3, [fp, #-8]
  102f20:	e2833001 	add	r3, r3, #1
  102f24:	e1a02283 	lsl	r2, r3, #5
  102f28:	e51b300c 	ldr	r3, [fp, #-12]
  102f2c:	e0823003 	add	r3, r2, r3
  102f30:	e1a03183 	lsl	r3, r3, #3
  102f34:	e24b2901 	sub	r2, fp, #16384	; 0x4000
  102f38:	e2422004 	sub	r2, r2, #4
  102f3c:	e512202c 	ldr	r2, [r2, #-44]	; 0xffffffd4
  102f40:	e0823003 	add	r3, r2, r3
  102f44:	e51b2008 	ldr	r2, [fp, #-8]
  102f48:	e1a01282 	lsl	r1, r2, #5
  102f4c:	e51b200c 	ldr	r2, [fp, #-12]
  102f50:	e0812002 	add	r2, r1, r2
  102f54:	e24b1901 	sub	r1, fp, #16384	; 0x4000
  102f58:	e2411004 	sub	r1, r1, #4
  102f5c:	e1a02182 	lsl	r2, r2, #3
  102f60:	e0812002 	add	r2, r1, r2
  102f64:	e2422010 	sub	r2, r2, #16
  102f68:	edd21b00 	vldr	d17, [r2]
  102f6c:	e51b2008 	ldr	r2, [fp, #-8]
  102f70:	e1a01282 	lsl	r1, r2, #5
  102f74:	e51b200c 	ldr	r2, [fp, #-12]
  102f78:	e0812002 	add	r2, r1, r2
  102f7c:	e24b1a02 	sub	r1, fp, #8192	; 0x2000
  102f80:	e2411004 	sub	r1, r1, #4
  102f84:	e1a02182 	lsl	r2, r2, #3
  102f88:	e0812002 	add	r2, r1, r2
  102f8c:	e2422010 	sub	r2, r2, #16
  102f90:	edd20b00 	vldr	d16, [r2]
  102f94:	ee710ba0 	vadd.f64	d16, d17, d16
  102f98:	edc30b00 	vstr	d16, [r3]
  102f9c:	e51b3008 	ldr	r3, [fp, #-8]
  102fa0:	e2833021 	add	r3, r3, #33	; 0x21
  102fa4:	e1a02283 	lsl	r2, r3, #5
  102fa8:	e51b300c 	ldr	r3, [fp, #-12]
  102fac:	e0823003 	add	r3, r2, r3
  102fb0:	e1a03183 	lsl	r3, r3, #3
  102fb4:	e24b2901 	sub	r2, fp, #16384	; 0x4000
  102fb8:	e2422004 	sub	r2, r2, #4
  102fbc:	e512202c 	ldr	r2, [r2, #-44]	; 0xffffffd4
  102fc0:	e0823003 	add	r3, r2, r3
  102fc4:	e51b2008 	ldr	r2, [fp, #-8]
  102fc8:	e1a01282 	lsl	r1, r2, #5
  102fcc:	e51b200c 	ldr	r2, [fp, #-12]
  102fd0:	e0812002 	add	r2, r1, r2
  102fd4:	e24b1901 	sub	r1, fp, #16384	; 0x4000
  102fd8:	e2411004 	sub	r1, r1, #4
  102fdc:	e1a02182 	lsl	r2, r2, #3
  102fe0:	e0812002 	add	r2, r1, r2
  102fe4:	e2422010 	sub	r2, r2, #16
  102fe8:	edd21b00 	vldr	d17, [r2]
  102fec:	e51b2008 	ldr	r2, [fp, #-8]
  102ff0:	e1a01282 	lsl	r1, r2, #5
  102ff4:	e51b200c 	ldr	r2, [fp, #-12]
  102ff8:	e0812002 	add	r2, r1, r2
  102ffc:	e24b1a02 	sub	r1, fp, #8192	; 0x2000
  103000:	e2411004 	sub	r1, r1, #4
  103004:	e1a02182 	lsl	r2, r2, #3
  103008:	e0812002 	add	r2, r1, r2
  10300c:	e2422010 	sub	r2, r2, #16
  103010:	edd20b00 	vldr	d16, [r2]
  103014:	ee710be0 	vsub.f64	d16, d17, d16
  103018:	edc30b00 	vstr	d16, [r3]
  10301c:	e51b300c 	ldr	r3, [fp, #-12]
  103020:	e2833001 	add	r3, r3, #1
  103024:	e50b300c 	str	r3, [fp, #-12]
  103028:	e51b300c 	ldr	r3, [fp, #-12]
  10302c:	e353001f 	cmp	r3, #31
  103030:	daffffa8 	ble	102ed8 <b_sigmas+0x180>
  103034:	e51b3008 	ldr	r3, [fp, #-8]
  103038:	e2833001 	add	r3, r3, #1
  10303c:	e50b3008 	str	r3, [fp, #-8]
  103040:	e51b3008 	ldr	r3, [fp, #-8]
  103044:	e353001f 	cmp	r3, #31
  103048:	daffff91 	ble	102e94 <b_sigmas+0x13c>
  10304c:	e14b21d4 	ldrd	r2, [fp, #-20]	; 0xffffffec
  103050:	e1a00002 	mov	r0, r2
  103054:	e1a01003 	mov	r1, r3
  103058:	e24bd004 	sub	sp, fp, #4
  10305c:	e8bd8800 	pop	{fp, pc}
  103060:	4000a562 	.word	0x4000a562
  103064:	3f772ba4 	.word	0x3f772ba4

00103068 <sigmas>:
  103068:	e92d4800 	push	{fp, lr}
  10306c:	e28db004 	add	fp, sp, #4
  103070:	e24dd901 	sub	sp, sp, #16384	; 0x4000
  103074:	e24dd018 	sub	sp, sp, #24
  103078:	e24bc901 	sub	ip, fp, #16384	; 0x4000
  10307c:	e24cc004 	sub	ip, ip, #4
  103080:	e50c000c 	str	r0, [ip, #-12]
  103084:	e24b0901 	sub	r0, fp, #16384	; 0x4000
  103088:	e2400004 	sub	r0, r0, #4
  10308c:	e5001010 	str	r1, [r0, #-16]
  103090:	e24b1901 	sub	r1, fp, #16384	; 0x4000
  103094:	e2411004 	sub	r1, r1, #4
  103098:	e2411010 	sub	r1, r1, #16
  10309c:	e14120f8 	strd	r2, [r1, #-8]
  1030a0:	e24b3901 	sub	r3, fp, #16384	; 0x4000
  1030a4:	e2433004 	sub	r3, r3, #4
  1030a8:	e1a01003 	mov	r1, r3
  1030ac:	e24b3a02 	sub	r3, fp, #8192	; 0x2000
  1030b0:	e2433004 	sub	r3, r3, #4
  1030b4:	e2433008 	sub	r3, r3, #8
  1030b8:	e3a02a02 	mov	r2, #8192	; 0x2000
  1030bc:	e5111010 	ldr	r1, [r1, #-16]
  1030c0:	e1a00003 	mov	r0, r3
  1030c4:	eb001581 	bl	1086d0 <memcpy>
  1030c8:	e24b3a02 	sub	r3, fp, #8192	; 0x2000
  1030cc:	e2433004 	sub	r3, r3, #4
  1030d0:	e2433008 	sub	r3, r3, #8
  1030d4:	e1a00003 	mov	r0, r3
  1030d8:	ebfffd41 	bl	1025e4 <Cholesky>
  1030dc:	e3a03000 	mov	r3, #0
  1030e0:	e50b3008 	str	r3, [fp, #-8]
  1030e4:	ea000017 	b	103148 <sigmas+0xe0>
  1030e8:	e24b3a02 	sub	r3, fp, #8192	; 0x2000
  1030ec:	e2433004 	sub	r3, r3, #4
  1030f0:	e1a02003 	mov	r2, r3
  1030f4:	e51b3008 	ldr	r3, [fp, #-8]
  1030f8:	e1a03183 	lsl	r3, r3, #3
  1030fc:	e0823003 	add	r3, r2, r3
  103100:	e2433008 	sub	r3, r3, #8
  103104:	edd31b00 	vldr	d17, [r3]
  103108:	e24b3901 	sub	r3, fp, #16384	; 0x4000
  10310c:	e2433004 	sub	r3, r3, #4
  103110:	e2433010 	sub	r3, r3, #16
  103114:	ed530b02 	vldr	d16, [r3, #-8]
  103118:	ee610ba0 	vmul.f64	d16, d17, d16
  10311c:	e24b3a02 	sub	r3, fp, #8192	; 0x2000
  103120:	e2433004 	sub	r3, r3, #4
  103124:	e1a02003 	mov	r2, r3
  103128:	e51b3008 	ldr	r3, [fp, #-8]
  10312c:	e1a03183 	lsl	r3, r3, #3
  103130:	e0823003 	add	r3, r2, r3
  103134:	e2433008 	sub	r3, r3, #8
  103138:	edc30b00 	vstr	d16, [r3]
  10313c:	e51b3008 	ldr	r3, [fp, #-8]
  103140:	e2833001 	add	r3, r3, #1
  103144:	e50b3008 	str	r3, [fp, #-8]
  103148:	e51b3008 	ldr	r3, [fp, #-8]
  10314c:	e3530b01 	cmp	r3, #1024	; 0x400
  103150:	baffffe4 	blt	1030e8 <sigmas+0x80>
  103154:	e3a03000 	mov	r3, #0
  103158:	e50b3008 	str	r3, [fp, #-8]
  10315c:	ea000064 	b	1032f4 <sigmas+0x28c>
  103160:	e51b3008 	ldr	r3, [fp, #-8]
  103164:	e1a03183 	lsl	r3, r3, #3
  103168:	e59b2004 	ldr	r2, [fp, #4]
  10316c:	e0821003 	add	r1, r2, r3
  103170:	e51b3008 	ldr	r3, [fp, #-8]
  103174:	e1a03183 	lsl	r3, r3, #3
  103178:	e24b2901 	sub	r2, fp, #16384	; 0x4000
  10317c:	e2422004 	sub	r2, r2, #4
  103180:	e512200c 	ldr	r2, [r2, #-12]
  103184:	e0823003 	add	r3, r2, r3
  103188:	e1c320d0 	ldrd	r2, [r3]
  10318c:	e1c120f0 	strd	r2, [r1]
  103190:	e3a03000 	mov	r3, #0
  103194:	e50b300c 	str	r3, [fp, #-12]
  103198:	ea00004f 	b	1032dc <sigmas+0x274>
  10319c:	e51b3008 	ldr	r3, [fp, #-8]
  1031a0:	e1a02283 	lsl	r2, r3, #5
  1031a4:	e51b300c 	ldr	r3, [fp, #-12]
  1031a8:	e0821003 	add	r1, r2, r3
  1031ac:	e51b300c 	ldr	r3, [fp, #-12]
  1031b0:	e1a03183 	lsl	r3, r3, #3
  1031b4:	e24b2901 	sub	r2, fp, #16384	; 0x4000
  1031b8:	e2422004 	sub	r2, r2, #4
  1031bc:	e512200c 	ldr	r2, [r2, #-12]
  1031c0:	e0823003 	add	r3, r2, r3
  1031c4:	e1c320d0 	ldrd	r2, [r3]
  1031c8:	e24b0901 	sub	r0, fp, #16384	; 0x4000
  1031cc:	e2400004 	sub	r0, r0, #4
  1031d0:	e1a01181 	lsl	r1, r1, #3
  1031d4:	e0801001 	add	r1, r0, r1
  1031d8:	e2411008 	sub	r1, r1, #8
  1031dc:	e1c120f0 	strd	r2, [r1]
  1031e0:	e51b3008 	ldr	r3, [fp, #-8]
  1031e4:	e2833001 	add	r3, r3, #1
  1031e8:	e1a02283 	lsl	r2, r3, #5
  1031ec:	e51b300c 	ldr	r3, [fp, #-12]
  1031f0:	e0823003 	add	r3, r2, r3
  1031f4:	e1a03183 	lsl	r3, r3, #3
  1031f8:	e59b2004 	ldr	r2, [fp, #4]
  1031fc:	e0823003 	add	r3, r2, r3
  103200:	e51b2008 	ldr	r2, [fp, #-8]
  103204:	e1a01282 	lsl	r1, r2, #5
  103208:	e51b200c 	ldr	r2, [fp, #-12]
  10320c:	e0812002 	add	r2, r1, r2
  103210:	e24b1901 	sub	r1, fp, #16384	; 0x4000
  103214:	e2411004 	sub	r1, r1, #4
  103218:	e1a02182 	lsl	r2, r2, #3
  10321c:	e0812002 	add	r2, r1, r2
  103220:	e2422008 	sub	r2, r2, #8
  103224:	edd21b00 	vldr	d17, [r2]
  103228:	e51b2008 	ldr	r2, [fp, #-8]
  10322c:	e1a01282 	lsl	r1, r2, #5
  103230:	e51b200c 	ldr	r2, [fp, #-12]
  103234:	e0812002 	add	r2, r1, r2
  103238:	e24b1a02 	sub	r1, fp, #8192	; 0x2000
  10323c:	e2411004 	sub	r1, r1, #4
  103240:	e1a02182 	lsl	r2, r2, #3
  103244:	e0812002 	add	r2, r1, r2
  103248:	e2422008 	sub	r2, r2, #8
  10324c:	edd20b00 	vldr	d16, [r2]
  103250:	ee710ba0 	vadd.f64	d16, d17, d16
  103254:	edc30b00 	vstr	d16, [r3]
  103258:	e51b3008 	ldr	r3, [fp, #-8]
  10325c:	e2833021 	add	r3, r3, #33	; 0x21
  103260:	e1a02283 	lsl	r2, r3, #5
  103264:	e51b300c 	ldr	r3, [fp, #-12]
  103268:	e0823003 	add	r3, r2, r3
  10326c:	e1a03183 	lsl	r3, r3, #3
  103270:	e59b2004 	ldr	r2, [fp, #4]
  103274:	e0823003 	add	r3, r2, r3
  103278:	e51b2008 	ldr	r2, [fp, #-8]
  10327c:	e1a01282 	lsl	r1, r2, #5
  103280:	e51b200c 	ldr	r2, [fp, #-12]
  103284:	e0812002 	add	r2, r1, r2
  103288:	e24b1901 	sub	r1, fp, #16384	; 0x4000
  10328c:	e2411004 	sub	r1, r1, #4
  103290:	e1a02182 	lsl	r2, r2, #3
  103294:	e0812002 	add	r2, r1, r2
  103298:	e2422008 	sub	r2, r2, #8
  10329c:	edd21b00 	vldr	d17, [r2]
  1032a0:	e51b2008 	ldr	r2, [fp, #-8]
  1032a4:	e1a01282 	lsl	r1, r2, #5
  1032a8:	e51b200c 	ldr	r2, [fp, #-12]
  1032ac:	e0812002 	add	r2, r1, r2
  1032b0:	e24b1a02 	sub	r1, fp, #8192	; 0x2000
  1032b4:	e2411004 	sub	r1, r1, #4
  1032b8:	e1a02182 	lsl	r2, r2, #3
  1032bc:	e0812002 	add	r2, r1, r2
  1032c0:	e2422008 	sub	r2, r2, #8
  1032c4:	edd20b00 	vldr	d16, [r2]
  1032c8:	ee710be0 	vsub.f64	d16, d17, d16
  1032cc:	edc30b00 	vstr	d16, [r3]
  1032d0:	e51b300c 	ldr	r3, [fp, #-12]
  1032d4:	e2833001 	add	r3, r3, #1
  1032d8:	e50b300c 	str	r3, [fp, #-12]
  1032dc:	e51b300c 	ldr	r3, [fp, #-12]
  1032e0:	e353001f 	cmp	r3, #31
  1032e4:	daffffac 	ble	10319c <sigmas+0x134>
  1032e8:	e51b3008 	ldr	r3, [fp, #-8]
  1032ec:	e2833001 	add	r3, r3, #1
  1032f0:	e50b3008 	str	r3, [fp, #-8]
  1032f4:	e51b3008 	ldr	r3, [fp, #-8]
  1032f8:	e353001f 	cmp	r3, #31
  1032fc:	daffff97 	ble	103160 <sigmas+0xf8>
  103300:	e320f000 	nop	{0}
  103304:	e24bd004 	sub	sp, fp, #4
  103308:	e8bd8800 	pop	{fp, pc}

0010330c <b_ukf>:
  10330c:	e92d4800 	push	{fp, lr}
  103310:	e28db004 	add	fp, sp, #4
  103314:	e24ddb4a 	sub	sp, sp, #75776	; 0x12800
  103318:	e24ddf9e 	sub	sp, sp, #632	; 0x278
  10331c:	e24bca12 	sub	ip, fp, #73728	; 0x12000
  103320:	e24cc004 	sub	ip, ip, #4
  103324:	e50c0a54 	str	r0, [ip, #-2644]	; 0xfffff5ac
  103328:	e24b0a12 	sub	r0, fp, #73728	; 0x12000
  10332c:	e2400004 	sub	r0, r0, #4
  103330:	e5001a58 	str	r1, [r0, #-2648]	; 0xfffff5a8
  103334:	e24b1b4a 	sub	r1, fp, #75776	; 0x12800
  103338:	e2411004 	sub	r1, r1, #4
  10333c:	e2411e26 	sub	r1, r1, #608	; 0x260
  103340:	e1c120f0 	strd	r2, [r1]
  103344:	ebfffbed 	bl	102300 <pmu_counter_reset>
  103348:	e24b3c41 	sub	r3, fp, #16640	; 0x4100
  10334c:	e2433004 	sub	r3, r3, #4
  103350:	e2433028 	sub	r3, r3, #40	; 0x28
  103354:	e24b2a12 	sub	r2, fp, #73728	; 0x12000
  103358:	e2422004 	sub	r2, r2, #4
  10335c:	e1a01002 	mov	r1, r2
  103360:	e24b2a12 	sub	r2, fp, #73728	; 0x12000
  103364:	e2422004 	sub	r2, r2, #4
  103368:	e1a00002 	mov	r0, r2
  10336c:	e1a02003 	mov	r2, r3
  103370:	e5111a58 	ldr	r1, [r1, #-2648]	; 0xfffff5a8
  103374:	e5100a54 	ldr	r0, [r0, #-2644]	; 0xfffff5ac
  103378:	ebfffe76 	bl	102d58 <b_sigmas>
  10337c:	e14b01fc 	strd	r0, [fp, #-28]	; 0xffffffe4
  103380:	e24b3b4a 	sub	r3, fp, #75776	; 0x12800
  103384:	e2433004 	sub	r3, r3, #4
  103388:	e2433e25 	sub	r3, r3, #592	; 0x250
  10338c:	e1a00003 	mov	r0, r3
  103390:	ebfffc06 	bl	1023b0 <pmu_counter_read_ns>
  103394:	e24b3b4a 	sub	r3, fp, #75776	; 0x12800
  103398:	e2433004 	sub	r3, r3, #4
  10339c:	e2433e25 	sub	r3, r3, #592	; 0x250
  1033a0:	e1c320d0 	ldrd	r2, [r3]
  1033a4:	e30105b8 	movw	r0, #5560	; 0x15b8
  1033a8:	e3400011 	movt	r0, #17
  1033ac:	eb001566 	bl	10894c <printf>
  1033b0:	e14b21dc 	ldrd	r2, [fp, #-28]	; 0xffffffe4
  1033b4:	e30105ec 	movw	r0, #5612	; 0x15ec
  1033b8:	e3400011 	movt	r0, #17
  1033bc:	eb001562 	bl	10894c <printf>
  1033c0:	ebfffbce 	bl	102300 <pmu_counter_reset>
  1033c4:	e24b0c41 	sub	r0, fp, #16640	; 0x4100
  1033c8:	e2400004 	sub	r0, r0, #4
  1033cc:	e2400028 	sub	r0, r0, #40	; 0x28
  1033d0:	e24b3ce3 	sub	r3, fp, #58112	; 0xe300
  1033d4:	e2433004 	sub	r3, r3, #4
  1033d8:	e2433028 	sub	r3, r3, #40	; 0x28
  1033dc:	e58d300c 	str	r3, [sp, #12]
  1033e0:	e24b3ca2 	sub	r3, fp, #41472	; 0xa200
  1033e4:	e2433004 	sub	r3, r3, #4
  1033e8:	e2433028 	sub	r3, r3, #40	; 0x28
  1033ec:	e58d3008 	str	r3, [sp, #8]
  1033f0:	e24b3c82 	sub	r3, fp, #33280	; 0x8200
  1033f4:	e2433004 	sub	r3, r3, #4
  1033f8:	e2433028 	sub	r3, r3, #40	; 0x28
  1033fc:	e58d3004 	str	r3, [sp, #4]
  103400:	e24b3a12 	sub	r3, fp, #73728	; 0x12000
  103404:	e2433004 	sub	r3, r3, #4
  103408:	e5133a54 	ldr	r3, [r3, #-2644]	; 0xfffff5ac
  10340c:	e58d3000 	str	r3, [sp]
  103410:	e3013ad8 	movw	r3, #6872	; 0x1ad8
  103414:	e3403011 	movt	r3, #17
  103418:	e30128d0 	movw	r2, #6352	; 0x18d0
  10341c:	e3402011 	movt	r2, #17
  103420:	e30116c8 	movw	r1, #5832	; 0x16c8
  103424:	e3401011 	movt	r1, #17
  103428:	eb00028e 	bl	103e68 <b_ut>
  10342c:	e24b3b4a 	sub	r3, fp, #75776	; 0x12800
  103430:	e2433004 	sub	r3, r3, #4
  103434:	e2433e25 	sub	r3, r3, #592	; 0x250
  103438:	e1a00003 	mov	r0, r3
  10343c:	ebfffbdb 	bl	1023b0 <pmu_counter_read_ns>
  103440:	e24b3b4a 	sub	r3, fp, #75776	; 0x12800
  103444:	e2433004 	sub	r3, r3, #4
  103448:	e2433e25 	sub	r3, r3, #592	; 0x250
  10344c:	e1c320d0 	ldrd	r2, [r3]
  103450:	e3010620 	movw	r0, #5664	; 0x1620
  103454:	e3400011 	movt	r0, #17
  103458:	eb00153b 	bl	10894c <printf>
  10345c:	ebfffba7 	bl	102300 <pmu_counter_reset>
  103460:	e24b0c82 	sub	r0, fp, #33280	; 0x8200
  103464:	e2400004 	sub	r0, r0, #4
  103468:	e2400028 	sub	r0, r0, #40	; 0x28
  10346c:	e24b3ce7 	sub	r3, fp, #59136	; 0xe700
  103470:	e2433004 	sub	r3, r3, #4
  103474:	e2433048 	sub	r3, r3, #72	; 0x48
  103478:	e58d3014 	str	r3, [sp, #20]
  10347c:	e24b3ce5 	sub	r3, fp, #58624	; 0xe500
  103480:	e2433004 	sub	r3, r3, #4
  103484:	e2433040 	sub	r3, r3, #64	; 0x40
  103488:	e58d3010 	str	r3, [sp, #16]
  10348c:	e24b3ce5 	sub	r3, fp, #58624	; 0xe500
  103490:	e2433004 	sub	r3, r3, #4
  103494:	e2433038 	sub	r3, r3, #56	; 0x38
  103498:	e58d300c 	str	r3, [sp, #12]
  10349c:	e24b3ce3 	sub	r3, fp, #58112	; 0xe300
  1034a0:	e2433004 	sub	r3, r3, #4
  1034a4:	e2433030 	sub	r3, r3, #48	; 0x30
  1034a8:	e58d3008 	str	r3, [sp, #8]
  1034ac:	e3a02000 	mov	r2, #0
  1034b0:	e3a03000 	mov	r3, #0
  1034b4:	e3433ff0 	movt	r3, #16368	; 0x3ff0
  1034b8:	e1cd20f0 	strd	r2, [sp]
  1034bc:	e30128d0 	movw	r2, #6352	; 0x18d0
  1034c0:	e3402011 	movt	r2, #17
  1034c4:	e30116c8 	movw	r1, #5832	; 0x16c8
  1034c8:	e3401011 	movt	r1, #17
  1034cc:	eb000393 	bl	104320 <c_ut>
  1034d0:	e24b3b4a 	sub	r3, fp, #75776	; 0x12800
  1034d4:	e2433004 	sub	r3, r3, #4
  1034d8:	e2433e25 	sub	r3, r3, #592	; 0x250
  1034dc:	e1a00003 	mov	r0, r3
  1034e0:	ebfffbb2 	bl	1023b0 <pmu_counter_read_ns>
  1034e4:	e24b3b4a 	sub	r3, fp, #75776	; 0x12800
  1034e8:	e2433004 	sub	r3, r3, #4
  1034ec:	e2433e25 	sub	r3, r3, #592	; 0x250
  1034f0:	e1c320d0 	ldrd	r2, [r3]
  1034f4:	e3010650 	movw	r0, #5712	; 0x1650
  1034f8:	e3400011 	movt	r0, #17
  1034fc:	eb001512 	bl	10894c <printf>
  103500:	ebfffb7e 	bl	102300 <pmu_counter_reset>
  103504:	e24b3ce5 	sub	r3, fp, #58624	; 0xe500
  103508:	e2433004 	sub	r3, r3, #4
  10350c:	e2433040 	sub	r3, r3, #64	; 0x40
  103510:	e1c320d0 	ldrd	r2, [r3]
  103514:	e1a00002 	mov	r0, r2
  103518:	e1a01003 	mov	r1, r3
  10351c:	eb000ee6 	bl	1070bc <inv>
  103520:	e14b02f4 	strd	r0, [fp, #-36]	; 0xffffffdc
  103524:	e24b3ce3 	sub	r3, fp, #58112	; 0xe300
  103528:	e2433004 	sub	r3, r3, #4
  10352c:	e2433030 	sub	r3, r3, #48	; 0x30
  103530:	edd30b00 	vldr	d16, [r3]
  103534:	e24b3b4a 	sub	r3, fp, #75776	; 0x12800
  103538:	e2433004 	sub	r3, r3, #4
  10353c:	e2433e26 	sub	r3, r3, #608	; 0x260
  103540:	edd31b00 	vldr	d17, [r3]
  103544:	ee710be0 	vsub.f64	d16, d17, d16
  103548:	ed4b0b0b 	vstr	d16, [fp, #-44]	; 0xffffffd4
  10354c:	e3a03000 	mov	r3, #0
  103550:	e50b3008 	str	r3, [fp, #-8]
  103554:	ea0000b0 	b	10381c <b_ukf+0x510>
  103558:	e24b3a12 	sub	r3, fp, #73728	; 0x12000
  10355c:	e2433004 	sub	r3, r3, #4
  103560:	e2433d29 	sub	r3, r3, #2624	; 0xa40
  103564:	e1a02003 	mov	r2, r3
  103568:	e51b3008 	ldr	r3, [fp, #-8]
  10356c:	e1a03183 	lsl	r3, r3, #3
  103570:	e0823003 	add	r3, r2, r3
  103574:	e2431008 	sub	r1, r3, #8
  103578:	e3a02000 	mov	r2, #0
  10357c:	e3a03000 	mov	r3, #0
  103580:	e1c120f0 	strd	r2, [r1]
  103584:	e3a03000 	mov	r3, #0
  103588:	e50b300c 	str	r3, [fp, #-12]
  10358c:	ea00006e 	b	10374c <b_ukf+0x440>
  103590:	e51b300c 	ldr	r3, [fp, #-12]
  103594:	e1a02283 	lsl	r2, r3, #5
  103598:	e51b3008 	ldr	r3, [fp, #-8]
  10359c:	e0823003 	add	r3, r2, r3
  1035a0:	e24b2a12 	sub	r2, fp, #73728	; 0x12000
  1035a4:	e2422004 	sub	r2, r2, #4
  1035a8:	e2422d21 	sub	r2, r2, #2112	; 0x840
  1035ac:	e1a03183 	lsl	r3, r3, #3
  1035b0:	e0823003 	add	r3, r2, r3
  1035b4:	e2431008 	sub	r1, r3, #8
  1035b8:	e3a02000 	mov	r2, #0
  1035bc:	e3a03000 	mov	r3, #0
  1035c0:	e1c120f0 	strd	r2, [r1]
  1035c4:	e3a03000 	mov	r3, #0
  1035c8:	e50b3010 	str	r3, [fp, #-16]
  1035cc:	ea000030 	b	103694 <b_ukf+0x388>
  1035d0:	e51b300c 	ldr	r3, [fp, #-12]
  1035d4:	e1a02283 	lsl	r2, r3, #5
  1035d8:	e51b3008 	ldr	r3, [fp, #-8]
  1035dc:	e0821003 	add	r1, r2, r3
  1035e0:	e51b300c 	ldr	r3, [fp, #-12]
  1035e4:	e1a02283 	lsl	r2, r3, #5
  1035e8:	e51b3008 	ldr	r3, [fp, #-8]
  1035ec:	e0823003 	add	r3, r2, r3
  1035f0:	e24b2a12 	sub	r2, fp, #73728	; 0x12000
  1035f4:	e2422004 	sub	r2, r2, #4
  1035f8:	e2422d21 	sub	r2, r2, #2112	; 0x840
  1035fc:	e1a03183 	lsl	r3, r3, #3
  103600:	e0823003 	add	r3, r2, r3
  103604:	e2433008 	sub	r3, r3, #8
  103608:	edd31b00 	vldr	d17, [r3]
  10360c:	e51b3010 	ldr	r3, [fp, #-16]
  103610:	e1a02283 	lsl	r2, r3, #5
  103614:	e51b3008 	ldr	r3, [fp, #-8]
  103618:	e0823003 	add	r3, r2, r3
  10361c:	e24b2a0e 	sub	r2, fp, #57344	; 0xe000
  103620:	e2422004 	sub	r2, r2, #4
  103624:	e1a03183 	lsl	r3, r3, #3
  103628:	e0823003 	add	r3, r2, r3
  10362c:	e2433fca 	sub	r3, r3, #808	; 0x328
  103630:	edd32b00 	vldr	d18, [r3]
  103634:	e51b200c 	ldr	r2, [fp, #-12]
  103638:	e1a03002 	mov	r3, r2
  10363c:	e1a03303 	lsl	r3, r3, #6
  103640:	e0832002 	add	r2, r3, r2
  103644:	e51b3010 	ldr	r3, [fp, #-16]
  103648:	e0822003 	add	r2, r2, r3
  10364c:	e3033ad8 	movw	r3, #15064	; 0x3ad8
  103650:	e3403011 	movt	r3, #17
  103654:	e1a02182 	lsl	r2, r2, #3
  103658:	e0833002 	add	r3, r3, r2
  10365c:	edd30b00 	vldr	d16, [r3]
  103660:	ee620ba0 	vmul.f64	d16, d18, d16
  103664:	ee710ba0 	vadd.f64	d16, d17, d16
  103668:	e24b3a12 	sub	r3, fp, #73728	; 0x12000
  10366c:	e2433004 	sub	r3, r3, #4
  103670:	e2433d21 	sub	r3, r3, #2112	; 0x840
  103674:	e1a02003 	mov	r2, r3
  103678:	e1a03181 	lsl	r3, r1, #3
  10367c:	e0823003 	add	r3, r2, r3
  103680:	e2433008 	sub	r3, r3, #8
  103684:	edc30b00 	vstr	d16, [r3]
  103688:	e51b3010 	ldr	r3, [fp, #-16]
  10368c:	e2833001 	add	r3, r3, #1
  103690:	e50b3010 	str	r3, [fp, #-16]
  103694:	e51b3010 	ldr	r3, [fp, #-16]
  103698:	e3530040 	cmp	r3, #64	; 0x40
  10369c:	daffffcb 	ble	1035d0 <b_ukf+0x2c4>
  1036a0:	e24b3a12 	sub	r3, fp, #73728	; 0x12000
  1036a4:	e2433004 	sub	r3, r3, #4
  1036a8:	e2433d29 	sub	r3, r3, #2624	; 0xa40
  1036ac:	e1a02003 	mov	r2, r3
  1036b0:	e51b3008 	ldr	r3, [fp, #-8]
  1036b4:	e1a03183 	lsl	r3, r3, #3
  1036b8:	e0823003 	add	r3, r2, r3
  1036bc:	e2433008 	sub	r3, r3, #8
  1036c0:	edd31b00 	vldr	d17, [r3]
  1036c4:	e51b300c 	ldr	r3, [fp, #-12]
  1036c8:	e1a02283 	lsl	r2, r3, #5
  1036cc:	e51b3008 	ldr	r3, [fp, #-8]
  1036d0:	e0823003 	add	r3, r2, r3
  1036d4:	e24b2a12 	sub	r2, fp, #73728	; 0x12000
  1036d8:	e2422004 	sub	r2, r2, #4
  1036dc:	e2422d21 	sub	r2, r2, #2112	; 0x840
  1036e0:	e1a03183 	lsl	r3, r3, #3
  1036e4:	e0823003 	add	r3, r2, r3
  1036e8:	e2433008 	sub	r3, r3, #8
  1036ec:	edd32b00 	vldr	d18, [r3]
  1036f0:	e24b3a0e 	sub	r3, fp, #57344	; 0xe000
  1036f4:	e2433004 	sub	r3, r3, #4
  1036f8:	e2433d1d 	sub	r3, r3, #1856	; 0x740
  1036fc:	e1a02003 	mov	r2, r3
  103700:	e51b300c 	ldr	r3, [fp, #-12]
  103704:	e1a03183 	lsl	r3, r3, #3
  103708:	e0823003 	add	r3, r2, r3
  10370c:	e2433008 	sub	r3, r3, #8
  103710:	edd30b00 	vldr	d16, [r3]
  103714:	ee620ba0 	vmul.f64	d16, d18, d16
  103718:	ee710ba0 	vadd.f64	d16, d17, d16
  10371c:	e24b3a12 	sub	r3, fp, #73728	; 0x12000
  103720:	e2433004 	sub	r3, r3, #4
  103724:	e2433d29 	sub	r3, r3, #2624	; 0xa40
  103728:	e1a02003 	mov	r2, r3
  10372c:	e51b3008 	ldr	r3, [fp, #-8]
  103730:	e1a03183 	lsl	r3, r3, #3
  103734:	e0823003 	add	r3, r2, r3
  103738:	e2433008 	sub	r3, r3, #8
  10373c:	edc30b00 	vstr	d16, [r3]
  103740:	e51b300c 	ldr	r3, [fp, #-12]
  103744:	e2833001 	add	r3, r3, #1
  103748:	e50b300c 	str	r3, [fp, #-12]
  10374c:	e51b300c 	ldr	r3, [fp, #-12]
  103750:	e3530040 	cmp	r3, #64	; 0x40
  103754:	daffff8d 	ble	103590 <b_ukf+0x284>
  103758:	e24b3a12 	sub	r3, fp, #73728	; 0x12000
  10375c:	e2433004 	sub	r3, r3, #4
  103760:	e2433d29 	sub	r3, r3, #2624	; 0xa40
  103764:	e1a02003 	mov	r2, r3
  103768:	e51b3008 	ldr	r3, [fp, #-8]
  10376c:	e1a03183 	lsl	r3, r3, #3
  103770:	e0823003 	add	r3, r2, r3
  103774:	e2433008 	sub	r3, r3, #8
  103778:	edd31b00 	vldr	d17, [r3]
  10377c:	ed5b0b09 	vldr	d16, [fp, #-36]	; 0xffffffdc
  103780:	ee610ba0 	vmul.f64	d16, d17, d16
  103784:	e24b3a12 	sub	r3, fp, #73728	; 0x12000
  103788:	e2433004 	sub	r3, r3, #4
  10378c:	e2433d25 	sub	r3, r3, #2368	; 0x940
  103790:	e1a02003 	mov	r2, r3
  103794:	e51b3008 	ldr	r3, [fp, #-8]
  103798:	e1a03183 	lsl	r3, r3, #3
  10379c:	e0823003 	add	r3, r2, r3
  1037a0:	e2433008 	sub	r3, r3, #8
  1037a4:	edc30b00 	vstr	d16, [r3]
  1037a8:	e51b3008 	ldr	r3, [fp, #-8]
  1037ac:	e1a03183 	lsl	r3, r3, #3
  1037b0:	e24b2a12 	sub	r2, fp, #73728	; 0x12000
  1037b4:	e2422004 	sub	r2, r2, #4
  1037b8:	e5122a54 	ldr	r2, [r2, #-2644]	; 0xfffff5ac
  1037bc:	e0823003 	add	r3, r2, r3
  1037c0:	e51b2008 	ldr	r2, [fp, #-8]
  1037c4:	e1a02182 	lsl	r2, r2, #3
  1037c8:	e24b1a12 	sub	r1, fp, #73728	; 0x12000
  1037cc:	e2411004 	sub	r1, r1, #4
  1037d0:	e5111a54 	ldr	r1, [r1, #-2644]	; 0xfffff5ac
  1037d4:	e0812002 	add	r2, r1, r2
  1037d8:	edd21b00 	vldr	d17, [r2]
  1037dc:	e24b2a12 	sub	r2, fp, #73728	; 0x12000
  1037e0:	e2422004 	sub	r2, r2, #4
  1037e4:	e2422d25 	sub	r2, r2, #2368	; 0x940
  1037e8:	e1a01002 	mov	r1, r2
  1037ec:	e51b2008 	ldr	r2, [fp, #-8]
  1037f0:	e1a02182 	lsl	r2, r2, #3
  1037f4:	e0812002 	add	r2, r1, r2
  1037f8:	e2422008 	sub	r2, r2, #8
  1037fc:	edd22b00 	vldr	d18, [r2]
  103800:	ed5b0b0b 	vldr	d16, [fp, #-44]	; 0xffffffd4
  103804:	ee620ba0 	vmul.f64	d16, d18, d16
  103808:	ee710ba0 	vadd.f64	d16, d17, d16
  10380c:	edc30b00 	vstr	d16, [r3]
  103810:	e51b3008 	ldr	r3, [fp, #-8]
  103814:	e2833001 	add	r3, r3, #1
  103818:	e50b3008 	str	r3, [fp, #-8]
  10381c:	e51b3008 	ldr	r3, [fp, #-8]
  103820:	e353001f 	cmp	r3, #31
  103824:	daffff4b 	ble	103558 <b_ukf+0x24c>
  103828:	e3a03000 	mov	r3, #0
  10382c:	e50b300c 	str	r3, [fp, #-12]
  103830:	ea000033 	b	103904 <b_ukf+0x5f8>
  103834:	e3a03000 	mov	r3, #0
  103838:	e50b3010 	str	r3, [fp, #-16]
  10383c:	ea00002a 	b	1038ec <b_ukf+0x5e0>
  103840:	e51b3010 	ldr	r3, [fp, #-16]
  103844:	e1a02283 	lsl	r2, r3, #5
  103848:	e51b300c 	ldr	r3, [fp, #-12]
  10384c:	e0823003 	add	r3, r2, r3
  103850:	e1a03183 	lsl	r3, r3, #3
  103854:	e24b2a12 	sub	r2, fp, #73728	; 0x12000
  103858:	e2422004 	sub	r2, r2, #4
  10385c:	e5122a58 	ldr	r2, [r2, #-2648]	; 0xfffff5a8
  103860:	e0823003 	add	r3, r2, r3
  103864:	e51b2010 	ldr	r2, [fp, #-16]
  103868:	e1a01282 	lsl	r1, r2, #5
  10386c:	e51b200c 	ldr	r2, [fp, #-12]
  103870:	e0812002 	add	r2, r1, r2
  103874:	e24b1a0a 	sub	r1, fp, #40960	; 0xa000
  103878:	e2411004 	sub	r1, r1, #4
  10387c:	e1a02182 	lsl	r2, r2, #3
  103880:	e0812002 	add	r2, r1, r2
  103884:	e2422f8a 	sub	r2, r2, #552	; 0x228
  103888:	edd21b00 	vldr	d17, [r2]
  10388c:	e24b2a12 	sub	r2, fp, #73728	; 0x12000
  103890:	e2422004 	sub	r2, r2, #4
  103894:	e2422d25 	sub	r2, r2, #2368	; 0x940
  103898:	e1a01002 	mov	r1, r2
  10389c:	e51b200c 	ldr	r2, [fp, #-12]
  1038a0:	e1a02182 	lsl	r2, r2, #3
  1038a4:	e0812002 	add	r2, r1, r2
  1038a8:	e2422008 	sub	r2, r2, #8
  1038ac:	edd22b00 	vldr	d18, [r2]
  1038b0:	e24b2a12 	sub	r2, fp, #73728	; 0x12000
  1038b4:	e2422004 	sub	r2, r2, #4
  1038b8:	e2422d29 	sub	r2, r2, #2624	; 0xa40
  1038bc:	e1a01002 	mov	r1, r2
  1038c0:	e51b2010 	ldr	r2, [fp, #-16]
  1038c4:	e1a02182 	lsl	r2, r2, #3
  1038c8:	e0812002 	add	r2, r1, r2
  1038cc:	e2422008 	sub	r2, r2, #8
  1038d0:	edd20b00 	vldr	d16, [r2]
  1038d4:	ee620ba0 	vmul.f64	d16, d18, d16
  1038d8:	ee710be0 	vsub.f64	d16, d17, d16
  1038dc:	edc30b00 	vstr	d16, [r3]
  1038e0:	e51b3010 	ldr	r3, [fp, #-16]
  1038e4:	e2833001 	add	r3, r3, #1
  1038e8:	e50b3010 	str	r3, [fp, #-16]
  1038ec:	e51b3010 	ldr	r3, [fp, #-16]
  1038f0:	e353001f 	cmp	r3, #31
  1038f4:	daffffd1 	ble	103840 <b_ukf+0x534>
  1038f8:	e51b300c 	ldr	r3, [fp, #-12]
  1038fc:	e2833001 	add	r3, r3, #1
  103900:	e50b300c 	str	r3, [fp, #-12]
  103904:	e51b300c 	ldr	r3, [fp, #-12]
  103908:	e353001f 	cmp	r3, #31
  10390c:	daffffc8 	ble	103834 <b_ukf+0x528>
  103910:	e24b3b4a 	sub	r3, fp, #75776	; 0x12800
  103914:	e2433004 	sub	r3, r3, #4
  103918:	e2433e25 	sub	r3, r3, #592	; 0x250
  10391c:	e1a00003 	mov	r0, r3
  103920:	ebfffaa2 	bl	1023b0 <pmu_counter_read_ns>
  103924:	e24b3b4a 	sub	r3, fp, #75776	; 0x12800
  103928:	e2433004 	sub	r3, r3, #4
  10392c:	e2433e25 	sub	r3, r3, #592	; 0x250
  103930:	e1c320d0 	ldrd	r2, [r3]
  103934:	e3010680 	movw	r0, #5760	; 0x1680
  103938:	e3400011 	movt	r0, #17
  10393c:	eb001402 	bl	10894c <printf>
  103940:	e320f000 	nop	{0}
  103944:	e24bd004 	sub	sp, fp, #4
  103948:	e8bd8800 	pop	{fp, pc}

0010394c <ukf>:
  10394c:	e92d4800 	push	{fp, lr}
  103950:	e28db004 	add	fp, sp, #4
  103954:	e24ddb4a 	sub	sp, sp, #75776	; 0x12800
  103958:	e24ddf9a 	sub	sp, sp, #616	; 0x268
  10395c:	e24bca12 	sub	ip, fp, #73728	; 0x12000
  103960:	e24cc004 	sub	ip, ip, #4
  103964:	e50c0a44 	str	r0, [ip, #-2628]	; 0xfffff5bc
  103968:	e24b0a12 	sub	r0, fp, #73728	; 0x12000
  10396c:	e2400004 	sub	r0, r0, #4
  103970:	e5001a48 	str	r1, [r0, #-2632]	; 0xfffff5b8
  103974:	e24b1b4a 	sub	r1, fp, #75776	; 0x12800
  103978:	e2411004 	sub	r1, r1, #4
  10397c:	e2411e25 	sub	r1, r1, #592	; 0x250
  103980:	e1c120f0 	strd	r2, [r1]
  103984:	e24b3c41 	sub	r3, fp, #16640	; 0x4100
  103988:	e2433004 	sub	r3, r3, #4
  10398c:	e2433020 	sub	r3, r3, #32
  103990:	e24b2a12 	sub	r2, fp, #73728	; 0x12000
  103994:	e2422004 	sub	r2, r2, #4
  103998:	e1a01002 	mov	r1, r2
  10399c:	e24b2a12 	sub	r2, fp, #73728	; 0x12000
  1039a0:	e2422004 	sub	r2, r2, #4
  1039a4:	e1a00002 	mov	r0, r2
  1039a8:	e1a02003 	mov	r2, r3
  1039ac:	e5111a48 	ldr	r1, [r1, #-2632]	; 0xfffff5b8
  1039b0:	e5100a44 	ldr	r0, [r0, #-2628]	; 0xfffff5bc
  1039b4:	ebfffce7 	bl	102d58 <b_sigmas>
  1039b8:	e24b0c41 	sub	r0, fp, #16640	; 0x4100
  1039bc:	e2400004 	sub	r0, r0, #4
  1039c0:	e2400020 	sub	r0, r0, #32
  1039c4:	e24b3ce3 	sub	r3, fp, #58112	; 0xe300
  1039c8:	e2433004 	sub	r3, r3, #4
  1039cc:	e2433020 	sub	r3, r3, #32
  1039d0:	e58d300c 	str	r3, [sp, #12]
  1039d4:	e24b3ca2 	sub	r3, fp, #41472	; 0xa200
  1039d8:	e2433004 	sub	r3, r3, #4
  1039dc:	e2433020 	sub	r3, r3, #32
  1039e0:	e58d3008 	str	r3, [sp, #8]
  1039e4:	e24b3c82 	sub	r3, fp, #33280	; 0x8200
  1039e8:	e2433004 	sub	r3, r3, #4
  1039ec:	e2433020 	sub	r3, r3, #32
  1039f0:	e58d3004 	str	r3, [sp, #4]
  1039f4:	e24b3a12 	sub	r3, fp, #73728	; 0x12000
  1039f8:	e2433004 	sub	r3, r3, #4
  1039fc:	e5133a44 	ldr	r3, [r3, #-2628]	; 0xfffff5bc
  103a00:	e58d3000 	str	r3, [sp]
  103a04:	e59b3004 	ldr	r3, [fp, #4]
  103a08:	e30c20e8 	movw	r2, #49384	; 0xc0e8
  103a0c:	e3402011 	movt	r2, #17
  103a10:	e30b1ee0 	movw	r1, #48864	; 0xbee0
  103a14:	e3401011 	movt	r1, #17
  103a18:	eb000112 	bl	103e68 <b_ut>
  103a1c:	e24b0c82 	sub	r0, fp, #33280	; 0x8200
  103a20:	e2400004 	sub	r0, r0, #4
  103a24:	e2400020 	sub	r0, r0, #32
  103a28:	e24b3ce7 	sub	r3, fp, #59136	; 0xe700
  103a2c:	e2433004 	sub	r3, r3, #4
  103a30:	e2433040 	sub	r3, r3, #64	; 0x40
  103a34:	e58d3014 	str	r3, [sp, #20]
  103a38:	e24b3ce5 	sub	r3, fp, #58624	; 0xe500
  103a3c:	e2433004 	sub	r3, r3, #4
  103a40:	e2433038 	sub	r3, r3, #56	; 0x38
  103a44:	e58d3010 	str	r3, [sp, #16]
  103a48:	e24b3ce5 	sub	r3, fp, #58624	; 0xe500
  103a4c:	e2433004 	sub	r3, r3, #4
  103a50:	e2433030 	sub	r3, r3, #48	; 0x30
  103a54:	e58d300c 	str	r3, [sp, #12]
  103a58:	e24b3ce3 	sub	r3, fp, #58112	; 0xe300
  103a5c:	e2433004 	sub	r3, r3, #4
  103a60:	e2433028 	sub	r3, r3, #40	; 0x28
  103a64:	e58d3008 	str	r3, [sp, #8]
  103a68:	e1cb20dc 	ldrd	r2, [fp, #12]
  103a6c:	e1cd20f0 	strd	r2, [sp]
  103a70:	e30c20e8 	movw	r2, #49384	; 0xc0e8
  103a74:	e3402011 	movt	r2, #17
  103a78:	e30b1ee0 	movw	r1, #48864	; 0xbee0
  103a7c:	e3401011 	movt	r1, #17
  103a80:	eb000226 	bl	104320 <c_ut>
  103a84:	e24b3ce5 	sub	r3, fp, #58624	; 0xe500
  103a88:	e2433004 	sub	r3, r3, #4
  103a8c:	e2433030 	sub	r3, r3, #48	; 0x30
  103a90:	e14320d8 	ldrd	r2, [r3, #-8]
  103a94:	e1a00002 	mov	r0, r2
  103a98:	e1a01003 	mov	r1, r3
  103a9c:	eb000d86 	bl	1070bc <inv>
  103aa0:	e14b01fc 	strd	r0, [fp, #-28]	; 0xffffffe4
  103aa4:	e24b3ce3 	sub	r3, fp, #58112	; 0xe300
  103aa8:	e2433004 	sub	r3, r3, #4
  103aac:	e2433020 	sub	r3, r3, #32
  103ab0:	ed530b02 	vldr	d16, [r3, #-8]
  103ab4:	e24b3b4a 	sub	r3, fp, #75776	; 0x12800
  103ab8:	e2433004 	sub	r3, r3, #4
  103abc:	e2433e25 	sub	r3, r3, #592	; 0x250
  103ac0:	edd31b00 	vldr	d17, [r3]
  103ac4:	ee710be0 	vsub.f64	d16, d17, d16
  103ac8:	ed4b0b09 	vstr	d16, [fp, #-36]	; 0xffffffdc
  103acc:	e3a03000 	mov	r3, #0
  103ad0:	e50b3008 	str	r3, [fp, #-8]
  103ad4:	ea0000a5 	b	103d70 <ukf+0x424>
  103ad8:	e24b3a12 	sub	r3, fp, #73728	; 0x12000
  103adc:	e2433004 	sub	r3, r3, #4
  103ae0:	e2433d29 	sub	r3, r3, #2624	; 0xa40
  103ae4:	e1a02003 	mov	r2, r3
  103ae8:	e51b3008 	ldr	r3, [fp, #-8]
  103aec:	e1a03183 	lsl	r3, r3, #3
  103af0:	e0821003 	add	r1, r2, r3
  103af4:	e3a02000 	mov	r2, #0
  103af8:	e3a03000 	mov	r3, #0
  103afc:	e1c120f0 	strd	r2, [r1]
  103b00:	e3a03000 	mov	r3, #0
  103b04:	e50b300c 	str	r3, [fp, #-12]
  103b08:	ea000067 	b	103cac <ukf+0x360>
  103b0c:	e51b300c 	ldr	r3, [fp, #-12]
  103b10:	e1a02283 	lsl	r2, r3, #5
  103b14:	e51b3008 	ldr	r3, [fp, #-8]
  103b18:	e0823003 	add	r3, r2, r3
  103b1c:	e24b2a12 	sub	r2, fp, #73728	; 0x12000
  103b20:	e2422004 	sub	r2, r2, #4
  103b24:	e2422d21 	sub	r2, r2, #2112	; 0x840
  103b28:	e1a03183 	lsl	r3, r3, #3
  103b2c:	e0821003 	add	r1, r2, r3
  103b30:	e3a02000 	mov	r2, #0
  103b34:	e3a03000 	mov	r3, #0
  103b38:	e1c120f0 	strd	r2, [r1]
  103b3c:	e3a03000 	mov	r3, #0
  103b40:	e50b3010 	str	r3, [fp, #-16]
  103b44:	ea00002e 	b	103c04 <ukf+0x2b8>
  103b48:	e51b300c 	ldr	r3, [fp, #-12]
  103b4c:	e1a02283 	lsl	r2, r3, #5
  103b50:	e51b3008 	ldr	r3, [fp, #-8]
  103b54:	e0821003 	add	r1, r2, r3
  103b58:	e51b300c 	ldr	r3, [fp, #-12]
  103b5c:	e1a02283 	lsl	r2, r3, #5
  103b60:	e51b3008 	ldr	r3, [fp, #-8]
  103b64:	e0823003 	add	r3, r2, r3
  103b68:	e24b2a12 	sub	r2, fp, #73728	; 0x12000
  103b6c:	e2422004 	sub	r2, r2, #4
  103b70:	e2422d21 	sub	r2, r2, #2112	; 0x840
  103b74:	e1a03183 	lsl	r3, r3, #3
  103b78:	e0823003 	add	r3, r2, r3
  103b7c:	edd31b00 	vldr	d17, [r3]
  103b80:	e51b3010 	ldr	r3, [fp, #-16]
  103b84:	e1a02283 	lsl	r2, r3, #5
  103b88:	e51b3008 	ldr	r3, [fp, #-8]
  103b8c:	e0823003 	add	r3, r2, r3
  103b90:	e24b2a0e 	sub	r2, fp, #57344	; 0xe000
  103b94:	e2422004 	sub	r2, r2, #4
  103b98:	e1a03183 	lsl	r3, r3, #3
  103b9c:	e0823003 	add	r3, r2, r3
  103ba0:	e2433e32 	sub	r3, r3, #800	; 0x320
  103ba4:	edd32b00 	vldr	d18, [r3]
  103ba8:	e51b200c 	ldr	r2, [fp, #-12]
  103bac:	e1a03002 	mov	r3, r2
  103bb0:	e1a03303 	lsl	r3, r3, #6
  103bb4:	e0832002 	add	r2, r3, r2
  103bb8:	e51b3010 	ldr	r3, [fp, #-16]
  103bbc:	e0822003 	add	r2, r2, r3
  103bc0:	e30c32f0 	movw	r3, #49904	; 0xc2f0
  103bc4:	e3403011 	movt	r3, #17
  103bc8:	e1a02182 	lsl	r2, r2, #3
  103bcc:	e0833002 	add	r3, r3, r2
  103bd0:	edd30b00 	vldr	d16, [r3]
  103bd4:	ee620ba0 	vmul.f64	d16, d18, d16
  103bd8:	ee710ba0 	vadd.f64	d16, d17, d16
  103bdc:	e24b3a12 	sub	r3, fp, #73728	; 0x12000
  103be0:	e2433004 	sub	r3, r3, #4
  103be4:	e2433d21 	sub	r3, r3, #2112	; 0x840
  103be8:	e1a02003 	mov	r2, r3
  103bec:	e1a03181 	lsl	r3, r1, #3
  103bf0:	e0823003 	add	r3, r2, r3
  103bf4:	edc30b00 	vstr	d16, [r3]
  103bf8:	e51b3010 	ldr	r3, [fp, #-16]
  103bfc:	e2833001 	add	r3, r3, #1
  103c00:	e50b3010 	str	r3, [fp, #-16]
  103c04:	e51b3010 	ldr	r3, [fp, #-16]
  103c08:	e3530040 	cmp	r3, #64	; 0x40
  103c0c:	daffffcd 	ble	103b48 <ukf+0x1fc>
  103c10:	e24b3a12 	sub	r3, fp, #73728	; 0x12000
  103c14:	e2433004 	sub	r3, r3, #4
  103c18:	e2433d29 	sub	r3, r3, #2624	; 0xa40
  103c1c:	e1a02003 	mov	r2, r3
  103c20:	e51b3008 	ldr	r3, [fp, #-8]
  103c24:	e1a03183 	lsl	r3, r3, #3
  103c28:	e0823003 	add	r3, r2, r3
  103c2c:	edd31b00 	vldr	d17, [r3]
  103c30:	e51b300c 	ldr	r3, [fp, #-12]
  103c34:	e1a02283 	lsl	r2, r3, #5
  103c38:	e51b3008 	ldr	r3, [fp, #-8]
  103c3c:	e0823003 	add	r3, r2, r3
  103c40:	e24b2a12 	sub	r2, fp, #73728	; 0x12000
  103c44:	e2422004 	sub	r2, r2, #4
  103c48:	e2422d21 	sub	r2, r2, #2112	; 0x840
  103c4c:	e1a03183 	lsl	r3, r3, #3
  103c50:	e0823003 	add	r3, r2, r3
  103c54:	edd32b00 	vldr	d18, [r3]
  103c58:	e24b3a0e 	sub	r3, fp, #57344	; 0xe000
  103c5c:	e2433004 	sub	r3, r3, #4
  103c60:	e2433d1d 	sub	r3, r3, #1856	; 0x740
  103c64:	e1a02003 	mov	r2, r3
  103c68:	e51b300c 	ldr	r3, [fp, #-12]
  103c6c:	e1a03183 	lsl	r3, r3, #3
  103c70:	e0823003 	add	r3, r2, r3
  103c74:	edd30b00 	vldr	d16, [r3]
  103c78:	ee620ba0 	vmul.f64	d16, d18, d16
  103c7c:	ee710ba0 	vadd.f64	d16, d17, d16
  103c80:	e24b3a12 	sub	r3, fp, #73728	; 0x12000
  103c84:	e2433004 	sub	r3, r3, #4
  103c88:	e2433d29 	sub	r3, r3, #2624	; 0xa40
  103c8c:	e1a02003 	mov	r2, r3
  103c90:	e51b3008 	ldr	r3, [fp, #-8]
  103c94:	e1a03183 	lsl	r3, r3, #3
  103c98:	e0823003 	add	r3, r2, r3
  103c9c:	edc30b00 	vstr	d16, [r3]
  103ca0:	e51b300c 	ldr	r3, [fp, #-12]
  103ca4:	e2833001 	add	r3, r3, #1
  103ca8:	e50b300c 	str	r3, [fp, #-12]
  103cac:	e51b300c 	ldr	r3, [fp, #-12]
  103cb0:	e3530040 	cmp	r3, #64	; 0x40
  103cb4:	daffff94 	ble	103b0c <ukf+0x1c0>
  103cb8:	e24b3a12 	sub	r3, fp, #73728	; 0x12000
  103cbc:	e2433004 	sub	r3, r3, #4
  103cc0:	e2433d29 	sub	r3, r3, #2624	; 0xa40
  103cc4:	e1a02003 	mov	r2, r3
  103cc8:	e51b3008 	ldr	r3, [fp, #-8]
  103ccc:	e1a03183 	lsl	r3, r3, #3
  103cd0:	e0823003 	add	r3, r2, r3
  103cd4:	edd31b00 	vldr	d17, [r3]
  103cd8:	ed5b0b07 	vldr	d16, [fp, #-28]	; 0xffffffe4
  103cdc:	ee610ba0 	vmul.f64	d16, d17, d16
  103ce0:	e24b3a12 	sub	r3, fp, #73728	; 0x12000
  103ce4:	e2433004 	sub	r3, r3, #4
  103ce8:	e2433d25 	sub	r3, r3, #2368	; 0x940
  103cec:	e1a02003 	mov	r2, r3
  103cf0:	e51b3008 	ldr	r3, [fp, #-8]
  103cf4:	e1a03183 	lsl	r3, r3, #3
  103cf8:	e0823003 	add	r3, r2, r3
  103cfc:	edc30b00 	vstr	d16, [r3]
  103d00:	e51b3008 	ldr	r3, [fp, #-8]
  103d04:	e1a03183 	lsl	r3, r3, #3
  103d08:	e24b2a12 	sub	r2, fp, #73728	; 0x12000
  103d0c:	e2422004 	sub	r2, r2, #4
  103d10:	e5122a44 	ldr	r2, [r2, #-2628]	; 0xfffff5bc
  103d14:	e0823003 	add	r3, r2, r3
  103d18:	e51b2008 	ldr	r2, [fp, #-8]
  103d1c:	e1a02182 	lsl	r2, r2, #3
  103d20:	e24b1a12 	sub	r1, fp, #73728	; 0x12000
  103d24:	e2411004 	sub	r1, r1, #4
  103d28:	e5111a44 	ldr	r1, [r1, #-2628]	; 0xfffff5bc
  103d2c:	e0812002 	add	r2, r1, r2
  103d30:	edd21b00 	vldr	d17, [r2]
  103d34:	e24b2a12 	sub	r2, fp, #73728	; 0x12000
  103d38:	e2422004 	sub	r2, r2, #4
  103d3c:	e2422d25 	sub	r2, r2, #2368	; 0x940
  103d40:	e1a01002 	mov	r1, r2
  103d44:	e51b2008 	ldr	r2, [fp, #-8]
  103d48:	e1a02182 	lsl	r2, r2, #3
  103d4c:	e0812002 	add	r2, r1, r2
  103d50:	edd22b00 	vldr	d18, [r2]
  103d54:	ed5b0b09 	vldr	d16, [fp, #-36]	; 0xffffffdc
  103d58:	ee620ba0 	vmul.f64	d16, d18, d16
  103d5c:	ee710ba0 	vadd.f64	d16, d17, d16
  103d60:	edc30b00 	vstr	d16, [r3]
  103d64:	e51b3008 	ldr	r3, [fp, #-8]
  103d68:	e2833001 	add	r3, r3, #1
  103d6c:	e50b3008 	str	r3, [fp, #-8]
  103d70:	e51b3008 	ldr	r3, [fp, #-8]
  103d74:	e353001f 	cmp	r3, #31
  103d78:	daffff56 	ble	103ad8 <ukf+0x18c>
  103d7c:	e3a03000 	mov	r3, #0
  103d80:	e50b300c 	str	r3, [fp, #-12]
  103d84:	ea000031 	b	103e50 <ukf+0x504>
  103d88:	e3a03000 	mov	r3, #0
  103d8c:	e50b3010 	str	r3, [fp, #-16]
  103d90:	ea000028 	b	103e38 <ukf+0x4ec>
  103d94:	e51b3010 	ldr	r3, [fp, #-16]
  103d98:	e1a02283 	lsl	r2, r3, #5
  103d9c:	e51b300c 	ldr	r3, [fp, #-12]
  103da0:	e0823003 	add	r3, r2, r3
  103da4:	e1a03183 	lsl	r3, r3, #3
  103da8:	e24b2a12 	sub	r2, fp, #73728	; 0x12000
  103dac:	e2422004 	sub	r2, r2, #4
  103db0:	e5122a48 	ldr	r2, [r2, #-2632]	; 0xfffff5b8
  103db4:	e0823003 	add	r3, r2, r3
  103db8:	e51b2010 	ldr	r2, [fp, #-16]
  103dbc:	e1a01282 	lsl	r1, r2, #5
  103dc0:	e51b200c 	ldr	r2, [fp, #-12]
  103dc4:	e0812002 	add	r2, r1, r2
  103dc8:	e24b1a0a 	sub	r1, fp, #40960	; 0xa000
  103dcc:	e2411004 	sub	r1, r1, #4
  103dd0:	e1a02182 	lsl	r2, r2, #3
  103dd4:	e0812002 	add	r2, r1, r2
  103dd8:	e2422e22 	sub	r2, r2, #544	; 0x220
  103ddc:	edd21b00 	vldr	d17, [r2]
  103de0:	e24b2a12 	sub	r2, fp, #73728	; 0x12000
  103de4:	e2422004 	sub	r2, r2, #4
  103de8:	e2422d25 	sub	r2, r2, #2368	; 0x940
  103dec:	e1a01002 	mov	r1, r2
  103df0:	e51b200c 	ldr	r2, [fp, #-12]
  103df4:	e1a02182 	lsl	r2, r2, #3
  103df8:	e0812002 	add	r2, r1, r2
  103dfc:	edd22b00 	vldr	d18, [r2]
  103e00:	e24b2a12 	sub	r2, fp, #73728	; 0x12000
  103e04:	e2422004 	sub	r2, r2, #4
  103e08:	e2422d29 	sub	r2, r2, #2624	; 0xa40
  103e0c:	e1a01002 	mov	r1, r2
  103e10:	e51b2010 	ldr	r2, [fp, #-16]
  103e14:	e1a02182 	lsl	r2, r2, #3
  103e18:	e0812002 	add	r2, r1, r2
  103e1c:	edd20b00 	vldr	d16, [r2]
  103e20:	ee620ba0 	vmul.f64	d16, d18, d16
  103e24:	ee710be0 	vsub.f64	d16, d17, d16
  103e28:	edc30b00 	vstr	d16, [r3]
  103e2c:	e51b3010 	ldr	r3, [fp, #-16]
  103e30:	e2833001 	add	r3, r3, #1
  103e34:	e50b3010 	str	r3, [fp, #-16]
  103e38:	e51b3010 	ldr	r3, [fp, #-16]
  103e3c:	e353001f 	cmp	r3, #31
  103e40:	daffffd3 	ble	103d94 <ukf+0x448>
  103e44:	e51b300c 	ldr	r3, [fp, #-12]
  103e48:	e2833001 	add	r3, r3, #1
  103e4c:	e50b300c 	str	r3, [fp, #-12]
  103e50:	e51b300c 	ldr	r3, [fp, #-12]
  103e54:	e353001f 	cmp	r3, #31
  103e58:	daffffca 	ble	103d88 <ukf+0x43c>
  103e5c:	e320f000 	nop	{0}
  103e60:	e24bd004 	sub	sp, fp, #4
  103e64:	e8bd8800 	pop	{fp, pc}

00103e68 <b_ut>:
  103e68:	e92d4800 	push	{fp, lr}
  103e6c:	e28db004 	add	fp, sp, #4
  103e70:	e24ddcc5 	sub	sp, sp, #50432	; 0xc500
  103e74:	e24dd030 	sub	sp, sp, #48	; 0x30
  103e78:	e24bc903 	sub	ip, fp, #49152	; 0xc000
  103e7c:	e24cc004 	sub	ip, ip, #4
  103e80:	e50c0524 	str	r0, [ip, #-1316]	; 0xfffffadc
  103e84:	e24b0903 	sub	r0, fp, #49152	; 0xc000
  103e88:	e2400004 	sub	r0, r0, #4
  103e8c:	e5001528 	str	r1, [r0, #-1320]	; 0xfffffad8
  103e90:	e24b1903 	sub	r1, fp, #49152	; 0xc000
  103e94:	e2411004 	sub	r1, r1, #4
  103e98:	e501252c 	str	r2, [r1, #-1324]	; 0xfffffad4
  103e9c:	e24b2903 	sub	r2, fp, #49152	; 0xc000
  103ea0:	e2422004 	sub	r2, r2, #4
  103ea4:	e5023530 	str	r3, [r2, #-1328]	; 0xfffffad0
  103ea8:	e3a02c01 	mov	r2, #256	; 0x100
  103eac:	e3a01000 	mov	r1, #0
  103eb0:	e59b0004 	ldr	r0, [fp, #4]
  103eb4:	eb00124a 	bl	1087e4 <memset>
  103eb8:	e3a03000 	mov	r3, #0
  103ebc:	e50b3008 	str	r3, [fp, #-8]
  103ec0:	ea000034 	b	103f98 <b_ut+0x130>
  103ec4:	e51b3008 	ldr	r3, [fp, #-8]
  103ec8:	e1a03283 	lsl	r3, r3, #5
  103ecc:	e1a03183 	lsl	r3, r3, #3
  103ed0:	e24b2903 	sub	r2, fp, #49152	; 0xc000
  103ed4:	e2422004 	sub	r2, r2, #4
  103ed8:	e5122524 	ldr	r2, [r2, #-1316]	; 0xfffffadc
  103edc:	e0820003 	add	r0, r2, r3
  103ee0:	e51b3008 	ldr	r3, [fp, #-8]
  103ee4:	e1a03283 	lsl	r3, r3, #5
  103ee8:	e1a03183 	lsl	r3, r3, #3
  103eec:	e59b2008 	ldr	r2, [fp, #8]
  103ef0:	e0823003 	add	r3, r2, r3
  103ef4:	e1a01003 	mov	r1, r3
  103ef8:	ebfffac7 	bl	102a1c <nonlinear_state_eq>
  103efc:	e3a03000 	mov	r3, #0
  103f00:	e50b300c 	str	r3, [fp, #-12]
  103f04:	ea00001d 	b	103f80 <b_ut+0x118>
  103f08:	e51b300c 	ldr	r3, [fp, #-12]
  103f0c:	e1a03183 	lsl	r3, r3, #3
  103f10:	e59b2004 	ldr	r2, [fp, #4]
  103f14:	e0823003 	add	r3, r2, r3
  103f18:	e51b200c 	ldr	r2, [fp, #-12]
  103f1c:	e1a02182 	lsl	r2, r2, #3
  103f20:	e59b1004 	ldr	r1, [fp, #4]
  103f24:	e0812002 	add	r2, r1, r2
  103f28:	edd21b00 	vldr	d17, [r2]
  103f2c:	e51b2008 	ldr	r2, [fp, #-8]
  103f30:	e1a02182 	lsl	r2, r2, #3
  103f34:	e24b1903 	sub	r1, fp, #49152	; 0xc000
  103f38:	e2411004 	sub	r1, r1, #4
  103f3c:	e5111528 	ldr	r1, [r1, #-1320]	; 0xfffffad8
  103f40:	e0812002 	add	r2, r1, r2
  103f44:	edd22b00 	vldr	d18, [r2]
  103f48:	e51b2008 	ldr	r2, [fp, #-8]
  103f4c:	e1a01282 	lsl	r1, r2, #5
  103f50:	e51b200c 	ldr	r2, [fp, #-12]
  103f54:	e0812002 	add	r2, r1, r2
  103f58:	e1a02182 	lsl	r2, r2, #3
  103f5c:	e59b1008 	ldr	r1, [fp, #8]
  103f60:	e0812002 	add	r2, r1, r2
  103f64:	edd20b00 	vldr	d16, [r2]
  103f68:	ee620ba0 	vmul.f64	d16, d18, d16
  103f6c:	ee710ba0 	vadd.f64	d16, d17, d16
  103f70:	edc30b00 	vstr	d16, [r3]
  103f74:	e51b300c 	ldr	r3, [fp, #-12]
  103f78:	e2833001 	add	r3, r3, #1
  103f7c:	e50b300c 	str	r3, [fp, #-12]
  103f80:	e51b300c 	ldr	r3, [fp, #-12]
  103f84:	e353001f 	cmp	r3, #31
  103f88:	daffffde 	ble	103f08 <b_ut+0xa0>
  103f8c:	e51b3008 	ldr	r3, [fp, #-8]
  103f90:	e2833001 	add	r3, r3, #1
  103f94:	e50b3008 	str	r3, [fp, #-8]
  103f98:	e51b3008 	ldr	r3, [fp, #-8]
  103f9c:	e3530040 	cmp	r3, #64	; 0x40
  103fa0:	daffffc7 	ble	103ec4 <b_ut+0x5c>
  103fa4:	e3a03000 	mov	r3, #0
  103fa8:	e50b300c 	str	r3, [fp, #-12]
  103fac:	ea000021 	b	104038 <b_ut+0x1d0>
  103fb0:	e3a03000 	mov	r3, #0
  103fb4:	e50b3010 	str	r3, [fp, #-16]
  103fb8:	ea000018 	b	104020 <b_ut+0x1b8>
  103fbc:	e51b300c 	ldr	r3, [fp, #-12]
  103fc0:	e1a02283 	lsl	r2, r3, #5
  103fc4:	e51b3010 	ldr	r3, [fp, #-16]
  103fc8:	e0823003 	add	r3, r2, r3
  103fcc:	e1a03183 	lsl	r3, r3, #3
  103fd0:	e59b2010 	ldr	r2, [fp, #16]
  103fd4:	e0823003 	add	r3, r2, r3
  103fd8:	e51b200c 	ldr	r2, [fp, #-12]
  103fdc:	e1a01282 	lsl	r1, r2, #5
  103fe0:	e51b2010 	ldr	r2, [fp, #-16]
  103fe4:	e0812002 	add	r2, r1, r2
  103fe8:	e1a02182 	lsl	r2, r2, #3
  103fec:	e59b1008 	ldr	r1, [fp, #8]
  103ff0:	e0812002 	add	r2, r1, r2
  103ff4:	edd21b00 	vldr	d17, [r2]
  103ff8:	e51b2010 	ldr	r2, [fp, #-16]
  103ffc:	e1a02182 	lsl	r2, r2, #3
  104000:	e59b1004 	ldr	r1, [fp, #4]
  104004:	e0812002 	add	r2, r1, r2
  104008:	edd20b00 	vldr	d16, [r2]
  10400c:	ee710be0 	vsub.f64	d16, d17, d16
  104010:	edc30b00 	vstr	d16, [r3]
  104014:	e51b3010 	ldr	r3, [fp, #-16]
  104018:	e2833001 	add	r3, r3, #1
  10401c:	e50b3010 	str	r3, [fp, #-16]
  104020:	e51b3010 	ldr	r3, [fp, #-16]
  104024:	e353001f 	cmp	r3, #31
  104028:	daffffe3 	ble	103fbc <b_ut+0x154>
  10402c:	e51b300c 	ldr	r3, [fp, #-12]
  104030:	e2833001 	add	r3, r3, #1
  104034:	e50b300c 	str	r3, [fp, #-12]
  104038:	e51b300c 	ldr	r3, [fp, #-12]
  10403c:	e3530040 	cmp	r3, #64	; 0x40
  104040:	daffffda 	ble	103fb0 <b_ut+0x148>
  104044:	e24b3b21 	sub	r3, fp, #33792	; 0x8400
  104048:	e2433004 	sub	r3, r3, #4
  10404c:	e2433020 	sub	r3, r3, #32
  104050:	e3082408 	movw	r2, #33800	; 0x8408
  104054:	e3a01000 	mov	r1, #0
  104058:	e1a00003 	mov	r0, r3
  10405c:	eb0011e0 	bl	1087e4 <memset>
  104060:	e3a03000 	mov	r3, #0
  104064:	e50b3010 	str	r3, [fp, #-16]
  104068:	ea000015 	b	1040c4 <b_ut+0x25c>
  10406c:	e51b2010 	ldr	r2, [fp, #-16]
  104070:	e1a03002 	mov	r3, r2
  104074:	e1a03283 	lsl	r3, r3, #5
  104078:	e0833002 	add	r3, r3, r2
  10407c:	e1a03083 	lsl	r3, r3, #1
  104080:	e1a01003 	mov	r1, r3
  104084:	e51b3010 	ldr	r3, [fp, #-16]
  104088:	e1a03183 	lsl	r3, r3, #3
  10408c:	e24b2903 	sub	r2, fp, #49152	; 0xc000
  104090:	e2422004 	sub	r2, r2, #4
  104094:	e512252c 	ldr	r2, [r2, #-1324]	; 0xfffffad4
  104098:	e0823003 	add	r3, r2, r3
  10409c:	e1c320d0 	ldrd	r2, [r3]
  1040a0:	e24b0902 	sub	r0, fp, #32768	; 0x8000
  1040a4:	e2400004 	sub	r0, r0, #4
  1040a8:	e2400e42 	sub	r0, r0, #1056	; 0x420
  1040ac:	e1a01181 	lsl	r1, r1, #3
  1040b0:	e0801001 	add	r1, r0, r1
  1040b4:	e1c120f0 	strd	r2, [r1]
  1040b8:	e51b3010 	ldr	r3, [fp, #-16]
  1040bc:	e2833001 	add	r3, r3, #1
  1040c0:	e50b3010 	str	r3, [fp, #-16]
  1040c4:	e51b3010 	ldr	r3, [fp, #-16]
  1040c8:	e3530040 	cmp	r3, #64	; 0x40
  1040cc:	daffffe6 	ble	10406c <b_ut+0x204>
  1040d0:	e3a03000 	mov	r3, #0
  1040d4:	e50b300c 	str	r3, [fp, #-12]
  1040d8:	ea00008a 	b	104308 <b_ut+0x4a0>
  1040dc:	e3a03000 	mov	r3, #0
  1040e0:	e50b3010 	str	r3, [fp, #-16]
  1040e4:	ea000042 	b	1041f4 <b_ut+0x38c>
  1040e8:	e51b3010 	ldr	r3, [fp, #-16]
  1040ec:	e1a02283 	lsl	r2, r3, #5
  1040f0:	e51b300c 	ldr	r3, [fp, #-12]
  1040f4:	e0823003 	add	r3, r2, r3
  1040f8:	e24b2903 	sub	r2, fp, #49152	; 0xc000
  1040fc:	e2422004 	sub	r2, r2, #4
  104100:	e2422e52 	sub	r2, r2, #1312	; 0x520
  104104:	e1a03183 	lsl	r3, r3, #3
  104108:	e0821003 	add	r1, r2, r3
  10410c:	e3a02000 	mov	r2, #0
  104110:	e3a03000 	mov	r3, #0
  104114:	e1c120f0 	strd	r2, [r1]
  104118:	e3a03000 	mov	r3, #0
  10411c:	e50b3014 	str	r3, [fp, #-20]	; 0xffffffec
  104120:	ea00002d 	b	1041dc <b_ut+0x374>
  104124:	e51b3010 	ldr	r3, [fp, #-16]
  104128:	e1a02283 	lsl	r2, r3, #5
  10412c:	e51b300c 	ldr	r3, [fp, #-12]
  104130:	e0821003 	add	r1, r2, r3
  104134:	e51b3010 	ldr	r3, [fp, #-16]
  104138:	e1a02283 	lsl	r2, r3, #5
  10413c:	e51b300c 	ldr	r3, [fp, #-12]
  104140:	e0823003 	add	r3, r2, r3
  104144:	e24b2903 	sub	r2, fp, #49152	; 0xc000
  104148:	e2422004 	sub	r2, r2, #4
  10414c:	e2422e52 	sub	r2, r2, #1312	; 0x520
  104150:	e1a03183 	lsl	r3, r3, #3
  104154:	e0823003 	add	r3, r2, r3
  104158:	edd31b00 	vldr	d17, [r3]
  10415c:	e51b3014 	ldr	r3, [fp, #-20]	; 0xffffffec
  104160:	e1a02283 	lsl	r2, r3, #5
  104164:	e51b300c 	ldr	r3, [fp, #-12]
  104168:	e0823003 	add	r3, r2, r3
  10416c:	e1a03183 	lsl	r3, r3, #3
  104170:	e59b2010 	ldr	r2, [fp, #16]
  104174:	e0823003 	add	r3, r2, r3
  104178:	edd32b00 	vldr	d18, [r3]
  10417c:	e51b2010 	ldr	r2, [fp, #-16]
  104180:	e1a03002 	mov	r3, r2
  104184:	e1a03303 	lsl	r3, r3, #6
  104188:	e0832002 	add	r2, r3, r2
  10418c:	e51b3014 	ldr	r3, [fp, #-20]	; 0xffffffec
  104190:	e0823003 	add	r3, r2, r3
  104194:	e24b2902 	sub	r2, fp, #32768	; 0x8000
  104198:	e2422004 	sub	r2, r2, #4
  10419c:	e2422e42 	sub	r2, r2, #1056	; 0x420
  1041a0:	e1a03183 	lsl	r3, r3, #3
  1041a4:	e0823003 	add	r3, r2, r3
  1041a8:	edd30b00 	vldr	d16, [r3]
  1041ac:	ee620ba0 	vmul.f64	d16, d18, d16
  1041b0:	ee710ba0 	vadd.f64	d16, d17, d16
  1041b4:	e24b3903 	sub	r3, fp, #49152	; 0xc000
  1041b8:	e2433004 	sub	r3, r3, #4
  1041bc:	e2433e52 	sub	r3, r3, #1312	; 0x520
  1041c0:	e1a02003 	mov	r2, r3
  1041c4:	e1a03181 	lsl	r3, r1, #3
  1041c8:	e0823003 	add	r3, r2, r3
  1041cc:	edc30b00 	vstr	d16, [r3]
  1041d0:	e51b3014 	ldr	r3, [fp, #-20]	; 0xffffffec
  1041d4:	e2833001 	add	r3, r3, #1
  1041d8:	e50b3014 	str	r3, [fp, #-20]	; 0xffffffec
  1041dc:	e51b3014 	ldr	r3, [fp, #-20]	; 0xffffffec
  1041e0:	e3530040 	cmp	r3, #64	; 0x40
  1041e4:	daffffce 	ble	104124 <b_ut+0x2bc>
  1041e8:	e51b3010 	ldr	r3, [fp, #-16]
  1041ec:	e2833001 	add	r3, r3, #1
  1041f0:	e50b3010 	str	r3, [fp, #-16]
  1041f4:	e51b3010 	ldr	r3, [fp, #-16]
  1041f8:	e3530040 	cmp	r3, #64	; 0x40
  1041fc:	daffffb9 	ble	1040e8 <b_ut+0x280>
  104200:	e3a03000 	mov	r3, #0
  104204:	e50b3010 	str	r3, [fp, #-16]
  104208:	ea000038 	b	1042f0 <b_ut+0x488>
  10420c:	e3a02000 	mov	r2, #0
  104210:	e3a03000 	mov	r3, #0
  104214:	e14b21fc 	strd	r2, [fp, #-28]	; 0xffffffe4
  104218:	e3a03000 	mov	r3, #0
  10421c:	e50b3014 	str	r3, [fp, #-20]	; 0xffffffec
  104220:	ea000018 	b	104288 <b_ut+0x420>
  104224:	e51b3014 	ldr	r3, [fp, #-20]	; 0xffffffec
  104228:	e1a02283 	lsl	r2, r3, #5
  10422c:	e51b300c 	ldr	r3, [fp, #-12]
  104230:	e0823003 	add	r3, r2, r3
  104234:	e24b2903 	sub	r2, fp, #49152	; 0xc000
  104238:	e2422004 	sub	r2, r2, #4
  10423c:	e2422e52 	sub	r2, r2, #1312	; 0x520
  104240:	e1a03183 	lsl	r3, r3, #3
  104244:	e0823003 	add	r3, r2, r3
  104248:	edd31b00 	vldr	d17, [r3]
  10424c:	e51b3014 	ldr	r3, [fp, #-20]	; 0xffffffec
  104250:	e1a02283 	lsl	r2, r3, #5
  104254:	e51b3010 	ldr	r3, [fp, #-16]
  104258:	e0823003 	add	r3, r2, r3
  10425c:	e1a03183 	lsl	r3, r3, #3
  104260:	e59b2010 	ldr	r2, [fp, #16]
  104264:	e0823003 	add	r3, r2, r3
  104268:	edd30b00 	vldr	d16, [r3]
  10426c:	ee610ba0 	vmul.f64	d16, d17, d16
  104270:	ed5b1b07 	vldr	d17, [fp, #-28]	; 0xffffffe4
  104274:	ee710ba0 	vadd.f64	d16, d17, d16
  104278:	ed4b0b07 	vstr	d16, [fp, #-28]	; 0xffffffe4
  10427c:	e51b3014 	ldr	r3, [fp, #-20]	; 0xffffffec
  104280:	e2833001 	add	r3, r3, #1
  104284:	e50b3014 	str	r3, [fp, #-20]	; 0xffffffec
  104288:	e51b3014 	ldr	r3, [fp, #-20]	; 0xffffffec
  10428c:	e3530040 	cmp	r3, #64	; 0x40
  104290:	daffffe3 	ble	104224 <b_ut+0x3bc>
  104294:	e51b3010 	ldr	r3, [fp, #-16]
  104298:	e1a02283 	lsl	r2, r3, #5
  10429c:	e51b300c 	ldr	r3, [fp, #-12]
  1042a0:	e0823003 	add	r3, r2, r3
  1042a4:	e1a03183 	lsl	r3, r3, #3
  1042a8:	e59b200c 	ldr	r2, [fp, #12]
  1042ac:	e0823003 	add	r3, r2, r3
  1042b0:	e51b2010 	ldr	r2, [fp, #-16]
  1042b4:	e1a01282 	lsl	r1, r2, #5
  1042b8:	e51b200c 	ldr	r2, [fp, #-12]
  1042bc:	e0812002 	add	r2, r1, r2
  1042c0:	e1a02182 	lsl	r2, r2, #3
  1042c4:	e24b1903 	sub	r1, fp, #49152	; 0xc000
  1042c8:	e2411004 	sub	r1, r1, #4
  1042cc:	e5111530 	ldr	r1, [r1, #-1328]	; 0xfffffad0
  1042d0:	e0812002 	add	r2, r1, r2
  1042d4:	edd21b00 	vldr	d17, [r2]
  1042d8:	ed5b0b07 	vldr	d16, [fp, #-28]	; 0xffffffe4
  1042dc:	ee710ba0 	vadd.f64	d16, d17, d16
  1042e0:	edc30b00 	vstr	d16, [r3]
  1042e4:	e51b3010 	ldr	r3, [fp, #-16]
  1042e8:	e2833001 	add	r3, r3, #1
  1042ec:	e50b3010 	str	r3, [fp, #-16]
  1042f0:	e51b3010 	ldr	r3, [fp, #-16]
  1042f4:	e353001f 	cmp	r3, #31
  1042f8:	daffffc3 	ble	10420c <b_ut+0x3a4>
  1042fc:	e51b300c 	ldr	r3, [fp, #-12]
  104300:	e2833001 	add	r3, r3, #1
  104304:	e50b300c 	str	r3, [fp, #-12]
  104308:	e51b300c 	ldr	r3, [fp, #-12]
  10430c:	e353001f 	cmp	r3, #31
  104310:	daffff71 	ble	1040dc <b_ut+0x274>
  104314:	e320f000 	nop	{0}
  104318:	e24bd004 	sub	sp, fp, #4
  10431c:	e8bd8800 	pop	{fp, pc}

00104320 <c_ut>:
  104320:	e92d4800 	push	{fp, lr}
  104324:	e28db004 	add	fp, sp, #4
  104328:	e24ddc86 	sub	sp, sp, #34304	; 0x8600
  10432c:	e24dd040 	sub	sp, sp, #64	; 0x40
  104330:	e24b3902 	sub	r3, fp, #32768	; 0x8000
  104334:	e2433004 	sub	r3, r3, #4
  104338:	e5030634 	str	r0, [r3, #-1588]	; 0xfffff9cc
  10433c:	e24b3902 	sub	r3, fp, #32768	; 0x8000
  104340:	e2433004 	sub	r3, r3, #4
  104344:	e5031638 	str	r1, [r3, #-1592]	; 0xfffff9c8
  104348:	e24b3902 	sub	r3, fp, #32768	; 0x8000
  10434c:	e2433004 	sub	r3, r3, #4
  104350:	e503263c 	str	r2, [r3, #-1596]	; 0xfffff9c4
  104354:	e59b100c 	ldr	r1, [fp, #12]
  104358:	e3a02000 	mov	r2, #0
  10435c:	e3a03000 	mov	r3, #0
  104360:	e1c120f0 	strd	r2, [r1]
  104364:	e3a03000 	mov	r3, #0
  104368:	e50b3008 	str	r3, [fp, #-8]
  10436c:	ea000020 	b	1043f4 <c_ut+0xd4>
  104370:	e51b3008 	ldr	r3, [fp, #-8]
  104374:	e1a03283 	lsl	r3, r3, #5
  104378:	e1a03183 	lsl	r3, r3, #3
  10437c:	e24b2902 	sub	r2, fp, #32768	; 0x8000
  104380:	e2422004 	sub	r2, r2, #4
  104384:	e5122634 	ldr	r2, [r2, #-1588]	; 0xfffff9cc
  104388:	e0823003 	add	r3, r2, r3
  10438c:	e1a00003 	mov	r0, r3
  104390:	ebfff996 	bl	1029f0 <measurement_eq>
  104394:	e14b02f4 	strd	r0, [fp, #-36]	; 0xffffffdc
  104398:	e59b300c 	ldr	r3, [fp, #12]
  10439c:	edd31b00 	vldr	d17, [r3]
  1043a0:	e51b3008 	ldr	r3, [fp, #-8]
  1043a4:	e1a03183 	lsl	r3, r3, #3
  1043a8:	e24b2902 	sub	r2, fp, #32768	; 0x8000
  1043ac:	e2422004 	sub	r2, r2, #4
  1043b0:	e5122638 	ldr	r2, [r2, #-1592]	; 0xfffff9c8
  1043b4:	e0823003 	add	r3, r2, r3
  1043b8:	edd32b00 	vldr	d18, [r3]
  1043bc:	ed5b0b09 	vldr	d16, [fp, #-36]	; 0xffffffdc
  1043c0:	ee620ba0 	vmul.f64	d16, d18, d16
  1043c4:	ee710ba0 	vadd.f64	d16, d17, d16
  1043c8:	e59b300c 	ldr	r3, [fp, #12]
  1043cc:	edc30b00 	vstr	d16, [r3]
  1043d0:	e51b3008 	ldr	r3, [fp, #-8]
  1043d4:	e1a03183 	lsl	r3, r3, #3
  1043d8:	e59b2010 	ldr	r2, [fp, #16]
  1043dc:	e0821003 	add	r1, r2, r3
  1043e0:	e14b22d4 	ldrd	r2, [fp, #-36]	; 0xffffffdc
  1043e4:	e1c120f0 	strd	r2, [r1]
  1043e8:	e51b3008 	ldr	r3, [fp, #-8]
  1043ec:	e2833001 	add	r3, r3, #1
  1043f0:	e50b3008 	str	r3, [fp, #-8]
  1043f4:	e51b3008 	ldr	r3, [fp, #-8]
  1043f8:	e3530040 	cmp	r3, #64	; 0x40
  1043fc:	daffffdb 	ble	104370 <c_ut+0x50>
  104400:	e3a03000 	mov	r3, #0
  104404:	e50b300c 	str	r3, [fp, #-12]
  104408:	ea00000f 	b	10444c <c_ut+0x12c>
  10440c:	e51b300c 	ldr	r3, [fp, #-12]
  104410:	e1a03183 	lsl	r3, r3, #3
  104414:	e59b2018 	ldr	r2, [fp, #24]
  104418:	e0823003 	add	r3, r2, r3
  10441c:	e51b200c 	ldr	r2, [fp, #-12]
  104420:	e1a02182 	lsl	r2, r2, #3
  104424:	e59b1010 	ldr	r1, [fp, #16]
  104428:	e0812002 	add	r2, r1, r2
  10442c:	edd21b00 	vldr	d17, [r2]
  104430:	e59b200c 	ldr	r2, [fp, #12]
  104434:	edd20b00 	vldr	d16, [r2]
  104438:	ee710be0 	vsub.f64	d16, d17, d16
  10443c:	edc30b00 	vstr	d16, [r3]
  104440:	e51b300c 	ldr	r3, [fp, #-12]
  104444:	e2833001 	add	r3, r3, #1
  104448:	e50b300c 	str	r3, [fp, #-12]
  10444c:	e51b300c 	ldr	r3, [fp, #-12]
  104450:	e3530040 	cmp	r3, #64	; 0x40
  104454:	daffffec 	ble	10440c <c_ut+0xec>
  104458:	e24b3b21 	sub	r3, fp, #33792	; 0x8400
  10445c:	e2433004 	sub	r3, r3, #4
  104460:	e2433028 	sub	r3, r3, #40	; 0x28
  104464:	e3082408 	movw	r2, #33800	; 0x8408
  104468:	e3a01000 	mov	r1, #0
  10446c:	e1a00003 	mov	r0, r3
  104470:	eb0010db 	bl	1087e4 <memset>
  104474:	e3a03000 	mov	r3, #0
  104478:	e50b300c 	str	r3, [fp, #-12]
  10447c:	ea000016 	b	1044dc <c_ut+0x1bc>
  104480:	e51b200c 	ldr	r2, [fp, #-12]
  104484:	e1a03002 	mov	r3, r2
  104488:	e1a03283 	lsl	r3, r3, #5
  10448c:	e0833002 	add	r3, r3, r2
  104490:	e1a03083 	lsl	r3, r3, #1
  104494:	e1a01003 	mov	r1, r3
  104498:	e51b300c 	ldr	r3, [fp, #-12]
  10449c:	e1a03183 	lsl	r3, r3, #3
  1044a0:	e24b2902 	sub	r2, fp, #32768	; 0x8000
  1044a4:	e2422004 	sub	r2, r2, #4
  1044a8:	e512263c 	ldr	r2, [r2, #-1596]	; 0xfffff9c4
  1044ac:	e0823003 	add	r3, r2, r3
  1044b0:	e1c320d0 	ldrd	r2, [r3]
  1044b4:	e24b0902 	sub	r0, fp, #32768	; 0x8000
  1044b8:	e2400004 	sub	r0, r0, #4
  1044bc:	e2400e42 	sub	r0, r0, #1056	; 0x420
  1044c0:	e1a01181 	lsl	r1, r1, #3
  1044c4:	e0801001 	add	r1, r0, r1
  1044c8:	e2411008 	sub	r1, r1, #8
  1044cc:	e1c120f0 	strd	r2, [r1]
  1044d0:	e51b300c 	ldr	r3, [fp, #-12]
  1044d4:	e2833001 	add	r3, r3, #1
  1044d8:	e50b300c 	str	r3, [fp, #-12]
  1044dc:	e51b300c 	ldr	r3, [fp, #-12]
  1044e0:	e3530040 	cmp	r3, #64	; 0x40
  1044e4:	daffffe5 	ble	104480 <c_ut+0x160>
  1044e8:	e3a02000 	mov	r2, #0
  1044ec:	e3a03000 	mov	r3, #0
  1044f0:	e14b21f4 	strd	r2, [fp, #-20]	; 0xffffffec
  1044f4:	e3a03000 	mov	r3, #0
  1044f8:	e50b300c 	str	r3, [fp, #-12]
  1044fc:	ea00004a 	b	10462c <c_ut+0x30c>
  104500:	e24b3902 	sub	r3, fp, #32768	; 0x8000
  104504:	e2433004 	sub	r3, r3, #4
  104508:	e2433e63 	sub	r3, r3, #1584	; 0x630
  10450c:	e1a02003 	mov	r2, r3
  104510:	e51b300c 	ldr	r3, [fp, #-12]
  104514:	e1a03183 	lsl	r3, r3, #3
  104518:	e0821003 	add	r1, r2, r3
  10451c:	e3a02000 	mov	r2, #0
  104520:	e3a03000 	mov	r3, #0
  104524:	e1c120f0 	strd	r2, [r1]
  104528:	e3a03000 	mov	r3, #0
  10452c:	e50b3018 	str	r3, [fp, #-24]	; 0xffffffe8
  104530:	ea000026 	b	1045d0 <c_ut+0x2b0>
  104534:	e24b3902 	sub	r3, fp, #32768	; 0x8000
  104538:	e2433004 	sub	r3, r3, #4
  10453c:	e2433e63 	sub	r3, r3, #1584	; 0x630
  104540:	e1a02003 	mov	r2, r3
  104544:	e51b300c 	ldr	r3, [fp, #-12]
  104548:	e1a03183 	lsl	r3, r3, #3
  10454c:	e0823003 	add	r3, r2, r3
  104550:	edd31b00 	vldr	d17, [r3]
  104554:	e51b3018 	ldr	r3, [fp, #-24]	; 0xffffffe8
  104558:	e1a03183 	lsl	r3, r3, #3
  10455c:	e59b2018 	ldr	r2, [fp, #24]
  104560:	e0823003 	add	r3, r2, r3
  104564:	edd32b00 	vldr	d18, [r3]
  104568:	e51b200c 	ldr	r2, [fp, #-12]
  10456c:	e1a03002 	mov	r3, r2
  104570:	e1a03303 	lsl	r3, r3, #6
  104574:	e0832002 	add	r2, r3, r2
  104578:	e51b3018 	ldr	r3, [fp, #-24]	; 0xffffffe8
  10457c:	e0823003 	add	r3, r2, r3
  104580:	e24b2902 	sub	r2, fp, #32768	; 0x8000
  104584:	e2422004 	sub	r2, r2, #4
  104588:	e2422e42 	sub	r2, r2, #1056	; 0x420
  10458c:	e1a03183 	lsl	r3, r3, #3
  104590:	e0823003 	add	r3, r2, r3
  104594:	e2433008 	sub	r3, r3, #8
  104598:	edd30b00 	vldr	d16, [r3]
  10459c:	ee620ba0 	vmul.f64	d16, d18, d16
  1045a0:	ee710ba0 	vadd.f64	d16, d17, d16
  1045a4:	e24b3902 	sub	r3, fp, #32768	; 0x8000
  1045a8:	e2433004 	sub	r3, r3, #4
  1045ac:	e2433e63 	sub	r3, r3, #1584	; 0x630
  1045b0:	e1a02003 	mov	r2, r3
  1045b4:	e51b300c 	ldr	r3, [fp, #-12]
  1045b8:	e1a03183 	lsl	r3, r3, #3
  1045bc:	e0823003 	add	r3, r2, r3
  1045c0:	edc30b00 	vstr	d16, [r3]
  1045c4:	e51b3018 	ldr	r3, [fp, #-24]	; 0xffffffe8
  1045c8:	e2833001 	add	r3, r3, #1
  1045cc:	e50b3018 	str	r3, [fp, #-24]	; 0xffffffe8
  1045d0:	e51b3018 	ldr	r3, [fp, #-24]	; 0xffffffe8
  1045d4:	e3530040 	cmp	r3, #64	; 0x40
  1045d8:	daffffd5 	ble	104534 <c_ut+0x214>
  1045dc:	e24b3902 	sub	r3, fp, #32768	; 0x8000
  1045e0:	e2433004 	sub	r3, r3, #4
  1045e4:	e2433e63 	sub	r3, r3, #1584	; 0x630
  1045e8:	e1a02003 	mov	r2, r3
  1045ec:	e51b300c 	ldr	r3, [fp, #-12]
  1045f0:	e1a03183 	lsl	r3, r3, #3
  1045f4:	e0823003 	add	r3, r2, r3
  1045f8:	edd31b00 	vldr	d17, [r3]
  1045fc:	e51b300c 	ldr	r3, [fp, #-12]
  104600:	e1a03183 	lsl	r3, r3, #3
  104604:	e59b2018 	ldr	r2, [fp, #24]
  104608:	e0823003 	add	r3, r2, r3
  10460c:	edd30b00 	vldr	d16, [r3]
  104610:	ee610ba0 	vmul.f64	d16, d17, d16
  104614:	ed5b1b05 	vldr	d17, [fp, #-20]	; 0xffffffec
  104618:	ee710ba0 	vadd.f64	d16, d17, d16
  10461c:	ed4b0b05 	vstr	d16, [fp, #-20]	; 0xffffffec
  104620:	e51b300c 	ldr	r3, [fp, #-12]
  104624:	e2833001 	add	r3, r3, #1
  104628:	e50b300c 	str	r3, [fp, #-12]
  10462c:	e51b300c 	ldr	r3, [fp, #-12]
  104630:	e3530040 	cmp	r3, #64	; 0x40
  104634:	daffffb1 	ble	104500 <c_ut+0x1e0>
  104638:	ed5b1b05 	vldr	d17, [fp, #-20]	; 0xffffffec
  10463c:	eddb0b01 	vldr	d16, [fp, #4]
  104640:	ee710ba0 	vadd.f64	d16, d17, d16
  104644:	e59b3014 	ldr	r3, [fp, #20]
  104648:	edc30b00 	vstr	d16, [r3]
  10464c:	e320f000 	nop	{0}
  104650:	e24bd004 	sub	sp, fp, #4
  104654:	e8bd8800 	pop	{fp, pc}

00104658 <ut>:
  104658:	e92d4800 	push	{fp, lr}
  10465c:	e28db004 	add	fp, sp, #4
  104660:	e24ddc85 	sub	sp, sp, #34048	; 0x8500
  104664:	e24dd068 	sub	sp, sp, #104	; 0x68
  104668:	e24bcc85 	sub	ip, fp, #34048	; 0x8500
  10466c:	e24cc004 	sub	ip, ip, #4
  104670:	e24cc060 	sub	ip, ip, #96	; 0x60
  104674:	e1cc00f0 	strd	r0, [ip]
  104678:	e24b1902 	sub	r1, fp, #32768	; 0x8000
  10467c:	e2411004 	sub	r1, r1, #4
  104680:	e5012564 	str	r2, [r1, #-1380]	; 0xfffffa9c
  104684:	e24b2902 	sub	r2, fp, #32768	; 0x8000
  104688:	e2422004 	sub	r2, r2, #4
  10468c:	e5023568 	str	r3, [r2, #-1384]	; 0xfffffa98
  104690:	e59b301c 	ldr	r3, [fp, #28]
  104694:	e5933004 	ldr	r3, [r3, #4]
  104698:	e5933000 	ldr	r3, [r3]
  10469c:	e50b3008 	str	r3, [fp, #-8]
  1046a0:	e59b301c 	ldr	r3, [fp, #28]
  1046a4:	e5933004 	ldr	r3, [r3, #4]
  1046a8:	eddb0b03 	vldr	d16, [fp, #12]
  1046ac:	eefd7be0 	vcvt.s32.f64	s15, d16
  1046b0:	ee172a90 	vmov	r2, s15
  1046b4:	e5832000 	str	r2, [r3]
  1046b8:	e3a02008 	mov	r2, #8
  1046bc:	e51b1008 	ldr	r1, [fp, #-8]
  1046c0:	e59b001c 	ldr	r0, [fp, #28]
  1046c4:	eb00056a 	bl	105c74 <emxEnsureCapacity>
  1046c8:	eddb0b03 	vldr	d16, [fp, #12]
  1046cc:	eefd7be0 	vcvt.s32.f64	s15, d16
  1046d0:	ee173a90 	vmov	r3, s15
  1046d4:	e50b300c 	str	r3, [fp, #-12]
  1046d8:	e3a03000 	mov	r3, #0
  1046dc:	e50b3008 	str	r3, [fp, #-8]
  1046e0:	ea00000a 	b	104710 <ut+0xb8>
  1046e4:	e59b301c 	ldr	r3, [fp, #28]
  1046e8:	e5932000 	ldr	r2, [r3]
  1046ec:	e51b3008 	ldr	r3, [fp, #-8]
  1046f0:	e1a03183 	lsl	r3, r3, #3
  1046f4:	e0821003 	add	r1, r2, r3
  1046f8:	e3a02000 	mov	r2, #0
  1046fc:	e3a03000 	mov	r3, #0
  104700:	e1c120f0 	strd	r2, [r1]
  104704:	e51b3008 	ldr	r3, [fp, #-8]
  104708:	e2833001 	add	r3, r3, #1
  10470c:	e50b3008 	str	r3, [fp, #-8]
  104710:	e51b2008 	ldr	r2, [fp, #-8]
  104714:	e51b300c 	ldr	r3, [fp, #-12]
  104718:	e1520003 	cmp	r2, r3
  10471c:	bafffff0 	blt	1046e4 <ut+0x8c>
  104720:	e59b3020 	ldr	r3, [fp, #32]
  104724:	e5933004 	ldr	r3, [r3, #4]
  104728:	e5933000 	ldr	r3, [r3]
  10472c:	e59b2020 	ldr	r2, [fp, #32]
  104730:	e5922004 	ldr	r2, [r2, #4]
  104734:	e2822004 	add	r2, r2, #4
  104738:	e5922000 	ldr	r2, [r2]
  10473c:	e0030392 	mul	r3, r2, r3
  104740:	e50b3008 	str	r3, [fp, #-8]
  104744:	e59b3020 	ldr	r3, [fp, #32]
  104748:	e5933004 	ldr	r3, [r3, #4]
  10474c:	eddb0b03 	vldr	d16, [fp, #12]
  104750:	eefd7be0 	vcvt.s32.f64	s15, d16
  104754:	ee172a90 	vmov	r2, s15
  104758:	e5832000 	str	r2, [r3]
  10475c:	e59b3020 	ldr	r3, [fp, #32]
  104760:	e5933004 	ldr	r3, [r3, #4]
  104764:	e2833004 	add	r3, r3, #4
  104768:	e3a02041 	mov	r2, #65	; 0x41
  10476c:	e5832000 	str	r2, [r3]
  104770:	e3a02008 	mov	r2, #8
  104774:	e51b1008 	ldr	r1, [fp, #-8]
  104778:	e59b0020 	ldr	r0, [fp, #32]
  10477c:	eb00053c 	bl	105c74 <emxEnsureCapacity>
  104780:	eddb0b03 	vldr	d16, [fp, #12]
  104784:	eefd7be0 	vcvt.s32.f64	s15, d16
  104788:	ee172a90 	vmov	r2, s15
  10478c:	e1a03002 	mov	r3, r2
  104790:	e1a03303 	lsl	r3, r3, #6
  104794:	e0833002 	add	r3, r3, r2
  104798:	e50b300c 	str	r3, [fp, #-12]
  10479c:	e3a03000 	mov	r3, #0
  1047a0:	e50b3008 	str	r3, [fp, #-8]
  1047a4:	ea00000a 	b	1047d4 <ut+0x17c>
  1047a8:	e59b3020 	ldr	r3, [fp, #32]
  1047ac:	e5932000 	ldr	r2, [r3]
  1047b0:	e51b3008 	ldr	r3, [fp, #-8]
  1047b4:	e1a03183 	lsl	r3, r3, #3
  1047b8:	e0821003 	add	r1, r2, r3
  1047bc:	e3a02000 	mov	r2, #0
  1047c0:	e3a03000 	mov	r3, #0
  1047c4:	e1c120f0 	strd	r2, [r1]
  1047c8:	e51b3008 	ldr	r3, [fp, #-8]
  1047cc:	e2833001 	add	r3, r3, #1
  1047d0:	e50b3008 	str	r3, [fp, #-8]
  1047d4:	e51b2008 	ldr	r2, [fp, #-8]
  1047d8:	e51b300c 	ldr	r3, [fp, #-12]
  1047dc:	e1520003 	cmp	r2, r3
  1047e0:	bafffff0 	blt	1047a8 <ut+0x150>
  1047e4:	e24b3044 	sub	r3, fp, #68	; 0x44
  1047e8:	e3a01001 	mov	r1, #1
  1047ec:	e1a00003 	mov	r0, r3
  1047f0:	eb0005c9 	bl	105f1c <emxInit_int32_T>
  1047f4:	e3a03000 	mov	r3, #0
  1047f8:	e50b3010 	str	r3, [fp, #-16]
  1047fc:	ea0000bd 	b	104af8 <ut+0x4a0>
  104800:	e24b3c85 	sub	r3, fp, #34048	; 0x8500
  104804:	e2433004 	sub	r3, r3, #4
  104808:	e2433060 	sub	r3, r3, #96	; 0x60
  10480c:	edd30b00 	vldr	d16, [r3]
  104810:	eef50b40 	vcmp.f64	d16, #0.0
  104814:	eef1fa10 	vmrs	APSR_nzcv, fpscr
  104818:	1a000057 	bne	10497c <ut+0x324>
  10481c:	e59b3020 	ldr	r3, [fp, #32]
  104820:	e5933004 	ldr	r3, [r3, #4]
  104824:	e5933000 	ldr	r3, [r3]
  104828:	e50b300c 	str	r3, [fp, #-12]
  10482c:	e51b3044 	ldr	r3, [fp, #-68]	; 0xffffffbc
  104830:	e5933004 	ldr	r3, [r3, #4]
  104834:	e5933000 	ldr	r3, [r3]
  104838:	e50b3008 	str	r3, [fp, #-8]
  10483c:	e51b3044 	ldr	r3, [fp, #-68]	; 0xffffffbc
  104840:	e5933004 	ldr	r3, [r3, #4]
  104844:	e51b200c 	ldr	r2, [fp, #-12]
  104848:	e5832000 	str	r2, [r3]
  10484c:	e51b3044 	ldr	r3, [fp, #-68]	; 0xffffffbc
  104850:	e3a02004 	mov	r2, #4
  104854:	e51b1008 	ldr	r1, [fp, #-8]
  104858:	e1a00003 	mov	r0, r3
  10485c:	eb000504 	bl	105c74 <emxEnsureCapacity>
  104860:	e3a03000 	mov	r3, #0
  104864:	e50b3008 	str	r3, [fp, #-8]
  104868:	ea000009 	b	104894 <ut+0x23c>
  10486c:	e51b3044 	ldr	r3, [fp, #-68]	; 0xffffffbc
  104870:	e5932000 	ldr	r2, [r3]
  104874:	e51b3008 	ldr	r3, [fp, #-8]
  104878:	e1a03103 	lsl	r3, r3, #2
  10487c:	e0823003 	add	r3, r2, r3
  104880:	e51b2008 	ldr	r2, [fp, #-8]
  104884:	e5832000 	str	r2, [r3]
  104888:	e51b3008 	ldr	r3, [fp, #-8]
  10488c:	e2833001 	add	r3, r3, #1
  104890:	e50b3008 	str	r3, [fp, #-8]
  104894:	e51b2008 	ldr	r2, [fp, #-8]
  104898:	e51b300c 	ldr	r3, [fp, #-12]
  10489c:	e1520003 	cmp	r2, r3
  1048a0:	bafffff1 	blt	10486c <ut+0x214>
  1048a4:	e51b3010 	ldr	r3, [fp, #-16]
  1048a8:	e1a03283 	lsl	r3, r3, #5
  1048ac:	e1a03183 	lsl	r3, r3, #3
  1048b0:	e24b2902 	sub	r2, fp, #32768	; 0x8000
  1048b4:	e2422004 	sub	r2, r2, #4
  1048b8:	e5122564 	ldr	r2, [r2, #-1380]	; 0xfffffa9c
  1048bc:	e0822003 	add	r2, r2, r3
  1048c0:	e24b3c85 	sub	r3, fp, #34048	; 0x8500
  1048c4:	e2433004 	sub	r3, r3, #4
  1048c8:	e2433048 	sub	r3, r3, #72	; 0x48
  1048cc:	e1a01003 	mov	r1, r3
  1048d0:	e1a00002 	mov	r0, r2
  1048d4:	ebfff850 	bl	102a1c <nonlinear_state_eq>
  1048d8:	e51b3044 	ldr	r3, [fp, #-68]	; 0xffffffbc
  1048dc:	e5933004 	ldr	r3, [r3, #4]
  1048e0:	e5933000 	ldr	r3, [r3]
  1048e4:	e50b3018 	str	r3, [fp, #-24]	; 0xffffffe8
  1048e8:	e3a03000 	mov	r3, #0
  1048ec:	e50b3008 	str	r3, [fp, #-8]
  1048f0:	ea00001c 	b	104968 <ut+0x310>
  1048f4:	e59b3020 	ldr	r3, [fp, #32]
  1048f8:	e5932000 	ldr	r2, [r3]
  1048fc:	e51b3044 	ldr	r3, [fp, #-68]	; 0xffffffbc
  104900:	e5931000 	ldr	r1, [r3]
  104904:	e51b3008 	ldr	r3, [fp, #-8]
  104908:	e1a03103 	lsl	r3, r3, #2
  10490c:	e0813003 	add	r3, r1, r3
  104910:	e5931000 	ldr	r1, [r3]
  104914:	e59b3020 	ldr	r3, [fp, #32]
  104918:	e5933004 	ldr	r3, [r3, #4]
  10491c:	e5933000 	ldr	r3, [r3]
  104920:	e51b0010 	ldr	r0, [fp, #-16]
  104924:	e0030390 	mul	r3, r0, r3
  104928:	e0813003 	add	r3, r1, r3
  10492c:	e1a03183 	lsl	r3, r3, #3
  104930:	e0821003 	add	r1, r2, r3
  104934:	e24b3902 	sub	r3, fp, #32768	; 0x8000
  104938:	e2433004 	sub	r3, r3, #4
  10493c:	e2433d15 	sub	r3, r3, #1344	; 0x540
  104940:	e1a02003 	mov	r2, r3
  104944:	e51b3008 	ldr	r3, [fp, #-8]
  104948:	e1a03183 	lsl	r3, r3, #3
  10494c:	e0823003 	add	r3, r2, r3
  104950:	e2433008 	sub	r3, r3, #8
  104954:	e1c320d0 	ldrd	r2, [r3]
  104958:	e1c120f0 	strd	r2, [r1]
  10495c:	e51b3008 	ldr	r3, [fp, #-8]
  104960:	e2833001 	add	r3, r3, #1
  104964:	e50b3008 	str	r3, [fp, #-8]
  104968:	e51b2008 	ldr	r2, [fp, #-8]
  10496c:	e51b3018 	ldr	r3, [fp, #-24]	; 0xffffffe8
  104970:	e1520003 	cmp	r2, r3
  104974:	baffffde 	blt	1048f4 <ut+0x29c>
  104978:	ea000024 	b	104a10 <ut+0x3b8>
  10497c:	e59b3020 	ldr	r3, [fp, #32]
  104980:	e5933004 	ldr	r3, [r3, #4]
  104984:	e5933000 	ldr	r3, [r3]
  104988:	e50b300c 	str	r3, [fp, #-12]
  10498c:	e51b3010 	ldr	r3, [fp, #-16]
  104990:	e1a03283 	lsl	r3, r3, #5
  104994:	e1a03183 	lsl	r3, r3, #3
  104998:	e24b2902 	sub	r2, fp, #32768	; 0x8000
  10499c:	e2422004 	sub	r2, r2, #4
  1049a0:	e5122564 	ldr	r2, [r2, #-1380]	; 0xfffffa9c
  1049a4:	e0823003 	add	r3, r2, r3
  1049a8:	e1a00003 	mov	r0, r3
  1049ac:	ebfff80f 	bl	1029f0 <measurement_eq>
  1049b0:	e14b03f4 	strd	r0, [fp, #-52]	; 0xffffffcc
  1049b4:	e3a03000 	mov	r3, #0
  1049b8:	e50b3008 	str	r3, [fp, #-8]
  1049bc:	ea00000f 	b	104a00 <ut+0x3a8>
  1049c0:	e59b3020 	ldr	r3, [fp, #32]
  1049c4:	e5932000 	ldr	r2, [r3]
  1049c8:	e59b3020 	ldr	r3, [fp, #32]
  1049cc:	e5933004 	ldr	r3, [r3, #4]
  1049d0:	e5933000 	ldr	r3, [r3]
  1049d4:	e51b1010 	ldr	r1, [fp, #-16]
  1049d8:	e0010391 	mul	r1, r1, r3
  1049dc:	e51b3008 	ldr	r3, [fp, #-8]
  1049e0:	e0813003 	add	r3, r1, r3
  1049e4:	e1a03183 	lsl	r3, r3, #3
  1049e8:	e0821003 	add	r1, r2, r3
  1049ec:	e14b23d4 	ldrd	r2, [fp, #-52]	; 0xffffffcc
  1049f0:	e1c120f0 	strd	r2, [r1]
  1049f4:	e51b3008 	ldr	r3, [fp, #-8]
  1049f8:	e2833001 	add	r3, r3, #1
  1049fc:	e50b3008 	str	r3, [fp, #-8]
  104a00:	e51b2008 	ldr	r2, [fp, #-8]
  104a04:	e51b300c 	ldr	r3, [fp, #-12]
  104a08:	e1520003 	cmp	r2, r3
  104a0c:	baffffeb 	blt	1049c0 <ut+0x368>
  104a10:	e59b301c 	ldr	r3, [fp, #28]
  104a14:	e5933004 	ldr	r3, [r3, #4]
  104a18:	e5933000 	ldr	r3, [r3]
  104a1c:	e50b3008 	str	r3, [fp, #-8]
  104a20:	e3a02008 	mov	r2, #8
  104a24:	e51b1008 	ldr	r1, [fp, #-8]
  104a28:	e59b001c 	ldr	r0, [fp, #28]
  104a2c:	eb000490 	bl	105c74 <emxEnsureCapacity>
  104a30:	e59b301c 	ldr	r3, [fp, #28]
  104a34:	e5933004 	ldr	r3, [r3, #4]
  104a38:	e5933000 	ldr	r3, [r3]
  104a3c:	e50b300c 	str	r3, [fp, #-12]
  104a40:	e3a03000 	mov	r3, #0
  104a44:	e50b3008 	str	r3, [fp, #-8]
  104a48:	ea000023 	b	104adc <ut+0x484>
  104a4c:	e59b301c 	ldr	r3, [fp, #28]
  104a50:	e5932000 	ldr	r2, [r3]
  104a54:	e51b3008 	ldr	r3, [fp, #-8]
  104a58:	e1a03183 	lsl	r3, r3, #3
  104a5c:	e0823003 	add	r3, r2, r3
  104a60:	e59b201c 	ldr	r2, [fp, #28]
  104a64:	e5921000 	ldr	r1, [r2]
  104a68:	e51b2008 	ldr	r2, [fp, #-8]
  104a6c:	e1a02182 	lsl	r2, r2, #3
  104a70:	e0812002 	add	r2, r1, r2
  104a74:	edd21b00 	vldr	d17, [r2]
  104a78:	e51b2010 	ldr	r2, [fp, #-16]
  104a7c:	e1a02182 	lsl	r2, r2, #3
  104a80:	e24b1902 	sub	r1, fp, #32768	; 0x8000
  104a84:	e2411004 	sub	r1, r1, #4
  104a88:	e5111568 	ldr	r1, [r1, #-1384]	; 0xfffffa98
  104a8c:	e0812002 	add	r2, r1, r2
  104a90:	edd22b00 	vldr	d18, [r2]
  104a94:	e59b2020 	ldr	r2, [fp, #32]
  104a98:	e5921000 	ldr	r1, [r2]
  104a9c:	e59b2020 	ldr	r2, [fp, #32]
  104aa0:	e5922004 	ldr	r2, [r2, #4]
  104aa4:	e5922000 	ldr	r2, [r2]
  104aa8:	e51b0010 	ldr	r0, [fp, #-16]
  104aac:	e0000290 	mul	r0, r0, r2
  104ab0:	e51b2008 	ldr	r2, [fp, #-8]
  104ab4:	e0802002 	add	r2, r0, r2
  104ab8:	e1a02182 	lsl	r2, r2, #3
  104abc:	e0812002 	add	r2, r1, r2
  104ac0:	edd20b00 	vldr	d16, [r2]
  104ac4:	ee620ba0 	vmul.f64	d16, d18, d16
  104ac8:	ee710ba0 	vadd.f64	d16, d17, d16
  104acc:	edc30b00 	vstr	d16, [r3]
  104ad0:	e51b3008 	ldr	r3, [fp, #-8]
  104ad4:	e2833001 	add	r3, r3, #1
  104ad8:	e50b3008 	str	r3, [fp, #-8]
  104adc:	e51b2008 	ldr	r2, [fp, #-8]
  104ae0:	e51b300c 	ldr	r3, [fp, #-12]
  104ae4:	e1520003 	cmp	r2, r3
  104ae8:	baffffd7 	blt	104a4c <ut+0x3f4>
  104aec:	e51b3010 	ldr	r3, [fp, #-16]
  104af0:	e2833001 	add	r3, r3, #1
  104af4:	e50b3010 	str	r3, [fp, #-16]
  104af8:	e51b3010 	ldr	r3, [fp, #-16]
  104afc:	e3530040 	cmp	r3, #64	; 0x40
  104b00:	daffff3e 	ble	104800 <ut+0x1a8>
  104b04:	e24b3044 	sub	r3, fp, #68	; 0x44
  104b08:	e1a00003 	mov	r0, r3
  104b0c:	eb0004b6 	bl	105dec <emxFree_int32_T>
  104b10:	e59b302c 	ldr	r3, [fp, #44]	; 0x2c
  104b14:	e5933004 	ldr	r3, [r3, #4]
  104b18:	e5933000 	ldr	r3, [r3]
  104b1c:	e59b202c 	ldr	r2, [fp, #44]	; 0x2c
  104b20:	e5922004 	ldr	r2, [r2, #4]
  104b24:	e2822004 	add	r2, r2, #4
  104b28:	e5922000 	ldr	r2, [r2]
  104b2c:	e0030392 	mul	r3, r2, r3
  104b30:	e50b3008 	str	r3, [fp, #-8]
  104b34:	e59b302c 	ldr	r3, [fp, #44]	; 0x2c
  104b38:	e5933004 	ldr	r3, [r3, #4]
  104b3c:	e59b2020 	ldr	r2, [fp, #32]
  104b40:	e5922004 	ldr	r2, [r2, #4]
  104b44:	e5922000 	ldr	r2, [r2]
  104b48:	e5832000 	str	r2, [r3]
  104b4c:	e59b302c 	ldr	r3, [fp, #44]	; 0x2c
  104b50:	e5933004 	ldr	r3, [r3, #4]
  104b54:	e2833004 	add	r3, r3, #4
  104b58:	e3a02041 	mov	r2, #65	; 0x41
  104b5c:	e5832000 	str	r2, [r3]
  104b60:	e3a02008 	mov	r2, #8
  104b64:	e51b1008 	ldr	r1, [fp, #-8]
  104b68:	e59b002c 	ldr	r0, [fp, #44]	; 0x2c
  104b6c:	eb000440 	bl	105c74 <emxEnsureCapacity>
  104b70:	e3a03000 	mov	r3, #0
  104b74:	e50b3008 	str	r3, [fp, #-8]
  104b78:	ea00002f 	b	104c3c <ut+0x5e4>
  104b7c:	e59b3020 	ldr	r3, [fp, #32]
  104b80:	e5933004 	ldr	r3, [r3, #4]
  104b84:	e5933000 	ldr	r3, [r3]
  104b88:	e50b300c 	str	r3, [fp, #-12]
  104b8c:	e3a03000 	mov	r3, #0
  104b90:	e50b3014 	str	r3, [fp, #-20]	; 0xffffffec
  104b94:	ea000021 	b	104c20 <ut+0x5c8>
  104b98:	e59b302c 	ldr	r3, [fp, #44]	; 0x2c
  104b9c:	e5932000 	ldr	r2, [r3]
  104ba0:	e59b302c 	ldr	r3, [fp, #44]	; 0x2c
  104ba4:	e5933004 	ldr	r3, [r3, #4]
  104ba8:	e5933000 	ldr	r3, [r3]
  104bac:	e51b1008 	ldr	r1, [fp, #-8]
  104bb0:	e0010391 	mul	r1, r1, r3
  104bb4:	e51b3014 	ldr	r3, [fp, #-20]	; 0xffffffec
  104bb8:	e0813003 	add	r3, r1, r3
  104bbc:	e1a03183 	lsl	r3, r3, #3
  104bc0:	e0823003 	add	r3, r2, r3
  104bc4:	e59b2020 	ldr	r2, [fp, #32]
  104bc8:	e5921000 	ldr	r1, [r2]
  104bcc:	e59b2020 	ldr	r2, [fp, #32]
  104bd0:	e5922004 	ldr	r2, [r2, #4]
  104bd4:	e5922000 	ldr	r2, [r2]
  104bd8:	e51b0008 	ldr	r0, [fp, #-8]
  104bdc:	e0000290 	mul	r0, r0, r2
  104be0:	e51b2014 	ldr	r2, [fp, #-20]	; 0xffffffec
  104be4:	e0802002 	add	r2, r0, r2
  104be8:	e1a02182 	lsl	r2, r2, #3
  104bec:	e0812002 	add	r2, r1, r2
  104bf0:	edd21b00 	vldr	d17, [r2]
  104bf4:	e59b201c 	ldr	r2, [fp, #28]
  104bf8:	e5921000 	ldr	r1, [r2]
  104bfc:	e51b2014 	ldr	r2, [fp, #-20]	; 0xffffffec
  104c00:	e1a02182 	lsl	r2, r2, #3
  104c04:	e0812002 	add	r2, r1, r2
  104c08:	edd20b00 	vldr	d16, [r2]
  104c0c:	ee710be0 	vsub.f64	d16, d17, d16
  104c10:	edc30b00 	vstr	d16, [r3]
  104c14:	e51b3014 	ldr	r3, [fp, #-20]	; 0xffffffec
  104c18:	e2833001 	add	r3, r3, #1
  104c1c:	e50b3014 	str	r3, [fp, #-20]	; 0xffffffec
  104c20:	e51b2014 	ldr	r2, [fp, #-20]	; 0xffffffec
  104c24:	e51b300c 	ldr	r3, [fp, #-12]
  104c28:	e1520003 	cmp	r2, r3
  104c2c:	baffffd9 	blt	104b98 <ut+0x540>
  104c30:	e51b3008 	ldr	r3, [fp, #-8]
  104c34:	e2833001 	add	r3, r3, #1
  104c38:	e50b3008 	str	r3, [fp, #-8]
  104c3c:	e51b3008 	ldr	r3, [fp, #-8]
  104c40:	e3530040 	cmp	r3, #64	; 0x40
  104c44:	daffffcc 	ble	104b7c <ut+0x524>
  104c48:	e24b3b21 	sub	r3, fp, #33792	; 0x8400
  104c4c:	e2433004 	sub	r3, r3, #4
  104c50:	e2433048 	sub	r3, r3, #72	; 0x48
  104c54:	e3082408 	movw	r2, #33800	; 0x8408
  104c58:	e3a01000 	mov	r1, #0
  104c5c:	e1a00003 	mov	r0, r3
  104c60:	eb000edf 	bl	1087e4 <memset>
  104c64:	e3a03000 	mov	r3, #0
  104c68:	e50b3018 	str	r3, [fp, #-24]	; 0xffffffe8
  104c6c:	ea000014 	b	104cc4 <ut+0x66c>
  104c70:	e51b2018 	ldr	r2, [fp, #-24]	; 0xffffffe8
  104c74:	e1a03002 	mov	r3, r2
  104c78:	e1a03283 	lsl	r3, r3, #5
  104c7c:	e0833002 	add	r3, r3, r2
  104c80:	e1a03083 	lsl	r3, r3, #1
  104c84:	e1a01003 	mov	r1, r3
  104c88:	e51b3018 	ldr	r3, [fp, #-24]	; 0xffffffe8
  104c8c:	e1a03183 	lsl	r3, r3, #3
  104c90:	e59b2004 	ldr	r2, [fp, #4]
  104c94:	e0823003 	add	r3, r2, r3
  104c98:	e1c320d0 	ldrd	r2, [r3]
  104c9c:	e24b0902 	sub	r0, fp, #32768	; 0x8000
  104ca0:	e2400004 	sub	r0, r0, #4
  104ca4:	e2400d11 	sub	r0, r0, #1088	; 0x440
  104ca8:	e1a01181 	lsl	r1, r1, #3
  104cac:	e0801001 	add	r1, r0, r1
  104cb0:	e2411008 	sub	r1, r1, #8
  104cb4:	e1c120f0 	strd	r2, [r1]
  104cb8:	e51b3018 	ldr	r3, [fp, #-24]	; 0xffffffe8
  104cbc:	e2833001 	add	r3, r3, #1
  104cc0:	e50b3018 	str	r3, [fp, #-24]	; 0xffffffe8
  104cc4:	e51b3018 	ldr	r3, [fp, #-24]	; 0xffffffe8
  104cc8:	e3530040 	cmp	r3, #64	; 0x40
  104ccc:	daffffe7 	ble	104c70 <ut+0x618>
  104cd0:	e24b3c85 	sub	r3, fp, #34048	; 0x8500
  104cd4:	e2433004 	sub	r3, r3, #4
  104cd8:	e243304c 	sub	r3, r3, #76	; 0x4c
  104cdc:	e3a01002 	mov	r1, #2
  104ce0:	e1a00003 	mov	r0, r3
  104ce4:	eb0004c2 	bl	105ff4 <emxInit_real_T>
  104ce8:	e59b302c 	ldr	r3, [fp, #44]	; 0x2c
  104cec:	e5933004 	ldr	r3, [r3, #4]
  104cf0:	e5933000 	ldr	r3, [r3]
  104cf4:	e50b3038 	str	r3, [fp, #-56]	; 0xffffffc8
  104cf8:	e24b3902 	sub	r3, fp, #32768	; 0x8000
  104cfc:	e2433004 	sub	r3, r3, #4
  104d00:	e513354c 	ldr	r3, [r3, #-1356]	; 0xfffffab4
  104d04:	e5933004 	ldr	r3, [r3, #4]
  104d08:	e5933000 	ldr	r3, [r3]
  104d0c:	e24b2902 	sub	r2, fp, #32768	; 0x8000
  104d10:	e2422004 	sub	r2, r2, #4
  104d14:	e512254c 	ldr	r2, [r2, #-1356]	; 0xfffffab4
  104d18:	e5922004 	ldr	r2, [r2, #4]
  104d1c:	e2822004 	add	r2, r2, #4
  104d20:	e5922000 	ldr	r2, [r2]
  104d24:	e0030392 	mul	r3, r2, r3
  104d28:	e50b3008 	str	r3, [fp, #-8]
  104d2c:	e24b3902 	sub	r3, fp, #32768	; 0x8000
  104d30:	e2433004 	sub	r3, r3, #4
  104d34:	e513354c 	ldr	r3, [r3, #-1356]	; 0xfffffab4
  104d38:	e5933004 	ldr	r3, [r3, #4]
  104d3c:	e51b2038 	ldr	r2, [fp, #-56]	; 0xffffffc8
  104d40:	e5832000 	str	r2, [r3]
  104d44:	e24b3902 	sub	r3, fp, #32768	; 0x8000
  104d48:	e2433004 	sub	r3, r3, #4
  104d4c:	e513354c 	ldr	r3, [r3, #-1356]	; 0xfffffab4
  104d50:	e5933004 	ldr	r3, [r3, #4]
  104d54:	e2833004 	add	r3, r3, #4
  104d58:	e3a02041 	mov	r2, #65	; 0x41
  104d5c:	e5832000 	str	r2, [r3]
  104d60:	e24b3902 	sub	r3, fp, #32768	; 0x8000
  104d64:	e2433004 	sub	r3, r3, #4
  104d68:	e513354c 	ldr	r3, [r3, #-1356]	; 0xfffffab4
  104d6c:	e3a02008 	mov	r2, #8
  104d70:	e51b1008 	ldr	r1, [fp, #-8]
  104d74:	e1a00003 	mov	r0, r3
  104d78:	eb0003bd 	bl	105c74 <emxEnsureCapacity>
  104d7c:	e59b302c 	ldr	r3, [fp, #44]	; 0x2c
  104d80:	e5933004 	ldr	r3, [r3, #4]
  104d84:	e5933000 	ldr	r3, [r3]
  104d88:	e50b303c 	str	r3, [fp, #-60]	; 0xffffffc4
  104d8c:	e24b3902 	sub	r3, fp, #32768	; 0x8000
  104d90:	e2433004 	sub	r3, r3, #4
  104d94:	e513354c 	ldr	r3, [r3, #-1356]	; 0xfffffab4
  104d98:	e5933004 	ldr	r3, [r3, #4]
  104d9c:	e5933000 	ldr	r3, [r3]
  104da0:	e24b2902 	sub	r2, fp, #32768	; 0x8000
  104da4:	e2422004 	sub	r2, r2, #4
  104da8:	e512254c 	ldr	r2, [r2, #-1356]	; 0xfffffab4
  104dac:	e5922004 	ldr	r2, [r2, #4]
  104db0:	e2822004 	add	r2, r2, #4
  104db4:	e5922000 	ldr	r2, [r2]
  104db8:	e0030392 	mul	r3, r2, r3
  104dbc:	e50b3008 	str	r3, [fp, #-8]
  104dc0:	e24b3902 	sub	r3, fp, #32768	; 0x8000
  104dc4:	e2433004 	sub	r3, r3, #4
  104dc8:	e513354c 	ldr	r3, [r3, #-1356]	; 0xfffffab4
  104dcc:	e5933004 	ldr	r3, [r3, #4]
  104dd0:	e2833004 	add	r3, r3, #4
  104dd4:	e3a02041 	mov	r2, #65	; 0x41
  104dd8:	e5832000 	str	r2, [r3]
  104ddc:	e24b3902 	sub	r3, fp, #32768	; 0x8000
  104de0:	e2433004 	sub	r3, r3, #4
  104de4:	e513354c 	ldr	r3, [r3, #-1356]	; 0xfffffab4
  104de8:	e3a02008 	mov	r2, #8
  104dec:	e51b1008 	ldr	r1, [fp, #-8]
  104df0:	e1a00003 	mov	r0, r3
  104df4:	eb00039e 	bl	105c74 <emxEnsureCapacity>
  104df8:	e3a03000 	mov	r3, #0
  104dfc:	e50b3008 	str	r3, [fp, #-8]
  104e00:	ea000024 	b	104e98 <ut+0x840>
  104e04:	e24b3902 	sub	r3, fp, #32768	; 0x8000
  104e08:	e2433004 	sub	r3, r3, #4
  104e0c:	e513354c 	ldr	r3, [r3, #-1356]	; 0xfffffab4
  104e10:	e5933004 	ldr	r3, [r3, #4]
  104e14:	e5933000 	ldr	r3, [r3]
  104e18:	e50b300c 	str	r3, [fp, #-12]
  104e1c:	e3a03000 	mov	r3, #0
  104e20:	e50b3014 	str	r3, [fp, #-20]	; 0xffffffec
  104e24:	ea000014 	b	104e7c <ut+0x824>
  104e28:	e24b3902 	sub	r3, fp, #32768	; 0x8000
  104e2c:	e2433004 	sub	r3, r3, #4
  104e30:	e513354c 	ldr	r3, [r3, #-1356]	; 0xfffffab4
  104e34:	e5932000 	ldr	r2, [r3]
  104e38:	e24b3902 	sub	r3, fp, #32768	; 0x8000
  104e3c:	e2433004 	sub	r3, r3, #4
  104e40:	e513354c 	ldr	r3, [r3, #-1356]	; 0xfffffab4
  104e44:	e5933004 	ldr	r3, [r3, #4]
  104e48:	e5933000 	ldr	r3, [r3]
  104e4c:	e51b1008 	ldr	r1, [fp, #-8]
  104e50:	e0010391 	mul	r1, r1, r3
  104e54:	e51b3014 	ldr	r3, [fp, #-20]	; 0xffffffec
  104e58:	e0813003 	add	r3, r1, r3
  104e5c:	e1a03183 	lsl	r3, r3, #3
  104e60:	e0821003 	add	r1, r2, r3
  104e64:	e3a02000 	mov	r2, #0
  104e68:	e3a03000 	mov	r3, #0
  104e6c:	e1c120f0 	strd	r2, [r1]
  104e70:	e51b3014 	ldr	r3, [fp, #-20]	; 0xffffffec
  104e74:	e2833001 	add	r3, r3, #1
  104e78:	e50b3014 	str	r3, [fp, #-20]	; 0xffffffec
  104e7c:	e51b2014 	ldr	r2, [fp, #-20]	; 0xffffffec
  104e80:	e51b300c 	ldr	r3, [fp, #-12]
  104e84:	e1520003 	cmp	r2, r3
  104e88:	baffffe6 	blt	104e28 <ut+0x7d0>
  104e8c:	e51b3008 	ldr	r3, [fp, #-8]
  104e90:	e2833001 	add	r3, r3, #1
  104e94:	e50b3008 	str	r3, [fp, #-8]
  104e98:	e51b3008 	ldr	r3, [fp, #-8]
  104e9c:	e3530040 	cmp	r3, #64	; 0x40
  104ea0:	daffffd7 	ble	104e04 <ut+0x7ac>
  104ea4:	e59b302c 	ldr	r3, [fp, #44]	; 0x2c
  104ea8:	e5933004 	ldr	r3, [r3, #4]
  104eac:	e5933000 	ldr	r3, [r3]
  104eb0:	e3530000 	cmp	r3, #0
  104eb4:	0a000091 	beq	105100 <ut+0xaa8>
  104eb8:	e59b302c 	ldr	r3, [fp, #44]	; 0x2c
  104ebc:	e5933004 	ldr	r3, [r3, #4]
  104ec0:	e5933000 	ldr	r3, [r3]
  104ec4:	e1a03303 	lsl	r3, r3, #6
  104ec8:	e50b3018 	str	r3, [fp, #-24]	; 0xffffffe8
  104ecc:	e3a03000 	mov	r3, #0
  104ed0:	e50b3014 	str	r3, [fp, #-20]	; 0xffffffec
  104ed4:	ea00001c 	b	104f4c <ut+0x8f4>
  104ed8:	e51b2014 	ldr	r2, [fp, #-20]	; 0xffffffec
  104edc:	e51b303c 	ldr	r3, [fp, #-60]	; 0xffffffc4
  104ee0:	e0823003 	add	r3, r2, r3
  104ee4:	e50b3008 	str	r3, [fp, #-8]
  104ee8:	e51b3014 	ldr	r3, [fp, #-20]	; 0xffffffec
  104eec:	e50b301c 	str	r3, [fp, #-28]	; 0xffffffe4
  104ef0:	ea00000c 	b	104f28 <ut+0x8d0>
  104ef4:	e24b3902 	sub	r3, fp, #32768	; 0x8000
  104ef8:	e2433004 	sub	r3, r3, #4
  104efc:	e513354c 	ldr	r3, [r3, #-1356]	; 0xfffffab4
  104f00:	e5932000 	ldr	r2, [r3]
  104f04:	e51b301c 	ldr	r3, [fp, #-28]	; 0xffffffe4
  104f08:	e1a03183 	lsl	r3, r3, #3
  104f0c:	e0821003 	add	r1, r2, r3
  104f10:	e3a02000 	mov	r2, #0
  104f14:	e3a03000 	mov	r3, #0
  104f18:	e1c120f0 	strd	r2, [r1]
  104f1c:	e51b301c 	ldr	r3, [fp, #-28]	; 0xffffffe4
  104f20:	e2833001 	add	r3, r3, #1
  104f24:	e50b301c 	str	r3, [fp, #-28]	; 0xffffffe4
  104f28:	e51b301c 	ldr	r3, [fp, #-28]	; 0xffffffe4
  104f2c:	e2832001 	add	r2, r3, #1
  104f30:	e51b3008 	ldr	r3, [fp, #-8]
  104f34:	e1520003 	cmp	r2, r3
  104f38:	daffffed 	ble	104ef4 <ut+0x89c>
  104f3c:	e51b2014 	ldr	r2, [fp, #-20]	; 0xffffffec
  104f40:	e51b303c 	ldr	r3, [fp, #-60]	; 0xffffffc4
  104f44:	e0823003 	add	r3, r2, r3
  104f48:	e50b3014 	str	r3, [fp, #-20]	; 0xffffffec
  104f4c:	e51b303c 	ldr	r3, [fp, #-60]	; 0xffffffc4
  104f50:	e3530000 	cmp	r3, #0
  104f54:	da000003 	ble	104f68 <ut+0x910>
  104f58:	e51b2014 	ldr	r2, [fp, #-20]	; 0xffffffec
  104f5c:	e51b3018 	ldr	r3, [fp, #-24]	; 0xffffffe8
  104f60:	e1520003 	cmp	r2, r3
  104f64:	daffffdb 	ble	104ed8 <ut+0x880>
  104f68:	e3a03000 	mov	r3, #0
  104f6c:	e50b300c 	str	r3, [fp, #-12]
  104f70:	e3a03000 	mov	r3, #0
  104f74:	e50b3014 	str	r3, [fp, #-20]	; 0xffffffec
  104f78:	ea000059 	b	1050e4 <ut+0xa8c>
  104f7c:	e3e03000 	mvn	r3, #0
  104f80:	e50b3020 	str	r3, [fp, #-32]	; 0xffffffe0
  104f84:	e51b300c 	ldr	r3, [fp, #-12]
  104f88:	e50b3024 	str	r3, [fp, #-36]	; 0xffffffdc
  104f8c:	ea000047 	b	1050b0 <ut+0xa58>
  104f90:	e24b3902 	sub	r3, fp, #32768	; 0x8000
  104f94:	e2433004 	sub	r3, r3, #4
  104f98:	e2433d11 	sub	r3, r3, #1088	; 0x440
  104f9c:	e1a02003 	mov	r2, r3
  104fa0:	e51b3024 	ldr	r3, [fp, #-36]	; 0xffffffdc
  104fa4:	e1a03183 	lsl	r3, r3, #3
  104fa8:	e0823003 	add	r3, r2, r3
  104fac:	e2433008 	sub	r3, r3, #8
  104fb0:	edd30b00 	vldr	d16, [r3]
  104fb4:	eef50b40 	vcmp.f64	d16, #0.0
  104fb8:	eef1fa10 	vmrs	APSR_nzcv, fpscr
  104fbc:	0a000034 	beq	105094 <ut+0xa3c>
  104fc0:	e51b3020 	ldr	r3, [fp, #-32]	; 0xffffffe0
  104fc4:	e50b3028 	str	r3, [fp, #-40]	; 0xffffffd8
  104fc8:	e51b2014 	ldr	r2, [fp, #-20]	; 0xffffffec
  104fcc:	e51b303c 	ldr	r3, [fp, #-60]	; 0xffffffc4
  104fd0:	e0823003 	add	r3, r2, r3
  104fd4:	e50b3008 	str	r3, [fp, #-8]
  104fd8:	e51b3014 	ldr	r3, [fp, #-20]	; 0xffffffec
  104fdc:	e50b301c 	str	r3, [fp, #-28]	; 0xffffffe4
  104fe0:	ea000026 	b	105080 <ut+0xa28>
  104fe4:	e51b3028 	ldr	r3, [fp, #-40]	; 0xffffffd8
  104fe8:	e2833001 	add	r3, r3, #1
  104fec:	e50b3028 	str	r3, [fp, #-40]	; 0xffffffd8
  104ff0:	e24b3902 	sub	r3, fp, #32768	; 0x8000
  104ff4:	e2433004 	sub	r3, r3, #4
  104ff8:	e513354c 	ldr	r3, [r3, #-1356]	; 0xfffffab4
  104ffc:	e5932000 	ldr	r2, [r3]
  105000:	e51b301c 	ldr	r3, [fp, #-28]	; 0xffffffe4
  105004:	e1a03183 	lsl	r3, r3, #3
  105008:	e0823003 	add	r3, r2, r3
  10500c:	e24b2902 	sub	r2, fp, #32768	; 0x8000
  105010:	e2422004 	sub	r2, r2, #4
  105014:	e512254c 	ldr	r2, [r2, #-1356]	; 0xfffffab4
  105018:	e5921000 	ldr	r1, [r2]
  10501c:	e51b201c 	ldr	r2, [fp, #-28]	; 0xffffffe4
  105020:	e1a02182 	lsl	r2, r2, #3
  105024:	e0812002 	add	r2, r1, r2
  105028:	edd21b00 	vldr	d17, [r2]
  10502c:	e24b2902 	sub	r2, fp, #32768	; 0x8000
  105030:	e2422004 	sub	r2, r2, #4
  105034:	e2422d11 	sub	r2, r2, #1088	; 0x440
  105038:	e1a01002 	mov	r1, r2
  10503c:	e51b2024 	ldr	r2, [fp, #-36]	; 0xffffffdc
  105040:	e1a02182 	lsl	r2, r2, #3
  105044:	e0812002 	add	r2, r1, r2
  105048:	e2422008 	sub	r2, r2, #8
  10504c:	edd22b00 	vldr	d18, [r2]
  105050:	e59b202c 	ldr	r2, [fp, #44]	; 0x2c
  105054:	e5921000 	ldr	r1, [r2]
  105058:	e51b2028 	ldr	r2, [fp, #-40]	; 0xffffffd8
  10505c:	e1a02182 	lsl	r2, r2, #3
  105060:	e0812002 	add	r2, r1, r2
  105064:	edd20b00 	vldr	d16, [r2]
  105068:	ee620ba0 	vmul.f64	d16, d18, d16
  10506c:	ee710ba0 	vadd.f64	d16, d17, d16
  105070:	edc30b00 	vstr	d16, [r3]
  105074:	e51b301c 	ldr	r3, [fp, #-28]	; 0xffffffe4
  105078:	e2833001 	add	r3, r3, #1
  10507c:	e50b301c 	str	r3, [fp, #-28]	; 0xffffffe4
  105080:	e51b301c 	ldr	r3, [fp, #-28]	; 0xffffffe4
  105084:	e2832001 	add	r2, r3, #1
  105088:	e51b3008 	ldr	r3, [fp, #-8]
  10508c:	e1520003 	cmp	r2, r3
  105090:	daffffd3 	ble	104fe4 <ut+0x98c>
  105094:	e51b2020 	ldr	r2, [fp, #-32]	; 0xffffffe0
  105098:	e51b303c 	ldr	r3, [fp, #-60]	; 0xffffffc4
  10509c:	e0823003 	add	r3, r2, r3
  1050a0:	e50b3020 	str	r3, [fp, #-32]	; 0xffffffe0
  1050a4:	e51b3024 	ldr	r3, [fp, #-36]	; 0xffffffdc
  1050a8:	e2833001 	add	r3, r3, #1
  1050ac:	e50b3024 	str	r3, [fp, #-36]	; 0xffffffdc
  1050b0:	e51b3024 	ldr	r3, [fp, #-36]	; 0xffffffdc
  1050b4:	e2832001 	add	r2, r3, #1
  1050b8:	e51b300c 	ldr	r3, [fp, #-12]
  1050bc:	e2833041 	add	r3, r3, #65	; 0x41
  1050c0:	e1520003 	cmp	r2, r3
  1050c4:	daffffb1 	ble	104f90 <ut+0x938>
  1050c8:	e51b300c 	ldr	r3, [fp, #-12]
  1050cc:	e2833041 	add	r3, r3, #65	; 0x41
  1050d0:	e50b300c 	str	r3, [fp, #-12]
  1050d4:	e51b2014 	ldr	r2, [fp, #-20]	; 0xffffffec
  1050d8:	e51b303c 	ldr	r3, [fp, #-60]	; 0xffffffc4
  1050dc:	e0823003 	add	r3, r2, r3
  1050e0:	e50b3014 	str	r3, [fp, #-20]	; 0xffffffec
  1050e4:	e51b303c 	ldr	r3, [fp, #-60]	; 0xffffffc4
  1050e8:	e3530000 	cmp	r3, #0
  1050ec:	da000003 	ble	105100 <ut+0xaa8>
  1050f0:	e51b2014 	ldr	r2, [fp, #-20]	; 0xffffffec
  1050f4:	e51b3018 	ldr	r3, [fp, #-24]	; 0xffffffe8
  1050f8:	e1520003 	cmp	r2, r3
  1050fc:	daffff9e 	ble	104f7c <ut+0x924>
  105100:	e24b3c85 	sub	r3, fp, #34048	; 0x8500
  105104:	e2433004 	sub	r3, r3, #4
  105108:	e2433050 	sub	r3, r3, #80	; 0x50
  10510c:	e3a01002 	mov	r1, #2
  105110:	e1a00003 	mov	r0, r3
  105114:	eb0003b6 	bl	105ff4 <emxInit_real_T>
  105118:	e24b3902 	sub	r3, fp, #32768	; 0x8000
  10511c:	e2433004 	sub	r3, r3, #4
  105120:	e5133550 	ldr	r3, [r3, #-1360]	; 0xfffffab0
  105124:	e5933004 	ldr	r3, [r3, #4]
  105128:	e5933000 	ldr	r3, [r3]
  10512c:	e24b2902 	sub	r2, fp, #32768	; 0x8000
  105130:	e2422004 	sub	r2, r2, #4
  105134:	e5122550 	ldr	r2, [r2, #-1360]	; 0xfffffab0
  105138:	e5922004 	ldr	r2, [r2, #4]
  10513c:	e2822004 	add	r2, r2, #4
  105140:	e5922000 	ldr	r2, [r2]
  105144:	e0030392 	mul	r3, r2, r3
  105148:	e50b3008 	str	r3, [fp, #-8]
  10514c:	e24b3902 	sub	r3, fp, #32768	; 0x8000
  105150:	e2433004 	sub	r3, r3, #4
  105154:	e5133550 	ldr	r3, [r3, #-1360]	; 0xfffffab0
  105158:	e5933004 	ldr	r3, [r3, #4]
  10515c:	e3a02041 	mov	r2, #65	; 0x41
  105160:	e5832000 	str	r2, [r3]
  105164:	e24b3902 	sub	r3, fp, #32768	; 0x8000
  105168:	e2433004 	sub	r3, r3, #4
  10516c:	e5133550 	ldr	r3, [r3, #-1360]	; 0xfffffab0
  105170:	e5933004 	ldr	r3, [r3, #4]
  105174:	e2833004 	add	r3, r3, #4
  105178:	e59b202c 	ldr	r2, [fp, #44]	; 0x2c
  10517c:	e5922004 	ldr	r2, [r2, #4]
  105180:	e5922000 	ldr	r2, [r2]
  105184:	e5832000 	str	r2, [r3]
  105188:	e24b3902 	sub	r3, fp, #32768	; 0x8000
  10518c:	e2433004 	sub	r3, r3, #4
  105190:	e5133550 	ldr	r3, [r3, #-1360]	; 0xfffffab0
  105194:	e3a02008 	mov	r2, #8
  105198:	e51b1008 	ldr	r1, [fp, #-8]
  10519c:	e1a00003 	mov	r0, r3
  1051a0:	eb0002b3 	bl	105c74 <emxEnsureCapacity>
  1051a4:	e59b302c 	ldr	r3, [fp, #44]	; 0x2c
  1051a8:	e5933004 	ldr	r3, [r3, #4]
  1051ac:	e5933000 	ldr	r3, [r3]
  1051b0:	e50b300c 	str	r3, [fp, #-12]
  1051b4:	e3a03000 	mov	r3, #0
  1051b8:	e50b3008 	str	r3, [fp, #-8]
  1051bc:	ea000027 	b	105260 <ut+0xc08>
  1051c0:	e3a03000 	mov	r3, #0
  1051c4:	e50b3014 	str	r3, [fp, #-20]	; 0xffffffec
  1051c8:	ea00001e 	b	105248 <ut+0xbf0>
  1051cc:	e24b3902 	sub	r3, fp, #32768	; 0x8000
  1051d0:	e2433004 	sub	r3, r3, #4
  1051d4:	e5133550 	ldr	r3, [r3, #-1360]	; 0xfffffab0
  1051d8:	e5932000 	ldr	r2, [r3]
  1051dc:	e24b3902 	sub	r3, fp, #32768	; 0x8000
  1051e0:	e2433004 	sub	r3, r3, #4
  1051e4:	e5133550 	ldr	r3, [r3, #-1360]	; 0xfffffab0
  1051e8:	e5933004 	ldr	r3, [r3, #4]
  1051ec:	e5933000 	ldr	r3, [r3]
  1051f0:	e51b1008 	ldr	r1, [fp, #-8]
  1051f4:	e0010391 	mul	r1, r1, r3
  1051f8:	e51b3014 	ldr	r3, [fp, #-20]	; 0xffffffec
  1051fc:	e0813003 	add	r3, r1, r3
  105200:	e1a03183 	lsl	r3, r3, #3
  105204:	e0821003 	add	r1, r2, r3
  105208:	e59b302c 	ldr	r3, [fp, #44]	; 0x2c
  10520c:	e5932000 	ldr	r2, [r3]
  105210:	e59b302c 	ldr	r3, [fp, #44]	; 0x2c
  105214:	e5933004 	ldr	r3, [r3, #4]
  105218:	e5933000 	ldr	r3, [r3]
  10521c:	e51b0014 	ldr	r0, [fp, #-20]	; 0xffffffec
  105220:	e0000390 	mul	r0, r0, r3
  105224:	e51b3008 	ldr	r3, [fp, #-8]
  105228:	e0803003 	add	r3, r0, r3
  10522c:	e1a03183 	lsl	r3, r3, #3
  105230:	e0823003 	add	r3, r2, r3
  105234:	e1c320d0 	ldrd	r2, [r3]
  105238:	e1c120f0 	strd	r2, [r1]
  10523c:	e51b3014 	ldr	r3, [fp, #-20]	; 0xffffffec
  105240:	e2833001 	add	r3, r3, #1
  105244:	e50b3014 	str	r3, [fp, #-20]	; 0xffffffec
  105248:	e51b3014 	ldr	r3, [fp, #-20]	; 0xffffffec
  10524c:	e3530040 	cmp	r3, #64	; 0x40
  105250:	daffffdd 	ble	1051cc <ut+0xb74>
  105254:	e51b3008 	ldr	r3, [fp, #-8]
  105258:	e2833001 	add	r3, r3, #1
  10525c:	e50b3008 	str	r3, [fp, #-8]
  105260:	e51b2008 	ldr	r2, [fp, #-8]
  105264:	e51b300c 	ldr	r3, [fp, #-12]
  105268:	e1520003 	cmp	r2, r3
  10526c:	baffffd3 	blt	1051c0 <ut+0xb68>
  105270:	e24b3c85 	sub	r3, fp, #34048	; 0x8500
  105274:	e2433004 	sub	r3, r3, #4
  105278:	e2433054 	sub	r3, r3, #84	; 0x54
  10527c:	e3a01002 	mov	r1, #2
  105280:	e1a00003 	mov	r0, r3
  105284:	eb00035a 	bl	105ff4 <emxInit_real_T>
  105288:	e24b3902 	sub	r3, fp, #32768	; 0x8000
  10528c:	e2433004 	sub	r3, r3, #4
  105290:	e513354c 	ldr	r3, [r3, #-1356]	; 0xfffffab4
  105294:	e5933004 	ldr	r3, [r3, #4]
  105298:	e5933000 	ldr	r3, [r3]
  10529c:	e50b3038 	str	r3, [fp, #-56]	; 0xffffffc8
  1052a0:	e24b3902 	sub	r3, fp, #32768	; 0x8000
  1052a4:	e2433004 	sub	r3, r3, #4
  1052a8:	e5133550 	ldr	r3, [r3, #-1360]	; 0xfffffab0
  1052ac:	e5933004 	ldr	r3, [r3, #4]
  1052b0:	e2833004 	add	r3, r3, #4
  1052b4:	e5933000 	ldr	r3, [r3]
  1052b8:	e50b3040 	str	r3, [fp, #-64]	; 0xffffffc0
  1052bc:	e24b3902 	sub	r3, fp, #32768	; 0x8000
  1052c0:	e2433004 	sub	r3, r3, #4
  1052c4:	e5133554 	ldr	r3, [r3, #-1364]	; 0xfffffaac
  1052c8:	e5933004 	ldr	r3, [r3, #4]
  1052cc:	e5933000 	ldr	r3, [r3]
  1052d0:	e24b2902 	sub	r2, fp, #32768	; 0x8000
  1052d4:	e2422004 	sub	r2, r2, #4
  1052d8:	e5122554 	ldr	r2, [r2, #-1364]	; 0xfffffaac
  1052dc:	e5922004 	ldr	r2, [r2, #4]
  1052e0:	e2822004 	add	r2, r2, #4
  1052e4:	e5922000 	ldr	r2, [r2]
  1052e8:	e0030392 	mul	r3, r2, r3
  1052ec:	e50b3008 	str	r3, [fp, #-8]
  1052f0:	e24b3902 	sub	r3, fp, #32768	; 0x8000
  1052f4:	e2433004 	sub	r3, r3, #4
  1052f8:	e5133554 	ldr	r3, [r3, #-1364]	; 0xfffffaac
  1052fc:	e5933004 	ldr	r3, [r3, #4]
  105300:	e51b2038 	ldr	r2, [fp, #-56]	; 0xffffffc8
  105304:	e5832000 	str	r2, [r3]
  105308:	e24b3902 	sub	r3, fp, #32768	; 0x8000
  10530c:	e2433004 	sub	r3, r3, #4
  105310:	e5133554 	ldr	r3, [r3, #-1364]	; 0xfffffaac
  105314:	e5933004 	ldr	r3, [r3, #4]
  105318:	e2833004 	add	r3, r3, #4
  10531c:	e51b2040 	ldr	r2, [fp, #-64]	; 0xffffffc0
  105320:	e5832000 	str	r2, [r3]
  105324:	e24b3902 	sub	r3, fp, #32768	; 0x8000
  105328:	e2433004 	sub	r3, r3, #4
  10532c:	e5133554 	ldr	r3, [r3, #-1364]	; 0xfffffaac
  105330:	e3a02008 	mov	r2, #8
  105334:	e51b1008 	ldr	r1, [fp, #-8]
  105338:	e1a00003 	mov	r0, r3
  10533c:	eb00024c 	bl	105c74 <emxEnsureCapacity>
  105340:	e24b3902 	sub	r3, fp, #32768	; 0x8000
  105344:	e2433004 	sub	r3, r3, #4
  105348:	e513354c 	ldr	r3, [r3, #-1356]	; 0xfffffab4
  10534c:	e5933004 	ldr	r3, [r3, #4]
  105350:	e5933000 	ldr	r3, [r3]
  105354:	e50b303c 	str	r3, [fp, #-60]	; 0xffffffc4
  105358:	e24b3902 	sub	r3, fp, #32768	; 0x8000
  10535c:	e2433004 	sub	r3, r3, #4
  105360:	e5133554 	ldr	r3, [r3, #-1364]	; 0xfffffaac
  105364:	e5933004 	ldr	r3, [r3, #4]
  105368:	e5933000 	ldr	r3, [r3]
  10536c:	e24b2902 	sub	r2, fp, #32768	; 0x8000
  105370:	e2422004 	sub	r2, r2, #4
  105374:	e5122554 	ldr	r2, [r2, #-1364]	; 0xfffffaac
  105378:	e5922004 	ldr	r2, [r2, #4]
  10537c:	e2822004 	add	r2, r2, #4
  105380:	e5922000 	ldr	r2, [r2]
  105384:	e0030392 	mul	r3, r2, r3
  105388:	e50b3008 	str	r3, [fp, #-8]
  10538c:	e24b3902 	sub	r3, fp, #32768	; 0x8000
  105390:	e2433004 	sub	r3, r3, #4
  105394:	e5133554 	ldr	r3, [r3, #-1364]	; 0xfffffaac
  105398:	e3a02008 	mov	r2, #8
  10539c:	e51b1008 	ldr	r1, [fp, #-8]
  1053a0:	e1a00003 	mov	r0, r3
  1053a4:	eb000232 	bl	105c74 <emxEnsureCapacity>
  1053a8:	e24b3902 	sub	r3, fp, #32768	; 0x8000
  1053ac:	e2433004 	sub	r3, r3, #4
  1053b0:	e5133554 	ldr	r3, [r3, #-1364]	; 0xfffffaac
  1053b4:	e5933004 	ldr	r3, [r3, #4]
  1053b8:	e5933004 	ldr	r3, [r3, #4]
  1053bc:	e50b300c 	str	r3, [fp, #-12]
  1053c0:	e3a03000 	mov	r3, #0
  1053c4:	e50b3008 	str	r3, [fp, #-8]
  1053c8:	ea000024 	b	105460 <ut+0xe08>
  1053cc:	e24b3902 	sub	r3, fp, #32768	; 0x8000
  1053d0:	e2433004 	sub	r3, r3, #4
  1053d4:	e5133554 	ldr	r3, [r3, #-1364]	; 0xfffffaac
  1053d8:	e5933004 	ldr	r3, [r3, #4]
  1053dc:	e5933000 	ldr	r3, [r3]
  1053e0:	e50b3018 	str	r3, [fp, #-24]	; 0xffffffe8
  1053e4:	e3a03000 	mov	r3, #0
  1053e8:	e50b3014 	str	r3, [fp, #-20]	; 0xffffffec
  1053ec:	ea000014 	b	105444 <ut+0xdec>
  1053f0:	e24b3902 	sub	r3, fp, #32768	; 0x8000
  1053f4:	e2433004 	sub	r3, r3, #4
  1053f8:	e5133554 	ldr	r3, [r3, #-1364]	; 0xfffffaac
  1053fc:	e5932000 	ldr	r2, [r3]
  105400:	e24b3902 	sub	r3, fp, #32768	; 0x8000
  105404:	e2433004 	sub	r3, r3, #4
  105408:	e5133554 	ldr	r3, [r3, #-1364]	; 0xfffffaac
  10540c:	e5933004 	ldr	r3, [r3, #4]
  105410:	e5933000 	ldr	r3, [r3]
  105414:	e51b1008 	ldr	r1, [fp, #-8]
  105418:	e0010391 	mul	r1, r1, r3
  10541c:	e51b3014 	ldr	r3, [fp, #-20]	; 0xffffffec
  105420:	e0813003 	add	r3, r1, r3
  105424:	e1a03183 	lsl	r3, r3, #3
  105428:	e0821003 	add	r1, r2, r3
  10542c:	e3a02000 	mov	r2, #0
  105430:	e3a03000 	mov	r3, #0
  105434:	e1c120f0 	strd	r2, [r1]
  105438:	e51b3014 	ldr	r3, [fp, #-20]	; 0xffffffec
  10543c:	e2833001 	add	r3, r3, #1
  105440:	e50b3014 	str	r3, [fp, #-20]	; 0xffffffec
  105444:	e51b2014 	ldr	r2, [fp, #-20]	; 0xffffffec
  105448:	e51b3018 	ldr	r3, [fp, #-24]	; 0xffffffe8
  10544c:	e1520003 	cmp	r2, r3
  105450:	baffffe6 	blt	1053f0 <ut+0xd98>
  105454:	e51b3008 	ldr	r3, [fp, #-8]
  105458:	e2833001 	add	r3, r3, #1
  10545c:	e50b3008 	str	r3, [fp, #-8]
  105460:	e51b2008 	ldr	r2, [fp, #-8]
  105464:	e51b300c 	ldr	r3, [fp, #-12]
  105468:	e1520003 	cmp	r2, r3
  10546c:	baffffd6 	blt	1053cc <ut+0xd74>
  105470:	e24b3902 	sub	r3, fp, #32768	; 0x8000
  105474:	e2433004 	sub	r3, r3, #4
  105478:	e513354c 	ldr	r3, [r3, #-1356]	; 0xfffffab4
  10547c:	e5933004 	ldr	r3, [r3, #4]
  105480:	e5933000 	ldr	r3, [r3]
  105484:	e3530000 	cmp	r3, #0
  105488:	0a0000a2 	beq	105718 <ut+0x10c0>
  10548c:	e24b3902 	sub	r3, fp, #32768	; 0x8000
  105490:	e2433004 	sub	r3, r3, #4
  105494:	e5133550 	ldr	r3, [r3, #-1360]	; 0xfffffab0
  105498:	e5933004 	ldr	r3, [r3, #4]
  10549c:	e2833004 	add	r3, r3, #4
  1054a0:	e5933000 	ldr	r3, [r3]
  1054a4:	e3530000 	cmp	r3, #0
  1054a8:	0a00009a 	beq	105718 <ut+0x10c0>
  1054ac:	e24b3902 	sub	r3, fp, #32768	; 0x8000
  1054b0:	e2433004 	sub	r3, r3, #4
  1054b4:	e513354c 	ldr	r3, [r3, #-1356]	; 0xfffffab4
  1054b8:	e5933004 	ldr	r3, [r3, #4]
  1054bc:	e5933000 	ldr	r3, [r3]
  1054c0:	e24b2902 	sub	r2, fp, #32768	; 0x8000
  1054c4:	e2422004 	sub	r2, r2, #4
  1054c8:	e5122550 	ldr	r2, [r2, #-1360]	; 0xfffffab0
  1054cc:	e5922004 	ldr	r2, [r2, #4]
  1054d0:	e2822004 	add	r2, r2, #4
  1054d4:	e5922000 	ldr	r2, [r2]
  1054d8:	e2422001 	sub	r2, r2, #1
  1054dc:	e0030392 	mul	r3, r2, r3
  1054e0:	e50b3018 	str	r3, [fp, #-24]	; 0xffffffe8
  1054e4:	e3a03000 	mov	r3, #0
  1054e8:	e50b3014 	str	r3, [fp, #-20]	; 0xffffffec
  1054ec:	ea00001c 	b	105564 <ut+0xf0c>
  1054f0:	e51b2014 	ldr	r2, [fp, #-20]	; 0xffffffec
  1054f4:	e51b303c 	ldr	r3, [fp, #-60]	; 0xffffffc4
  1054f8:	e0823003 	add	r3, r2, r3
  1054fc:	e50b3008 	str	r3, [fp, #-8]
  105500:	e51b3014 	ldr	r3, [fp, #-20]	; 0xffffffec
  105504:	e50b301c 	str	r3, [fp, #-28]	; 0xffffffe4
  105508:	ea00000c 	b	105540 <ut+0xee8>
  10550c:	e24b3902 	sub	r3, fp, #32768	; 0x8000
  105510:	e2433004 	sub	r3, r3, #4
  105514:	e5133554 	ldr	r3, [r3, #-1364]	; 0xfffffaac
  105518:	e5932000 	ldr	r2, [r3]
  10551c:	e51b301c 	ldr	r3, [fp, #-28]	; 0xffffffe4
  105520:	e1a03183 	lsl	r3, r3, #3
  105524:	e0821003 	add	r1, r2, r3
  105528:	e3a02000 	mov	r2, #0
  10552c:	e3a03000 	mov	r3, #0
  105530:	e1c120f0 	strd	r2, [r1]
  105534:	e51b301c 	ldr	r3, [fp, #-28]	; 0xffffffe4
  105538:	e2833001 	add	r3, r3, #1
  10553c:	e50b301c 	str	r3, [fp, #-28]	; 0xffffffe4
  105540:	e51b301c 	ldr	r3, [fp, #-28]	; 0xffffffe4
  105544:	e2832001 	add	r2, r3, #1
  105548:	e51b3008 	ldr	r3, [fp, #-8]
  10554c:	e1520003 	cmp	r2, r3
  105550:	daffffed 	ble	10550c <ut+0xeb4>
  105554:	e51b2014 	ldr	r2, [fp, #-20]	; 0xffffffec
  105558:	e51b303c 	ldr	r3, [fp, #-60]	; 0xffffffc4
  10555c:	e0823003 	add	r3, r2, r3
  105560:	e50b3014 	str	r3, [fp, #-20]	; 0xffffffec
  105564:	e51b303c 	ldr	r3, [fp, #-60]	; 0xffffffc4
  105568:	e3530000 	cmp	r3, #0
  10556c:	da000003 	ble	105580 <ut+0xf28>
  105570:	e51b2014 	ldr	r2, [fp, #-20]	; 0xffffffec
  105574:	e51b3018 	ldr	r3, [fp, #-24]	; 0xffffffe8
  105578:	e1520003 	cmp	r2, r3
  10557c:	daffffdb 	ble	1054f0 <ut+0xe98>
  105580:	e3a03000 	mov	r3, #0
  105584:	e50b300c 	str	r3, [fp, #-12]
  105588:	e3a03000 	mov	r3, #0
  10558c:	e50b3014 	str	r3, [fp, #-20]	; 0xffffffec
  105590:	ea000059 	b	1056fc <ut+0x10a4>
  105594:	e3e03000 	mvn	r3, #0
  105598:	e50b3020 	str	r3, [fp, #-32]	; 0xffffffe0
  10559c:	e51b300c 	ldr	r3, [fp, #-12]
  1055a0:	e50b3024 	str	r3, [fp, #-36]	; 0xffffffdc
  1055a4:	ea000047 	b	1056c8 <ut+0x1070>
  1055a8:	e24b3902 	sub	r3, fp, #32768	; 0x8000
  1055ac:	e2433004 	sub	r3, r3, #4
  1055b0:	e5133550 	ldr	r3, [r3, #-1360]	; 0xfffffab0
  1055b4:	e5932000 	ldr	r2, [r3]
  1055b8:	e51b3024 	ldr	r3, [fp, #-36]	; 0xffffffdc
  1055bc:	e1a03183 	lsl	r3, r3, #3
  1055c0:	e0823003 	add	r3, r2, r3
  1055c4:	edd30b00 	vldr	d16, [r3]
  1055c8:	eef50b40 	vcmp.f64	d16, #0.0
  1055cc:	eef1fa10 	vmrs	APSR_nzcv, fpscr
  1055d0:	0a000035 	beq	1056ac <ut+0x1054>
  1055d4:	e51b3020 	ldr	r3, [fp, #-32]	; 0xffffffe0
  1055d8:	e50b3028 	str	r3, [fp, #-40]	; 0xffffffd8
  1055dc:	e51b2014 	ldr	r2, [fp, #-20]	; 0xffffffec
  1055e0:	e51b303c 	ldr	r3, [fp, #-60]	; 0xffffffc4
  1055e4:	e0823003 	add	r3, r2, r3
  1055e8:	e50b3008 	str	r3, [fp, #-8]
  1055ec:	e51b3014 	ldr	r3, [fp, #-20]	; 0xffffffec
  1055f0:	e50b301c 	str	r3, [fp, #-28]	; 0xffffffe4
  1055f4:	ea000027 	b	105698 <ut+0x1040>
  1055f8:	e51b3028 	ldr	r3, [fp, #-40]	; 0xffffffd8
  1055fc:	e2833001 	add	r3, r3, #1
  105600:	e50b3028 	str	r3, [fp, #-40]	; 0xffffffd8
  105604:	e24b3902 	sub	r3, fp, #32768	; 0x8000
  105608:	e2433004 	sub	r3, r3, #4
  10560c:	e5133554 	ldr	r3, [r3, #-1364]	; 0xfffffaac
  105610:	e5932000 	ldr	r2, [r3]
  105614:	e51b301c 	ldr	r3, [fp, #-28]	; 0xffffffe4
  105618:	e1a03183 	lsl	r3, r3, #3
  10561c:	e0823003 	add	r3, r2, r3
  105620:	e24b2902 	sub	r2, fp, #32768	; 0x8000
  105624:	e2422004 	sub	r2, r2, #4
  105628:	e5122554 	ldr	r2, [r2, #-1364]	; 0xfffffaac
  10562c:	e5921000 	ldr	r1, [r2]
  105630:	e51b201c 	ldr	r2, [fp, #-28]	; 0xffffffe4
  105634:	e1a02182 	lsl	r2, r2, #3
  105638:	e0812002 	add	r2, r1, r2
  10563c:	edd21b00 	vldr	d17, [r2]
  105640:	e24b2902 	sub	r2, fp, #32768	; 0x8000
  105644:	e2422004 	sub	r2, r2, #4
  105648:	e5122550 	ldr	r2, [r2, #-1360]	; 0xfffffab0
  10564c:	e5921000 	ldr	r1, [r2]
  105650:	e51b2024 	ldr	r2, [fp, #-36]	; 0xffffffdc
  105654:	e1a02182 	lsl	r2, r2, #3
  105658:	e0812002 	add	r2, r1, r2
  10565c:	edd22b00 	vldr	d18, [r2]
  105660:	e24b2902 	sub	r2, fp, #32768	; 0x8000
  105664:	e2422004 	sub	r2, r2, #4
  105668:	e512254c 	ldr	r2, [r2, #-1356]	; 0xfffffab4
  10566c:	e5921000 	ldr	r1, [r2]
  105670:	e51b2028 	ldr	r2, [fp, #-40]	; 0xffffffd8
  105674:	e1a02182 	lsl	r2, r2, #3
  105678:	e0812002 	add	r2, r1, r2
  10567c:	edd20b00 	vldr	d16, [r2]
  105680:	ee620ba0 	vmul.f64	d16, d18, d16
  105684:	ee710ba0 	vadd.f64	d16, d17, d16
  105688:	edc30b00 	vstr	d16, [r3]
  10568c:	e51b301c 	ldr	r3, [fp, #-28]	; 0xffffffe4
  105690:	e2833001 	add	r3, r3, #1
  105694:	e50b301c 	str	r3, [fp, #-28]	; 0xffffffe4
  105698:	e51b301c 	ldr	r3, [fp, #-28]	; 0xffffffe4
  10569c:	e2832001 	add	r2, r3, #1
  1056a0:	e51b3008 	ldr	r3, [fp, #-8]
  1056a4:	e1520003 	cmp	r2, r3
  1056a8:	daffffd2 	ble	1055f8 <ut+0xfa0>
  1056ac:	e51b2020 	ldr	r2, [fp, #-32]	; 0xffffffe0
  1056b0:	e51b303c 	ldr	r3, [fp, #-60]	; 0xffffffc4
  1056b4:	e0823003 	add	r3, r2, r3
  1056b8:	e50b3020 	str	r3, [fp, #-32]	; 0xffffffe0
  1056bc:	e51b3024 	ldr	r3, [fp, #-36]	; 0xffffffdc
  1056c0:	e2833001 	add	r3, r3, #1
  1056c4:	e50b3024 	str	r3, [fp, #-36]	; 0xffffffdc
  1056c8:	e51b3024 	ldr	r3, [fp, #-36]	; 0xffffffdc
  1056cc:	e2832001 	add	r2, r3, #1
  1056d0:	e51b300c 	ldr	r3, [fp, #-12]
  1056d4:	e2833041 	add	r3, r3, #65	; 0x41
  1056d8:	e1520003 	cmp	r2, r3
  1056dc:	daffffb1 	ble	1055a8 <ut+0xf50>
  1056e0:	e51b300c 	ldr	r3, [fp, #-12]
  1056e4:	e2833041 	add	r3, r3, #65	; 0x41
  1056e8:	e50b300c 	str	r3, [fp, #-12]
  1056ec:	e51b2014 	ldr	r2, [fp, #-20]	; 0xffffffec
  1056f0:	e51b303c 	ldr	r3, [fp, #-60]	; 0xffffffc4
  1056f4:	e0823003 	add	r3, r2, r3
  1056f8:	e50b3014 	str	r3, [fp, #-20]	; 0xffffffec
  1056fc:	e51b303c 	ldr	r3, [fp, #-60]	; 0xffffffc4
  105700:	e3530000 	cmp	r3, #0
  105704:	da000003 	ble	105718 <ut+0x10c0>
  105708:	e51b2014 	ldr	r2, [fp, #-20]	; 0xffffffec
  10570c:	e51b3018 	ldr	r3, [fp, #-24]	; 0xffffffe8
  105710:	e1520003 	cmp	r2, r3
  105714:	daffff9e 	ble	105594 <ut+0xf3c>
  105718:	e24b3c85 	sub	r3, fp, #34048	; 0x8500
  10571c:	e2433004 	sub	r3, r3, #4
  105720:	e2433050 	sub	r3, r3, #80	; 0x50
  105724:	e1a00003 	mov	r0, r3
  105728:	eb0001d5 	bl	105e84 <emxFree_real_T>
  10572c:	e24b3c85 	sub	r3, fp, #34048	; 0x8500
  105730:	e2433004 	sub	r3, r3, #4
  105734:	e243304c 	sub	r3, r3, #76	; 0x4c
  105738:	e1a00003 	mov	r0, r3
  10573c:	eb0001d0 	bl	105e84 <emxFree_real_T>
  105740:	e24b3902 	sub	r3, fp, #32768	; 0x8000
  105744:	e2433004 	sub	r3, r3, #4
  105748:	e5133554 	ldr	r3, [r3, #-1364]	; 0xfffffaac
  10574c:	e5933004 	ldr	r3, [r3, #4]
  105750:	e5932000 	ldr	r2, [r3]
  105754:	e59b3028 	ldr	r3, [fp, #40]	; 0x28
  105758:	e5832000 	str	r2, [r3]
  10575c:	e59b3028 	ldr	r3, [fp, #40]	; 0x28
  105760:	e2833004 	add	r3, r3, #4
  105764:	e24b2902 	sub	r2, fp, #32768	; 0x8000
  105768:	e2422004 	sub	r2, r2, #4
  10576c:	e5122554 	ldr	r2, [r2, #-1364]	; 0xfffffaac
  105770:	e5922004 	ldr	r2, [r2, #4]
  105774:	e5922004 	ldr	r2, [r2, #4]
  105778:	e5832000 	str	r2, [r3]
  10577c:	e24b3902 	sub	r3, fp, #32768	; 0x8000
  105780:	e2433004 	sub	r3, r3, #4
  105784:	e5133554 	ldr	r3, [r3, #-1364]	; 0xfffffaac
  105788:	e5933004 	ldr	r3, [r3, #4]
  10578c:	e5933000 	ldr	r3, [r3]
  105790:	e24b2902 	sub	r2, fp, #32768	; 0x8000
  105794:	e2422004 	sub	r2, r2, #4
  105798:	e5122554 	ldr	r2, [r2, #-1364]	; 0xfffffaac
  10579c:	e5922004 	ldr	r2, [r2, #4]
  1057a0:	e2822004 	add	r2, r2, #4
  1057a4:	e5922000 	ldr	r2, [r2]
  1057a8:	e0030392 	mul	r3, r2, r3
  1057ac:	e50b300c 	str	r3, [fp, #-12]
  1057b0:	e3a03000 	mov	r3, #0
  1057b4:	e50b3008 	str	r3, [fp, #-8]
  1057b8:	ea000015 	b	105814 <ut+0x11bc>
  1057bc:	e51b3008 	ldr	r3, [fp, #-8]
  1057c0:	e1a03183 	lsl	r3, r3, #3
  1057c4:	e59b2024 	ldr	r2, [fp, #36]	; 0x24
  1057c8:	e0823003 	add	r3, r2, r3
  1057cc:	e24b2902 	sub	r2, fp, #32768	; 0x8000
  1057d0:	e2422004 	sub	r2, r2, #4
  1057d4:	e5122554 	ldr	r2, [r2, #-1364]	; 0xfffffaac
  1057d8:	e5921000 	ldr	r1, [r2]
  1057dc:	e51b2008 	ldr	r2, [fp, #-8]
  1057e0:	e1a02182 	lsl	r2, r2, #3
  1057e4:	e0812002 	add	r2, r1, r2
  1057e8:	edd21b00 	vldr	d17, [r2]
  1057ec:	e51b2008 	ldr	r2, [fp, #-8]
  1057f0:	e1a02182 	lsl	r2, r2, #3
  1057f4:	e59b1014 	ldr	r1, [fp, #20]
  1057f8:	e0812002 	add	r2, r1, r2
  1057fc:	edd20b00 	vldr	d16, [r2]
  105800:	ee710ba0 	vadd.f64	d16, d17, d16
  105804:	edc30b00 	vstr	d16, [r3]
  105808:	e51b3008 	ldr	r3, [fp, #-8]
  10580c:	e2833001 	add	r3, r3, #1
  105810:	e50b3008 	str	r3, [fp, #-8]
  105814:	e51b2008 	ldr	r2, [fp, #-8]
  105818:	e51b300c 	ldr	r3, [fp, #-12]
  10581c:	e1520003 	cmp	r2, r3
  105820:	baffffe5 	blt	1057bc <ut+0x1164>
  105824:	e24b3c85 	sub	r3, fp, #34048	; 0x8500
  105828:	e2433004 	sub	r3, r3, #4
  10582c:	e2433054 	sub	r3, r3, #84	; 0x54
  105830:	e1a00003 	mov	r0, r3
  105834:	eb000192 	bl	105e84 <emxFree_real_T>
  105838:	e320f000 	nop	{0}
  10583c:	e24bd004 	sub	sp, fp, #4
  105840:	e8bd8800 	pop	{fp, pc}

00105844 <Cholesky_terminate>:
  105844:	e52db004 	push	{fp}		; (str fp, [sp, #-4]!)
  105848:	e28db000 	add	fp, sp, #0
  10584c:	e320f000 	nop	{0}
  105850:	e24bd000 	sub	sp, fp, #0
  105854:	e49db004 	pop	{fp}		; (ldr fp, [sp], #4)
  105858:	e12fff1e 	bx	lr

0010585c <emxCreateND_real_T>:
  10585c:	e92d4810 	push	{r4, fp, lr}
  105860:	e28db008 	add	fp, sp, #8
  105864:	e24dd01c 	sub	sp, sp, #28
  105868:	e50b0020 	str	r0, [fp, #-32]	; 0xffffffe0
  10586c:	e50b1024 	str	r1, [fp, #-36]	; 0xffffffdc
  105870:	e24b3018 	sub	r3, fp, #24
  105874:	e51b1020 	ldr	r1, [fp, #-32]	; 0xffffffe0
  105878:	e1a00003 	mov	r0, r3
  10587c:	eb000212 	bl	1060cc <emxInit_real_T1>
  105880:	e3a03001 	mov	r3, #1
  105884:	e50b3010 	str	r3, [fp, #-16]
  105888:	e3a03000 	mov	r3, #0
  10588c:	e50b3014 	str	r3, [fp, #-20]	; 0xffffffec
  105890:	ea000015 	b	1058ec <emxCreateND_real_T+0x90>
  105894:	e51b3014 	ldr	r3, [fp, #-20]	; 0xffffffec
  105898:	e1a03103 	lsl	r3, r3, #2
  10589c:	e51b2024 	ldr	r2, [fp, #-36]	; 0xffffffdc
  1058a0:	e0823003 	add	r3, r2, r3
  1058a4:	e5932000 	ldr	r2, [r3]
  1058a8:	e51b3010 	ldr	r3, [fp, #-16]
  1058ac:	e0030392 	mul	r3, r2, r3
  1058b0:	e50b3010 	str	r3, [fp, #-16]
  1058b4:	e51b3018 	ldr	r3, [fp, #-24]	; 0xffffffe8
  1058b8:	e5932004 	ldr	r2, [r3, #4]
  1058bc:	e51b3014 	ldr	r3, [fp, #-20]	; 0xffffffec
  1058c0:	e1a03103 	lsl	r3, r3, #2
  1058c4:	e0823003 	add	r3, r2, r3
  1058c8:	e51b2014 	ldr	r2, [fp, #-20]	; 0xffffffec
  1058cc:	e1a02102 	lsl	r2, r2, #2
  1058d0:	e51b1024 	ldr	r1, [fp, #-36]	; 0xffffffdc
  1058d4:	e0812002 	add	r2, r1, r2
  1058d8:	e5922000 	ldr	r2, [r2]
  1058dc:	e5832000 	str	r2, [r3]
  1058e0:	e51b3014 	ldr	r3, [fp, #-20]	; 0xffffffec
  1058e4:	e2833001 	add	r3, r3, #1
  1058e8:	e50b3014 	str	r3, [fp, #-20]	; 0xffffffec
  1058ec:	e51b2014 	ldr	r2, [fp, #-20]	; 0xffffffec
  1058f0:	e51b3020 	ldr	r3, [fp, #-32]	; 0xffffffe0
  1058f4:	e1520003 	cmp	r2, r3
  1058f8:	baffffe5 	blt	105894 <emxCreateND_real_T+0x38>
  1058fc:	e51b4018 	ldr	r4, [fp, #-24]	; 0xffffffe8
  105900:	e51b3010 	ldr	r3, [fp, #-16]
  105904:	e3a01008 	mov	r1, #8
  105908:	e1a00003 	mov	r0, r3
  10590c:	eb000955 	bl	107e68 <calloc>
  105910:	e1a03000 	mov	r3, r0
  105914:	e5843000 	str	r3, [r4]
  105918:	e51b3018 	ldr	r3, [fp, #-24]	; 0xffffffe8
  10591c:	e51b2020 	ldr	r2, [fp, #-32]	; 0xffffffe0
  105920:	e583200c 	str	r2, [r3, #12]
  105924:	e51b3018 	ldr	r3, [fp, #-24]	; 0xffffffe8
  105928:	e51b2010 	ldr	r2, [fp, #-16]
  10592c:	e5832008 	str	r2, [r3, #8]
  105930:	e51b3018 	ldr	r3, [fp, #-24]	; 0xffffffe8
  105934:	e1a00003 	mov	r0, r3
  105938:	e24bd008 	sub	sp, fp, #8
  10593c:	e8bd8810 	pop	{r4, fp, pc}

00105940 <emxCreateWrapperND_real_T>:
  105940:	e92d4800 	push	{fp, lr}
  105944:	e28db004 	add	fp, sp, #4
  105948:	e24dd020 	sub	sp, sp, #32
  10594c:	e50b0018 	str	r0, [fp, #-24]	; 0xffffffe8
  105950:	e50b101c 	str	r1, [fp, #-28]	; 0xffffffe4
  105954:	e50b2020 	str	r2, [fp, #-32]	; 0xffffffe0
  105958:	e24b3010 	sub	r3, fp, #16
  10595c:	e51b101c 	ldr	r1, [fp, #-28]	; 0xffffffe4
  105960:	e1a00003 	mov	r0, r3
  105964:	eb0001d8 	bl	1060cc <emxInit_real_T1>
  105968:	e3a03001 	mov	r3, #1
  10596c:	e50b3008 	str	r3, [fp, #-8]
  105970:	e3a03000 	mov	r3, #0
  105974:	e50b300c 	str	r3, [fp, #-12]
  105978:	ea000015 	b	1059d4 <emxCreateWrapperND_real_T+0x94>
  10597c:	e51b300c 	ldr	r3, [fp, #-12]
  105980:	e1a03103 	lsl	r3, r3, #2
  105984:	e51b2020 	ldr	r2, [fp, #-32]	; 0xffffffe0
  105988:	e0823003 	add	r3, r2, r3
  10598c:	e5932000 	ldr	r2, [r3]
  105990:	e51b3008 	ldr	r3, [fp, #-8]
  105994:	e0030392 	mul	r3, r2, r3
  105998:	e50b3008 	str	r3, [fp, #-8]
  10599c:	e51b3010 	ldr	r3, [fp, #-16]
  1059a0:	e5932004 	ldr	r2, [r3, #4]
  1059a4:	e51b300c 	ldr	r3, [fp, #-12]
  1059a8:	e1a03103 	lsl	r3, r3, #2
  1059ac:	e0823003 	add	r3, r2, r3
  1059b0:	e51b200c 	ldr	r2, [fp, #-12]
  1059b4:	e1a02102 	lsl	r2, r2, #2
  1059b8:	e51b1020 	ldr	r1, [fp, #-32]	; 0xffffffe0
  1059bc:	e0812002 	add	r2, r1, r2
  1059c0:	e5922000 	ldr	r2, [r2]
  1059c4:	e5832000 	str	r2, [r3]
  1059c8:	e51b300c 	ldr	r3, [fp, #-12]
  1059cc:	e2833001 	add	r3, r3, #1
  1059d0:	e50b300c 	str	r3, [fp, #-12]
  1059d4:	e51b200c 	ldr	r2, [fp, #-12]
  1059d8:	e51b301c 	ldr	r3, [fp, #-28]	; 0xffffffe4
  1059dc:	e1520003 	cmp	r2, r3
  1059e0:	baffffe5 	blt	10597c <emxCreateWrapperND_real_T+0x3c>
  1059e4:	e51b3010 	ldr	r3, [fp, #-16]
  1059e8:	e51b2018 	ldr	r2, [fp, #-24]	; 0xffffffe8
  1059ec:	e5832000 	str	r2, [r3]
  1059f0:	e51b3010 	ldr	r3, [fp, #-16]
  1059f4:	e51b201c 	ldr	r2, [fp, #-28]	; 0xffffffe4
  1059f8:	e583200c 	str	r2, [r3, #12]
  1059fc:	e51b3010 	ldr	r3, [fp, #-16]
  105a00:	e51b2008 	ldr	r2, [fp, #-8]
  105a04:	e5832008 	str	r2, [r3, #8]
  105a08:	e51b3010 	ldr	r3, [fp, #-16]
  105a0c:	e3a02000 	mov	r2, #0
  105a10:	e5c32010 	strb	r2, [r3, #16]
  105a14:	e51b3010 	ldr	r3, [fp, #-16]
  105a18:	e1a00003 	mov	r0, r3
  105a1c:	e24bd004 	sub	sp, fp, #4
  105a20:	e8bd8800 	pop	{fp, pc}

00105a24 <emxCreateWrapper_real_T>:
  105a24:	e92d4800 	push	{fp, lr}
  105a28:	e28db004 	add	fp, sp, #4
  105a2c:	e24dd028 	sub	sp, sp, #40	; 0x28
  105a30:	e50b0020 	str	r0, [fp, #-32]	; 0xffffffe0
  105a34:	e50b1024 	str	r1, [fp, #-36]	; 0xffffffdc
  105a38:	e50b2028 	str	r2, [fp, #-40]	; 0xffffffd8
  105a3c:	e51b3024 	ldr	r3, [fp, #-36]	; 0xffffffdc
  105a40:	e50b3018 	str	r3, [fp, #-24]	; 0xffffffe8
  105a44:	e51b3028 	ldr	r3, [fp, #-40]	; 0xffffffd8
  105a48:	e50b3014 	str	r3, [fp, #-20]	; 0xffffffec
  105a4c:	e24b3010 	sub	r3, fp, #16
  105a50:	e3a01002 	mov	r1, #2
  105a54:	e1a00003 	mov	r0, r3
  105a58:	eb00019b 	bl	1060cc <emxInit_real_T1>
  105a5c:	e3a03001 	mov	r3, #1
  105a60:	e50b3008 	str	r3, [fp, #-8]
  105a64:	e3a03000 	mov	r3, #0
  105a68:	e50b300c 	str	r3, [fp, #-12]
  105a6c:	ea000015 	b	105ac8 <emxCreateWrapper_real_T+0xa4>
  105a70:	e51b300c 	ldr	r3, [fp, #-12]
  105a74:	e1a03103 	lsl	r3, r3, #2
  105a78:	e24b2004 	sub	r2, fp, #4
  105a7c:	e0823003 	add	r3, r2, r3
  105a80:	e5132014 	ldr	r2, [r3, #-20]	; 0xffffffec
  105a84:	e51b3008 	ldr	r3, [fp, #-8]
  105a88:	e0030392 	mul	r3, r2, r3
  105a8c:	e50b3008 	str	r3, [fp, #-8]
  105a90:	e51b3010 	ldr	r3, [fp, #-16]
  105a94:	e5932004 	ldr	r2, [r3, #4]
  105a98:	e51b300c 	ldr	r3, [fp, #-12]
  105a9c:	e1a03103 	lsl	r3, r3, #2
  105aa0:	e0822003 	add	r2, r2, r3
  105aa4:	e51b300c 	ldr	r3, [fp, #-12]
  105aa8:	e1a03103 	lsl	r3, r3, #2
  105aac:	e24b1004 	sub	r1, fp, #4
  105ab0:	e0813003 	add	r3, r1, r3
  105ab4:	e5133014 	ldr	r3, [r3, #-20]	; 0xffffffec
  105ab8:	e5823000 	str	r3, [r2]
  105abc:	e51b300c 	ldr	r3, [fp, #-12]
  105ac0:	e2833001 	add	r3, r3, #1
  105ac4:	e50b300c 	str	r3, [fp, #-12]
  105ac8:	e51b300c 	ldr	r3, [fp, #-12]
  105acc:	e3530001 	cmp	r3, #1
  105ad0:	daffffe6 	ble	105a70 <emxCreateWrapper_real_T+0x4c>
  105ad4:	e51b3010 	ldr	r3, [fp, #-16]
  105ad8:	e51b2020 	ldr	r2, [fp, #-32]	; 0xffffffe0
  105adc:	e5832000 	str	r2, [r3]
  105ae0:	e51b3010 	ldr	r3, [fp, #-16]
  105ae4:	e3a02002 	mov	r2, #2
  105ae8:	e583200c 	str	r2, [r3, #12]
  105aec:	e51b3010 	ldr	r3, [fp, #-16]
  105af0:	e51b2008 	ldr	r2, [fp, #-8]
  105af4:	e5832008 	str	r2, [r3, #8]
  105af8:	e51b3010 	ldr	r3, [fp, #-16]
  105afc:	e3a02000 	mov	r2, #0
  105b00:	e5c32010 	strb	r2, [r3, #16]
  105b04:	e51b3010 	ldr	r3, [fp, #-16]
  105b08:	e1a00003 	mov	r0, r3
  105b0c:	e24bd004 	sub	sp, fp, #4
  105b10:	e8bd8800 	pop	{fp, pc}

00105b14 <emxCreate_real_T>:
  105b14:	e92d4810 	push	{r4, fp, lr}
  105b18:	e28db008 	add	fp, sp, #8
  105b1c:	e24dd024 	sub	sp, sp, #36	; 0x24
  105b20:	e50b0028 	str	r0, [fp, #-40]	; 0xffffffd8
  105b24:	e50b102c 	str	r1, [fp, #-44]	; 0xffffffd4
  105b28:	e51b3028 	ldr	r3, [fp, #-40]	; 0xffffffd8
  105b2c:	e50b3020 	str	r3, [fp, #-32]	; 0xffffffe0
  105b30:	e51b302c 	ldr	r3, [fp, #-44]	; 0xffffffd4
  105b34:	e50b301c 	str	r3, [fp, #-28]	; 0xffffffe4
  105b38:	e24b3018 	sub	r3, fp, #24
  105b3c:	e3a01002 	mov	r1, #2
  105b40:	e1a00003 	mov	r0, r3
  105b44:	eb000160 	bl	1060cc <emxInit_real_T1>
  105b48:	e3a03001 	mov	r3, #1
  105b4c:	e50b3010 	str	r3, [fp, #-16]
  105b50:	e3a03000 	mov	r3, #0
  105b54:	e50b3014 	str	r3, [fp, #-20]	; 0xffffffec
  105b58:	ea000015 	b	105bb4 <emxCreate_real_T+0xa0>
  105b5c:	e51b3014 	ldr	r3, [fp, #-20]	; 0xffffffec
  105b60:	e1a03103 	lsl	r3, r3, #2
  105b64:	e24b200c 	sub	r2, fp, #12
  105b68:	e0823003 	add	r3, r2, r3
  105b6c:	e5132014 	ldr	r2, [r3, #-20]	; 0xffffffec
  105b70:	e51b3010 	ldr	r3, [fp, #-16]
  105b74:	e0030392 	mul	r3, r2, r3
  105b78:	e50b3010 	str	r3, [fp, #-16]
  105b7c:	e51b3018 	ldr	r3, [fp, #-24]	; 0xffffffe8
  105b80:	e5932004 	ldr	r2, [r3, #4]
  105b84:	e51b3014 	ldr	r3, [fp, #-20]	; 0xffffffec
  105b88:	e1a03103 	lsl	r3, r3, #2
  105b8c:	e0822003 	add	r2, r2, r3
  105b90:	e51b3014 	ldr	r3, [fp, #-20]	; 0xffffffec
  105b94:	e1a03103 	lsl	r3, r3, #2
  105b98:	e24b100c 	sub	r1, fp, #12
  105b9c:	e0813003 	add	r3, r1, r3
  105ba0:	e5133014 	ldr	r3, [r3, #-20]	; 0xffffffec
  105ba4:	e5823000 	str	r3, [r2]
  105ba8:	e51b3014 	ldr	r3, [fp, #-20]	; 0xffffffec
  105bac:	e2833001 	add	r3, r3, #1
  105bb0:	e50b3014 	str	r3, [fp, #-20]	; 0xffffffec
  105bb4:	e51b3014 	ldr	r3, [fp, #-20]	; 0xffffffec
  105bb8:	e3530001 	cmp	r3, #1
  105bbc:	daffffe6 	ble	105b5c <emxCreate_real_T+0x48>
  105bc0:	e51b4018 	ldr	r4, [fp, #-24]	; 0xffffffe8
  105bc4:	e51b3010 	ldr	r3, [fp, #-16]
  105bc8:	e3a01008 	mov	r1, #8
  105bcc:	e1a00003 	mov	r0, r3
  105bd0:	eb0008a4 	bl	107e68 <calloc>
  105bd4:	e1a03000 	mov	r3, r0
  105bd8:	e5843000 	str	r3, [r4]
  105bdc:	e51b3018 	ldr	r3, [fp, #-24]	; 0xffffffe8
  105be0:	e3a02002 	mov	r2, #2
  105be4:	e583200c 	str	r2, [r3, #12]
  105be8:	e51b3018 	ldr	r3, [fp, #-24]	; 0xffffffe8
  105bec:	e51b2010 	ldr	r2, [fp, #-16]
  105bf0:	e5832008 	str	r2, [r3, #8]
  105bf4:	e51b3018 	ldr	r3, [fp, #-24]	; 0xffffffe8
  105bf8:	e1a00003 	mov	r0, r3
  105bfc:	e24bd008 	sub	sp, fp, #8
  105c00:	e8bd8810 	pop	{r4, fp, pc}

00105c04 <emxDestroyArray_real_T>:
  105c04:	e92d4800 	push	{fp, lr}
  105c08:	e28db004 	add	fp, sp, #4
  105c0c:	e24dd008 	sub	sp, sp, #8
  105c10:	e50b0008 	str	r0, [fp, #-8]
  105c14:	e24b3008 	sub	r3, fp, #8
  105c18:	e1a00003 	mov	r0, r3
  105c1c:	eb000098 	bl	105e84 <emxFree_real_T>
  105c20:	e320f000 	nop	{0}
  105c24:	e24bd004 	sub	sp, fp, #4
  105c28:	e8bd8800 	pop	{fp, pc}

00105c2c <emxInitArray_real_T>:
  105c2c:	e92d4800 	push	{fp, lr}
  105c30:	e28db004 	add	fp, sp, #4
  105c34:	e24dd008 	sub	sp, sp, #8
  105c38:	e50b0008 	str	r0, [fp, #-8]
  105c3c:	e50b100c 	str	r1, [fp, #-12]
  105c40:	e51b100c 	ldr	r1, [fp, #-12]
  105c44:	e51b0008 	ldr	r0, [fp, #-8]
  105c48:	eb00011f 	bl	1060cc <emxInit_real_T1>
  105c4c:	e320f000 	nop	{0}
  105c50:	e24bd004 	sub	sp, fp, #4
  105c54:	e8bd8800 	pop	{fp, pc}

00105c58 <Cholesky_initialize>:
  105c58:	e92d4800 	push	{fp, lr}
  105c5c:	e28db004 	add	fp, sp, #4
  105c60:	e3a00008 	mov	r0, #8
  105c64:	ebfff1ea 	bl	102414 <rt_InitInfAndNaN>
  105c68:	eb0004c4 	bl	106f80 <c_eml_rand_mt19937ar_stateful_i>
  105c6c:	e320f000 	nop	{0}
  105c70:	e8bd8800 	pop	{fp, pc}

00105c74 <emxEnsureCapacity>:
  105c74:	e92d4800 	push	{fp, lr}
  105c78:	e28db004 	add	fp, sp, #4
  105c7c:	e24dd020 	sub	sp, sp, #32
  105c80:	e50b0018 	str	r0, [fp, #-24]	; 0xffffffe8
  105c84:	e50b101c 	str	r1, [fp, #-28]	; 0xffffffe4
  105c88:	e50b2020 	str	r2, [fp, #-32]	; 0xffffffe0
  105c8c:	e3a03001 	mov	r3, #1
  105c90:	e50b3008 	str	r3, [fp, #-8]
  105c94:	e3a03000 	mov	r3, #0
  105c98:	e50b300c 	str	r3, [fp, #-12]
  105c9c:	ea00000b 	b	105cd0 <emxEnsureCapacity+0x5c>
  105ca0:	e51b3018 	ldr	r3, [fp, #-24]	; 0xffffffe8
  105ca4:	e5932004 	ldr	r2, [r3, #4]
  105ca8:	e51b300c 	ldr	r3, [fp, #-12]
  105cac:	e1a03103 	lsl	r3, r3, #2
  105cb0:	e0823003 	add	r3, r2, r3
  105cb4:	e5932000 	ldr	r2, [r3]
  105cb8:	e51b3008 	ldr	r3, [fp, #-8]
  105cbc:	e0030392 	mul	r3, r2, r3
  105cc0:	e50b3008 	str	r3, [fp, #-8]
  105cc4:	e51b300c 	ldr	r3, [fp, #-12]
  105cc8:	e2833001 	add	r3, r3, #1
  105ccc:	e50b300c 	str	r3, [fp, #-12]
  105cd0:	e51b3018 	ldr	r3, [fp, #-24]	; 0xffffffe8
  105cd4:	e593200c 	ldr	r2, [r3, #12]
  105cd8:	e51b300c 	ldr	r3, [fp, #-12]
  105cdc:	e1520003 	cmp	r2, r3
  105ce0:	caffffee 	bgt	105ca0 <emxEnsureCapacity+0x2c>
  105ce4:	e51b3018 	ldr	r3, [fp, #-24]	; 0xffffffe8
  105ce8:	e5932008 	ldr	r2, [r3, #8]
  105cec:	e51b3008 	ldr	r3, [fp, #-8]
  105cf0:	e1520003 	cmp	r2, r3
  105cf4:	aa000039 	bge	105de0 <emxEnsureCapacity+0x16c>
  105cf8:	e51b3018 	ldr	r3, [fp, #-24]	; 0xffffffe8
  105cfc:	e5933008 	ldr	r3, [r3, #8]
  105d00:	e50b300c 	str	r3, [fp, #-12]
  105d04:	e51b300c 	ldr	r3, [fp, #-12]
  105d08:	e353000f 	cmp	r3, #15
  105d0c:	ca00000b 	bgt	105d40 <emxEnsureCapacity+0xcc>
  105d10:	e3a03010 	mov	r3, #16
  105d14:	e50b300c 	str	r3, [fp, #-12]
  105d18:	ea000008 	b	105d40 <emxEnsureCapacity+0xcc>
  105d1c:	e51b300c 	ldr	r3, [fp, #-12]
  105d20:	e3730107 	cmn	r3, #-1073741823	; 0xc0000001
  105d24:	da000002 	ble	105d34 <emxEnsureCapacity+0xc0>
  105d28:	e3e03102 	mvn	r3, #-2147483648	; 0x80000000
  105d2c:	e50b300c 	str	r3, [fp, #-12]
  105d30:	ea000002 	b	105d40 <emxEnsureCapacity+0xcc>
  105d34:	e51b300c 	ldr	r3, [fp, #-12]
  105d38:	e1a03083 	lsl	r3, r3, #1
  105d3c:	e50b300c 	str	r3, [fp, #-12]
  105d40:	e51b200c 	ldr	r2, [fp, #-12]
  105d44:	e51b3008 	ldr	r3, [fp, #-8]
  105d48:	e1520003 	cmp	r2, r3
  105d4c:	bafffff2 	blt	105d1c <emxEnsureCapacity+0xa8>
  105d50:	e51b300c 	ldr	r3, [fp, #-12]
  105d54:	e51b2020 	ldr	r2, [fp, #-32]	; 0xffffffe0
  105d58:	e1a01002 	mov	r1, r2
  105d5c:	e1a00003 	mov	r0, r3
  105d60:	eb000840 	bl	107e68 <calloc>
  105d64:	e1a03000 	mov	r3, r0
  105d68:	e50b3010 	str	r3, [fp, #-16]
  105d6c:	e51b3018 	ldr	r3, [fp, #-24]	; 0xffffffe8
  105d70:	e5933000 	ldr	r3, [r3]
  105d74:	e3530000 	cmp	r3, #0
  105d78:	0a00000f 	beq	105dbc <emxEnsureCapacity+0x148>
  105d7c:	e51b3018 	ldr	r3, [fp, #-24]	; 0xffffffe8
  105d80:	e5931000 	ldr	r1, [r3]
  105d84:	e51b3020 	ldr	r3, [fp, #-32]	; 0xffffffe0
  105d88:	e51b201c 	ldr	r2, [fp, #-28]	; 0xffffffe4
  105d8c:	e0030392 	mul	r3, r2, r3
  105d90:	e1a02003 	mov	r2, r3
  105d94:	e51b0010 	ldr	r0, [fp, #-16]
  105d98:	eb000a4c 	bl	1086d0 <memcpy>
  105d9c:	e51b3018 	ldr	r3, [fp, #-24]	; 0xffffffe8
  105da0:	e5d33010 	ldrb	r3, [r3, #16]
  105da4:	e3530000 	cmp	r3, #0
  105da8:	0a000003 	beq	105dbc <emxEnsureCapacity+0x148>
  105dac:	e51b3018 	ldr	r3, [fp, #-24]	; 0xffffffe8
  105db0:	e5933000 	ldr	r3, [r3]
  105db4:	e1a00003 	mov	r0, r3
  105db8:	eb000863 	bl	107f4c <free>
  105dbc:	e51b3018 	ldr	r3, [fp, #-24]	; 0xffffffe8
  105dc0:	e51b2010 	ldr	r2, [fp, #-16]
  105dc4:	e5832000 	str	r2, [r3]
  105dc8:	e51b3018 	ldr	r3, [fp, #-24]	; 0xffffffe8
  105dcc:	e51b200c 	ldr	r2, [fp, #-12]
  105dd0:	e5832008 	str	r2, [r3, #8]
  105dd4:	e51b3018 	ldr	r3, [fp, #-24]	; 0xffffffe8
  105dd8:	e3a02001 	mov	r2, #1
  105ddc:	e5c32010 	strb	r2, [r3, #16]
  105de0:	e320f000 	nop	{0}
  105de4:	e24bd004 	sub	sp, fp, #4
  105de8:	e8bd8800 	pop	{fp, pc}

00105dec <emxFree_int32_T>:
  105dec:	e92d4800 	push	{fp, lr}
  105df0:	e28db004 	add	fp, sp, #4
  105df4:	e24dd008 	sub	sp, sp, #8
  105df8:	e50b0008 	str	r0, [fp, #-8]
  105dfc:	e51b3008 	ldr	r3, [fp, #-8]
  105e00:	e5933000 	ldr	r3, [r3]
  105e04:	e3530000 	cmp	r3, #0
  105e08:	0a00001a 	beq	105e78 <emxFree_int32_T+0x8c>
  105e0c:	e51b3008 	ldr	r3, [fp, #-8]
  105e10:	e5933000 	ldr	r3, [r3]
  105e14:	e5933000 	ldr	r3, [r3]
  105e18:	e3530000 	cmp	r3, #0
  105e1c:	0a000009 	beq	105e48 <emxFree_int32_T+0x5c>
  105e20:	e51b3008 	ldr	r3, [fp, #-8]
  105e24:	e5933000 	ldr	r3, [r3]
  105e28:	e5d33010 	ldrb	r3, [r3, #16]
  105e2c:	e3530000 	cmp	r3, #0
  105e30:	0a000004 	beq	105e48 <emxFree_int32_T+0x5c>
  105e34:	e51b3008 	ldr	r3, [fp, #-8]
  105e38:	e5933000 	ldr	r3, [r3]
  105e3c:	e5933000 	ldr	r3, [r3]
  105e40:	e1a00003 	mov	r0, r3
  105e44:	eb000840 	bl	107f4c <free>
  105e48:	e51b3008 	ldr	r3, [fp, #-8]
  105e4c:	e5933000 	ldr	r3, [r3]
  105e50:	e5933004 	ldr	r3, [r3, #4]
  105e54:	e1a00003 	mov	r0, r3
  105e58:	eb00083b 	bl	107f4c <free>
  105e5c:	e51b3008 	ldr	r3, [fp, #-8]
  105e60:	e5933000 	ldr	r3, [r3]
  105e64:	e1a00003 	mov	r0, r3
  105e68:	eb000837 	bl	107f4c <free>
  105e6c:	e51b3008 	ldr	r3, [fp, #-8]
  105e70:	e3a02000 	mov	r2, #0
  105e74:	e5832000 	str	r2, [r3]
  105e78:	e320f000 	nop	{0}
  105e7c:	e24bd004 	sub	sp, fp, #4
  105e80:	e8bd8800 	pop	{fp, pc}

00105e84 <emxFree_real_T>:
  105e84:	e92d4800 	push	{fp, lr}
  105e88:	e28db004 	add	fp, sp, #4
  105e8c:	e24dd008 	sub	sp, sp, #8
  105e90:	e50b0008 	str	r0, [fp, #-8]
  105e94:	e51b3008 	ldr	r3, [fp, #-8]
  105e98:	e5933000 	ldr	r3, [r3]
  105e9c:	e3530000 	cmp	r3, #0
  105ea0:	0a00001a 	beq	105f10 <emxFree_real_T+0x8c>
  105ea4:	e51b3008 	ldr	r3, [fp, #-8]
  105ea8:	e5933000 	ldr	r3, [r3]
  105eac:	e5933000 	ldr	r3, [r3]
  105eb0:	e3530000 	cmp	r3, #0
  105eb4:	0a000009 	beq	105ee0 <emxFree_real_T+0x5c>
  105eb8:	e51b3008 	ldr	r3, [fp, #-8]
  105ebc:	e5933000 	ldr	r3, [r3]
  105ec0:	e5d33010 	ldrb	r3, [r3, #16]
  105ec4:	e3530000 	cmp	r3, #0
  105ec8:	0a000004 	beq	105ee0 <emxFree_real_T+0x5c>
  105ecc:	e51b3008 	ldr	r3, [fp, #-8]
  105ed0:	e5933000 	ldr	r3, [r3]
  105ed4:	e5933000 	ldr	r3, [r3]
  105ed8:	e1a00003 	mov	r0, r3
  105edc:	eb00081a 	bl	107f4c <free>
  105ee0:	e51b3008 	ldr	r3, [fp, #-8]
  105ee4:	e5933000 	ldr	r3, [r3]
  105ee8:	e5933004 	ldr	r3, [r3, #4]
  105eec:	e1a00003 	mov	r0, r3
  105ef0:	eb000815 	bl	107f4c <free>
  105ef4:	e51b3008 	ldr	r3, [fp, #-8]
  105ef8:	e5933000 	ldr	r3, [r3]
  105efc:	e1a00003 	mov	r0, r3
  105f00:	eb000811 	bl	107f4c <free>
  105f04:	e51b3008 	ldr	r3, [fp, #-8]
  105f08:	e3a02000 	mov	r2, #0
  105f0c:	e5832000 	str	r2, [r3]
  105f10:	e320f000 	nop	{0}
  105f14:	e24bd004 	sub	sp, fp, #4
  105f18:	e8bd8800 	pop	{fp, pc}

00105f1c <emxInit_int32_T>:
  105f1c:	e92d4800 	push	{fp, lr}
  105f20:	e28db004 	add	fp, sp, #4
  105f24:	e24dd010 	sub	sp, sp, #16
  105f28:	e50b0010 	str	r0, [fp, #-16]
  105f2c:	e50b1014 	str	r1, [fp, #-20]	; 0xffffffec
  105f30:	e3a00014 	mov	r0, #20
  105f34:	eb0007fe 	bl	107f34 <malloc>
  105f38:	e1a03000 	mov	r3, r0
  105f3c:	e1a02003 	mov	r2, r3
  105f40:	e51b3010 	ldr	r3, [fp, #-16]
  105f44:	e5832000 	str	r2, [r3]
  105f48:	e51b3010 	ldr	r3, [fp, #-16]
  105f4c:	e5933000 	ldr	r3, [r3]
  105f50:	e50b300c 	str	r3, [fp, #-12]
  105f54:	e51b300c 	ldr	r3, [fp, #-12]
  105f58:	e3a02000 	mov	r2, #0
  105f5c:	e5832000 	str	r2, [r3]
  105f60:	e51b300c 	ldr	r3, [fp, #-12]
  105f64:	e51b2014 	ldr	r2, [fp, #-20]	; 0xffffffec
  105f68:	e583200c 	str	r2, [r3, #12]
  105f6c:	e51b3014 	ldr	r3, [fp, #-20]	; 0xffffffec
  105f70:	e1a03103 	lsl	r3, r3, #2
  105f74:	e1a00003 	mov	r0, r3
  105f78:	eb0007ed 	bl	107f34 <malloc>
  105f7c:	e1a03000 	mov	r3, r0
  105f80:	e1a02003 	mov	r2, r3
  105f84:	e51b300c 	ldr	r3, [fp, #-12]
  105f88:	e5832004 	str	r2, [r3, #4]
  105f8c:	e51b300c 	ldr	r3, [fp, #-12]
  105f90:	e3a02000 	mov	r2, #0
  105f94:	e5832008 	str	r2, [r3, #8]
  105f98:	e51b300c 	ldr	r3, [fp, #-12]
  105f9c:	e3a02001 	mov	r2, #1
  105fa0:	e5c32010 	strb	r2, [r3, #16]
  105fa4:	e3a03000 	mov	r3, #0
  105fa8:	e50b3008 	str	r3, [fp, #-8]
  105fac:	ea000009 	b	105fd8 <emxInit_int32_T+0xbc>
  105fb0:	e51b300c 	ldr	r3, [fp, #-12]
  105fb4:	e5932004 	ldr	r2, [r3, #4]
  105fb8:	e51b3008 	ldr	r3, [fp, #-8]
  105fbc:	e1a03103 	lsl	r3, r3, #2
  105fc0:	e0823003 	add	r3, r2, r3
  105fc4:	e3a02000 	mov	r2, #0
  105fc8:	e5832000 	str	r2, [r3]
  105fcc:	e51b3008 	ldr	r3, [fp, #-8]
  105fd0:	e2833001 	add	r3, r3, #1
  105fd4:	e50b3008 	str	r3, [fp, #-8]
  105fd8:	e51b2008 	ldr	r2, [fp, #-8]
  105fdc:	e51b3014 	ldr	r3, [fp, #-20]	; 0xffffffec
  105fe0:	e1520003 	cmp	r2, r3
  105fe4:	bafffff1 	blt	105fb0 <emxInit_int32_T+0x94>
  105fe8:	e320f000 	nop	{0}
  105fec:	e24bd004 	sub	sp, fp, #4
  105ff0:	e8bd8800 	pop	{fp, pc}

00105ff4 <emxInit_real_T>:
  105ff4:	e92d4800 	push	{fp, lr}
  105ff8:	e28db004 	add	fp, sp, #4
  105ffc:	e24dd010 	sub	sp, sp, #16
  106000:	e50b0010 	str	r0, [fp, #-16]
  106004:	e50b1014 	str	r1, [fp, #-20]	; 0xffffffec
  106008:	e3a00014 	mov	r0, #20
  10600c:	eb0007c8 	bl	107f34 <malloc>
  106010:	e1a03000 	mov	r3, r0
  106014:	e1a02003 	mov	r2, r3
  106018:	e51b3010 	ldr	r3, [fp, #-16]
  10601c:	e5832000 	str	r2, [r3]
  106020:	e51b3010 	ldr	r3, [fp, #-16]
  106024:	e5933000 	ldr	r3, [r3]
  106028:	e50b300c 	str	r3, [fp, #-12]
  10602c:	e51b300c 	ldr	r3, [fp, #-12]
  106030:	e3a02000 	mov	r2, #0
  106034:	e5832000 	str	r2, [r3]
  106038:	e51b300c 	ldr	r3, [fp, #-12]
  10603c:	e51b2014 	ldr	r2, [fp, #-20]	; 0xffffffec
  106040:	e583200c 	str	r2, [r3, #12]
  106044:	e51b3014 	ldr	r3, [fp, #-20]	; 0xffffffec
  106048:	e1a03103 	lsl	r3, r3, #2
  10604c:	e1a00003 	mov	r0, r3
  106050:	eb0007b7 	bl	107f34 <malloc>
  106054:	e1a03000 	mov	r3, r0
  106058:	e1a02003 	mov	r2, r3
  10605c:	e51b300c 	ldr	r3, [fp, #-12]
  106060:	e5832004 	str	r2, [r3, #4]
  106064:	e51b300c 	ldr	r3, [fp, #-12]
  106068:	e3a02000 	mov	r2, #0
  10606c:	e5832008 	str	r2, [r3, #8]
  106070:	e51b300c 	ldr	r3, [fp, #-12]
  106074:	e3a02001 	mov	r2, #1
  106078:	e5c32010 	strb	r2, [r3, #16]
  10607c:	e3a03000 	mov	r3, #0
  106080:	e50b3008 	str	r3, [fp, #-8]
  106084:	ea000009 	b	1060b0 <emxInit_real_T+0xbc>
  106088:	e51b300c 	ldr	r3, [fp, #-12]
  10608c:	e5932004 	ldr	r2, [r3, #4]
  106090:	e51b3008 	ldr	r3, [fp, #-8]
  106094:	e1a03103 	lsl	r3, r3, #2
  106098:	e0823003 	add	r3, r2, r3
  10609c:	e3a02000 	mov	r2, #0
  1060a0:	e5832000 	str	r2, [r3]
  1060a4:	e51b3008 	ldr	r3, [fp, #-8]
  1060a8:	e2833001 	add	r3, r3, #1
  1060ac:	e50b3008 	str	r3, [fp, #-8]
  1060b0:	e51b2008 	ldr	r2, [fp, #-8]
  1060b4:	e51b3014 	ldr	r3, [fp, #-20]	; 0xffffffec
  1060b8:	e1520003 	cmp	r2, r3
  1060bc:	bafffff1 	blt	106088 <emxInit_real_T+0x94>
  1060c0:	e320f000 	nop	{0}
  1060c4:	e24bd004 	sub	sp, fp, #4
  1060c8:	e8bd8800 	pop	{fp, pc}

001060cc <emxInit_real_T1>:
  1060cc:	e92d4800 	push	{fp, lr}
  1060d0:	e28db004 	add	fp, sp, #4
  1060d4:	e24dd010 	sub	sp, sp, #16
  1060d8:	e50b0010 	str	r0, [fp, #-16]
  1060dc:	e50b1014 	str	r1, [fp, #-20]	; 0xffffffec
  1060e0:	e3a00014 	mov	r0, #20
  1060e4:	eb000792 	bl	107f34 <malloc>
  1060e8:	e1a03000 	mov	r3, r0
  1060ec:	e1a02003 	mov	r2, r3
  1060f0:	e51b3010 	ldr	r3, [fp, #-16]
  1060f4:	e5832000 	str	r2, [r3]
  1060f8:	e51b3010 	ldr	r3, [fp, #-16]
  1060fc:	e5933000 	ldr	r3, [r3]
  106100:	e50b300c 	str	r3, [fp, #-12]
  106104:	e51b300c 	ldr	r3, [fp, #-12]
  106108:	e3a02000 	mov	r2, #0
  10610c:	e5832000 	str	r2, [r3]
  106110:	e51b300c 	ldr	r3, [fp, #-12]
  106114:	e51b2014 	ldr	r2, [fp, #-20]	; 0xffffffec
  106118:	e583200c 	str	r2, [r3, #12]
  10611c:	e51b3014 	ldr	r3, [fp, #-20]	; 0xffffffec
  106120:	e1a03103 	lsl	r3, r3, #2
  106124:	e1a00003 	mov	r0, r3
  106128:	eb000781 	bl	107f34 <malloc>
  10612c:	e1a03000 	mov	r3, r0
  106130:	e1a02003 	mov	r2, r3
  106134:	e51b300c 	ldr	r3, [fp, #-12]
  106138:	e5832004 	str	r2, [r3, #4]
  10613c:	e51b300c 	ldr	r3, [fp, #-12]
  106140:	e3a02000 	mov	r2, #0
  106144:	e5832008 	str	r2, [r3, #8]
  106148:	e51b300c 	ldr	r3, [fp, #-12]
  10614c:	e3a02001 	mov	r2, #1
  106150:	e5c32010 	strb	r2, [r3, #16]
  106154:	e3a03000 	mov	r3, #0
  106158:	e50b3008 	str	r3, [fp, #-8]
  10615c:	ea000009 	b	106188 <emxInit_real_T1+0xbc>
  106160:	e51b300c 	ldr	r3, [fp, #-12]
  106164:	e5932004 	ldr	r2, [r3, #4]
  106168:	e51b3008 	ldr	r3, [fp, #-8]
  10616c:	e1a03103 	lsl	r3, r3, #2
  106170:	e0823003 	add	r3, r2, r3
  106174:	e3a02000 	mov	r2, #0
  106178:	e5832000 	str	r2, [r3]
  10617c:	e51b3008 	ldr	r3, [fp, #-8]
  106180:	e2833001 	add	r3, r3, #1
  106184:	e50b3008 	str	r3, [fp, #-8]
  106188:	e51b2008 	ldr	r2, [fp, #-8]
  10618c:	e51b3014 	ldr	r3, [fp, #-20]	; 0xffffffec
  106190:	e1520003 	cmp	r2, r3
  106194:	bafffff1 	blt	106160 <emxInit_real_T1+0x94>
  106198:	e320f000 	nop	{0}
  10619c:	e24bd004 	sub	sp, fp, #4
  1061a0:	e8bd8800 	pop	{fp, pc}

001061a4 <rtGetNaN>:
  1061a4:	e92d4800 	push	{fp, lr}
  1061a8:	e28db004 	add	fp, sp, #4
  1061ac:	e24dd020 	sub	sp, sp, #32
  1061b0:	e3a03040 	mov	r3, #64	; 0x40
  1061b4:	e50b3010 	str	r3, [fp, #-16]
  1061b8:	e3a02000 	mov	r2, #0
  1061bc:	e3a03000 	mov	r3, #0
  1061c0:	e14b20fc 	strd	r2, [fp, #-12]
  1061c4:	e51b3010 	ldr	r3, [fp, #-16]
  1061c8:	e3530020 	cmp	r3, #32
  1061cc:	1a000004 	bne	1061e4 <rtGetNaN+0x40>
  1061d0:	eb000027 	bl	106274 <rtGetNaNF>
  1061d4:	ee070a90 	vmov	s15, r0
  1061d8:	eef70ae7 	vcvt.f64.f32	d16, s15
  1061dc:	ed4b0b03 	vstr	d16, [fp, #-12]
  1061e0:	ea00001e 	b	106260 <rtGetNaN+0xbc>
  1061e4:	e3a03001 	mov	r3, #1
  1061e8:	e14b31b4 	strh	r3, [fp, #-20]	; 0xffffffec
  1061ec:	e24b3014 	sub	r3, fp, #20
  1061f0:	e5d33000 	ldrb	r3, [r3]
  1061f4:	e3530001 	cmp	r3, #1
  1061f8:	13a03001 	movne	r3, #1
  1061fc:	03a03000 	moveq	r3, #0
  106200:	e6ef3073 	uxtb	r3, r3
  106204:	e54b3011 	strb	r3, [fp, #-17]	; 0xffffffef
  106208:	e55b3011 	ldrb	r3, [fp, #-17]	; 0xffffffef
  10620c:	e3530000 	cmp	r3, #0
  106210:	0a000002 	beq	106220 <rtGetNaN+0x7c>
  106214:	e3530001 	cmp	r3, #1
  106218:	0a000009 	beq	106244 <rtGetNaN+0xa0>
  10621c:	ea00000f 	b	106260 <rtGetNaN+0xbc>
  106220:	e3a03000 	mov	r3, #0
  106224:	e34f3ff8 	movt	r3, #65528	; 0xfff8
  106228:	e50b3018 	str	r3, [fp, #-24]	; 0xffffffe8
  10622c:	e3a03000 	mov	r3, #0
  106230:	e50b301c 	str	r3, [fp, #-28]	; 0xffffffe4
  106234:	e14b21dc 	ldrd	r2, [fp, #-28]	; 0xffffffe4
  106238:	e14b20fc 	strd	r2, [fp, #-12]
  10623c:	e320f000 	nop	{0}
  106240:	ea000006 	b	106260 <rtGetNaN+0xbc>
  106244:	e3e03102 	mvn	r3, #-2147483648	; 0x80000000
  106248:	e50b3024 	str	r3, [fp, #-36]	; 0xffffffdc
  10624c:	e3e03000 	mvn	r3, #0
  106250:	e50b3020 	str	r3, [fp, #-32]	; 0xffffffe0
  106254:	e14b22d4 	ldrd	r2, [fp, #-36]	; 0xffffffdc
  106258:	e14b20fc 	strd	r2, [fp, #-12]
  10625c:	e320f000 	nop	{0}
  106260:	e14b20dc 	ldrd	r2, [fp, #-12]
  106264:	e1a00002 	mov	r0, r2
  106268:	e1a01003 	mov	r1, r3
  10626c:	e24bd004 	sub	sp, fp, #4
  106270:	e8bd8800 	pop	{fp, pc}

00106274 <rtGetNaNF>:
  106274:	e52db004 	push	{fp}		; (str fp, [sp, #-4]!)
  106278:	e28db000 	add	fp, sp, #0
  10627c:	e24dd014 	sub	sp, sp, #20
  106280:	e3a03000 	mov	r3, #0
  106284:	e50b300c 	str	r3, [fp, #-12]
  106288:	e3a03001 	mov	r3, #1
  10628c:	e14b30be 	strh	r3, [fp, #-14]
  106290:	e24b300e 	sub	r3, fp, #14
  106294:	e5d33000 	ldrb	r3, [r3]
  106298:	e3530001 	cmp	r3, #1
  10629c:	13a03001 	movne	r3, #1
  1062a0:	03a03000 	moveq	r3, #0
  1062a4:	e6ef3073 	uxtb	r3, r3
  1062a8:	e54b3005 	strb	r3, [fp, #-5]
  1062ac:	e55b3005 	ldrb	r3, [fp, #-5]
  1062b0:	e3530000 	cmp	r3, #0
  1062b4:	0a000002 	beq	1062c4 <rtGetNaNF+0x50>
  1062b8:	e3530001 	cmp	r3, #1
  1062bc:	0a000004 	beq	1062d4 <rtGetNaNF+0x60>
  1062c0:	ea000006 	b	1062e0 <rtGetNaNF+0x6c>
  1062c4:	e3a03000 	mov	r3, #0
  1062c8:	e34f3fc0 	movt	r3, #65472	; 0xffc0
  1062cc:	e50b300c 	str	r3, [fp, #-12]
  1062d0:	ea000002 	b	1062e0 <rtGetNaNF+0x6c>
  1062d4:	e3e03102 	mvn	r3, #-2147483648	; 0x80000000
  1062d8:	e50b300c 	str	r3, [fp, #-12]
  1062dc:	e320f000 	nop	{0}
  1062e0:	e51b300c 	ldr	r3, [fp, #-12]
  1062e4:	e1a00003 	mov	r0, r3
  1062e8:	e24bd000 	sub	sp, fp, #0
  1062ec:	e49db004 	pop	{fp}		; (ldr fp, [sp], #4)
  1062f0:	e12fff1e 	bx	lr

001062f4 <rtGetInf>:
  1062f4:	e92d4800 	push	{fp, lr}
  1062f8:	e28db004 	add	fp, sp, #4
  1062fc:	e24dd020 	sub	sp, sp, #32
  106300:	e3a03040 	mov	r3, #64	; 0x40
  106304:	e50b3010 	str	r3, [fp, #-16]
  106308:	e3a02000 	mov	r2, #0
  10630c:	e3a03000 	mov	r3, #0
  106310:	e14b20fc 	strd	r2, [fp, #-12]
  106314:	e51b3010 	ldr	r3, [fp, #-16]
  106318:	e3530020 	cmp	r3, #32
  10631c:	1a000004 	bne	106334 <rtGetInf+0x40>
  106320:	eb000028 	bl	1063c8 <rtGetInfF>
  106324:	ee070a90 	vmov	s15, r0
  106328:	eef70ae7 	vcvt.f64.f32	d16, s15
  10632c:	ed4b0b03 	vstr	d16, [fp, #-12]
  106330:	ea00001f 	b	1063b4 <rtGetInf+0xc0>
  106334:	e3a03001 	mov	r3, #1
  106338:	e14b31b4 	strh	r3, [fp, #-20]	; 0xffffffec
  10633c:	e24b3014 	sub	r3, fp, #20
  106340:	e5d33000 	ldrb	r3, [r3]
  106344:	e3530001 	cmp	r3, #1
  106348:	13a03001 	movne	r3, #1
  10634c:	03a03000 	moveq	r3, #0
  106350:	e6ef3073 	uxtb	r3, r3
  106354:	e54b3011 	strb	r3, [fp, #-17]	; 0xffffffef
  106358:	e55b3011 	ldrb	r3, [fp, #-17]	; 0xffffffef
  10635c:	e3530000 	cmp	r3, #0
  106360:	0a000002 	beq	106370 <rtGetInf+0x7c>
  106364:	e3530001 	cmp	r3, #1
  106368:	0a000009 	beq	106394 <rtGetInf+0xa0>
  10636c:	ea000010 	b	1063b4 <rtGetInf+0xc0>
  106370:	e3a03000 	mov	r3, #0
  106374:	e3473ff0 	movt	r3, #32752	; 0x7ff0
  106378:	e50b3018 	str	r3, [fp, #-24]	; 0xffffffe8
  10637c:	e3a03000 	mov	r3, #0
  106380:	e50b301c 	str	r3, [fp, #-28]	; 0xffffffe4
  106384:	e14b21dc 	ldrd	r2, [fp, #-28]	; 0xffffffe4
  106388:	e14b20fc 	strd	r2, [fp, #-12]
  10638c:	e320f000 	nop	{0}
  106390:	ea000007 	b	1063b4 <rtGetInf+0xc0>
  106394:	e3a03000 	mov	r3, #0
  106398:	e3473ff0 	movt	r3, #32752	; 0x7ff0
  10639c:	e50b3024 	str	r3, [fp, #-36]	; 0xffffffdc
  1063a0:	e3a03000 	mov	r3, #0
  1063a4:	e50b3020 	str	r3, [fp, #-32]	; 0xffffffe0
  1063a8:	e14b22d4 	ldrd	r2, [fp, #-36]	; 0xffffffdc
  1063ac:	e14b20fc 	strd	r2, [fp, #-12]
  1063b0:	e320f000 	nop	{0}
  1063b4:	e14b20dc 	ldrd	r2, [fp, #-12]
  1063b8:	e1a00002 	mov	r0, r2
  1063bc:	e1a01003 	mov	r1, r3
  1063c0:	e24bd004 	sub	sp, fp, #4
  1063c4:	e8bd8800 	pop	{fp, pc}

001063c8 <rtGetInfF>:
  1063c8:	e52db004 	push	{fp}		; (str fp, [sp, #-4]!)
  1063cc:	e28db000 	add	fp, sp, #0
  1063d0:	e24dd00c 	sub	sp, sp, #12
  1063d4:	e3a03000 	mov	r3, #0
  1063d8:	e3473f80 	movt	r3, #32640	; 0x7f80
  1063dc:	e50b3008 	str	r3, [fp, #-8]
  1063e0:	e51b3008 	ldr	r3, [fp, #-8]
  1063e4:	e1a00003 	mov	r0, r3
  1063e8:	e24bd000 	sub	sp, fp, #0
  1063ec:	e49db004 	pop	{fp}		; (ldr fp, [sp], #4)
  1063f0:	e12fff1e 	bx	lr

001063f4 <rtGetMinusInf>:
  1063f4:	e92d4800 	push	{fp, lr}
  1063f8:	e28db004 	add	fp, sp, #4
  1063fc:	e24dd020 	sub	sp, sp, #32
  106400:	e3a03040 	mov	r3, #64	; 0x40
  106404:	e50b3010 	str	r3, [fp, #-16]
  106408:	e3a02000 	mov	r2, #0
  10640c:	e3a03000 	mov	r3, #0
  106410:	e14b20fc 	strd	r2, [fp, #-12]
  106414:	e51b3010 	ldr	r3, [fp, #-16]
  106418:	e3530020 	cmp	r3, #32
  10641c:	1a000004 	bne	106434 <rtGetMinusInf+0x40>
  106420:	eb000028 	bl	1064c8 <rtGetMinusInfF>
  106424:	ee070a90 	vmov	s15, r0
  106428:	eef70ae7 	vcvt.f64.f32	d16, s15
  10642c:	ed4b0b03 	vstr	d16, [fp, #-12]
  106430:	ea00001f 	b	1064b4 <rtGetMinusInf+0xc0>
  106434:	e3a03001 	mov	r3, #1
  106438:	e14b31b4 	strh	r3, [fp, #-20]	; 0xffffffec
  10643c:	e24b3014 	sub	r3, fp, #20
  106440:	e5d33000 	ldrb	r3, [r3]
  106444:	e3530001 	cmp	r3, #1
  106448:	13a03001 	movne	r3, #1
  10644c:	03a03000 	moveq	r3, #0
  106450:	e6ef3073 	uxtb	r3, r3
  106454:	e54b3011 	strb	r3, [fp, #-17]	; 0xffffffef
  106458:	e55b3011 	ldrb	r3, [fp, #-17]	; 0xffffffef
  10645c:	e3530000 	cmp	r3, #0
  106460:	0a000002 	beq	106470 <rtGetMinusInf+0x7c>
  106464:	e3530001 	cmp	r3, #1
  106468:	0a000009 	beq	106494 <rtGetMinusInf+0xa0>
  10646c:	ea000010 	b	1064b4 <rtGetMinusInf+0xc0>
  106470:	e3a03000 	mov	r3, #0
  106474:	e34f3ff0 	movt	r3, #65520	; 0xfff0
  106478:	e50b3018 	str	r3, [fp, #-24]	; 0xffffffe8
  10647c:	e3a03000 	mov	r3, #0
  106480:	e50b301c 	str	r3, [fp, #-28]	; 0xffffffe4
  106484:	e14b21dc 	ldrd	r2, [fp, #-28]	; 0xffffffe4
  106488:	e14b20fc 	strd	r2, [fp, #-12]
  10648c:	e320f000 	nop	{0}
  106490:	ea000007 	b	1064b4 <rtGetMinusInf+0xc0>
  106494:	e3a03000 	mov	r3, #0
  106498:	e34f3ff0 	movt	r3, #65520	; 0xfff0
  10649c:	e50b3024 	str	r3, [fp, #-36]	; 0xffffffdc
  1064a0:	e3a03000 	mov	r3, #0
  1064a4:	e50b3020 	str	r3, [fp, #-32]	; 0xffffffe0
  1064a8:	e14b22d4 	ldrd	r2, [fp, #-36]	; 0xffffffdc
  1064ac:	e14b20fc 	strd	r2, [fp, #-12]
  1064b0:	e320f000 	nop	{0}
  1064b4:	e14b20dc 	ldrd	r2, [fp, #-12]
  1064b8:	e1a00002 	mov	r0, r2
  1064bc:	e1a01003 	mov	r1, r3
  1064c0:	e24bd004 	sub	sp, fp, #4
  1064c4:	e8bd8800 	pop	{fp, pc}

001064c8 <rtGetMinusInfF>:
  1064c8:	e52db004 	push	{fp}		; (str fp, [sp, #-4]!)
  1064cc:	e28db000 	add	fp, sp, #0
  1064d0:	e24dd00c 	sub	sp, sp, #12
  1064d4:	e3a03000 	mov	r3, #0
  1064d8:	e34f3f80 	movt	r3, #65408	; 0xff80
  1064dc:	e50b3008 	str	r3, [fp, #-8]
  1064e0:	e51b3008 	ldr	r3, [fp, #-8]
  1064e4:	e1a00003 	mov	r0, r3
  1064e8:	e24bd000 	sub	sp, fp, #0
  1064ec:	e49db004 	pop	{fp}		; (ldr fp, [sp], #4)
  1064f0:	e12fff1e 	bx	lr

001064f4 <example>:
  1064f4:	e92d4800 	push	{fp, lr}
  1064f8:	ed2d8b02 	vpush	{d8}
  1064fc:	e28db00c 	add	fp, sp, #12
  106500:	e24ddb09 	sub	sp, sp, #9216	; 0x2400
  106504:	e24dd010 	sub	sp, sp, #16
  106508:	e3a03000 	mov	r3, #0
  10650c:	e50b3010 	str	r3, [fp, #-16]
  106510:	ea00000f 	b	106554 <example+0x60>
  106514:	e30436f8 	movw	r3, #18168	; 0x46f8
  106518:	e3403012 	movt	r3, #18
  10651c:	e51b2010 	ldr	r2, [fp, #-16]
  106520:	e0833002 	add	r3, r3, r2
  106524:	e1d330d0 	ldrsb	r3, [r3]
  106528:	ee073a90 	vmov	s15, r3
  10652c:	eef80be7 	vcvt.f64.s32	d16, s15
  106530:	e51b3010 	ldr	r3, [fp, #-16]
  106534:	e1a03183 	lsl	r3, r3, #3
  106538:	e24b200c 	sub	r2, fp, #12
  10653c:	e0823003 	add	r3, r2, r3
  106540:	e2433e11 	sub	r3, r3, #272	; 0x110
  106544:	edc30b00 	vstr	d16, [r3]
  106548:	e51b3010 	ldr	r3, [fp, #-16]
  10654c:	e2833001 	add	r3, r3, #1
  106550:	e50b3010 	str	r3, [fp, #-16]
  106554:	e51b3010 	ldr	r3, [fp, #-16]
  106558:	e353001f 	cmp	r3, #31
  10655c:	daffffec 	ble	106514 <example+0x20>
  106560:	e24b3f87 	sub	r3, fp, #540	; 0x21c
  106564:	e1a00003 	mov	r0, r3
  106568:	eb00026a 	bl	106f18 <randn>
  10656c:	e3a03000 	mov	r3, #0
  106570:	e50b3010 	str	r3, [fp, #-16]
  106574:	ea000016 	b	1065d4 <example+0xe0>
  106578:	e51b3010 	ldr	r3, [fp, #-16]
  10657c:	e1a03183 	lsl	r3, r3, #3
  106580:	e24b200c 	sub	r2, fp, #12
  106584:	e0823003 	add	r3, r2, r3
  106588:	e2433e21 	sub	r3, r3, #528	; 0x210
  10658c:	edd31b00 	vldr	d17, [r3]
  106590:	e30436f8 	movw	r3, #18168	; 0x46f8
  106594:	e3403012 	movt	r3, #18
  106598:	e51b2010 	ldr	r2, [fp, #-16]
  10659c:	e0833002 	add	r3, r3, r2
  1065a0:	e1d330d0 	ldrsb	r3, [r3]
  1065a4:	ee073a90 	vmov	s15, r3
  1065a8:	eef80be7 	vcvt.f64.s32	d16, s15
  1065ac:	ee710ba0 	vadd.f64	d16, d17, d16
  1065b0:	e51b3010 	ldr	r3, [fp, #-16]
  1065b4:	e1a03183 	lsl	r3, r3, #3
  1065b8:	e24b200c 	sub	r2, fp, #12
  1065bc:	e0823003 	add	r3, r2, r3
  1065c0:	e2433e21 	sub	r3, r3, #528	; 0x210
  1065c4:	edc30b00 	vstr	d16, [r3]
  1065c8:	e51b3010 	ldr	r3, [fp, #-16]
  1065cc:	e2833001 	add	r3, r3, #1
  1065d0:	e50b3010 	str	r3, [fp, #-16]
  1065d4:	e51b3010 	ldr	r3, [fp, #-16]
  1065d8:	e353001f 	cmp	r3, #31
  1065dc:	daffffe5 	ble	106578 <example+0x84>
  1065e0:	e24b3c22 	sub	r3, fp, #8704	; 0x2200
  1065e4:	e243300c 	sub	r3, r3, #12
  1065e8:	e2433010 	sub	r3, r3, #16
  1065ec:	e1a00003 	mov	r0, r3
  1065f0:	eb000292 	bl	107040 <eye>
  1065f4:	e3a03000 	mov	r3, #0
  1065f8:	e50b3014 	str	r3, [fp, #-20]	; 0xffffffec
  1065fc:	ea00003c 	b	1066f4 <example+0x200>
  106600:	e24b3f47 	sub	r3, fp, #284	; 0x11c
  106604:	e1a00003 	mov	r0, r3
  106608:	ebfff0f8 	bl	1029f0 <measurement_eq>
  10660c:	ec410b18 	vmov	d8, r0, r1
  106610:	eb000236 	bl	106ef0 <b_randn>
  106614:	ec410b30 	vmov	d16, r0, r1
  106618:	ee780b20 	vadd.f64	d16, d8, d16
  10661c:	ed4b0b07 	vstr	d16, [fp, #-28]	; 0xffffffe4
  106620:	e24b1c22 	sub	r1, fp, #8704	; 0x2200
  106624:	e241100c 	sub	r1, r1, #12
  106628:	e2411010 	sub	r1, r1, #16
  10662c:	e24b0f87 	sub	r0, fp, #540	; 0x21c
  106630:	e14b21dc 	ldrd	r2, [fp, #-28]	; 0xffffffe4
  106634:	ebfff334 	bl	10330c <b_ukf>
  106638:	e24b3c23 	sub	r3, fp, #8960	; 0x2300
  10663c:	e243300c 	sub	r3, r3, #12
  106640:	e2433010 	sub	r3, r3, #16
  106644:	e1a00003 	mov	r0, r3
  106648:	eb000232 	bl	106f18 <randn>
  10664c:	e24b3b09 	sub	r3, fp, #9216	; 0x2400
  106650:	e243300c 	sub	r3, r3, #12
  106654:	e2433010 	sub	r3, r3, #16
  106658:	e24b2f47 	sub	r2, fp, #284	; 0x11c
  10665c:	e1a01003 	mov	r1, r3
  106660:	e1a00002 	mov	r0, r2
  106664:	ebfff0ec 	bl	102a1c <nonlinear_state_eq>
  106668:	e3a03000 	mov	r3, #0
  10666c:	e50b3010 	str	r3, [fp, #-16]
  106670:	ea000019 	b	1066dc <example+0x1e8>
  106674:	e24b3a02 	sub	r3, fp, #8192	; 0x2000
  106678:	e243300c 	sub	r3, r3, #12
  10667c:	e2433e41 	sub	r3, r3, #1040	; 0x410
  106680:	e1a02003 	mov	r2, r3
  106684:	e51b3010 	ldr	r3, [fp, #-16]
  106688:	e1a03183 	lsl	r3, r3, #3
  10668c:	e0823003 	add	r3, r2, r3
  106690:	edd31b00 	vldr	d17, [r3]
  106694:	e24b3a02 	sub	r3, fp, #8192	; 0x2000
  106698:	e243300c 	sub	r3, r3, #12
  10669c:	e1a02003 	mov	r2, r3
  1066a0:	e51b3010 	ldr	r3, [fp, #-16]
  1066a4:	e1a03183 	lsl	r3, r3, #3
  1066a8:	e0823003 	add	r3, r2, r3
  1066ac:	e2433e31 	sub	r3, r3, #784	; 0x310
  1066b0:	edd30b00 	vldr	d16, [r3]
  1066b4:	ee710ba0 	vadd.f64	d16, d17, d16
  1066b8:	e51b3010 	ldr	r3, [fp, #-16]
  1066bc:	e1a03183 	lsl	r3, r3, #3
  1066c0:	e24b200c 	sub	r2, fp, #12
  1066c4:	e0823003 	add	r3, r2, r3
  1066c8:	e2433e11 	sub	r3, r3, #272	; 0x110
  1066cc:	edc30b00 	vstr	d16, [r3]
  1066d0:	e51b3010 	ldr	r3, [fp, #-16]
  1066d4:	e2833001 	add	r3, r3, #1
  1066d8:	e50b3010 	str	r3, [fp, #-16]
  1066dc:	e51b3010 	ldr	r3, [fp, #-16]
  1066e0:	e353001f 	cmp	r3, #31
  1066e4:	daffffe2 	ble	106674 <example+0x180>
  1066e8:	e51b3014 	ldr	r3, [fp, #-20]	; 0xffffffec
  1066ec:	e2833001 	add	r3, r3, #1
  1066f0:	e50b3014 	str	r3, [fp, #-20]	; 0xffffffec
  1066f4:	e51b3014 	ldr	r3, [fp, #-20]	; 0xffffffec
  1066f8:	e3530004 	cmp	r3, #4
  1066fc:	daffffbf 	ble	106600 <example+0x10c>
  106700:	e320f000 	nop	{0}
  106704:	e24bd00c 	sub	sp, fp, #12
  106708:	ecbd8b02 	vpop	{d8}
  10670c:	e8bd8800 	pop	{fp, pc}

00106710 <eml_rand_mt19937ar>:
  106710:	e92d4800 	push	{fp, lr}
  106714:	ed2d8b02 	vpush	{d8}
  106718:	e28db00c 	add	fp, sp, #12
  10671c:	e24dd038 	sub	sp, sp, #56	; 0x38
  106720:	e50b0040 	str	r0, [fp, #-64]	; 0xffffffc0
  106724:	e3a03000 	mov	r3, #0
  106728:	e50b3018 	str	r3, [fp, #-24]	; 0xffffffe8
  10672c:	e24b303c 	sub	r3, fp, #60	; 0x3c
  106730:	e1a01003 	mov	r1, r3
  106734:	e51b0040 	ldr	r0, [fp, #-64]	; 0xffffffc0
  106738:	eb000094 	bl	106990 <genrand_uint32_vector>
  10673c:	e51b3038 	ldr	r3, [fp, #-56]	; 0xffffffc8
  106740:	e1a03c23 	lsr	r3, r3, #24
  106744:	e2833001 	add	r3, r3, #1
  106748:	e50b301c 	str	r3, [fp, #-28]	; 0xffffffe4
  10674c:	e51b301c 	ldr	r3, [fp, #-28]	; 0xffffffe4
  106750:	e50b3020 	str	r3, [fp, #-32]	; 0xffffffe0
  106754:	e51b303c 	ldr	r3, [fp, #-60]	; 0xffffffc4
  106758:	e1a031a3 	lsr	r3, r3, #3
  10675c:	ee073a90 	vmov	s15, r3
  106760:	eef80b67 	vcvt.f64.u32	d16, s15
  106764:	eddf1b81 	vldr	d17, [pc, #516]	; 106970 <eml_rand_mt19937ar+0x260>
  106768:	ee601ba1 	vmul.f64	d17, d16, d17
  10676c:	e51b3038 	ldr	r3, [fp, #-56]	; 0xffffffc8
  106770:	e3c334ff 	bic	r3, r3, #-16777216	; 0xff000000
  106774:	ee073a90 	vmov	s15, r3
  106778:	eef80be7 	vcvt.f64.s32	d16, s15
  10677c:	ee710ba0 	vadd.f64	d16, d17, d16
  106780:	eddf1b7c 	vldr	d17, [pc, #496]	; 106978 <eml_rand_mt19937ar+0x268>
  106784:	ee600ba1 	vmul.f64	d16, d16, d17
  106788:	eef71b00 	vmov.f64	d17, #112	; 0x3f800000  1.0
  10678c:	ee701be1 	vsub.f64	d17, d16, d17
  106790:	e3043718 	movw	r3, #18200	; 0x4718
  106794:	e3403012 	movt	r3, #18
  106798:	e51b2020 	ldr	r2, [fp, #-32]	; 0xffffffe0
  10679c:	e1a02182 	lsl	r2, r2, #3
  1067a0:	e0833002 	add	r3, r3, r2
  1067a4:	edd30b00 	vldr	d16, [r3]
  1067a8:	ee610ba0 	vmul.f64	d16, d17, d16
  1067ac:	ed4b0b05 	vstr	d16, [fp, #-20]	; 0xffffffec
  1067b0:	ed5b0b05 	vldr	d16, [fp, #-20]	; 0xffffffec
  1067b4:	eef01be0 	vabs.f64	d17, d16
  1067b8:	e51b301c 	ldr	r3, [fp, #-28]	; 0xffffffe4
  1067bc:	e2432001 	sub	r2, r3, #1
  1067c0:	e3043718 	movw	r3, #18200	; 0x4718
  1067c4:	e3403012 	movt	r3, #18
  1067c8:	e1a02182 	lsl	r2, r2, #3
  1067cc:	e0833002 	add	r3, r3, r2
  1067d0:	edd30b00 	vldr	d16, [r3]
  1067d4:	eef41be0 	vcmpe.f64	d17, d16
  1067d8:	eef1fa10 	vmrs	APSR_nzcv, fpscr
  1067dc:	8a000002 	bhi	1067ec <eml_rand_mt19937ar+0xdc>
  1067e0:	e3a03001 	mov	r3, #1
  1067e4:	e50b3018 	str	r3, [fp, #-24]	; 0xffffffe8
  1067e8:	ea000056 	b	106948 <eml_rand_mt19937ar+0x238>
  1067ec:	e51b301c 	ldr	r3, [fp, #-28]	; 0xffffffe4
  1067f0:	e35300ff 	cmp	r3, #255	; 0xff
  1067f4:	ca000027 	bgt	106898 <eml_rand_mt19937ar+0x188>
  1067f8:	e51b0040 	ldr	r0, [fp, #-64]	; 0xffffffc0
  1067fc:	eb000139 	bl	106ce8 <genrandu>
  106800:	e14b02fc 	strd	r0, [fp, #-44]	; 0xffffffd4
  106804:	e3043f20 	movw	r3, #20256	; 0x4f20
  106808:	e3403012 	movt	r3, #18
  10680c:	e51b2020 	ldr	r2, [fp, #-32]	; 0xffffffe0
  106810:	e1a02182 	lsl	r2, r2, #3
  106814:	e0833002 	add	r3, r3, r2
  106818:	edd31b00 	vldr	d17, [r3]
  10681c:	e51b301c 	ldr	r3, [fp, #-28]	; 0xffffffe4
  106820:	e2432001 	sub	r2, r3, #1
  106824:	e3043f20 	movw	r3, #20256	; 0x4f20
  106828:	e3403012 	movt	r3, #18
  10682c:	e1a02182 	lsl	r2, r2, #3
  106830:	e0833002 	add	r3, r3, r2
  106834:	edd32b00 	vldr	d18, [r3]
  106838:	e3043f20 	movw	r3, #20256	; 0x4f20
  10683c:	e3403012 	movt	r3, #18
  106840:	e51b2020 	ldr	r2, [fp, #-32]	; 0xffffffe0
  106844:	e1a02182 	lsl	r2, r2, #3
  106848:	e0833002 	add	r3, r3, r2
  10684c:	edd30b00 	vldr	d16, [r3]
  106850:	ee722be0 	vsub.f64	d18, d18, d16
  106854:	ed5b0b0b 	vldr	d16, [fp, #-44]	; 0xffffffd4
  106858:	ee620ba0 	vmul.f64	d16, d18, d16
  10685c:	ee318ba0 	vadd.f64	d8, d17, d16
  106860:	ed5b0b05 	vldr	d16, [fp, #-20]	; 0xffffffec
  106864:	eefe1b00 	vmov.f64	d17, #224	; 0xbf000000 -0.5
  106868:	ee601ba1 	vmul.f64	d17, d16, d17
  10686c:	ed5b0b05 	vldr	d16, [fp, #-20]	; 0xffffffec
  106870:	ee610ba0 	vmul.f64	d16, d17, d16
  106874:	ec510b30 	vmov	r0, r1, d16
  106878:	eb00021c 	bl	1070f0 <exp>
  10687c:	ec410b30 	vmov	d16, r0, r1
  106880:	eeb48be0 	vcmpe.f64	d8, d16
  106884:	eef1fa10 	vmrs	APSR_nzcv, fpscr
  106888:	5a00002e 	bpl	106948 <eml_rand_mt19937ar+0x238>
  10688c:	e3a03001 	mov	r3, #1
  106890:	e50b3018 	str	r3, [fp, #-24]	; 0xffffffe8
  106894:	ea00002b 	b	106948 <eml_rand_mt19937ar+0x238>
  106898:	e51b0040 	ldr	r0, [fp, #-64]	; 0xffffffc0
  10689c:	eb000111 	bl	106ce8 <genrandu>
  1068a0:	e14b02fc 	strd	r0, [fp, #-44]	; 0xffffffd4
  1068a4:	e14b02dc 	ldrd	r0, [fp, #-44]	; 0xffffffd4
  1068a8:	eb000266 	bl	107248 <log>
  1068ac:	ec410b31 	vmov	d17, r0, r1
  1068b0:	eddf0b32 	vldr	d16, [pc, #200]	; 106980 <eml_rand_mt19937ar+0x270>
  1068b4:	ee610ba0 	vmul.f64	d16, d17, d16
  1068b8:	ed4b0b0d 	vstr	d16, [fp, #-52]	; 0xffffffcc
  1068bc:	e51b0040 	ldr	r0, [fp, #-64]	; 0xffffffc0
  1068c0:	eb000108 	bl	106ce8 <genrandu>
  1068c4:	e14b02fc 	strd	r0, [fp, #-44]	; 0xffffffd4
  1068c8:	e14b02dc 	ldrd	r0, [fp, #-44]	; 0xffffffd4
  1068cc:	eb00025d 	bl	107248 <log>
  1068d0:	ec410b31 	vmov	d17, r0, r1
  1068d4:	eef80b00 	vmov.f64	d16, #128	; 0xc0000000 -2.0
  1068d8:	ee611ba0 	vmul.f64	d17, d17, d16
  1068dc:	ed5b2b0d 	vldr	d18, [fp, #-52]	; 0xffffffcc
  1068e0:	ed5b0b0d 	vldr	d16, [fp, #-52]	; 0xffffffcc
  1068e4:	ee620ba0 	vmul.f64	d16, d18, d16
  1068e8:	eef41be0 	vcmpe.f64	d17, d16
  1068ec:	eef1fa10 	vmrs	APSR_nzcv, fpscr
  1068f0:	c3a03001 	movgt	r3, #1
  1068f4:	d3a03000 	movle	r3, #0
  1068f8:	e6ef3073 	uxtb	r3, r3
  1068fc:	e2233001 	eor	r3, r3, #1
  106900:	e6ef3073 	uxtb	r3, r3
  106904:	e3530000 	cmp	r3, #0
  106908:	1affffe2 	bne	106898 <eml_rand_mt19937ar+0x188>
  10690c:	ed5b0b05 	vldr	d16, [fp, #-20]	; 0xffffffec
  106910:	eef50bc0 	vcmpe.f64	d16, #0.0
  106914:	eef1fa10 	vmrs	APSR_nzcv, fpscr
  106918:	5a000004 	bpl	106930 <eml_rand_mt19937ar+0x220>
  10691c:	ed5b0b0d 	vldr	d16, [fp, #-52]	; 0xffffffcc
  106920:	eddf1b18 	vldr	d17, [pc, #96]	; 106988 <eml_rand_mt19937ar+0x278>
  106924:	ee700be1 	vsub.f64	d16, d16, d17
  106928:	ed4b0b05 	vstr	d16, [fp, #-20]	; 0xffffffec
  10692c:	ea000003 	b	106940 <eml_rand_mt19937ar+0x230>
  106930:	eddf1b14 	vldr	d17, [pc, #80]	; 106988 <eml_rand_mt19937ar+0x278>
  106934:	ed5b0b0d 	vldr	d16, [fp, #-52]	; 0xffffffcc
  106938:	ee710be0 	vsub.f64	d16, d17, d16
  10693c:	ed4b0b05 	vstr	d16, [fp, #-20]	; 0xffffffec
  106940:	e3a03001 	mov	r3, #1
  106944:	e50b3018 	str	r3, [fp, #-24]	; 0xffffffe8
  106948:	e51b3018 	ldr	r3, [fp, #-24]	; 0xffffffe8
  10694c:	e3530000 	cmp	r3, #0
  106950:	0affff73 	beq	106724 <eml_rand_mt19937ar+0x14>
  106954:	e14b21d4 	ldrd	r2, [fp, #-20]	; 0xffffffec
  106958:	e1a00002 	mov	r0, r2
  10695c:	e1a01003 	mov	r1, r3
  106960:	e24bd00c 	sub	sp, fp, #12
  106964:	ecbd8b02 	vpop	{d8}
  106968:	e8bd8800 	pop	{fp, pc}
  10696c:	e320f000 	nop	{0}
  106970:	00000000 	.word	0x00000000
  106974:	41700000 	.word	0x41700000
  106978:	00000000 	.word	0x00000000
  10697c:	3cb00000 	.word	0x3cb00000
  106980:	6c20e8bc 	.word	0x6c20e8bc
  106984:	3fd183aa 	.word	0x3fd183aa
  106988:	8209ad36 	.word	0x8209ad36
  10698c:	400d3bb4 	.word	0x400d3bb4

00106990 <genrand_uint32_vector>:
  106990:	e52db004 	push	{fp}		; (str fp, [sp, #-4]!)
  106994:	e28db000 	add	fp, sp, #0
  106998:	e24dd02c 	sub	sp, sp, #44	; 0x2c
  10699c:	e50b0028 	str	r0, [fp, #-40]	; 0xffffffd8
  1069a0:	e50b102c 	str	r1, [fp, #-44]	; 0xffffffd4
  1069a4:	e3a03000 	mov	r3, #0
  1069a8:	e50b3008 	str	r3, [fp, #-8]
  1069ac:	ea0000c6 	b	106ccc <genrand_uint32_vector+0x33c>
  1069b0:	e51b3008 	ldr	r3, [fp, #-8]
  1069b4:	e1a03103 	lsl	r3, r3, #2
  1069b8:	e51b202c 	ldr	r2, [fp, #-44]	; 0xffffffd4
  1069bc:	e0823003 	add	r3, r2, r3
  1069c0:	e3a02000 	mov	r2, #0
  1069c4:	e5832000 	str	r2, [r3]
  1069c8:	e51b3028 	ldr	r3, [fp, #-40]	; 0xffffffd8
  1069cc:	e2833d27 	add	r3, r3, #2496	; 0x9c0
  1069d0:	e5933000 	ldr	r3, [r3]
  1069d4:	e2833001 	add	r3, r3, #1
  1069d8:	e50b300c 	str	r3, [fp, #-12]
  1069dc:	e51b300c 	ldr	r3, [fp, #-12]
  1069e0:	e3530e27 	cmp	r3, #624	; 0x270
  1069e4:	9a00008a 	bls	106c14 <genrand_uint32_vector+0x284>
  1069e8:	e3a03000 	mov	r3, #0
  1069ec:	e50b3010 	str	r3, [fp, #-16]
  1069f0:	ea00002d 	b	106aac <genrand_uint32_vector+0x11c>
  1069f4:	e51b3010 	ldr	r3, [fp, #-16]
  1069f8:	e1a03103 	lsl	r3, r3, #2
  1069fc:	e51b2028 	ldr	r2, [fp, #-40]	; 0xffffffd8
  106a00:	e0823003 	add	r3, r2, r3
  106a04:	e5933000 	ldr	r3, [r3]
  106a08:	e2032102 	and	r2, r3, #-2147483648	; 0x80000000
  106a0c:	e51b3010 	ldr	r3, [fp, #-16]
  106a10:	e2833001 	add	r3, r3, #1
  106a14:	e1a03103 	lsl	r3, r3, #2
  106a18:	e51b1028 	ldr	r1, [fp, #-40]	; 0xffffffd8
  106a1c:	e0813003 	add	r3, r1, r3
  106a20:	e5933000 	ldr	r3, [r3]
  106a24:	e3c33102 	bic	r3, r3, #-2147483648	; 0x80000000
  106a28:	e1823003 	orr	r3, r2, r3
  106a2c:	e50b3020 	str	r3, [fp, #-32]	; 0xffffffe0
  106a30:	e51b3020 	ldr	r3, [fp, #-32]	; 0xffffffe0
  106a34:	e2033001 	and	r3, r3, #1
  106a38:	e3530000 	cmp	r3, #0
  106a3c:	1a000003 	bne	106a50 <genrand_uint32_vector+0xc0>
  106a40:	e51b3020 	ldr	r3, [fp, #-32]	; 0xffffffe0
  106a44:	e1a030a3 	lsr	r3, r3, #1
  106a48:	e50b3014 	str	r3, [fp, #-20]	; 0xffffffec
  106a4c:	ea000005 	b	106a68 <genrand_uint32_vector+0xd8>
  106a50:	e51b3020 	ldr	r3, [fp, #-32]	; 0xffffffe0
  106a54:	e1a020a3 	lsr	r2, r3, #1
  106a58:	e30b30df 	movw	r3, #45279	; 0xb0df
  106a5c:	e3493908 	movt	r3, #39176	; 0x9908
  106a60:	e0233002 	eor	r3, r3, r2
  106a64:	e50b3014 	str	r3, [fp, #-20]	; 0xffffffec
  106a68:	e51b3010 	ldr	r3, [fp, #-16]
  106a6c:	e1a03103 	lsl	r3, r3, #2
  106a70:	e51b2028 	ldr	r2, [fp, #-40]	; 0xffffffd8
  106a74:	e0822003 	add	r2, r2, r3
  106a78:	e51b3010 	ldr	r3, [fp, #-16]
  106a7c:	e2833f63 	add	r3, r3, #396	; 0x18c
  106a80:	e2833001 	add	r3, r3, #1
  106a84:	e1a03103 	lsl	r3, r3, #2
  106a88:	e51b1028 	ldr	r1, [fp, #-40]	; 0xffffffd8
  106a8c:	e0813003 	add	r3, r1, r3
  106a90:	e5931000 	ldr	r1, [r3]
  106a94:	e51b3014 	ldr	r3, [fp, #-20]	; 0xffffffec
  106a98:	e0233001 	eor	r3, r3, r1
  106a9c:	e5823000 	str	r3, [r2]
  106aa0:	e51b3010 	ldr	r3, [fp, #-16]
  106aa4:	e2833001 	add	r3, r3, #1
  106aa8:	e50b3010 	str	r3, [fp, #-16]
  106aac:	e51b3010 	ldr	r3, [fp, #-16]
  106ab0:	e35300e2 	cmp	r3, #226	; 0xe2
  106ab4:	daffffce 	ble	1069f4 <genrand_uint32_vector+0x64>
  106ab8:	e3a03000 	mov	r3, #0
  106abc:	e50b3010 	str	r3, [fp, #-16]
  106ac0:	ea00002d 	b	106b7c <genrand_uint32_vector+0x1ec>
  106ac4:	e51b3010 	ldr	r3, [fp, #-16]
  106ac8:	e28330e3 	add	r3, r3, #227	; 0xe3
  106acc:	e1a03103 	lsl	r3, r3, #2
  106ad0:	e51b2028 	ldr	r2, [fp, #-40]	; 0xffffffd8
  106ad4:	e0823003 	add	r3, r2, r3
  106ad8:	e5933000 	ldr	r3, [r3]
  106adc:	e2032102 	and	r2, r3, #-2147483648	; 0x80000000
  106ae0:	e51b3010 	ldr	r3, [fp, #-16]
  106ae4:	e28330e4 	add	r3, r3, #228	; 0xe4
  106ae8:	e1a03103 	lsl	r3, r3, #2
  106aec:	e51b1028 	ldr	r1, [fp, #-40]	; 0xffffffd8
  106af0:	e0813003 	add	r3, r1, r3
  106af4:	e5933000 	ldr	r3, [r3]
  106af8:	e3c33102 	bic	r3, r3, #-2147483648	; 0x80000000
  106afc:	e1823003 	orr	r3, r2, r3
  106b00:	e50b3020 	str	r3, [fp, #-32]	; 0xffffffe0
  106b04:	e51b3020 	ldr	r3, [fp, #-32]	; 0xffffffe0
  106b08:	e2033001 	and	r3, r3, #1
  106b0c:	e3530000 	cmp	r3, #0
  106b10:	1a000003 	bne	106b24 <genrand_uint32_vector+0x194>
  106b14:	e51b3020 	ldr	r3, [fp, #-32]	; 0xffffffe0
  106b18:	e1a030a3 	lsr	r3, r3, #1
  106b1c:	e50b301c 	str	r3, [fp, #-28]	; 0xffffffe4
  106b20:	ea000005 	b	106b3c <genrand_uint32_vector+0x1ac>
  106b24:	e51b3020 	ldr	r3, [fp, #-32]	; 0xffffffe0
  106b28:	e1a020a3 	lsr	r2, r3, #1
  106b2c:	e30b30df 	movw	r3, #45279	; 0xb0df
  106b30:	e3493908 	movt	r3, #39176	; 0x9908
  106b34:	e0233002 	eor	r3, r3, r2
  106b38:	e50b301c 	str	r3, [fp, #-28]	; 0xffffffe4
  106b3c:	e51b3010 	ldr	r3, [fp, #-16]
  106b40:	e28330e3 	add	r3, r3, #227	; 0xe3
  106b44:	e1a03103 	lsl	r3, r3, #2
  106b48:	e51b2028 	ldr	r2, [fp, #-40]	; 0xffffffd8
  106b4c:	e0823003 	add	r3, r2, r3
  106b50:	e51b2010 	ldr	r2, [fp, #-16]
  106b54:	e1a02102 	lsl	r2, r2, #2
  106b58:	e51b1028 	ldr	r1, [fp, #-40]	; 0xffffffd8
  106b5c:	e0812002 	add	r2, r1, r2
  106b60:	e5921000 	ldr	r1, [r2]
  106b64:	e51b201c 	ldr	r2, [fp, #-28]	; 0xffffffe4
  106b68:	e0222001 	eor	r2, r2, r1
  106b6c:	e5832000 	str	r2, [r3]
  106b70:	e51b3010 	ldr	r3, [fp, #-16]
  106b74:	e2833001 	add	r3, r3, #1
  106b78:	e50b3010 	str	r3, [fp, #-16]
  106b7c:	e51b3010 	ldr	r3, [fp, #-16]
  106b80:	e3530f63 	cmp	r3, #396	; 0x18c
  106b84:	baffffce 	blt	106ac4 <genrand_uint32_vector+0x134>
  106b88:	e51b3028 	ldr	r3, [fp, #-40]	; 0xffffffd8
  106b8c:	e2833e9b 	add	r3, r3, #2480	; 0x9b0
  106b90:	e283300c 	add	r3, r3, #12
  106b94:	e5933000 	ldr	r3, [r3]
  106b98:	e2032102 	and	r2, r3, #-2147483648	; 0x80000000
  106b9c:	e51b3028 	ldr	r3, [fp, #-40]	; 0xffffffd8
  106ba0:	e5933000 	ldr	r3, [r3]
  106ba4:	e3c33102 	bic	r3, r3, #-2147483648	; 0x80000000
  106ba8:	e1823003 	orr	r3, r2, r3
  106bac:	e50b3020 	str	r3, [fp, #-32]	; 0xffffffe0
  106bb0:	e51b3020 	ldr	r3, [fp, #-32]	; 0xffffffe0
  106bb4:	e2033001 	and	r3, r3, #1
  106bb8:	e3530000 	cmp	r3, #0
  106bbc:	1a000003 	bne	106bd0 <genrand_uint32_vector+0x240>
  106bc0:	e51b3020 	ldr	r3, [fp, #-32]	; 0xffffffe0
  106bc4:	e1a030a3 	lsr	r3, r3, #1
  106bc8:	e50b3018 	str	r3, [fp, #-24]	; 0xffffffe8
  106bcc:	ea000005 	b	106be8 <genrand_uint32_vector+0x258>
  106bd0:	e51b3020 	ldr	r3, [fp, #-32]	; 0xffffffe0
  106bd4:	e1a020a3 	lsr	r2, r3, #1
  106bd8:	e30b30df 	movw	r3, #45279	; 0xb0df
  106bdc:	e3493908 	movt	r3, #39176	; 0x9908
  106be0:	e0233002 	eor	r3, r3, r2
  106be4:	e50b3018 	str	r3, [fp, #-24]	; 0xffffffe8
  106be8:	e51b3028 	ldr	r3, [fp, #-40]	; 0xffffffd8
  106bec:	e2833e9b 	add	r3, r3, #2480	; 0x9b0
  106bf0:	e283300c 	add	r3, r3, #12
  106bf4:	e51b2028 	ldr	r2, [fp, #-40]	; 0xffffffd8
  106bf8:	e2822e63 	add	r2, r2, #1584	; 0x630
  106bfc:	e5921000 	ldr	r1, [r2]
  106c00:	e51b2018 	ldr	r2, [fp, #-24]	; 0xffffffe8
  106c04:	e0222001 	eor	r2, r2, r1
  106c08:	e5832000 	str	r2, [r3]
  106c0c:	e3a03001 	mov	r3, #1
  106c10:	e50b300c 	str	r3, [fp, #-12]
  106c14:	e51b300c 	ldr	r3, [fp, #-12]
  106c18:	e2433107 	sub	r3, r3, #-1073741823	; 0xc0000001
  106c1c:	e1a03103 	lsl	r3, r3, #2
  106c20:	e51b2028 	ldr	r2, [fp, #-40]	; 0xffffffd8
  106c24:	e0823003 	add	r3, r2, r3
  106c28:	e5933000 	ldr	r3, [r3]
  106c2c:	e50b3020 	str	r3, [fp, #-32]	; 0xffffffe0
  106c30:	e51b3028 	ldr	r3, [fp, #-40]	; 0xffffffd8
  106c34:	e2833d27 	add	r3, r3, #2496	; 0x9c0
  106c38:	e51b200c 	ldr	r2, [fp, #-12]
  106c3c:	e5832000 	str	r2, [r3]
  106c40:	e51b3020 	ldr	r3, [fp, #-32]	; 0xffffffe0
  106c44:	e1a035a3 	lsr	r3, r3, #11
  106c48:	e51b2020 	ldr	r2, [fp, #-32]	; 0xffffffe0
  106c4c:	e0233002 	eor	r3, r3, r2
  106c50:	e50b3020 	str	r3, [fp, #-32]	; 0xffffffe0
  106c54:	e51b3020 	ldr	r3, [fp, #-32]	; 0xffffffe0
  106c58:	e1a02383 	lsl	r2, r3, #7
  106c5c:	e3053680 	movw	r3, #22144	; 0x5680
  106c60:	e3493d2c 	movt	r3, #40236	; 0x9d2c
  106c64:	e0033002 	and	r3, r3, r2
  106c68:	e51b2020 	ldr	r2, [fp, #-32]	; 0xffffffe0
  106c6c:	e0233002 	eor	r3, r3, r2
  106c70:	e50b3020 	str	r3, [fp, #-32]	; 0xffffffe0
  106c74:	e51b3020 	ldr	r3, [fp, #-32]	; 0xffffffe0
  106c78:	e1a02783 	lsl	r2, r3, #15
  106c7c:	e3a03000 	mov	r3, #0
  106c80:	e34e3fc6 	movt	r3, #61382	; 0xefc6
  106c84:	e0033002 	and	r3, r3, r2
  106c88:	e51b2020 	ldr	r2, [fp, #-32]	; 0xffffffe0
  106c8c:	e0233002 	eor	r3, r3, r2
  106c90:	e50b3020 	str	r3, [fp, #-32]	; 0xffffffe0
  106c94:	e51b3020 	ldr	r3, [fp, #-32]	; 0xffffffe0
  106c98:	e1a03923 	lsr	r3, r3, #18
  106c9c:	e51b2020 	ldr	r2, [fp, #-32]	; 0xffffffe0
  106ca0:	e0233002 	eor	r3, r3, r2
  106ca4:	e50b3020 	str	r3, [fp, #-32]	; 0xffffffe0
  106ca8:	e51b3008 	ldr	r3, [fp, #-8]
  106cac:	e1a03103 	lsl	r3, r3, #2
  106cb0:	e51b202c 	ldr	r2, [fp, #-44]	; 0xffffffd4
  106cb4:	e0823003 	add	r3, r2, r3
  106cb8:	e51b2020 	ldr	r2, [fp, #-32]	; 0xffffffe0
  106cbc:	e5832000 	str	r2, [r3]
  106cc0:	e51b3008 	ldr	r3, [fp, #-8]
  106cc4:	e2833001 	add	r3, r3, #1
  106cc8:	e50b3008 	str	r3, [fp, #-8]
  106ccc:	e51b3008 	ldr	r3, [fp, #-8]
  106cd0:	e3530001 	cmp	r3, #1
  106cd4:	daffff35 	ble	1069b0 <genrand_uint32_vector+0x20>
  106cd8:	e320f000 	nop	{0}
  106cdc:	e24bd000 	sub	sp, fp, #0
  106ce0:	e49db004 	pop	{fp}		; (ldr fp, [sp], #4)
  106ce4:	e12fff1e 	bx	lr

00106ce8 <genrandu>:
  106ce8:	e92d4800 	push	{fp, lr}
  106cec:	e28db004 	add	fp, sp, #4
  106cf0:	e24dd030 	sub	sp, sp, #48	; 0x30
  106cf4:	e50b0030 	str	r0, [fp, #-48]	; 0xffffffd0
  106cf8:	e3a03000 	mov	r3, #0
  106cfc:	e50b3008 	str	r3, [fp, #-8]
  106d00:	e24b302c 	sub	r3, fp, #44	; 0x2c
  106d04:	e1a01003 	mov	r1, r3
  106d08:	e51b0030 	ldr	r0, [fp, #-48]	; 0xffffffd0
  106d0c:	ebffff1f 	bl	106990 <genrand_uint32_vector>
  106d10:	e51b302c 	ldr	r3, [fp, #-44]	; 0xffffffd4
  106d14:	e1a032a3 	lsr	r3, r3, #5
  106d18:	ee073a90 	vmov	s15, r3
  106d1c:	eef80b67 	vcvt.f64.u32	d16, s15
  106d20:	eddf1b6e 	vldr	d17, [pc, #440]	; 106ee0 <genrandu+0x1f8>
  106d24:	ee601ba1 	vmul.f64	d17, d16, d17
  106d28:	e51b3028 	ldr	r3, [fp, #-40]	; 0xffffffd8
  106d2c:	e1a03323 	lsr	r3, r3, #6
  106d30:	ee073a90 	vmov	s15, r3
  106d34:	eef80b67 	vcvt.f64.u32	d16, s15
  106d38:	ee710ba0 	vadd.f64	d16, d17, d16
  106d3c:	eddf1b69 	vldr	d17, [pc, #420]	; 106ee8 <genrandu+0x200>
  106d40:	ee600ba1 	vmul.f64	d16, d16, d17
  106d44:	ed4b0b09 	vstr	d16, [fp, #-36]	; 0xffffffdc
  106d48:	ed5b0b09 	vldr	d16, [fp, #-36]	; 0xffffffdc
  106d4c:	eef50b40 	vcmp.f64	d16, #0.0
  106d50:	eef1fa10 	vmrs	APSR_nzcv, fpscr
  106d54:	1a000057 	bne	106eb8 <genrandu+0x1d0>
  106d58:	e51b3030 	ldr	r3, [fp, #-48]	; 0xffffffd0
  106d5c:	e2833d27 	add	r3, r3, #2496	; 0x9c0
  106d60:	e5933000 	ldr	r3, [r3]
  106d64:	e3530000 	cmp	r3, #0
  106d68:	0a000007 	beq	106d8c <genrandu+0xa4>
  106d6c:	e51b3030 	ldr	r3, [fp, #-48]	; 0xffffffd0
  106d70:	e2833d27 	add	r3, r3, #2496	; 0x9c0
  106d74:	e5933000 	ldr	r3, [r3]
  106d78:	e3530e27 	cmp	r3, #624	; 0x270
  106d7c:	8a000002 	bhi	106d8c <genrandu+0xa4>
  106d80:	e3a03001 	mov	r3, #1
  106d84:	e54b3009 	strb	r3, [fp, #-9]
  106d88:	ea000001 	b	106d94 <genrandu+0xac>
  106d8c:	e3a03000 	mov	r3, #0
  106d90:	e54b3009 	strb	r3, [fp, #-9]
  106d94:	e55b3009 	ldrb	r3, [fp, #-9]
  106d98:	e3530000 	cmp	r3, #0
  106d9c:	0a00001c 	beq	106e14 <genrandu+0x12c>
  106da0:	e3a03000 	mov	r3, #0
  106da4:	e54b3009 	strb	r3, [fp, #-9]
  106da8:	e3a03001 	mov	r3, #1
  106dac:	e50b3010 	str	r3, [fp, #-16]
  106db0:	e3a03000 	mov	r3, #0
  106db4:	e54b3015 	strb	r3, [fp, #-21]	; 0xffffffeb
  106db8:	ea00000f 	b	106dfc <genrandu+0x114>
  106dbc:	e51b3010 	ldr	r3, [fp, #-16]
  106dc0:	e2433107 	sub	r3, r3, #-1073741823	; 0xc0000001
  106dc4:	e1a03103 	lsl	r3, r3, #2
  106dc8:	e51b2030 	ldr	r2, [fp, #-48]	; 0xffffffd0
  106dcc:	e0823003 	add	r3, r2, r3
  106dd0:	e5933000 	ldr	r3, [r3]
  106dd4:	e3530000 	cmp	r3, #0
  106dd8:	1a000003 	bne	106dec <genrandu+0x104>
  106ddc:	e51b3010 	ldr	r3, [fp, #-16]
  106de0:	e2833001 	add	r3, r3, #1
  106de4:	e50b3010 	str	r3, [fp, #-16]
  106de8:	ea000003 	b	106dfc <genrandu+0x114>
  106dec:	e3a03001 	mov	r3, #1
  106df0:	e54b3009 	strb	r3, [fp, #-9]
  106df4:	e3a03001 	mov	r3, #1
  106df8:	e54b3015 	strb	r3, [fp, #-21]	; 0xffffffeb
  106dfc:	e55b3015 	ldrb	r3, [fp, #-21]	; 0xffffffeb
  106e00:	e3530000 	cmp	r3, #0
  106e04:	1a000002 	bne	106e14 <genrandu+0x12c>
  106e08:	e51b3010 	ldr	r3, [fp, #-16]
  106e0c:	e3530e27 	cmp	r3, #624	; 0x270
  106e10:	daffffe9 	ble	106dbc <genrandu+0xd4>
  106e14:	e55b3009 	ldrb	r3, [fp, #-9]
  106e18:	e3530000 	cmp	r3, #0
  106e1c:	1a000027 	bne	106ec0 <genrandu+0x1d8>
  106e20:	e3013571 	movw	r3, #5489	; 0x1571
  106e24:	e50b3014 	str	r3, [fp, #-20]	; 0xffffffec
  106e28:	e51b3030 	ldr	r3, [fp, #-48]	; 0xffffffd0
  106e2c:	e3012571 	movw	r2, #5489	; 0x1571
  106e30:	e5832000 	str	r2, [r3]
  106e34:	e3a03000 	mov	r3, #0
  106e38:	e50b3010 	str	r3, [fp, #-16]
  106e3c:	ea000014 	b	106e94 <genrandu+0x1ac>
  106e40:	e51b3014 	ldr	r3, [fp, #-20]	; 0xffffffec
  106e44:	e1a02f23 	lsr	r2, r3, #30
  106e48:	e51b3014 	ldr	r3, [fp, #-20]	; 0xffffffec
  106e4c:	e0222003 	eor	r2, r2, r3
  106e50:	e3083965 	movw	r3, #35173	; 0x8965
  106e54:	e3463c07 	movt	r3, #27655	; 0x6c07
  106e58:	e0020293 	mul	r2, r3, r2
  106e5c:	e51b3010 	ldr	r3, [fp, #-16]
  106e60:	e0823003 	add	r3, r2, r3
  106e64:	e2833001 	add	r3, r3, #1
  106e68:	e50b3014 	str	r3, [fp, #-20]	; 0xffffffec
  106e6c:	e51b3010 	ldr	r3, [fp, #-16]
  106e70:	e2833001 	add	r3, r3, #1
  106e74:	e1a03103 	lsl	r3, r3, #2
  106e78:	e51b2030 	ldr	r2, [fp, #-48]	; 0xffffffd0
  106e7c:	e0823003 	add	r3, r2, r3
  106e80:	e51b2014 	ldr	r2, [fp, #-20]	; 0xffffffec
  106e84:	e5832000 	str	r2, [r3]
  106e88:	e51b3010 	ldr	r3, [fp, #-16]
  106e8c:	e2833001 	add	r3, r3, #1
  106e90:	e50b3010 	str	r3, [fp, #-16]
  106e94:	e51b3010 	ldr	r3, [fp, #-16]
  106e98:	e300226e 	movw	r2, #622	; 0x26e
  106e9c:	e1530002 	cmp	r3, r2
  106ea0:	daffffe6 	ble	106e40 <genrandu+0x158>
  106ea4:	e51b3030 	ldr	r3, [fp, #-48]	; 0xffffffd0
  106ea8:	e2833d27 	add	r3, r3, #2496	; 0x9c0
  106eac:	e3a02e27 	mov	r2, #624	; 0x270
  106eb0:	e5832000 	str	r2, [r3]
  106eb4:	ea000001 	b	106ec0 <genrandu+0x1d8>
  106eb8:	e3a03001 	mov	r3, #1
  106ebc:	e50b3008 	str	r3, [fp, #-8]
  106ec0:	e51b3008 	ldr	r3, [fp, #-8]
  106ec4:	e3530000 	cmp	r3, #0
  106ec8:	0affff8a 	beq	106cf8 <genrandu+0x10>
  106ecc:	e14b22d4 	ldrd	r2, [fp, #-36]	; 0xffffffdc
  106ed0:	e1a00002 	mov	r0, r2
  106ed4:	e1a01003 	mov	r1, r3
  106ed8:	e24bd004 	sub	sp, fp, #4
  106edc:	e8bd8800 	pop	{fp, pc}
  106ee0:	00000000 	.word	0x00000000
  106ee4:	41900000 	.word	0x41900000
  106ee8:	00000000 	.word	0x00000000
  106eec:	3ca00000 	.word	0x3ca00000

00106ef0 <b_randn>:
  106ef0:	e92d4800 	push	{fp, lr}
  106ef4:	e28db004 	add	fp, sp, #4
  106ef8:	e3000a0c 	movw	r0, #2572	; 0xa0c
  106efc:	e3400013 	movt	r0, #19
  106f00:	ebfffe02 	bl	106710 <eml_rand_mt19937ar>
  106f04:	e1a02000 	mov	r2, r0
  106f08:	e1a03001 	mov	r3, r1
  106f0c:	e1a00002 	mov	r0, r2
  106f10:	e1a01003 	mov	r1, r3
  106f14:	e8bd8800 	pop	{fp, pc}

00106f18 <randn>:
  106f18:	e92d4810 	push	{r4, fp, lr}
  106f1c:	e28db008 	add	fp, sp, #8
  106f20:	e24dd014 	sub	sp, sp, #20
  106f24:	e50b0018 	str	r0, [fp, #-24]	; 0xffffffe8
  106f28:	e3a03000 	mov	r3, #0
  106f2c:	e50b3010 	str	r3, [fp, #-16]
  106f30:	ea00000c 	b	106f68 <randn+0x50>
  106f34:	e51b3010 	ldr	r3, [fp, #-16]
  106f38:	e1a03183 	lsl	r3, r3, #3
  106f3c:	e51b2018 	ldr	r2, [fp, #-24]	; 0xffffffe8
  106f40:	e0824003 	add	r4, r2, r3
  106f44:	e3000a0c 	movw	r0, #2572	; 0xa0c
  106f48:	e3400013 	movt	r0, #19
  106f4c:	ebfffdef 	bl	106710 <eml_rand_mt19937ar>
  106f50:	e1a02000 	mov	r2, r0
  106f54:	e1a03001 	mov	r3, r1
  106f58:	e1c420f0 	strd	r2, [r4]
  106f5c:	e51b3010 	ldr	r3, [fp, #-16]
  106f60:	e2833001 	add	r3, r3, #1
  106f64:	e50b3010 	str	r3, [fp, #-16]
  106f68:	e51b3010 	ldr	r3, [fp, #-16]
  106f6c:	e353001f 	cmp	r3, #31
  106f70:	daffffef 	ble	106f34 <randn+0x1c>
  106f74:	e320f000 	nop	{0}
  106f78:	e24bd008 	sub	sp, fp, #8
  106f7c:	e8bd8810 	pop	{r4, fp, pc}

00106f80 <c_eml_rand_mt19937ar_stateful_i>:
  106f80:	e92d4800 	push	{fp, lr}
  106f84:	e28db004 	add	fp, sp, #4
  106f88:	e24dd008 	sub	sp, sp, #8
  106f8c:	e30029c4 	movw	r2, #2500	; 0x9c4
  106f90:	e3a01000 	mov	r1, #0
  106f94:	e3000a0c 	movw	r0, #2572	; 0xa0c
  106f98:	e3400013 	movt	r0, #19
  106f9c:	eb000610 	bl	1087e4 <memset>
  106fa0:	e3013571 	movw	r3, #5489	; 0x1571
  106fa4:	e50b3008 	str	r3, [fp, #-8]
  106fa8:	e3003a0c 	movw	r3, #2572	; 0xa0c
  106fac:	e3403013 	movt	r3, #19
  106fb0:	e3012571 	movw	r2, #5489	; 0x1571
  106fb4:	e5832000 	str	r2, [r3]
  106fb8:	e3a03000 	mov	r3, #0
  106fbc:	e50b300c 	str	r3, [fp, #-12]
  106fc0:	ea000013 	b	107014 <c_eml_rand_mt19937ar_stateful_i+0x94>
  106fc4:	e51b3008 	ldr	r3, [fp, #-8]
  106fc8:	e1a02f23 	lsr	r2, r3, #30
  106fcc:	e51b3008 	ldr	r3, [fp, #-8]
  106fd0:	e0222003 	eor	r2, r2, r3
  106fd4:	e3083965 	movw	r3, #35173	; 0x8965
  106fd8:	e3463c07 	movt	r3, #27655	; 0x6c07
  106fdc:	e0020293 	mul	r2, r3, r2
  106fe0:	e51b300c 	ldr	r3, [fp, #-12]
  106fe4:	e0823003 	add	r3, r2, r3
  106fe8:	e2833001 	add	r3, r3, #1
  106fec:	e50b3008 	str	r3, [fp, #-8]
  106ff0:	e51b300c 	ldr	r3, [fp, #-12]
  106ff4:	e2832001 	add	r2, r3, #1
  106ff8:	e3003a0c 	movw	r3, #2572	; 0xa0c
  106ffc:	e3403013 	movt	r3, #19
  107000:	e51b1008 	ldr	r1, [fp, #-8]
  107004:	e7831102 	str	r1, [r3, r2, lsl #2]
  107008:	e51b300c 	ldr	r3, [fp, #-12]
  10700c:	e2833001 	add	r3, r3, #1
  107010:	e50b300c 	str	r3, [fp, #-12]
  107014:	e51b300c 	ldr	r3, [fp, #-12]
  107018:	e300226e 	movw	r2, #622	; 0x26e
  10701c:	e1530002 	cmp	r3, r2
  107020:	daffffe7 	ble	106fc4 <c_eml_rand_mt19937ar_stateful_i+0x44>
  107024:	e3003a0c 	movw	r3, #2572	; 0xa0c
  107028:	e3403013 	movt	r3, #19
  10702c:	e3a02e27 	mov	r2, #624	; 0x270
  107030:	e58329c0 	str	r2, [r3, #2496]	; 0x9c0
  107034:	e320f000 	nop	{0}
  107038:	e24bd004 	sub	sp, fp, #4
  10703c:	e8bd8800 	pop	{fp, pc}

00107040 <eye>:
  107040:	e92d4800 	push	{fp, lr}
  107044:	e28db004 	add	fp, sp, #4
  107048:	e24dd010 	sub	sp, sp, #16
  10704c:	e50b0010 	str	r0, [fp, #-16]
  107050:	e3a02a02 	mov	r2, #8192	; 0x2000
  107054:	e3a01000 	mov	r1, #0
  107058:	e51b0010 	ldr	r0, [fp, #-16]
  10705c:	eb0005e0 	bl	1087e4 <memset>
  107060:	e3a03000 	mov	r3, #0
  107064:	e50b3008 	str	r3, [fp, #-8]
  107068:	ea00000d 	b	1070a4 <eye+0x64>
  10706c:	e51b3008 	ldr	r3, [fp, #-8]
  107070:	e1a02283 	lsl	r2, r3, #5
  107074:	e51b3008 	ldr	r3, [fp, #-8]
  107078:	e0823003 	add	r3, r2, r3
  10707c:	e1a03183 	lsl	r3, r3, #3
  107080:	e51b2010 	ldr	r2, [fp, #-16]
  107084:	e0821003 	add	r1, r2, r3
  107088:	e3a02000 	mov	r2, #0
  10708c:	e3a03000 	mov	r3, #0
  107090:	e3433ff0 	movt	r3, #16368	; 0x3ff0
  107094:	e1c120f0 	strd	r2, [r1]
  107098:	e51b3008 	ldr	r3, [fp, #-8]
  10709c:	e2833001 	add	r3, r3, #1
  1070a0:	e50b3008 	str	r3, [fp, #-8]
  1070a4:	e51b3008 	ldr	r3, [fp, #-8]
  1070a8:	e353001f 	cmp	r3, #31
  1070ac:	daffffee 	ble	10706c <eye+0x2c>
  1070b0:	e320f000 	nop	{0}
  1070b4:	e24bd004 	sub	sp, fp, #4
  1070b8:	e8bd8800 	pop	{fp, pc}

001070bc <inv>:
  1070bc:	e52db004 	push	{fp}		; (str fp, [sp, #-4]!)
  1070c0:	e28db000 	add	fp, sp, #0
  1070c4:	e24dd00c 	sub	sp, sp, #12
  1070c8:	e14b00fc 	strd	r0, [fp, #-12]
  1070cc:	eef71b00 	vmov.f64	d17, #112	; 0x3f800000  1.0
  1070d0:	ed5b0b03 	vldr	d16, [fp, #-12]
  1070d4:	eec12ba0 	vdiv.f64	d18, d17, d16
  1070d8:	ec532b32 	vmov	r2, r3, d18
  1070dc:	e1a00002 	mov	r0, r2
  1070e0:	e1a01003 	mov	r1, r3
  1070e4:	e24bd000 	sub	sp, fp, #0
  1070e8:	e49db004 	pop	{fp}		; (ldr fp, [sp], #4)
  1070ec:	e12fff1e 	bx	lr

001070f0 <exp>:
  1070f0:	e92d40f0 	push	{r4, r5, r6, r7, lr}
  1070f4:	e3004000 	movw	r4, #0
  1070f8:	ed2d8b02 	vpush	{d8}
  1070fc:	e3404013 	movt	r4, #19
  107100:	e24dd02c 	sub	sp, sp, #44	; 0x2c
  107104:	ec410b18 	vmov	d8, r0, r1
  107108:	eb0000e0 	bl	107490 <__ieee754_exp>
  10710c:	e1d430d0 	ldrsb	r3, [r4]
  107110:	e1a06000 	mov	r6, r0
  107114:	e1a07001 	mov	r7, r1
  107118:	e3730001 	cmn	r3, #1
  10711c:	0a000025 	beq	1071b8 <exp+0xc8>
  107120:	ec510b18 	vmov	r0, r1, d8
  107124:	eb0002ab 	bl	107bd8 <finite>
  107128:	e3500000 	cmp	r0, #0
  10712c:	0a000021 	beq	1071b8 <exp+0xc8>
  107130:	eddf0b40 	vldr	d16, [pc, #256]	; 107238 <exp+0x148>
  107134:	eeb48be0 	vcmpe.f64	d8, d16
  107138:	eef1fa10 	vmrs	APSR_nzcv, fpscr
  10713c:	ca000022 	bgt	1071cc <exp+0xdc>
  107140:	eddf0b3e 	vldr	d16, [pc, #248]	; 107240 <exp+0x150>
  107144:	eeb48be0 	vcmpe.f64	d8, d16
  107148:	eef1fa10 	vmrs	APSR_nzcv, fpscr
  10714c:	5a000019 	bpl	1071b8 <exp+0xc8>
  107150:	e1d400d0 	ldrsb	r0, [r4]
  107154:	e3053728 	movw	r3, #22312	; 0x5728
  107158:	e3a04000 	mov	r4, #0
  10715c:	e3a05000 	mov	r5, #0
  107160:	e3403012 	movt	r3, #18
  107164:	e3a01004 	mov	r1, #4
  107168:	e3500002 	cmp	r0, #2
  10716c:	e3a02000 	mov	r2, #0
  107170:	ed8d8b04 	vstr	d8, [sp, #16]
  107174:	ed8d8b02 	vstr	d8, [sp, #8]
  107178:	e58d3004 	str	r3, [sp, #4]
  10717c:	e1cd41f8 	strd	r4, [sp, #24]
  107180:	e58d1000 	str	r1, [sp]
  107184:	e58d2020 	str	r2, [sp, #32]
  107188:	0a000025 	beq	107224 <exp+0x134>
  10718c:	e1a0000d 	mov	r0, sp
  107190:	eb000294 	bl	107be8 <matherr>
  107194:	e3500000 	cmp	r0, #0
  107198:	0a000021 	beq	107224 <exp+0x134>
  10719c:	e59d3020 	ldr	r3, [sp, #32]
  1071a0:	e3530000 	cmp	r3, #0
  1071a4:	0a000002 	beq	1071b4 <exp+0xc4>
  1071a8:	eb00035a 	bl	107f18 <__errno>
  1071ac:	e59d3020 	ldr	r3, [sp, #32]
  1071b0:	e5803000 	str	r3, [r0]
  1071b4:	e1cd61d8 	ldrd	r6, [sp, #24]
  1071b8:	e1a00006 	mov	r0, r6
  1071bc:	e1a01007 	mov	r1, r7
  1071c0:	e28dd02c 	add	sp, sp, #44	; 0x2c
  1071c4:	ecbd8b02 	vpop	{d8}
  1071c8:	e8bd80f0 	pop	{r4, r5, r6, r7, pc}
  1071cc:	e1d420d0 	ldrsb	r2, [r4]
  1071d0:	e3a01000 	mov	r1, #0
  1071d4:	e3053728 	movw	r3, #22312	; 0x5728
  1071d8:	e3a00003 	mov	r0, #3
  1071dc:	e3403012 	movt	r3, #18
  1071e0:	ed8d8b04 	vstr	d8, [sp, #16]
  1071e4:	e1520001 	cmp	r2, r1
  1071e8:	ed8d8b02 	vstr	d8, [sp, #8]
  1071ec:	e88d0009 	stm	sp, {r0, r3}
  1071f0:	e58d1020 	str	r1, [sp, #32]
  1071f4:	1a000004 	bne	10720c <exp+0x11c>
  1071f8:	e30f3fff 	movw	r3, #65535	; 0xffff
  1071fc:	e3a0220e 	mov	r2, #-536870912	; 0xe0000000
  107200:	e34437ef 	movt	r3, #18415	; 0x47ef
  107204:	e1cd21f8 	strd	r2, [sp, #24]
  107208:	eaffffdf 	b	10718c <exp+0x9c>
  10720c:	e3a01000 	mov	r1, #0
  107210:	e3520002 	cmp	r2, #2
  107214:	e3a00000 	mov	r0, #0
  107218:	e3471ff0 	movt	r1, #32752	; 0x7ff0
  10721c:	e1cd01f8 	strd	r0, [sp, #24]
  107220:	1affffd9 	bne	10718c <exp+0x9c>
  107224:	eb00033b 	bl	107f18 <__errno>
  107228:	e3a03022 	mov	r3, #34	; 0x22
  10722c:	e5803000 	str	r3, [r0]
  107230:	eaffffd9 	b	10719c <exp+0xac>
  107234:	e320f000 	nop	{0}
  107238:	fefa39ef 	.word	0xfefa39ef
  10723c:	40862e42 	.word	0x40862e42
  107240:	d52d3051 	.word	0xd52d3051
  107244:	c0874910 	.word	0xc0874910

00107248 <log>:
  107248:	e52de004 	push	{lr}		; (str lr, [sp, #-4]!)
  10724c:	ed2d8b02 	vpush	{d8}
  107250:	e24dd02c 	sub	sp, sp, #44	; 0x2c
  107254:	ec410b18 	vmov	d8, r0, r1
  107258:	eb000128 	bl	107700 <__ieee754_log>
  10725c:	e3003000 	movw	r3, #0
  107260:	eeb48b48 	vcmp.f64	d8, d8
  107264:	e3403013 	movt	r3, #19
  107268:	e1d320d0 	ldrsb	r2, [r3]
  10726c:	e3720001 	cmn	r2, #1
  107270:	13a03000 	movne	r3, #0
  107274:	03a03001 	moveq	r3, #1
  107278:	eef1fa10 	vmrs	APSR_nzcv, fpscr
  10727c:	63833001 	orrvs	r3, r3, #1
  107280:	e3530000 	cmp	r3, #0
  107284:	1a000002 	bne	107294 <log+0x4c>
  107288:	eeb58bc0 	vcmpe.f64	d8, #0.0
  10728c:	eef1fa10 	vmrs	APSR_nzcv, fpscr
  107290:	da000002 	ble	1072a0 <log+0x58>
  107294:	e28dd02c 	add	sp, sp, #44	; 0x2c
  107298:	ecbd8b02 	vpop	{d8}
  10729c:	e49df004 	pop	{pc}		; (ldr pc, [sp], #4)
  1072a0:	e305172c 	movw	r1, #22316	; 0x572c
  1072a4:	e3520000 	cmp	r2, #0
  1072a8:	e3401012 	movt	r1, #18
  1072ac:	eeb58b40 	vcmp.f64	d8, #0.0
  1072b0:	e58d3020 	str	r3, [sp, #32]
  1072b4:	ed8d8b02 	vstr	d8, [sp, #8]
  1072b8:	ed8d8b04 	vstr	d8, [sp, #16]
  1072bc:	e58d1004 	str	r1, [sp, #4]
  1072c0:	1a000012 	bne	107310 <log+0xc8>
  1072c4:	e30f3fff 	movw	r3, #65535	; 0xffff
  1072c8:	eef1fa10 	vmrs	APSR_nzcv, fpscr
  1072cc:	e3a0220e 	mov	r2, #-536870912	; 0xe0000000
  1072d0:	e34c37ef 	movt	r3, #51183	; 0xc7ef
  1072d4:	e1cd21f8 	strd	r2, [sp, #24]
  1072d8:	1a00002a 	bne	107388 <log+0x140>
  1072dc:	e3a03002 	mov	r3, #2
  1072e0:	e58d3000 	str	r3, [sp]
  1072e4:	e1a0000d 	mov	r0, sp
  1072e8:	eb00023e 	bl	107be8 <matherr>
  1072ec:	e3500000 	cmp	r0, #0
  1072f0:	0a000010 	beq	107338 <log+0xf0>
  1072f4:	e59d3020 	ldr	r3, [sp, #32]
  1072f8:	e3530000 	cmp	r3, #0
  1072fc:	1a000011 	bne	107348 <log+0x100>
  107300:	e1cd01d8 	ldrd	r0, [sp, #24]
  107304:	e28dd02c 	add	sp, sp, #44	; 0x2c
  107308:	ecbd8b02 	vpop	{d8}
  10730c:	e49df004 	pop	{pc}		; (ldr pc, [sp], #4)
  107310:	e3a01000 	mov	r1, #0
  107314:	eef1fa10 	vmrs	APSR_nzcv, fpscr
  107318:	e3a00000 	mov	r0, #0
  10731c:	e34f1ff0 	movt	r1, #65520	; 0xfff0
  107320:	e1cd01f8 	strd	r0, [sp, #24]
  107324:	1a00000b 	bne	107358 <log+0x110>
  107328:	e3520002 	cmp	r2, #2
  10732c:	e3a03002 	mov	r3, #2
  107330:	e58d3000 	str	r3, [sp]
  107334:	1affffea 	bne	1072e4 <log+0x9c>
  107338:	eb0002f6 	bl	107f18 <__errno>
  10733c:	e3a03022 	mov	r3, #34	; 0x22
  107340:	e5803000 	str	r3, [r0]
  107344:	eaffffea 	b	1072f4 <log+0xac>
  107348:	eb0002f2 	bl	107f18 <__errno>
  10734c:	e59d3020 	ldr	r3, [sp, #32]
  107350:	e5803000 	str	r3, [r0]
  107354:	eaffffe9 	b	107300 <log+0xb8>
  107358:	e3520002 	cmp	r2, #2
  10735c:	e3a03001 	mov	r3, #1
  107360:	e58d3000 	str	r3, [sp]
  107364:	1a000009 	bne	107390 <log+0x148>
  107368:	eb0002ea 	bl	107f18 <__errno>
  10736c:	e3a03021 	mov	r3, #33	; 0x21
  107370:	e5803000 	str	r3, [r0]
  107374:	e30507ac 	movw	r0, #22444	; 0x57ac
  107378:	e3400012 	movt	r0, #18
  10737c:	eb00021b 	bl	107bf0 <nan>
  107380:	e1cd01f8 	strd	r0, [sp, #24]
  107384:	eaffffda 	b	1072f4 <log+0xac>
  107388:	e3a03001 	mov	r3, #1
  10738c:	e58d3000 	str	r3, [sp]
  107390:	e1a0000d 	mov	r0, sp
  107394:	eb000213 	bl	107be8 <matherr>
  107398:	e3500000 	cmp	r0, #0
  10739c:	1afffff4 	bne	107374 <log+0x12c>
  1073a0:	eafffff0 	b	107368 <log+0x120>
  1073a4:	00000000 	andeq	r0, r0, r0

001073a8 <sqrt>:
  1073a8:	e52de004 	push	{lr}		; (str lr, [sp, #-4]!)
  1073ac:	ed2d8b02 	vpush	{d8}
  1073b0:	e24dd02c 	sub	sp, sp, #44	; 0x2c
  1073b4:	ec410b18 	vmov	d8, r0, r1
  1073b8:	eb000184 	bl	1079d0 <__ieee754_sqrt>
  1073bc:	e3003000 	movw	r3, #0
  1073c0:	eeb48b48 	vcmp.f64	d8, d8
  1073c4:	e3403013 	movt	r3, #19
  1073c8:	e1d320d0 	ldrsb	r2, [r3]
  1073cc:	e3720001 	cmn	r2, #1
  1073d0:	13a03000 	movne	r3, #0
  1073d4:	03a03001 	moveq	r3, #1
  1073d8:	eef1fa10 	vmrs	APSR_nzcv, fpscr
  1073dc:	63833001 	orrvs	r3, r3, #1
  1073e0:	e3530000 	cmp	r3, #0
  1073e4:	1a000003 	bne	1073f8 <sqrt+0x50>
  1073e8:	eeb58bc0 	vcmpe.f64	d8, #0.0
  1073ec:	eef1fa10 	vmrs	APSR_nzcv, fpscr
  1073f0:	eddf0b24 	vldr	d16, [pc, #144]	; 107488 <sqrt+0xe0>
  1073f4:	4a000002 	bmi	107404 <sqrt+0x5c>
  1073f8:	e28dd02c 	add	sp, sp, #44	; 0x2c
  1073fc:	ecbd8b02 	vpop	{d8}
  107400:	e49df004 	pop	{pc}		; (ldr pc, [sp], #4)
  107404:	e3520000 	cmp	r2, #0
  107408:	e3051730 	movw	r1, #22320	; 0x5730
  10740c:	e3401012 	movt	r1, #18
  107410:	e3a00001 	mov	r0, #1
  107414:	e58d3020 	str	r3, [sp, #32]
  107418:	ed8d8b04 	vstr	d8, [sp, #16]
  10741c:	ed8d8b02 	vstr	d8, [sp, #8]
  107420:	e88d0003 	stm	sp, {r0, r1}
  107424:	0dcd0b06 	vstreq	d16, [sp, #24]
  107428:	1a00000a 	bne	107458 <sqrt+0xb0>
  10742c:	e1a0000d 	mov	r0, sp
  107430:	eb0001ec 	bl	107be8 <matherr>
  107434:	e3500000 	cmp	r0, #0
  107438:	0a00000a 	beq	107468 <sqrt+0xc0>
  10743c:	e59d3020 	ldr	r3, [sp, #32]
  107440:	e3530000 	cmp	r3, #0
  107444:	1a00000b 	bne	107478 <sqrt+0xd0>
  107448:	e1cd01d8 	ldrd	r0, [sp, #24]
  10744c:	e28dd02c 	add	sp, sp, #44	; 0x2c
  107450:	ecbd8b02 	vpop	{d8}
  107454:	e49df004 	pop	{pc}		; (ldr pc, [sp], #4)
  107458:	eec01ba0 	vdiv.f64	d17, d16, d16
  10745c:	e3520002 	cmp	r2, #2
  107460:	edcd1b06 	vstr	d17, [sp, #24]
  107464:	1afffff0 	bne	10742c <sqrt+0x84>
  107468:	eb0002aa 	bl	107f18 <__errno>
  10746c:	e3a03021 	mov	r3, #33	; 0x21
  107470:	e5803000 	str	r3, [r0]
  107474:	eafffff0 	b	10743c <sqrt+0x94>
  107478:	eb0002a6 	bl	107f18 <__errno>
  10747c:	e59d3020 	ldr	r3, [sp, #32]
  107480:	e5803000 	str	r3, [r0]
  107484:	eaffffef 	b	107448 <sqrt+0xa0>
	...

00107490 <__ieee754_exp>:
  107490:	ec410b17 	vmov	d7, r0, r1
  107494:	e3021e41 	movw	r1, #11841	; 0x2e41
  107498:	ee173a90 	vmov	r3, s15
  10749c:	e3441086 	movt	r1, #16518	; 0x4086
  1074a0:	e3c32102 	bic	r2, r3, #-2147483648	; 0x80000000
  1074a4:	e1a00fa3 	lsr	r0, r3, #31
  1074a8:	e1520001 	cmp	r2, r1
  1074ac:	9a00000c 	bls	1074e4 <__ieee754_exp+0x54>
  1074b0:	e30f1fff 	movw	r1, #65535	; 0xffff
  1074b4:	e3471fef 	movt	r1, #32751	; 0x7fef
  1074b8:	e1520001 	cmp	r2, r1
  1074bc:	9a000034 	bls	107594 <__ieee754_exp+0x104>
  1074c0:	e7f33053 	ubfx	r3, r3, #0, #20
  1074c4:	ee172a10 	vmov	r2, s14
  1074c8:	e1933002 	orrs	r3, r3, r2
  1074cc:	1a000066 	bne	10766c <__ieee754_exp+0x1dc>
  1074d0:	e3500000 	cmp	r0, #0
  1074d4:	0a00002c 	beq	10758c <__ieee754_exp+0xfc>
  1074d8:	ed9f7b6e 	vldr	d7, [pc, #440]	; 107698 <__ieee754_exp+0x208>
  1074dc:	ec510b17 	vmov	r0, r1, d7
  1074e0:	e12fff1e 	bx	lr
  1074e4:	e3023e42 	movw	r3, #11842	; 0x2e42
  1074e8:	e3433fd6 	movt	r3, #16342	; 0x3fd6
  1074ec:	e1520003 	cmp	r2, r3
  1074f0:	8a00003f 	bhi	1075f4 <__ieee754_exp+0x164>
  1074f4:	e30f3fff 	movw	r3, #65535	; 0xffff
  1074f8:	e3433e2f 	movt	r3, #15919	; 0x3e2f
  1074fc:	e1520003 	cmp	r2, r3
  107500:	9a000048 	bls	107628 <__ieee754_exp+0x198>
  107504:	e3a01000 	mov	r1, #0
  107508:	ee670b07 	vmul.f64	d16, d7, d7
  10750c:	e3510000 	cmp	r1, #0
  107510:	eddf2b62 	vldr	d18, [pc, #392]	; 1076a0 <__ieee754_exp+0x210>
  107514:	eddf5b63 	vldr	d21, [pc, #396]	; 1076a8 <__ieee754_exp+0x218>
  107518:	eddf4b64 	vldr	d20, [pc, #400]	; 1076b0 <__ieee754_exp+0x220>
  10751c:	eddf3b65 	vldr	d19, [pc, #404]	; 1076b8 <__ieee754_exp+0x228>
  107520:	ee505ba2 	vnmls.f64	d21, d16, d18
  107524:	eddf2b65 	vldr	d18, [pc, #404]	; 1076c0 <__ieee754_exp+0x230>
  107528:	ee454ba0 	vmla.f64	d20, d21, d16
  10752c:	ee543ba0 	vnmls.f64	d19, d20, d16
  107530:	ee432ba0 	vmla.f64	d18, d19, d16
  107534:	eef03b47 	vmov.f64	d19, d7
  107538:	ee423be0 	vmls.f64	d19, d18, d16
  10753c:	eef00b63 	vmov.f64	d16, d19
  107540:	0a00004b 	beq	107674 <__ieee754_exp+0x1e4>
  107544:	ee673b23 	vmul.f64	d19, d7, d19
  107548:	e3e03fff 	mvn	r3, #1020	; 0x3fc
  10754c:	eef02b00 	vmov.f64	d18, #0	; 0x40000000  2.0
  107550:	e1510003 	cmp	r1, r3
  107554:	ee720be0 	vsub.f64	d16, d18, d16
  107558:	eeb77b00 	vmov.f64	d7, #112	; 0x3f800000  1.0
  10755c:	eec32ba0 	vdiv.f64	d18, d19, d16
  107560:	ee711be2 	vsub.f64	d17, d17, d18
  107564:	ee711be6 	vsub.f64	d17, d17, d22
  107568:	ee377b61 	vsub.f64	d7, d7, d17
  10756c:	aa000035 	bge	107648 <__ieee754_exp+0x1b8>
  107570:	ee170a90 	vmov	r0, s15
  107574:	e2811ffa 	add	r1, r1, #1000	; 0x3e8
  107578:	ec532b17 	vmov	r2, r3, d7
  10757c:	e0803a01 	add	r3, r0, r1, lsl #20
  107580:	eddf0b50 	vldr	d16, [pc, #320]	; 1076c8 <__ieee754_exp+0x238>
  107584:	ec432b17 	vmov	d7, r2, r3
  107588:	ee277b20 	vmul.f64	d7, d7, d16
  10758c:	ec510b17 	vmov	r0, r1, d7
  107590:	e12fff1e 	bx	lr
  107594:	eddf0b4d 	vldr	d16, [pc, #308]	; 1076d0 <__ieee754_exp+0x240>
  107598:	eeb47be0 	vcmpe.f64	d7, d16
  10759c:	eef1fa10 	vmrs	APSR_nzcv, fpscr
  1075a0:	ca00002e 	bgt	107660 <__ieee754_exp+0x1d0>
  1075a4:	eddf0b4b 	vldr	d16, [pc, #300]	; 1076d8 <__ieee754_exp+0x248>
  1075a8:	eeb47be0 	vcmpe.f64	d7, d16
  1075ac:	eef1fa10 	vmrs	APSR_nzcv, fpscr
  1075b0:	4affffc8 	bmi	1074d8 <__ieee754_exp+0x48>
  1075b4:	e3053738 	movw	r3, #22328	; 0x5738
  1075b8:	eddf1b48 	vldr	d17, [pc, #288]	; 1076e0 <__ieee754_exp+0x250>
  1075bc:	e3403012 	movt	r3, #18
  1075c0:	eddf3b48 	vldr	d19, [pc, #288]	; 1076e8 <__ieee754_exp+0x258>
  1075c4:	e0830180 	add	r0, r3, r0, lsl #3
  1075c8:	eddf2b48 	vldr	d18, [pc, #288]	; 1076f0 <__ieee754_exp+0x260>
  1075cc:	eef06b47 	vmov.f64	d22, d7
  1075d0:	edd00b08 	vldr	d16, [r0, #32]
  1075d4:	ee470b21 	vmla.f64	d16, d7, d17
  1075d8:	eefd6be0 	vcvt.s32.f64	s13, d16
  1075dc:	eef81be6 	vcvt.f64.s32	d17, s13
  1075e0:	ee161a90 	vmov	r1, s13
  1075e4:	ee416be3 	vmls.f64	d22, d17, d19
  1075e8:	ee611ba2 	vmul.f64	d17, d17, d18
  1075ec:	ee367be1 	vsub.f64	d7, d22, d17
  1075f0:	eaffffc4 	b	107508 <__ieee754_exp+0x78>
  1075f4:	e30a32b1 	movw	r3, #41649	; 0xa2b1
  1075f8:	e3433ff0 	movt	r3, #16368	; 0x3ff0
  1075fc:	e1520003 	cmp	r2, r3
  107600:	8affffeb 	bhi	1075b4 <__ieee754_exp+0x124>
  107604:	e3053738 	movw	r3, #22328	; 0x5738
  107608:	e2601001 	rsb	r1, r0, #1
  10760c:	e3403012 	movt	r3, #18
  107610:	e0411000 	sub	r1, r1, r0
  107614:	e0830180 	add	r0, r3, r0, lsl #3
  107618:	edd06b00 	vldr	d22, [r0]
  10761c:	edd01b04 	vldr	d17, [r0, #16]
  107620:	ee776b66 	vsub.f64	d22, d7, d22
  107624:	eafffff0 	b	1075ec <__ieee754_exp+0x15c>
  107628:	eddf0b32 	vldr	d16, [pc, #200]	; 1076f8 <__ieee754_exp+0x268>
  10762c:	eef72b00 	vmov.f64	d18, #112	; 0x3f800000  1.0
  107630:	ee770b20 	vadd.f64	d16, d7, d16
  107634:	eef40be2 	vcmpe.f64	d16, d18
  107638:	eef1fa10 	vmrs	APSR_nzcv, fpscr
  10763c:	daffffb0 	ble	107504 <__ieee754_exp+0x74>
  107640:	ee377b22 	vadd.f64	d7, d7, d18
  107644:	eaffffd0 	b	10758c <__ieee754_exp+0xfc>
  107648:	ee170a90 	vmov	r0, s15
  10764c:	ec532b17 	vmov	r2, r3, d7
  107650:	e0803a01 	add	r3, r0, r1, lsl #20
  107654:	ec432b17 	vmov	d7, r2, r3
  107658:	ec510b17 	vmov	r0, r1, d7
  10765c:	e12fff1e 	bx	lr
  107660:	ed9f7b24 	vldr	d7, [pc, #144]	; 1076f8 <__ieee754_exp+0x268>
  107664:	ee277b07 	vmul.f64	d7, d7, d7
  107668:	eaffffc7 	b	10758c <__ieee754_exp+0xfc>
  10766c:	ee377b07 	vadd.f64	d7, d7, d7
  107670:	eaffffc5 	b	10758c <__ieee754_exp+0xfc>
  107674:	ee673b23 	vmul.f64	d19, d7, d19
  107678:	eef01b00 	vmov.f64	d17, #0	; 0x40000000  2.0
  10767c:	ee700be1 	vsub.f64	d16, d16, d17
  107680:	eef72b00 	vmov.f64	d18, #112	; 0x3f800000  1.0
  107684:	eec31ba0 	vdiv.f64	d17, d19, d16
  107688:	ee317bc7 	vsub.f64	d7, d17, d7
  10768c:	ee327bc7 	vsub.f64	d7, d18, d7
  107690:	ec510b17 	vmov	r0, r1, d7
  107694:	e12fff1e 	bx	lr
	...
  1076a0:	72bea4d0 	.word	0x72bea4d0
  1076a4:	3e663769 	.word	0x3e663769
  1076a8:	c5d26bf1 	.word	0xc5d26bf1
  1076ac:	3ebbbd41 	.word	0x3ebbbd41
  1076b0:	af25de2c 	.word	0xaf25de2c
  1076b4:	3f11566a 	.word	0x3f11566a
  1076b8:	16bebd93 	.word	0x16bebd93
  1076bc:	3f66c16c 	.word	0x3f66c16c
  1076c0:	5555553e 	.word	0x5555553e
  1076c4:	3fc55555 	.word	0x3fc55555
  1076c8:	00000000 	.word	0x00000000
  1076cc:	01700000 	.word	0x01700000
  1076d0:	fefa39ef 	.word	0xfefa39ef
  1076d4:	40862e42 	.word	0x40862e42
  1076d8:	d52d3051 	.word	0xd52d3051
  1076dc:	c0874910 	.word	0xc0874910
  1076e0:	652b82fe 	.word	0x652b82fe
  1076e4:	3ff71547 	.word	0x3ff71547
  1076e8:	fee00000 	.word	0xfee00000
  1076ec:	3fe62e42 	.word	0x3fe62e42
  1076f0:	35793c76 	.word	0x35793c76
  1076f4:	3dea39ef 	.word	0x3dea39ef
  1076f8:	8800759c 	.word	0x8800759c
  1076fc:	7e37e43c 	.word	0x7e37e43c

00107700 <__ieee754_log>:
  107700:	e92d4030 	push	{r4, r5, lr}
  107704:	e24dd00c 	sub	sp, sp, #12
  107708:	e1cd00f0 	strd	r0, [sp]
  10770c:	e89d000c 	ldm	sp, {r2, r3}
  107710:	e3530601 	cmp	r3, #1048576	; 0x100000
  107714:	aa00002f 	bge	1077d8 <__ieee754_log+0xd8>
  107718:	e3c31102 	bic	r1, r3, #-2147483648	; 0x80000000
  10771c:	e1912002 	orrs	r2, r1, r2
  107720:	0a00005f 	beq	1078a4 <__ieee754_log+0x1a4>
  107724:	e3530000 	cmp	r3, #0
  107728:	ba000086 	blt	107948 <__ieee754_log+0x248>
  10772c:	eddd1b00 	vldr	d17, [sp]
  107730:	e30f2fff 	movw	r2, #65535	; 0xffff
  107734:	eddf0b8b 	vldr	d16, [pc, #556]	; 107968 <__ieee754_log+0x268>
  107738:	e3472fef 	movt	r2, #32751	; 0x7fef
  10773c:	e3e05035 	mvn	r5, #53	; 0x35
  107740:	ee610ba0 	vmul.f64	d16, d17, d16
  107744:	edcd0b00 	vstr	d16, [sp]
  107748:	e59d3004 	ldr	r3, [sp, #4]
  10774c:	e1530002 	cmp	r3, r2
  107750:	ca000025 	bgt	1077ec <__ieee754_log+0xec>
  107754:	e3052f64 	movw	r2, #24420	; 0x5f64
  107758:	e7f3c053 	ubfx	ip, r3, #0, #20
  10775c:	e3402009 	movt	r2, #9
  107760:	e1cd00d0 	ldrd	r0, [sp]
  107764:	e08c2002 	add	r2, ip, r2
  107768:	e1a03a43 	asr	r3, r3, #20
  10776c:	e2022601 	and	r2, r2, #1048576	; 0x100000
  107770:	eef71b00 	vmov.f64	d17, #112	; 0x3f800000  1.0
  107774:	e22245ff 	eor	r4, r2, #1069547520	; 0x3fc00000
  107778:	e28ce002 	add	lr, ip, #2
  10777c:	e2244603 	eor	r4, r4, #3145728	; 0x300000
  107780:	e2433fff 	sub	r3, r3, #1020	; 0x3fc
  107784:	e184100c 	orr	r1, r4, ip
  107788:	e7f3e05e 	ubfx	lr, lr, #0, #20
  10778c:	e2433003 	sub	r3, r3, #3
  107790:	e35e0002 	cmp	lr, #2
  107794:	ec410b30 	vmov	d16, r0, r1
  107798:	e0833005 	add	r3, r3, r5
  10779c:	e0833a22 	add	r3, r3, r2, lsr #20
  1077a0:	ee700be1 	vsub.f64	d16, d16, d17
  1077a4:	ca000015 	bgt	107800 <__ieee754_log+0x100>
  1077a8:	eef50b40 	vcmp.f64	d16, #0.0
  1077ac:	eef1fa10 	vmrs	APSR_nzcv, fpscr
  1077b0:	1a000041 	bne	1078bc <__ieee754_log+0x1bc>
  1077b4:	e3530000 	cmp	r3, #0
  1077b8:	0a000067 	beq	10795c <__ieee754_log+0x25c>
  1077bc:	ee073a90 	vmov	s15, r3
  1077c0:	eef81be7 	vcvt.f64.s32	d17, s15
  1077c4:	eddf0b69 	vldr	d16, [pc, #420]	; 107970 <__ieee754_log+0x270>
  1077c8:	eddf2b6a 	vldr	d18, [pc, #424]	; 107978 <__ieee754_log+0x278>
  1077cc:	ee610ba0 	vmul.f64	d16, d17, d16
  1077d0:	ee410ba2 	vmla.f64	d16, d17, d18
  1077d4:	ea000006 	b	1077f4 <__ieee754_log+0xf4>
  1077d8:	e30f2fff 	movw	r2, #65535	; 0xffff
  1077dc:	e3a05000 	mov	r5, #0
  1077e0:	e3472fef 	movt	r2, #32751	; 0x7fef
  1077e4:	e1530002 	cmp	r3, r2
  1077e8:	daffffd9 	ble	107754 <__ieee754_log+0x54>
  1077ec:	eddd0b00 	vldr	d16, [sp]
  1077f0:	ee700ba0 	vadd.f64	d16, d16, d16
  1077f4:	ec510b30 	vmov	r0, r1, d16
  1077f8:	e28dd00c 	add	sp, sp, #12
  1077fc:	e8bd8030 	pop	{r4, r5, pc}
  107800:	eef01b00 	vmov.f64	d17, #0	; 0x40000000  2.0
  107804:	e30e1b86 	movw	r1, #60294	; 0xeb86
  107808:	eddfbb5c 	vldr	d27, [pc, #368]	; 107980 <__ieee754_log+0x280>
  10780c:	e30b2851 	movw	r2, #47185	; 0xb851
  107810:	ee701ba1 	vadd.f64	d17, d16, d17
  107814:	e34f1ff9 	movt	r1, #65529	; 0xfff9
  107818:	eddf9b5a 	vldr	d25, [pc, #360]	; 107988 <__ieee754_log+0x288>
  10781c:	e3402006 	movt	r2, #6
  107820:	eddfab5a 	vldr	d26, [pc, #360]	; 107990 <__ieee754_log+0x290>
  107824:	e08c1001 	add	r1, ip, r1
  107828:	eddf8b5a 	vldr	d24, [pc, #360]	; 107998 <__ieee754_log+0x298>
  10782c:	e042200c 	sub	r2, r2, ip
  107830:	eec03ba1 	vdiv.f64	d19, d16, d17
  107834:	e1822001 	orr	r2, r2, r1
  107838:	eddf6b58 	vldr	d22, [pc, #352]	; 1079a0 <__ieee754_log+0x2a0>
  10783c:	e3520000 	cmp	r2, #0
  107840:	eddf1b58 	vldr	d17, [pc, #352]	; 1079a8 <__ieee754_log+0x2a8>
  107844:	eddf5b59 	vldr	d21, [pc, #356]	; 1079b0 <__ieee754_log+0x2b0>
  107848:	ee073a90 	vmov	s15, r3
  10784c:	eef87be7 	vcvt.f64.s32	d23, s15
  107850:	ee634ba3 	vmul.f64	d20, d19, d19
  107854:	ee642ba4 	vmul.f64	d18, d20, d20
  107858:	ee429bab 	vmla.f64	d25, d18, d27
  10785c:	ee428baa 	vmla.f64	d24, d18, d26
  107860:	ee496ba2 	vmla.f64	d22, d25, d18
  107864:	ee481ba2 	vmla.f64	d17, d24, d18
  107868:	ee465ba2 	vmla.f64	d21, d22, d18
  10786c:	ee611ba2 	vmul.f64	d17, d17, d18
  107870:	ee451ba4 	vmla.f64	d17, d21, d20
  107874:	da00001f 	ble	1078f8 <__ieee754_log+0x1f8>
  107878:	eef62b00 	vmov.f64	d18, #96	; 0x3f000000  0.5
  10787c:	e3530000 	cmp	r3, #0
  107880:	ee602ba2 	vmul.f64	d18, d16, d18
  107884:	ee622ba0 	vmul.f64	d18, d18, d16
  107888:	1a000025 	bne	107924 <__ieee754_log+0x224>
  10788c:	ee711ba2 	vadd.f64	d17, d17, d18
  107890:	ee412be3 	vmls.f64	d18, d17, d19
  107894:	ee700be2 	vsub.f64	d16, d16, d18
  107898:	ec510b30 	vmov	r0, r1, d16
  10789c:	e28dd00c 	add	sp, sp, #12
  1078a0:	e8bd8030 	pop	{r4, r5, pc}
  1078a4:	eddf2b43 	vldr	d18, [pc, #268]	; 1079b8 <__ieee754_log+0x2b8>
  1078a8:	eddf1b44 	vldr	d17, [pc, #272]	; 1079c0 <__ieee754_log+0x2c0>
  1078ac:	eec20ba1 	vdiv.f64	d16, d18, d17
  1078b0:	ec510b30 	vmov	r0, r1, d16
  1078b4:	e28dd00c 	add	sp, sp, #12
  1078b8:	e8bd8030 	pop	{r4, r5, pc}
  1078bc:	eddf3b41 	vldr	d19, [pc, #260]	; 1079c8 <__ieee754_log+0x2c8>
  1078c0:	e3530000 	cmp	r3, #0
  1078c4:	eef61b00 	vmov.f64	d17, #96	; 0x3f000000  0.5
  1078c8:	ee602ba0 	vmul.f64	d18, d16, d16
  1078cc:	ee401be3 	vmls.f64	d17, d16, d19
  1078d0:	ee612ba2 	vmul.f64	d18, d17, d18
  1078d4:	0affffee 	beq	107894 <__ieee754_log+0x194>
  1078d8:	ee073a90 	vmov	s15, r3
  1078dc:	eef81be7 	vcvt.f64.s32	d17, s15
  1078e0:	eddf4b22 	vldr	d20, [pc, #136]	; 107970 <__ieee754_log+0x270>
  1078e4:	eddf3b23 	vldr	d19, [pc, #140]	; 107978 <__ieee754_log+0x278>
  1078e8:	ee412be4 	vmls.f64	d18, d17, d20
  1078ec:	ee720be0 	vsub.f64	d16, d18, d16
  1078f0:	ee510ba3 	vnmls.f64	d16, d17, d19
  1078f4:	eaffffbe 	b	1077f4 <__ieee754_log+0xf4>
  1078f8:	e3530000 	cmp	r3, #0
  1078fc:	1ddf2b1b 	vldrne	d18, [pc, #108]	; 107970 <__ieee754_log+0x270>
  107900:	1e701be1 	vsubne.f64	d17, d16, d17
  107904:	0e701be1 	vsubeq.f64	d17, d16, d17
  107908:	1ddf4b1a 	vldrne	d20, [pc, #104]	; 107978 <__ieee754_log+0x278>
  10790c:	1e672ba2 	vmulne.f64	d18, d23, d18
  107910:	0e410be3 	vmlseq.f64	d16, d17, d19
  107914:	1e512ba3 	vnmlsne.f64	d18, d17, d19
  107918:	1e720be0 	vsubne.f64	d16, d18, d16
  10791c:	1e570ba4 	vnmlsne.f64	d16, d23, d20
  107920:	eaffffb3 	b	1077f4 <__ieee754_log+0xf4>
  107924:	eddf4b11 	vldr	d20, [pc, #68]	; 107970 <__ieee754_log+0x270>
  107928:	ee711ba2 	vadd.f64	d17, d17, d18
  10792c:	eddf5b11 	vldr	d21, [pc, #68]	; 107978 <__ieee754_log+0x278>
  107930:	ee674ba4 	vmul.f64	d20, d23, d20
  107934:	ee414ba3 	vmla.f64	d20, d17, d19
  107938:	ee722be4 	vsub.f64	d18, d18, d20
  10793c:	ee720be0 	vsub.f64	d16, d18, d16
  107940:	ee570ba5 	vnmls.f64	d16, d23, d21
  107944:	eaffffaa 	b	1077f4 <__ieee754_log+0xf4>
  107948:	eddd0b00 	vldr	d16, [sp]
  10794c:	eddf1b1b 	vldr	d17, [pc, #108]	; 1079c0 <__ieee754_log+0x2c0>
  107950:	ee702be0 	vsub.f64	d18, d16, d16
  107954:	eec20ba1 	vdiv.f64	d16, d18, d17
  107958:	eaffffa5 	b	1077f4 <__ieee754_log+0xf4>
  10795c:	eddf0b17 	vldr	d16, [pc, #92]	; 1079c0 <__ieee754_log+0x2c0>
  107960:	eaffffa3 	b	1077f4 <__ieee754_log+0xf4>
  107964:	e320f000 	nop	{0}
  107968:	00000000 	.word	0x00000000
  10796c:	43500000 	.word	0x43500000
  107970:	35793c76 	.word	0x35793c76
  107974:	3dea39ef 	.word	0x3dea39ef
  107978:	fee00000 	.word	0xfee00000
  10797c:	3fe62e42 	.word	0x3fe62e42
  107980:	df3e5244 	.word	0xdf3e5244
  107984:	3fc2f112 	.word	0x3fc2f112
  107988:	96cb03de 	.word	0x96cb03de
  10798c:	3fc74664 	.word	0x3fc74664
  107990:	d078c69f 	.word	0xd078c69f
  107994:	3fc39a09 	.word	0x3fc39a09
  107998:	1d8e78af 	.word	0x1d8e78af
  10799c:	3fcc71c5 	.word	0x3fcc71c5
  1079a0:	94229359 	.word	0x94229359
  1079a4:	3fd24924 	.word	0x3fd24924
  1079a8:	9997fa04 	.word	0x9997fa04
  1079ac:	3fd99999 	.word	0x3fd99999
  1079b0:	55555593 	.word	0x55555593
  1079b4:	3fe55555 	.word	0x3fe55555
  1079b8:	00000000 	.word	0x00000000
  1079bc:	c3500000 	.word	0xc3500000
	...
  1079c8:	55555555 	.word	0x55555555
  1079cc:	3fd55555 	.word	0x3fd55555

001079d0 <__ieee754_sqrt>:
  1079d0:	e3a02000 	mov	r2, #0
  1079d4:	e3472ff0 	movt	r2, #32752	; 0x7ff0
  1079d8:	e1d22001 	bics	r2, r2, r1
  1079dc:	0a000071 	beq	107ba8 <__ieee754_sqrt+0x1d8>
  1079e0:	e3510000 	cmp	r1, #0
  1079e4:	e92d41f0 	push	{r4, r5, r6, r7, r8, lr}
  1079e8:	e1a03001 	mov	r3, r1
  1079ec:	e1a02000 	mov	r2, r0
  1079f0:	da000051 	ble	107b3c <__ieee754_sqrt+0x16c>
  1079f4:	e1b06a41 	asrs	r6, r1, #20
  1079f8:	0a00005e 	beq	107b78 <__ieee754_sqrt+0x1a8>
  1079fc:	e2466fff 	sub	r6, r6, #1020	; 0x3fc
  107a00:	e7f33053 	ubfx	r3, r3, #0, #20
  107a04:	e2466003 	sub	r6, r6, #3
  107a08:	e3833601 	orr	r3, r3, #1048576	; 0x100000
  107a0c:	e3160001 	tst	r6, #1
  107a10:	e3a05000 	mov	r5, #0
  107a14:	11a03083 	lslne	r3, r3, #1
  107a18:	e1a060c6 	asr	r6, r6, #1
  107a1c:	10833fa2 	addne	r3, r3, r2, lsr #31
  107a20:	11a02082 	lslne	r2, r2, #1
  107a24:	e0831fa2 	add	r1, r3, r2, lsr #31
  107a28:	e1a02082 	lsl	r2, r2, #1
  107a2c:	e0813003 	add	r3, r1, r3
  107a30:	e1a0c005 	mov	ip, r5
  107a34:	e3a00016 	mov	r0, #22
  107a38:	e3a01602 	mov	r1, #2097152	; 0x200000
  107a3c:	e08ce001 	add	lr, ip, r1
  107a40:	e1a04fa2 	lsr	r4, r2, #31
  107a44:	e15e0003 	cmp	lr, r3
  107a48:	e1a02082 	lsl	r2, r2, #1
  107a4c:	d043300e 	suble	r3, r3, lr
  107a50:	d08ec001 	addle	ip, lr, r1
  107a54:	d0855001 	addle	r5, r5, r1
  107a58:	e2500001 	subs	r0, r0, #1
  107a5c:	e0843083 	add	r3, r4, r3, lsl #1
  107a60:	e1a010a1 	lsr	r1, r1, #1
  107a64:	1afffff4 	bne	107a3c <__ieee754_sqrt+0x6c>
  107a68:	e3a04020 	mov	r4, #32
  107a6c:	e1a07000 	mov	r7, r0
  107a70:	e3a01102 	mov	r1, #-2147483648	; 0x80000000
  107a74:	ea00000c 	b	107aac <__ieee754_sqrt+0xdc>
  107a78:	e1a0800c 	mov	r8, ip
  107a7c:	e15e0002 	cmp	lr, r2
  107a80:	e043300c 	sub	r3, r3, ip
  107a84:	82433001 	subhi	r3, r3, #1
  107a88:	e042200e 	sub	r2, r2, lr
  107a8c:	e0800001 	add	r0, r0, r1
  107a90:	e1a0c008 	mov	ip, r8
  107a94:	e083efa2 	add	lr, r3, r2, lsr #31
  107a98:	e2544001 	subs	r4, r4, #1
  107a9c:	e1a010a1 	lsr	r1, r1, #1
  107aa0:	e1a02082 	lsl	r2, r2, #1
  107aa4:	e08e3003 	add	r3, lr, r3
  107aa8:	0a000010 	beq	107af0 <__ieee754_sqrt+0x120>
  107aac:	e153000c 	cmp	r3, ip
  107ab0:	e081e007 	add	lr, r1, r7
  107ab4:	ca000006 	bgt	107ad4 <__ieee754_sqrt+0x104>
  107ab8:	03a08001 	moveq	r8, #1
  107abc:	13a08000 	movne	r8, #0
  107ac0:	e15e0002 	cmp	lr, r2
  107ac4:	83a08000 	movhi	r8, #0
  107ac8:	92088001 	andls	r8, r8, #1
  107acc:	e3580000 	cmp	r8, #0
  107ad0:	0affffef 	beq	107a94 <__ieee754_sqrt+0xc4>
  107ad4:	e35e0000 	cmp	lr, #0
  107ad8:	e08e7001 	add	r7, lr, r1
  107adc:	aaffffe5 	bge	107a78 <__ieee754_sqrt+0xa8>
  107ae0:	e3570000 	cmp	r7, #0
  107ae4:	a28c8001 	addge	r8, ip, #1
  107ae8:	aaffffe3 	bge	107a7c <__ieee754_sqrt+0xac>
  107aec:	eaffffe1 	b	107a78 <__ieee754_sqrt+0xa8>
  107af0:	e1933002 	orrs	r3, r3, r2
  107af4:	1a00000a 	bne	107b24 <__ieee754_sqrt+0x154>
  107af8:	e1a000a0 	lsr	r0, r0, #1
  107afc:	e1a010c5 	asr	r1, r5, #1
  107b00:	e3150001 	tst	r5, #1
  107b04:	13800102 	orrne	r0, r0, #-2147483648	; 0x80000000
  107b08:	e28115ff 	add	r1, r1, #1069547520	; 0x3fc00000
  107b0c:	e1a02000 	mov	r2, r0
  107b10:	e2811602 	add	r1, r1, #2097152	; 0x200000
  107b14:	e0813a06 	add	r3, r1, r6, lsl #20
  107b18:	ec432b30 	vmov	d16, r2, r3
  107b1c:	ec510b30 	vmov	r0, r1, d16
  107b20:	e8bd81f0 	pop	{r4, r5, r6, r7, r8, pc}
  107b24:	e3700001 	cmn	r0, #1
  107b28:	02855001 	addeq	r5, r5, #1
  107b2c:	01a00004 	moveq	r0, r4
  107b30:	0afffff1 	beq	107afc <__ieee754_sqrt+0x12c>
  107b34:	e2800001 	add	r0, r0, #1
  107b38:	eaffffee 	b	107af8 <__ieee754_sqrt+0x128>
  107b3c:	e1a0c000 	mov	ip, r0
  107b40:	e3c1e102 	bic	lr, r1, #-2147483648	; 0x80000000
  107b44:	e19ec00c 	orrs	ip, lr, ip
  107b48:	0c410b30 	vmoveq	d16, r0, r1
  107b4c:	0afffff2 	beq	107b1c <__ieee754_sqrt+0x14c>
  107b50:	e3510000 	cmp	r1, #0
  107b54:	01a06001 	moveq	r6, r1
  107b58:	1a00001a 	bne	107bc8 <__ieee754_sqrt+0x1f8>
  107b5c:	e1a035a2 	lsr	r3, r2, #11
  107b60:	e2466015 	sub	r6, r6, #21
  107b64:	e1a02a82 	lsl	r2, r2, #21
  107b68:	e3530000 	cmp	r3, #0
  107b6c:	0afffffa 	beq	107b5c <__ieee754_sqrt+0x18c>
  107b70:	e3130601 	tst	r3, #1048576	; 0x100000
  107b74:	1a00000f 	bne	107bb8 <__ieee754_sqrt+0x1e8>
  107b78:	e3a01000 	mov	r1, #0
  107b7c:	ea000000 	b	107b84 <__ieee754_sqrt+0x1b4>
  107b80:	e1a01000 	mov	r1, r0
  107b84:	e1a03083 	lsl	r3, r3, #1
  107b88:	e2810001 	add	r0, r1, #1
  107b8c:	e3130601 	tst	r3, #1048576	; 0x100000
  107b90:	0afffffa 	beq	107b80 <__ieee754_sqrt+0x1b0>
  107b94:	e260c020 	rsb	ip, r0, #32
  107b98:	e1833c32 	orr	r3, r3, r2, lsr ip
  107b9c:	e0466001 	sub	r6, r6, r1
  107ba0:	e1a02012 	lsl	r2, r2, r0
  107ba4:	eaffff94 	b	1079fc <__ieee754_sqrt+0x2c>
  107ba8:	ec410b30 	vmov	d16, r0, r1
  107bac:	ee400ba0 	vmla.f64	d16, d16, d16
  107bb0:	ec510b30 	vmov	r0, r1, d16
  107bb4:	e12fff1e 	bx	lr
  107bb8:	e3a00000 	mov	r0, #0
  107bbc:	e3a0c020 	mov	ip, #32
  107bc0:	e3e01000 	mvn	r1, #0
  107bc4:	eafffff3 	b	107b98 <__ieee754_sqrt+0x1c8>
  107bc8:	ec410b30 	vmov	d16, r0, r1
  107bcc:	ee701be0 	vsub.f64	d17, d16, d16
  107bd0:	eec10ba1 	vdiv.f64	d16, d17, d17
  107bd4:	eaffffd0 	b	107b1c <__ieee754_sqrt+0x14c>

00107bd8 <finite>:
  107bd8:	e3811102 	orr	r1, r1, #-2147483648	; 0x80000000
  107bdc:	e2810601 	add	r0, r1, #1048576	; 0x100000
  107be0:	e1a00fa0 	lsr	r0, r0, #31
  107be4:	e12fff1e 	bx	lr

00107be8 <matherr>:
  107be8:	e3a00000 	mov	r0, #0
  107bec:	e12fff1e 	bx	lr

00107bf0 <nan>:
  107bf0:	e3a01000 	mov	r1, #0
  107bf4:	e3a00000 	mov	r0, #0
  107bf8:	e3471ff8 	movt	r1, #32760	; 0x7ff8
  107bfc:	e12fff1e 	bx	lr

00107c00 <__aeabi_uidiv>:
  107c00:	e2512001 	subs	r2, r1, #1
  107c04:	012fff1e 	bxeq	lr
  107c08:	3a000074 	bcc	107de0 <__aeabi_uidiv+0x1e0>
  107c0c:	e1500001 	cmp	r0, r1
  107c10:	9a00006b 	bls	107dc4 <__aeabi_uidiv+0x1c4>
  107c14:	e1110002 	tst	r1, r2
  107c18:	0a00006c 	beq	107dd0 <__aeabi_uidiv+0x1d0>
  107c1c:	e16f3f10 	clz	r3, r0
  107c20:	e16f2f11 	clz	r2, r1
  107c24:	e0423003 	sub	r3, r2, r3
  107c28:	e273301f 	rsbs	r3, r3, #31
  107c2c:	10833083 	addne	r3, r3, r3, lsl #1
  107c30:	e3a02000 	mov	r2, #0
  107c34:	108ff103 	addne	pc, pc, r3, lsl #2
  107c38:	e320f000 	nop	{0}
  107c3c:	e1500f81 	cmp	r0, r1, lsl #31
  107c40:	e0a22002 	adc	r2, r2, r2
  107c44:	20400f81 	subcs	r0, r0, r1, lsl #31
  107c48:	e1500f01 	cmp	r0, r1, lsl #30
  107c4c:	e0a22002 	adc	r2, r2, r2
  107c50:	20400f01 	subcs	r0, r0, r1, lsl #30
  107c54:	e1500e81 	cmp	r0, r1, lsl #29
  107c58:	e0a22002 	adc	r2, r2, r2
  107c5c:	20400e81 	subcs	r0, r0, r1, lsl #29
  107c60:	e1500e01 	cmp	r0, r1, lsl #28
  107c64:	e0a22002 	adc	r2, r2, r2
  107c68:	20400e01 	subcs	r0, r0, r1, lsl #28
  107c6c:	e1500d81 	cmp	r0, r1, lsl #27
  107c70:	e0a22002 	adc	r2, r2, r2
  107c74:	20400d81 	subcs	r0, r0, r1, lsl #27
  107c78:	e1500d01 	cmp	r0, r1, lsl #26
  107c7c:	e0a22002 	adc	r2, r2, r2
  107c80:	20400d01 	subcs	r0, r0, r1, lsl #26
  107c84:	e1500c81 	cmp	r0, r1, lsl #25
  107c88:	e0a22002 	adc	r2, r2, r2
  107c8c:	20400c81 	subcs	r0, r0, r1, lsl #25
  107c90:	e1500c01 	cmp	r0, r1, lsl #24
  107c94:	e0a22002 	adc	r2, r2, r2
  107c98:	20400c01 	subcs	r0, r0, r1, lsl #24
  107c9c:	e1500b81 	cmp	r0, r1, lsl #23
  107ca0:	e0a22002 	adc	r2, r2, r2
  107ca4:	20400b81 	subcs	r0, r0, r1, lsl #23
  107ca8:	e1500b01 	cmp	r0, r1, lsl #22
  107cac:	e0a22002 	adc	r2, r2, r2
  107cb0:	20400b01 	subcs	r0, r0, r1, lsl #22
  107cb4:	e1500a81 	cmp	r0, r1, lsl #21
  107cb8:	e0a22002 	adc	r2, r2, r2
  107cbc:	20400a81 	subcs	r0, r0, r1, lsl #21
  107cc0:	e1500a01 	cmp	r0, r1, lsl #20
  107cc4:	e0a22002 	adc	r2, r2, r2
  107cc8:	20400a01 	subcs	r0, r0, r1, lsl #20
  107ccc:	e1500981 	cmp	r0, r1, lsl #19
  107cd0:	e0a22002 	adc	r2, r2, r2
  107cd4:	20400981 	subcs	r0, r0, r1, lsl #19
  107cd8:	e1500901 	cmp	r0, r1, lsl #18
  107cdc:	e0a22002 	adc	r2, r2, r2
  107ce0:	20400901 	subcs	r0, r0, r1, lsl #18
  107ce4:	e1500881 	cmp	r0, r1, lsl #17
  107ce8:	e0a22002 	adc	r2, r2, r2
  107cec:	20400881 	subcs	r0, r0, r1, lsl #17
  107cf0:	e1500801 	cmp	r0, r1, lsl #16
  107cf4:	e0a22002 	adc	r2, r2, r2
  107cf8:	20400801 	subcs	r0, r0, r1, lsl #16
  107cfc:	e1500781 	cmp	r0, r1, lsl #15
  107d00:	e0a22002 	adc	r2, r2, r2
  107d04:	20400781 	subcs	r0, r0, r1, lsl #15
  107d08:	e1500701 	cmp	r0, r1, lsl #14
  107d0c:	e0a22002 	adc	r2, r2, r2
  107d10:	20400701 	subcs	r0, r0, r1, lsl #14
  107d14:	e1500681 	cmp	r0, r1, lsl #13
  107d18:	e0a22002 	adc	r2, r2, r2
  107d1c:	20400681 	subcs	r0, r0, r1, lsl #13
  107d20:	e1500601 	cmp	r0, r1, lsl #12
  107d24:	e0a22002 	adc	r2, r2, r2
  107d28:	20400601 	subcs	r0, r0, r1, lsl #12
  107d2c:	e1500581 	cmp	r0, r1, lsl #11
  107d30:	e0a22002 	adc	r2, r2, r2
  107d34:	20400581 	subcs	r0, r0, r1, lsl #11
  107d38:	e1500501 	cmp	r0, r1, lsl #10
  107d3c:	e0a22002 	adc	r2, r2, r2
  107d40:	20400501 	subcs	r0, r0, r1, lsl #10
  107d44:	e1500481 	cmp	r0, r1, lsl #9
  107d48:	e0a22002 	adc	r2, r2, r2
  107d4c:	20400481 	subcs	r0, r0, r1, lsl #9
  107d50:	e1500401 	cmp	r0, r1, lsl #8
  107d54:	e0a22002 	adc	r2, r2, r2
  107d58:	20400401 	subcs	r0, r0, r1, lsl #8
  107d5c:	e1500381 	cmp	r0, r1, lsl #7
  107d60:	e0a22002 	adc	r2, r2, r2
  107d64:	20400381 	subcs	r0, r0, r1, lsl #7
  107d68:	e1500301 	cmp	r0, r1, lsl #6
  107d6c:	e0a22002 	adc	r2, r2, r2
  107d70:	20400301 	subcs	r0, r0, r1, lsl #6
  107d74:	e1500281 	cmp	r0, r1, lsl #5
  107d78:	e0a22002 	adc	r2, r2, r2
  107d7c:	20400281 	subcs	r0, r0, r1, lsl #5
  107d80:	e1500201 	cmp	r0, r1, lsl #4
  107d84:	e0a22002 	adc	r2, r2, r2
  107d88:	20400201 	subcs	r0, r0, r1, lsl #4
  107d8c:	e1500181 	cmp	r0, r1, lsl #3
  107d90:	e0a22002 	adc	r2, r2, r2
  107d94:	20400181 	subcs	r0, r0, r1, lsl #3
  107d98:	e1500101 	cmp	r0, r1, lsl #2
  107d9c:	e0a22002 	adc	r2, r2, r2
  107da0:	20400101 	subcs	r0, r0, r1, lsl #2
  107da4:	e1500081 	cmp	r0, r1, lsl #1
  107da8:	e0a22002 	adc	r2, r2, r2
  107dac:	20400081 	subcs	r0, r0, r1, lsl #1
  107db0:	e1500001 	cmp	r0, r1
  107db4:	e0a22002 	adc	r2, r2, r2
  107db8:	20400001 	subcs	r0, r0, r1
  107dbc:	e1a00002 	mov	r0, r2
  107dc0:	e12fff1e 	bx	lr
  107dc4:	03a00001 	moveq	r0, #1
  107dc8:	13a00000 	movne	r0, #0
  107dcc:	e12fff1e 	bx	lr
  107dd0:	e16f2f11 	clz	r2, r1
  107dd4:	e262201f 	rsb	r2, r2, #31
  107dd8:	e1a00230 	lsr	r0, r0, r2
  107ddc:	e12fff1e 	bx	lr
  107de0:	e3500000 	cmp	r0, #0
  107de4:	13e00000 	mvnne	r0, #0
  107de8:	ea000007 	b	107e0c <__aeabi_idiv0>

00107dec <__aeabi_uidivmod>:
  107dec:	e3510000 	cmp	r1, #0
  107df0:	0afffffa 	beq	107de0 <__aeabi_uidiv+0x1e0>
  107df4:	e92d4003 	push	{r0, r1, lr}
  107df8:	ebffff80 	bl	107c00 <__aeabi_uidiv>
  107dfc:	e8bd4006 	pop	{r1, r2, lr}
  107e00:	e0030092 	mul	r3, r2, r0
  107e04:	e0411003 	sub	r1, r1, r3
  107e08:	e12fff1e 	bx	lr

00107e0c <__aeabi_idiv0>:
  107e0c:	e12fff1e 	bx	lr

00107e10 <__aeabi_f2ulz>:
  107e10:	ee070a90 	vmov	s15, r0
  107e14:	e3a02000 	mov	r2, #0
  107e18:	eef70ae7 	vcvt.f64.f32	d16, s15
  107e1c:	eddf1b0d 	vldr	d17, [pc, #52]	; 107e58 <__aeabi_f2ulz+0x48>
  107e20:	ed9f7b0e 	vldr	d7, [pc, #56]	; 107e60 <__aeabi_f2ulz+0x50>
  107e24:	ee207b87 	vmul.f64	d7, d16, d7
  107e28:	eebc7bc7 	vcvt.u32.f64	s14, d7
  107e2c:	eef82b47 	vcvt.f64.u32	d18, s14
  107e30:	ee173a10 	vmov	r3, s14
  107e34:	ee420be1 	vmls.f64	d16, d18, d17
  107e38:	eeb07b60 	vmov.f64	d7, d16
  107e3c:	eefc7bc7 	vcvt.u32.f64	s15, d7
  107e40:	ee170a90 	vmov	r0, s15
  107e44:	e1822000 	orr	r2, r2, r0
  107e48:	e1a00002 	mov	r0, r2
  107e4c:	e1a01003 	mov	r1, r3
  107e50:	e12fff1e 	bx	lr
  107e54:	e320f000 	nop	{0}
  107e58:	00000000 	.word	0x00000000
  107e5c:	41f00000 	.word	0x41f00000
  107e60:	00000000 	.word	0x00000000
  107e64:	3df00000 	.word	0x3df00000

00107e68 <calloc>:
  107e68:	e92d4070 	push	{r4, r5, r6, lr}
  107e6c:	e1a05001 	mov	r5, r1
  107e70:	e1a04000 	mov	r4, r0
  107e74:	eb00002a 	bl	107f24 <__getreent>
  107e78:	e1a02005 	mov	r2, r5
  107e7c:	e1a01004 	mov	r1, r4
  107e80:	e8bd4070 	pop	{r4, r5, r6, lr}
  107e84:	eaffffff 	b	107e88 <_calloc_r>

00107e88 <_calloc_r>:
  107e88:	e92d4010 	push	{r4, lr}
  107e8c:	e0010192 	mul	r1, r2, r1
  107e90:	eb000033 	bl	107f64 <_malloc_r>
  107e94:	e2504000 	subs	r4, r0, #0
  107e98:	0a000018 	beq	107f00 <_calloc_r+0x78>
  107e9c:	e5142004 	ldr	r2, [r4, #-4]
  107ea0:	e3c22003 	bic	r2, r2, #3
  107ea4:	e2422004 	sub	r2, r2, #4
  107ea8:	e3520024 	cmp	r2, #36	; 0x24
  107eac:	8a000015 	bhi	107f08 <_calloc_r+0x80>
  107eb0:	e3520013 	cmp	r2, #19
  107eb4:	91a02004 	movls	r2, r4
  107eb8:	9a00000c 	bls	107ef0 <_calloc_r+0x68>
  107ebc:	e352001b 	cmp	r2, #27
  107ec0:	e3a03000 	mov	r3, #0
  107ec4:	e5843000 	str	r3, [r4]
  107ec8:	92842008 	addls	r2, r4, #8
  107ecc:	e5843004 	str	r3, [r4, #4]
  107ed0:	9a000006 	bls	107ef0 <_calloc_r+0x68>
  107ed4:	e3520024 	cmp	r2, #36	; 0x24
  107ed8:	e5843008 	str	r3, [r4, #8]
  107edc:	12842010 	addne	r2, r4, #16
  107ee0:	02842018 	addeq	r2, r4, #24
  107ee4:	e584300c 	str	r3, [r4, #12]
  107ee8:	05843010 	streq	r3, [r4, #16]
  107eec:	05843014 	streq	r3, [r4, #20]
  107ef0:	e3a03000 	mov	r3, #0
  107ef4:	e5823000 	str	r3, [r2]
  107ef8:	e5823004 	str	r3, [r2, #4]
  107efc:	e5823008 	str	r3, [r2, #8]
  107f00:	e1a00004 	mov	r0, r4
  107f04:	e8bd8010 	pop	{r4, pc}
  107f08:	e3a01000 	mov	r1, #0
  107f0c:	eb000234 	bl	1087e4 <memset>
  107f10:	e1a00004 	mov	r0, r4
  107f14:	e8bd8010 	pop	{r4, pc}

00107f18 <__errno>:
  107f18:	e92d4010 	push	{r4, lr}
  107f1c:	eb000000 	bl	107f24 <__getreent>
  107f20:	e8bd8010 	pop	{r4, pc}

00107f24 <__getreent>:
  107f24:	e3003008 	movw	r3, #8
  107f28:	e3403013 	movt	r3, #19
  107f2c:	e5930000 	ldr	r0, [r3]
  107f30:	e12fff1e 	bx	lr

00107f34 <malloc>:
  107f34:	e92d4010 	push	{r4, lr}
  107f38:	e1a04000 	mov	r4, r0
  107f3c:	ebfffff8 	bl	107f24 <__getreent>
  107f40:	e1a01004 	mov	r1, r4
  107f44:	e8bd4010 	pop	{r4, lr}
  107f48:	ea000005 	b	107f64 <_malloc_r>

00107f4c <free>:
  107f4c:	e92d4010 	push	{r4, lr}
  107f50:	e1a04000 	mov	r4, r0
  107f54:	ebfffff2 	bl	107f24 <__getreent>
  107f58:	e1a01004 	mov	r1, r4
  107f5c:	e8bd4010 	pop	{r4, lr}
  107f60:	ea0011c3 	b	10c674 <_free_r>

00107f64 <_malloc_r>:
  107f64:	e92d4ff8 	push	{r3, r4, r5, r6, r7, r8, r9, sl, fp, lr}
  107f68:	e281500b 	add	r5, r1, #11
  107f6c:	e3550016 	cmp	r5, #22
  107f70:	e1a06000 	mov	r6, r0
  107f74:	9a000073 	bls	108148 <_malloc_r+0x1e4>
  107f78:	e3c55007 	bic	r5, r5, #7
  107f7c:	e1510005 	cmp	r1, r5
  107f80:	93a01000 	movls	r1, #0
  107f84:	83a01001 	movhi	r1, #1
  107f88:	e1913fa5 	orrs	r3, r1, r5, lsr #31
  107f8c:	1a000089 	bne	1081b8 <_malloc_r+0x254>
  107f90:	eb000257 	bl	1088f4 <__malloc_lock>
  107f94:	e3550f7e 	cmp	r5, #504	; 0x1f8
  107f98:	3a0001c8 	bcc	1086c0 <_malloc_r+0x75c>
  107f9c:	e1b034a5 	lsrs	r3, r5, #9
  107fa0:	0a000089 	beq	1081cc <_malloc_r+0x268>
  107fa4:	e3530004 	cmp	r3, #4
  107fa8:	8a0000db 	bhi	10831c <_malloc_r+0x3b8>
  107fac:	e1a03325 	lsr	r3, r5, #6
  107fb0:	e283c039 	add	ip, r3, #57	; 0x39
  107fb4:	e283e038 	add	lr, r3, #56	; 0x38
  107fb8:	e1a0018c 	lsl	r0, ip, #3
  107fbc:	e3007438 	movw	r7, #1080	; 0x438
  107fc0:	e3407013 	movt	r7, #19
  107fc4:	e0870000 	add	r0, r7, r0
  107fc8:	e5903004 	ldr	r3, [r0, #4]
  107fcc:	e2400008 	sub	r0, r0, #8
  107fd0:	e1500003 	cmp	r0, r3
  107fd4:	1a000005 	bne	107ff0 <_malloc_r+0x8c>
  107fd8:	ea00000a 	b	108008 <_malloc_r+0xa4>
  107fdc:	e3510000 	cmp	r1, #0
  107fe0:	aa00007d 	bge	1081dc <_malloc_r+0x278>
  107fe4:	e593300c 	ldr	r3, [r3, #12]
  107fe8:	e1500003 	cmp	r0, r3
  107fec:	0a000005 	beq	108008 <_malloc_r+0xa4>
  107ff0:	e5932004 	ldr	r2, [r3, #4]
  107ff4:	e3c22003 	bic	r2, r2, #3
  107ff8:	e0421005 	sub	r1, r2, r5
  107ffc:	e351000f 	cmp	r1, #15
  108000:	dafffff5 	ble	107fdc <_malloc_r+0x78>
  108004:	e1a0c00e 	mov	ip, lr
  108008:	e5978010 	ldr	r8, [r7, #16]
  10800c:	e59fe6b8 	ldr	lr, [pc, #1720]	; 1086cc <_malloc_r+0x768>
  108010:	e158000e 	cmp	r8, lr
  108014:	05973004 	ldreq	r3, [r7, #4]
  108018:	0a000018 	beq	108080 <_malloc_r+0x11c>
  10801c:	e5983004 	ldr	r3, [r8, #4]
  108020:	e3c33003 	bic	r3, r3, #3
  108024:	e0432005 	sub	r2, r3, r5
  108028:	e352000f 	cmp	r2, #15
  10802c:	ca0000de 	bgt	1083ac <_malloc_r+0x448>
  108030:	e3520000 	cmp	r2, #0
  108034:	e587e014 	str	lr, [r7, #20]
  108038:	e587e010 	str	lr, [r7, #16]
  10803c:	aa000073 	bge	108210 <_malloc_r+0x2ac>
  108040:	e3530c02 	cmp	r3, #512	; 0x200
  108044:	2a0000bd 	bcs	108340 <_malloc_r+0x3dc>
  108048:	e5972004 	ldr	r2, [r7, #4]
  10804c:	e1a031a3 	lsr	r3, r3, #3
  108050:	e3a09001 	mov	r9, #1
  108054:	e0831009 	add	r1, r3, r9
  108058:	e1a03143 	asr	r3, r3, #2
  10805c:	e7974181 	ldr	r4, [r7, r1, lsl #3]
  108060:	e0870181 	add	r0, r7, r1, lsl #3
  108064:	e1823319 	orr	r3, r2, r9, lsl r3
  108068:	e2402008 	sub	r2, r0, #8
  10806c:	e588200c 	str	r2, [r8, #12]
  108070:	e5884008 	str	r4, [r8, #8]
  108074:	e5873004 	str	r3, [r7, #4]
  108078:	e7878181 	str	r8, [r7, r1, lsl #3]
  10807c:	e584800c 	str	r8, [r4, #12]
  108080:	e1a0214c 	asr	r2, ip, #2
  108084:	e3a01001 	mov	r1, #1
  108088:	e1a00211 	lsl	r0, r1, r2
  10808c:	e1500003 	cmp	r0, r3
  108090:	8a000067 	bhi	108234 <_malloc_r+0x2d0>
  108094:	e1100003 	tst	r0, r3
  108098:	1a000008 	bne	1080c0 <_malloc_r+0x15c>
  10809c:	e1a00110 	lsl	r0, r0, r1
  1080a0:	e3ccc003 	bic	ip, ip, #3
  1080a4:	e28cc004 	add	ip, ip, #4
  1080a8:	e1100003 	tst	r0, r3
  1080ac:	1a000003 	bne	1080c0 <_malloc_r+0x15c>
  1080b0:	e1a00080 	lsl	r0, r0, #1
  1080b4:	e28cc004 	add	ip, ip, #4
  1080b8:	e1100003 	tst	r0, r3
  1080bc:	0afffffb 	beq	1080b0 <_malloc_r+0x14c>
  1080c0:	e087918c 	add	r9, r7, ip, lsl #3
  1080c4:	e1a0400c 	mov	r4, ip
  1080c8:	e1a01009 	mov	r1, r9
  1080cc:	e591300c 	ldr	r3, [r1, #12]
  1080d0:	e1510003 	cmp	r1, r3
  1080d4:	1a000005 	bne	1080f0 <_malloc_r+0x18c>
  1080d8:	ea0000c0 	b	1083e0 <_malloc_r+0x47c>
  1080dc:	e3580000 	cmp	r8, #0
  1080e0:	aa0000c8 	bge	108408 <_malloc_r+0x4a4>
  1080e4:	e593300c 	ldr	r3, [r3, #12]
  1080e8:	e1510003 	cmp	r1, r3
  1080ec:	0a0000bb 	beq	1083e0 <_malloc_r+0x47c>
  1080f0:	e5932004 	ldr	r2, [r3, #4]
  1080f4:	e3c22003 	bic	r2, r2, #3
  1080f8:	e0428005 	sub	r8, r2, r5
  1080fc:	e358000f 	cmp	r8, #15
  108100:	dafffff5 	ble	1080dc <_malloc_r+0x178>
  108104:	e593100c 	ldr	r1, [r3, #12]
  108108:	e3854001 	orr	r4, r5, #1
  10810c:	e593c008 	ldr	ip, [r3, #8]
  108110:	e0835005 	add	r5, r3, r5
  108114:	e1a00006 	mov	r0, r6
  108118:	e3886001 	orr	r6, r8, #1
  10811c:	e5834004 	str	r4, [r3, #4]
  108120:	e2834008 	add	r4, r3, #8
  108124:	e58c100c 	str	r1, [ip, #12]
  108128:	e581c008 	str	ip, [r1, #8]
  10812c:	e5875014 	str	r5, [r7, #20]
  108130:	e5875010 	str	r5, [r7, #16]
  108134:	e585e00c 	str	lr, [r5, #12]
  108138:	e9854040 	stmib	r5, {r6, lr}
  10813c:	e7838002 	str	r8, [r3, r2]
  108140:	eb0001ee 	bl	108900 <__malloc_unlock>
  108144:	ea000019 	b	1081b0 <_malloc_r+0x24c>
  108148:	e3510010 	cmp	r1, #16
  10814c:	8a000019 	bhi	1081b8 <_malloc_r+0x254>
  108150:	eb0001e7 	bl	1088f4 <__malloc_lock>
  108154:	e3a05010 	mov	r5, #16
  108158:	e3a02018 	mov	r2, #24
  10815c:	e3a0c002 	mov	ip, #2
  108160:	e3007438 	movw	r7, #1080	; 0x438
  108164:	e3407013 	movt	r7, #19
  108168:	e0872002 	add	r2, r7, r2
  10816c:	e5923004 	ldr	r3, [r2, #4]
  108170:	e2421008 	sub	r1, r2, #8
  108174:	e1530001 	cmp	r3, r1
  108178:	0a00009d 	beq	1083f4 <_malloc_r+0x490>
  10817c:	e5932004 	ldr	r2, [r3, #4]
  108180:	e2834008 	add	r4, r3, #8
  108184:	e593100c 	ldr	r1, [r3, #12]
  108188:	e1a00006 	mov	r0, r6
  10818c:	e593c008 	ldr	ip, [r3, #8]
  108190:	e3c22003 	bic	r2, r2, #3
  108194:	e0833002 	add	r3, r3, r2
  108198:	e5932004 	ldr	r2, [r3, #4]
  10819c:	e58c100c 	str	r1, [ip, #12]
  1081a0:	e581c008 	str	ip, [r1, #8]
  1081a4:	e3822001 	orr	r2, r2, #1
  1081a8:	e5832004 	str	r2, [r3, #4]
  1081ac:	eb0001d3 	bl	108900 <__malloc_unlock>
  1081b0:	e1a00004 	mov	r0, r4
  1081b4:	e8bd8ff8 	pop	{r3, r4, r5, r6, r7, r8, r9, sl, fp, pc}
  1081b8:	e3a0300c 	mov	r3, #12
  1081bc:	e3a04000 	mov	r4, #0
  1081c0:	e5863000 	str	r3, [r6]
  1081c4:	e1a00004 	mov	r0, r4
  1081c8:	e8bd8ff8 	pop	{r3, r4, r5, r6, r7, r8, r9, sl, fp, pc}
  1081cc:	e3a00c02 	mov	r0, #512	; 0x200
  1081d0:	e3a0c040 	mov	ip, #64	; 0x40
  1081d4:	e3a0e03f 	mov	lr, #63	; 0x3f
  1081d8:	eaffff77 	b	107fbc <_malloc_r+0x58>
  1081dc:	e0832002 	add	r2, r3, r2
  1081e0:	e593c00c 	ldr	ip, [r3, #12]
  1081e4:	e5921004 	ldr	r1, [r2, #4]
  1081e8:	e2834008 	add	r4, r3, #8
  1081ec:	e593e008 	ldr	lr, [r3, #8]
  1081f0:	e1a00006 	mov	r0, r6
  1081f4:	e3813001 	orr	r3, r1, #1
  1081f8:	e58ec00c 	str	ip, [lr, #12]
  1081fc:	e58ce008 	str	lr, [ip, #8]
  108200:	e5823004 	str	r3, [r2, #4]
  108204:	eb0001bd 	bl	108900 <__malloc_unlock>
  108208:	e1a00004 	mov	r0, r4
  10820c:	e8bd8ff8 	pop	{r3, r4, r5, r6, r7, r8, r9, sl, fp, pc}
  108210:	e0883003 	add	r3, r8, r3
  108214:	e1a00006 	mov	r0, r6
  108218:	e5932004 	ldr	r2, [r3, #4]
  10821c:	e2884008 	add	r4, r8, #8
  108220:	e3822001 	orr	r2, r2, #1
  108224:	e5832004 	str	r2, [r3, #4]
  108228:	eb0001b4 	bl	108900 <__malloc_unlock>
  10822c:	e1a00004 	mov	r0, r4
  108230:	e8bd8ff8 	pop	{r3, r4, r5, r6, r7, r8, r9, sl, fp, pc}
  108234:	e5974008 	ldr	r4, [r7, #8]
  108238:	e5948004 	ldr	r8, [r4, #4]
  10823c:	e3c88003 	bic	r8, r8, #3
  108240:	e0482005 	sub	r2, r8, r5
  108244:	e352000f 	cmp	r2, #15
  108248:	c3a03000 	movgt	r3, #0
  10824c:	d3a03001 	movle	r3, #1
  108250:	e1580005 	cmp	r8, r5
  108254:	33833001 	orrcc	r3, r3, #1
  108258:	e3530000 	cmp	r3, #0
  10825c:	0a000023 	beq	1082f0 <_malloc_r+0x38c>
  108260:	e30193d0 	movw	r9, #5072	; 0x13d0
  108264:	e5973408 	ldr	r3, [r7, #1032]	; 0x408
  108268:	e3409013 	movt	r9, #19
  10826c:	e1a00006 	mov	r0, r6
  108270:	e5992000 	ldr	r2, [r9]
  108274:	e3730001 	cmn	r3, #1
  108278:	e0852002 	add	r2, r5, r2
  10827c:	12822a01 	addne	r2, r2, #4096	; 0x1000
  108280:	0282b010 	addeq	fp, r2, #16
  108284:	1282200f 	addne	r2, r2, #15
  108288:	13c2beff 	bicne	fp, r2, #4080	; 0xff0
  10828c:	13cbb00f 	bicne	fp, fp, #15
  108290:	e1a0100b 	mov	r1, fp
  108294:	eb0001c3 	bl	1089a8 <_sbrk_r>
  108298:	e3700001 	cmn	r0, #1
  10829c:	e1a0a000 	mov	sl, r0
  1082a0:	0a000003 	beq	1082b4 <_malloc_r+0x350>
  1082a4:	e0843008 	add	r3, r4, r8
  1082a8:	e1540007 	cmp	r4, r7
  1082ac:	11530000 	cmpne	r3, r0
  1082b0:	9a000082 	bls	1084c0 <_malloc_r+0x55c>
  1082b4:	e5974008 	ldr	r4, [r7, #8]
  1082b8:	e5943004 	ldr	r3, [r4, #4]
  1082bc:	e3c33003 	bic	r3, r3, #3
  1082c0:	e1550003 	cmp	r5, r3
  1082c4:	e0432005 	sub	r2, r3, r5
  1082c8:	93a03000 	movls	r3, #0
  1082cc:	83a03001 	movhi	r3, #1
  1082d0:	e352000f 	cmp	r2, #15
  1082d4:	d3833001 	orrle	r3, r3, #1
  1082d8:	e3530000 	cmp	r3, #0
  1082dc:	0a000003 	beq	1082f0 <_malloc_r+0x38c>
  1082e0:	e1a00006 	mov	r0, r6
  1082e4:	e3a04000 	mov	r4, #0
  1082e8:	eb000184 	bl	108900 <__malloc_unlock>
  1082ec:	eaffffaf 	b	1081b0 <_malloc_r+0x24c>
  1082f0:	e3853001 	orr	r3, r5, #1
  1082f4:	e3822001 	orr	r2, r2, #1
  1082f8:	e0845005 	add	r5, r4, r5
  1082fc:	e5843004 	str	r3, [r4, #4]
  108300:	e1a00006 	mov	r0, r6
  108304:	e5875008 	str	r5, [r7, #8]
  108308:	e2844008 	add	r4, r4, #8
  10830c:	e5852004 	str	r2, [r5, #4]
  108310:	eb00017a 	bl	108900 <__malloc_unlock>
  108314:	e1a00004 	mov	r0, r4
  108318:	e8bd8ff8 	pop	{r3, r4, r5, r6, r7, r8, r9, sl, fp, pc}
  10831c:	e3530014 	cmp	r3, #20
  108320:	9a000044 	bls	108438 <_malloc_r+0x4d4>
  108324:	e3530054 	cmp	r3, #84	; 0x54
  108328:	8a0000a4 	bhi	1085c0 <_malloc_r+0x65c>
  10832c:	e1a03625 	lsr	r3, r5, #12
  108330:	e283c06f 	add	ip, r3, #111	; 0x6f
  108334:	e283e06e 	add	lr, r3, #110	; 0x6e
  108338:	e1a0018c 	lsl	r0, ip, #3
  10833c:	eaffff1e 	b	107fbc <_malloc_r+0x58>
  108340:	e1a014a3 	lsr	r1, r3, #9
  108344:	e3510004 	cmp	r1, #4
  108348:	9a00003e 	bls	108448 <_malloc_r+0x4e4>
  10834c:	e3510014 	cmp	r1, #20
  108350:	8a0000b0 	bhi	108618 <_malloc_r+0x6b4>
  108354:	e281005c 	add	r0, r1, #92	; 0x5c
  108358:	e281105b 	add	r1, r1, #91	; 0x5b
  10835c:	e1a00180 	lsl	r0, r0, #3
  108360:	e7972000 	ldr	r2, [r7, r0]
  108364:	e0870000 	add	r0, r7, r0
  108368:	e2400008 	sub	r0, r0, #8
  10836c:	e1500002 	cmp	r0, r2
  108370:	0a000099 	beq	1085dc <_malloc_r+0x678>
  108374:	e5921004 	ldr	r1, [r2, #4]
  108378:	e3c11003 	bic	r1, r1, #3
  10837c:	e1530001 	cmp	r3, r1
  108380:	2a00008c 	bcs	1085b8 <_malloc_r+0x654>
  108384:	e5922008 	ldr	r2, [r2, #8]
  108388:	e1500002 	cmp	r0, r2
  10838c:	1afffff8 	bne	108374 <_malloc_r+0x410>
  108390:	e590200c 	ldr	r2, [r0, #12]
  108394:	e5973004 	ldr	r3, [r7, #4]
  108398:	e588200c 	str	r2, [r8, #12]
  10839c:	e5880008 	str	r0, [r8, #8]
  1083a0:	e5828008 	str	r8, [r2, #8]
  1083a4:	e580800c 	str	r8, [r0, #12]
  1083a8:	eaffff34 	b	108080 <_malloc_r+0x11c>
  1083ac:	e385c001 	orr	ip, r5, #1
  1083b0:	e3821001 	orr	r1, r2, #1
  1083b4:	e0885005 	add	r5, r8, r5
  1083b8:	e588c004 	str	ip, [r8, #4]
  1083bc:	e1a00006 	mov	r0, r6
  1083c0:	e5875014 	str	r5, [r7, #20]
  1083c4:	e5875010 	str	r5, [r7, #16]
  1083c8:	e2884008 	add	r4, r8, #8
  1083cc:	e585e00c 	str	lr, [r5, #12]
  1083d0:	e9854002 	stmib	r5, {r1, lr}
  1083d4:	e7882003 	str	r2, [r8, r3]
  1083d8:	eb000148 	bl	108900 <__malloc_unlock>
  1083dc:	eaffff73 	b	1081b0 <_malloc_r+0x24c>
  1083e0:	e2844001 	add	r4, r4, #1
  1083e4:	e2811008 	add	r1, r1, #8
  1083e8:	e3140003 	tst	r4, #3
  1083ec:	1affff36 	bne	1080cc <_malloc_r+0x168>
  1083f0:	ea00001c 	b	108468 <_malloc_r+0x504>
  1083f4:	e592300c 	ldr	r3, [r2, #12]
  1083f8:	e1520003 	cmp	r2, r3
  1083fc:	028cc002 	addeq	ip, ip, #2
  108400:	0affff00 	beq	108008 <_malloc_r+0xa4>
  108404:	eaffff5c 	b	10817c <_malloc_r+0x218>
  108408:	e0832002 	add	r2, r3, r2
  10840c:	e1a04003 	mov	r4, r3
  108410:	e5921004 	ldr	r1, [r2, #4]
  108414:	e1a00006 	mov	r0, r6
  108418:	e593c00c 	ldr	ip, [r3, #12]
  10841c:	e5b4e008 	ldr	lr, [r4, #8]!
  108420:	e3813001 	orr	r3, r1, #1
  108424:	e5823004 	str	r3, [r2, #4]
  108428:	e58ec00c 	str	ip, [lr, #12]
  10842c:	e58ce008 	str	lr, [ip, #8]
  108430:	eb000132 	bl	108900 <__malloc_unlock>
  108434:	eaffff5d 	b	1081b0 <_malloc_r+0x24c>
  108438:	e283c05c 	add	ip, r3, #92	; 0x5c
  10843c:	e283e05b 	add	lr, r3, #91	; 0x5b
  108440:	e1a0018c 	lsl	r0, ip, #3
  108444:	eafffedc 	b	107fbc <_malloc_r+0x58>
  108448:	e1a01323 	lsr	r1, r3, #6
  10844c:	e2810039 	add	r0, r1, #57	; 0x39
  108450:	e2811038 	add	r1, r1, #56	; 0x38
  108454:	e1a00180 	lsl	r0, r0, #3
  108458:	eaffffc0 	b	108360 <_malloc_r+0x3fc>
  10845c:	e4193008 	ldr	r3, [r9], #-8
  108460:	e1590003 	cmp	r9, r3
  108464:	1a000093 	bne	1086b8 <_malloc_r+0x754>
  108468:	e31c0003 	tst	ip, #3
  10846c:	e24cc001 	sub	ip, ip, #1
  108470:	1afffff9 	bne	10845c <_malloc_r+0x4f8>
  108474:	e5973004 	ldr	r3, [r7, #4]
  108478:	e1c33000 	bic	r3, r3, r0
  10847c:	e5873004 	str	r3, [r7, #4]
  108480:	e1b00080 	lsls	r0, r0, #1
  108484:	13a02001 	movne	r2, #1
  108488:	03a02000 	moveq	r2, #0
  10848c:	e1500003 	cmp	r0, r3
  108490:	83a02000 	movhi	r2, #0
  108494:	92022001 	andls	r2, r2, #1
  108498:	e3520000 	cmp	r2, #0
  10849c:	0affff64 	beq	108234 <_malloc_r+0x2d0>
  1084a0:	e1100003 	tst	r0, r3
  1084a4:	e1a0c004 	mov	ip, r4
  1084a8:	1affff04 	bne	1080c0 <_malloc_r+0x15c>
  1084ac:	e1a00080 	lsl	r0, r0, #1
  1084b0:	e28cc004 	add	ip, ip, #4
  1084b4:	e1100003 	tst	r0, r3
  1084b8:	0afffffb 	beq	1084ac <_malloc_r+0x548>
  1084bc:	eafffeff 	b	1080c0 <_malloc_r+0x15c>
  1084c0:	e5991004 	ldr	r1, [r9, #4]
  1084c4:	e1530000 	cmp	r3, r0
  1084c8:	e08b1001 	add	r1, fp, r1
  1084cc:	e5891004 	str	r1, [r9, #4]
  1084d0:	0a00005b 	beq	108644 <_malloc_r+0x6e0>
  1084d4:	e5972408 	ldr	r2, [r7, #1032]	; 0x408
  1084d8:	e1a00006 	mov	r0, r6
  1084dc:	e3720001 	cmn	r2, #1
  1084e0:	104a3003 	subne	r3, sl, r3
  1084e4:	0587a408 	streq	sl, [r7, #1032]	; 0x408
  1084e8:	10831001 	addne	r1, r3, r1
  1084ec:	15891004 	strne	r1, [r9, #4]
  1084f0:	e21a1007 	ands	r1, sl, #7
  1084f4:	12613008 	rsbne	r3, r1, #8
  1084f8:	12611a01 	rsbne	r1, r1, #4096	; 0x1000
  1084fc:	108aa003 	addne	sl, sl, r3
  108500:	12811008 	addne	r1, r1, #8
  108504:	e08a300b 	add	r3, sl, fp
  108508:	03a01a01 	moveq	r1, #4096	; 0x1000
  10850c:	e7eb3053 	ubfx	r3, r3, #0, #12
  108510:	e041b003 	sub	fp, r1, r3
  108514:	e1a0100b 	mov	r1, fp
  108518:	eb000122 	bl	1089a8 <_sbrk_r>
  10851c:	e3700001 	cmn	r0, #1
  108520:	e5991004 	ldr	r1, [r9, #4]
  108524:	1040300a 	subne	r3, r0, sl
  108528:	03a03001 	moveq	r3, #1
  10852c:	1083300b 	addne	r3, r3, fp
  108530:	03a0b000 	moveq	fp, #0
  108534:	13833001 	orrne	r3, r3, #1
  108538:	e1540007 	cmp	r4, r7
  10853c:	e08b1001 	add	r1, fp, r1
  108540:	e587a008 	str	sl, [r7, #8]
  108544:	e5891004 	str	r1, [r9, #4]
  108548:	e58a3004 	str	r3, [sl, #4]
  10854c:	0a00000f 	beq	108590 <_malloc_r+0x62c>
  108550:	e358000f 	cmp	r8, #15
  108554:	93a03001 	movls	r3, #1
  108558:	958a3004 	strls	r3, [sl, #4]
  10855c:	9affff5f 	bls	1082e0 <_malloc_r+0x37c>
  108560:	e5942004 	ldr	r2, [r4, #4]
  108564:	e248300c 	sub	r3, r8, #12
  108568:	e3c33007 	bic	r3, r3, #7
  10856c:	e3a0c005 	mov	ip, #5
  108570:	e353000f 	cmp	r3, #15
  108574:	e0840003 	add	r0, r4, r3
  108578:	e2022001 	and	r2, r2, #1
  10857c:	e1823003 	orr	r3, r2, r3
  108580:	e5843004 	str	r3, [r4, #4]
  108584:	e580c004 	str	ip, [r0, #4]
  108588:	e580c008 	str	ip, [r0, #8]
  10858c:	8a000034 	bhi	108664 <_malloc_r+0x700>
  108590:	e599302c 	ldr	r3, [r9, #44]	; 0x2c
  108594:	e5974008 	ldr	r4, [r7, #8]
  108598:	e1510003 	cmp	r1, r3
  10859c:	e5993030 	ldr	r3, [r9, #48]	; 0x30
  1085a0:	8589102c 	strhi	r1, [r9, #44]	; 0x2c
  1085a4:	e1510003 	cmp	r1, r3
  1085a8:	e5943004 	ldr	r3, [r4, #4]
  1085ac:	85891030 	strhi	r1, [r9, #48]	; 0x30
  1085b0:	e3c33003 	bic	r3, r3, #3
  1085b4:	eaffff41 	b	1082c0 <_malloc_r+0x35c>
  1085b8:	e1a00002 	mov	r0, r2
  1085bc:	eaffff73 	b	108390 <_malloc_r+0x42c>
  1085c0:	e3530f55 	cmp	r3, #340	; 0x154
  1085c4:	8a00000b 	bhi	1085f8 <_malloc_r+0x694>
  1085c8:	e1a037a5 	lsr	r3, r5, #15
  1085cc:	e283c078 	add	ip, r3, #120	; 0x78
  1085d0:	e283e077 	add	lr, r3, #119	; 0x77
  1085d4:	e1a0018c 	lsl	r0, ip, #3
  1085d8:	eafffe77 	b	107fbc <_malloc_r+0x58>
  1085dc:	e5973004 	ldr	r3, [r7, #4]
  1085e0:	e1a01141 	asr	r1, r1, #2
  1085e4:	e3a04001 	mov	r4, #1
  1085e8:	e1a02000 	mov	r2, r0
  1085ec:	e1833114 	orr	r3, r3, r4, lsl r1
  1085f0:	e5873004 	str	r3, [r7, #4]
  1085f4:	eaffff67 	b	108398 <_malloc_r+0x434>
  1085f8:	e3002554 	movw	r2, #1364	; 0x554
  1085fc:	e1530002 	cmp	r3, r2
  108600:	8a00000b 	bhi	108634 <_malloc_r+0x6d0>
  108604:	e1a03925 	lsr	r3, r5, #18
  108608:	e283c07d 	add	ip, r3, #125	; 0x7d
  10860c:	e283e07c 	add	lr, r3, #124	; 0x7c
  108610:	e1a0018c 	lsl	r0, ip, #3
  108614:	eafffe68 	b	107fbc <_malloc_r+0x58>
  108618:	e3510054 	cmp	r1, #84	; 0x54
  10861c:	8a000015 	bhi	108678 <_malloc_r+0x714>
  108620:	e1a01623 	lsr	r1, r3, #12
  108624:	e281006f 	add	r0, r1, #111	; 0x6f
  108628:	e281106e 	add	r1, r1, #110	; 0x6e
  10862c:	e1a00180 	lsl	r0, r0, #3
  108630:	eaffff4a 	b	108360 <_malloc_r+0x3fc>
  108634:	e3a00ffe 	mov	r0, #1016	; 0x3f8
  108638:	e3a0c07f 	mov	ip, #127	; 0x7f
  10863c:	e3a0e07e 	mov	lr, #126	; 0x7e
  108640:	eafffe5d 	b	107fbc <_malloc_r+0x58>
  108644:	e7eb2053 	ubfx	r2, r3, #0, #12
  108648:	e3520000 	cmp	r2, #0
  10864c:	1affffa0 	bne	1084d4 <_malloc_r+0x570>
  108650:	e5972008 	ldr	r2, [r7, #8]
  108654:	e088300b 	add	r3, r8, fp
  108658:	e3833001 	orr	r3, r3, #1
  10865c:	e5823004 	str	r3, [r2, #4]
  108660:	eaffffca 	b	108590 <_malloc_r+0x62c>
  108664:	e2841008 	add	r1, r4, #8
  108668:	e1a00006 	mov	r0, r6
  10866c:	eb001000 	bl	10c674 <_free_r>
  108670:	e5991004 	ldr	r1, [r9, #4]
  108674:	eaffffc5 	b	108590 <_malloc_r+0x62c>
  108678:	e3510f55 	cmp	r1, #340	; 0x154
  10867c:	8a000004 	bhi	108694 <_malloc_r+0x730>
  108680:	e1a017a3 	lsr	r1, r3, #15
  108684:	e2810078 	add	r0, r1, #120	; 0x78
  108688:	e2811077 	add	r1, r1, #119	; 0x77
  10868c:	e1a00180 	lsl	r0, r0, #3
  108690:	eaffff32 	b	108360 <_malloc_r+0x3fc>
  108694:	e3002554 	movw	r2, #1364	; 0x554
  108698:	e1510002 	cmp	r1, r2
  10869c:	91a01923 	lsrls	r1, r3, #18
  1086a0:	83a00ffe 	movhi	r0, #1016	; 0x3f8
  1086a4:	83a0107e 	movhi	r1, #126	; 0x7e
  1086a8:	9281007d 	addls	r0, r1, #125	; 0x7d
  1086ac:	9281107c 	addls	r1, r1, #124	; 0x7c
  1086b0:	91a00180 	lslls	r0, r0, #3
  1086b4:	eaffff29 	b	108360 <_malloc_r+0x3fc>
  1086b8:	e5973004 	ldr	r3, [r7, #4]
  1086bc:	eaffff6f 	b	108480 <_malloc_r+0x51c>
  1086c0:	e1a0c1a5 	lsr	ip, r5, #3
  1086c4:	e2852008 	add	r2, r5, #8
  1086c8:	eafffea4 	b	108160 <_malloc_r+0x1fc>
  1086cc:	00130440 	.word	0x00130440

001086d0 <memcpy>:
  1086d0:	e352000f 	cmp	r2, #15
  1086d4:	8a000009 	bhi	108700 <memcpy+0x30>
  1086d8:	e3520000 	cmp	r2, #0
  1086dc:	e1a03000 	mov	r3, r0
  1086e0:	0a00003b 	beq	1087d4 <memcpy+0x104>
  1086e4:	e2433001 	sub	r3, r3, #1
  1086e8:	e0812002 	add	r2, r1, r2
  1086ec:	e4d1c001 	ldrb	ip, [r1], #1
  1086f0:	e1510002 	cmp	r1, r2
  1086f4:	e5e3c001 	strb	ip, [r3, #1]!
  1086f8:	1afffffb 	bne	1086ec <memcpy+0x1c>
  1086fc:	e12fff1e 	bx	lr
  108700:	e1813000 	orr	r3, r1, r0
  108704:	e3130003 	tst	r3, #3
  108708:	1a00002f 	bne	1087cc <memcpy+0xfc>
  10870c:	e92d40f0 	push	{r4, r5, r6, r7, lr}
  108710:	e280c010 	add	ip, r0, #16
  108714:	e2813010 	add	r3, r1, #16
  108718:	e1a0e002 	mov	lr, r2
  10871c:	e24ee010 	sub	lr, lr, #16
  108720:	e2833010 	add	r3, r3, #16
  108724:	e5137020 	ldr	r7, [r3, #-32]	; 0xffffffe0
  108728:	e35e000f 	cmp	lr, #15
  10872c:	e513601c 	ldr	r6, [r3, #-28]	; 0xffffffe4
  108730:	e28cc010 	add	ip, ip, #16
  108734:	e5135018 	ldr	r5, [r3, #-24]	; 0xffffffe8
  108738:	e5134014 	ldr	r4, [r3, #-20]	; 0xffffffec
  10873c:	e50c7020 	str	r7, [ip, #-32]	; 0xffffffe0
  108740:	e50c601c 	str	r6, [ip, #-28]	; 0xffffffe4
  108744:	e50c5018 	str	r5, [ip, #-24]	; 0xffffffe8
  108748:	e50c4014 	str	r4, [ip, #-20]	; 0xffffffec
  10874c:	8afffff2 	bhi	10871c <memcpy+0x4c>
  108750:	e2423010 	sub	r3, r2, #16
  108754:	e202400f 	and	r4, r2, #15
  108758:	e3c3300f 	bic	r3, r3, #15
  10875c:	e3540003 	cmp	r4, #3
  108760:	e2833010 	add	r3, r3, #16
  108764:	e0811003 	add	r1, r1, r3
  108768:	e0803003 	add	r3, r0, r3
  10876c:	9a00001a 	bls	1087dc <memcpy+0x10c>
  108770:	e2435004 	sub	r5, r3, #4
  108774:	e1a0e001 	mov	lr, r1
  108778:	e1a0c004 	mov	ip, r4
  10877c:	e24cc004 	sub	ip, ip, #4
  108780:	e49e6004 	ldr	r6, [lr], #4
  108784:	e35c0003 	cmp	ip, #3
  108788:	e5a56004 	str	r6, [r5, #4]!
  10878c:	8afffffa 	bhi	10877c <memcpy+0xac>
  108790:	e244c004 	sub	ip, r4, #4
  108794:	e2022003 	and	r2, r2, #3
  108798:	e3ccc003 	bic	ip, ip, #3
  10879c:	e28cc004 	add	ip, ip, #4
  1087a0:	e081100c 	add	r1, r1, ip
  1087a4:	e083300c 	add	r3, r3, ip
  1087a8:	e3520000 	cmp	r2, #0
  1087ac:	12433001 	subne	r3, r3, #1
  1087b0:	10812002 	addne	r2, r1, r2
  1087b4:	0a000007 	beq	1087d8 <memcpy+0x108>
  1087b8:	e4d1c001 	ldrb	ip, [r1], #1
  1087bc:	e1510002 	cmp	r1, r2
  1087c0:	e5e3c001 	strb	ip, [r3, #1]!
  1087c4:	1afffffb 	bne	1087b8 <memcpy+0xe8>
  1087c8:	e8bd80f0 	pop	{r4, r5, r6, r7, pc}
  1087cc:	e1a03000 	mov	r3, r0
  1087d0:	eaffffc3 	b	1086e4 <memcpy+0x14>
  1087d4:	e12fff1e 	bx	lr
  1087d8:	e8bd80f0 	pop	{r4, r5, r6, r7, pc}
  1087dc:	e1a02004 	mov	r2, r4
  1087e0:	eafffff0 	b	1087a8 <memcpy+0xd8>

001087e4 <memset>:
  1087e4:	e3100003 	tst	r0, #3
  1087e8:	0a00003f 	beq	1088ec <memset+0x108>
  1087ec:	e3520000 	cmp	r2, #0
  1087f0:	e2422001 	sub	r2, r2, #1
  1087f4:	012fff1e 	bxeq	lr
  1087f8:	e6efc071 	uxtb	ip, r1
  1087fc:	e1a03000 	mov	r3, r0
  108800:	ea000002 	b	108810 <memset+0x2c>
  108804:	e2422001 	sub	r2, r2, #1
  108808:	e3720001 	cmn	r2, #1
  10880c:	012fff1e 	bxeq	lr
  108810:	e4c3c001 	strb	ip, [r3], #1
  108814:	e3130003 	tst	r3, #3
  108818:	1afffff9 	bne	108804 <memset+0x20>
  10881c:	e3520003 	cmp	r2, #3
  108820:	9a000029 	bls	1088cc <memset+0xe8>
  108824:	e92d4010 	push	{r4, lr}
  108828:	e6efe071 	uxtb	lr, r1
  10882c:	e352000f 	cmp	r2, #15
  108830:	e18ee40e 	orr	lr, lr, lr, lsl #8
  108834:	e18ee80e 	orr	lr, lr, lr, lsl #16
  108838:	9a000010 	bls	108880 <memset+0x9c>
  10883c:	e283c010 	add	ip, r3, #16
  108840:	e1a04002 	mov	r4, r2
  108844:	e2444010 	sub	r4, r4, #16
  108848:	e50ce010 	str	lr, [ip, #-16]
  10884c:	e354000f 	cmp	r4, #15
  108850:	e50ce00c 	str	lr, [ip, #-12]
  108854:	e50ce008 	str	lr, [ip, #-8]
  108858:	e28cc010 	add	ip, ip, #16
  10885c:	e50ce014 	str	lr, [ip, #-20]	; 0xffffffec
  108860:	8afffff7 	bhi	108844 <memset+0x60>
  108864:	e242c010 	sub	ip, r2, #16
  108868:	e202200f 	and	r2, r2, #15
  10886c:	e3ccc00f 	bic	ip, ip, #15
  108870:	e3520003 	cmp	r2, #3
  108874:	e28cc010 	add	ip, ip, #16
  108878:	e083300c 	add	r3, r3, ip
  10887c:	9a00000a 	bls	1088ac <memset+0xc8>
  108880:	e1a04003 	mov	r4, r3
  108884:	e1a0c002 	mov	ip, r2
  108888:	e24cc004 	sub	ip, ip, #4
  10888c:	e484e004 	str	lr, [r4], #4
  108890:	e35c0003 	cmp	ip, #3
  108894:	8afffffb 	bhi	108888 <memset+0xa4>
  108898:	e242c004 	sub	ip, r2, #4
  10889c:	e2022003 	and	r2, r2, #3
  1088a0:	e3ccc003 	bic	ip, ip, #3
  1088a4:	e28cc004 	add	ip, ip, #4
  1088a8:	e083300c 	add	r3, r3, ip
  1088ac:	e3520000 	cmp	r2, #0
  1088b0:	08bd8010 	popeq	{r4, pc}
  1088b4:	e6ef1071 	uxtb	r1, r1
  1088b8:	e0832002 	add	r2, r3, r2
  1088bc:	e4c31001 	strb	r1, [r3], #1
  1088c0:	e1520003 	cmp	r2, r3
  1088c4:	1afffffc 	bne	1088bc <memset+0xd8>
  1088c8:	e8bd8010 	pop	{r4, pc}
  1088cc:	e3520000 	cmp	r2, #0
  1088d0:	012fff1e 	bxeq	lr
  1088d4:	e6ef1071 	uxtb	r1, r1
  1088d8:	e0832002 	add	r2, r3, r2
  1088dc:	e4c31001 	strb	r1, [r3], #1
  1088e0:	e1520003 	cmp	r2, r3
  1088e4:	1afffffc 	bne	1088dc <memset+0xf8>
  1088e8:	e12fff1e 	bx	lr
  1088ec:	e1a03000 	mov	r3, r0
  1088f0:	eaffffc9 	b	10881c <memset+0x38>

001088f4 <__malloc_lock>:
  1088f4:	e3010404 	movw	r0, #5124	; 0x1404
  1088f8:	e3400013 	movt	r0, #19
  1088fc:	ea002148 	b	110e24 <__generic_gxx_recursive_mutex_lock>

00108900 <__malloc_unlock>:
  108900:	e3010404 	movw	r0, #5124	; 0x1404
  108904:	e3400013 	movt	r0, #19
  108908:	ea002143 	b	110e1c <__generic_gxx_recursive_mutex_unlock>

0010890c <__init___malloc_lock_object>:
  10890c:	e3010404 	movw	r0, #5124	; 0x1404
  108910:	e3400013 	movt	r0, #19
  108914:	ea00213c 	b	110e0c <__generic_gxx_recursive_mutex_init_function>

00108918 <_printf_r>:
  108918:	e92d000e 	push	{r1, r2, r3}
  10891c:	e52de004 	push	{lr}		; (str lr, [sp, #-4]!)
  108920:	e24dd008 	sub	sp, sp, #8
  108924:	e28dc010 	add	ip, sp, #16
  108928:	e1a0300c 	mov	r3, ip
  10892c:	e59d200c 	ldr	r2, [sp, #12]
  108930:	e5901008 	ldr	r1, [r0, #8]
  108934:	e58dc004 	str	ip, [sp, #4]
  108938:	eb000028 	bl	1089e0 <_vfprintf_r>
  10893c:	e28dd008 	add	sp, sp, #8
  108940:	e49de004 	pop	{lr}		; (ldr lr, [sp], #4)
  108944:	e28dd00c 	add	sp, sp, #12
  108948:	e12fff1e 	bx	lr

0010894c <printf>:
  10894c:	e92d000f 	push	{r0, r1, r2, r3}
  108950:	e52de004 	push	{lr}		; (str lr, [sp, #-4]!)
  108954:	e24dd00c 	sub	sp, sp, #12
  108958:	ebfffd71 	bl	107f24 <__getreent>
  10895c:	e28dc014 	add	ip, sp, #20
  108960:	e5901008 	ldr	r1, [r0, #8]
  108964:	e59d2010 	ldr	r2, [sp, #16]
  108968:	e1a0300c 	mov	r3, ip
  10896c:	e58dc004 	str	ip, [sp, #4]
  108970:	eb00001a 	bl	1089e0 <_vfprintf_r>
  108974:	e28dd00c 	add	sp, sp, #12
  108978:	e49de004 	pop	{lr}		; (ldr lr, [sp], #4)
  10897c:	e28dd010 	add	sp, sp, #16
  108980:	e12fff1e 	bx	lr

00108984 <_putchar_r>:
  108984:	e5902008 	ldr	r2, [r0, #8]
  108988:	ea001407 	b	10d9ac <_putc_r>

0010898c <putchar>:
  10898c:	e92d4010 	push	{r4, lr}
  108990:	e1a04000 	mov	r4, r0
  108994:	ebfffd62 	bl	107f24 <__getreent>
  108998:	e1a01004 	mov	r1, r4
  10899c:	e5902008 	ldr	r2, [r0, #8]
  1089a0:	e8bd4010 	pop	{r4, lr}
  1089a4:	ea001400 	b	10d9ac <_putc_r>

001089a8 <_sbrk_r>:
  1089a8:	e92d4070 	push	{r4, r5, r6, lr}
  1089ac:	e3014410 	movw	r4, #5136	; 0x1410
  1089b0:	e3a03000 	mov	r3, #0
  1089b4:	e1a05000 	mov	r5, r0
  1089b8:	e3404013 	movt	r4, #19
  1089bc:	e1a00001 	mov	r0, r1
  1089c0:	e5843000 	str	r3, [r4]
  1089c4:	eb00214d 	bl	110f00 <_sbrk>
  1089c8:	e3700001 	cmn	r0, #1
  1089cc:	18bd8070 	popne	{r4, r5, r6, pc}
  1089d0:	e5943000 	ldr	r3, [r4]
  1089d4:	e3530000 	cmp	r3, #0
  1089d8:	15853000 	strne	r3, [r5]
  1089dc:	e8bd8070 	pop	{r4, r5, r6, pc}

001089e0 <_vfprintf_r>:
  1089e0:	e92d4ff0 	push	{r4, r5, r6, r7, r8, r9, sl, fp, lr}
  1089e4:	e1a05003 	mov	r5, r3
  1089e8:	ed2d8b06 	vpush	{d8-d10}
  1089ec:	e24ddf41 	sub	sp, sp, #260	; 0x104
  1089f0:	e1a0a001 	mov	sl, r1
  1089f4:	e1a09002 	mov	r9, r2
  1089f8:	e1a04000 	mov	r4, r0
  1089fc:	e58d001c 	str	r0, [sp, #28]
  108a00:	eb001013 	bl	10ca54 <_localeconv_r>
  108a04:	e5903000 	ldr	r3, [r0]
  108a08:	e58d5030 	str	r5, [sp, #48]	; 0x30
  108a0c:	e1a00003 	mov	r0, r3
  108a10:	e58d304c 	str	r3, [sp, #76]	; 0x4c
  108a14:	fa0014c9 	blx	10dd40 <strlen>
  108a18:	e3540000 	cmp	r4, #0
  108a1c:	e58d0048 	str	r0, [sp, #72]	; 0x48
  108a20:	0a000002 	beq	108a30 <_vfprintf_r+0x50>
  108a24:	e5943038 	ldr	r3, [r4, #56]	; 0x38
  108a28:	e3530000 	cmp	r3, #0
  108a2c:	0a00014e 	beq	108f6c <_vfprintf_r+0x58c>
  108a30:	e59a3064 	ldr	r3, [sl, #100]	; 0x64
  108a34:	e3130001 	tst	r3, #1
  108a38:	e1da30fc 	ldrsh	r3, [sl, #12]
  108a3c:	e6ff1073 	uxth	r1, r3
  108a40:	1a000001 	bne	108a4c <_vfprintf_r+0x6c>
  108a44:	e3110c02 	tst	r1, #512	; 0x200
  108a48:	0a000156 	beq	108fa8 <_vfprintf_r+0x5c8>
  108a4c:	e3110a02 	tst	r1, #8192	; 0x2000
  108a50:	1a000005 	bne	108a6c <_vfprintf_r+0x8c>
  108a54:	e59a2064 	ldr	r2, [sl, #100]	; 0x64
  108a58:	e3833a02 	orr	r3, r3, #8192	; 0x2000
  108a5c:	e6ff1073 	uxth	r1, r3
  108a60:	e1ca30bc 	strh	r3, [sl, #12]
  108a64:	e3c23a02 	bic	r3, r2, #8192	; 0x2000
  108a68:	e58a3064 	str	r3, [sl, #100]	; 0x64
  108a6c:	e3110008 	tst	r1, #8
  108a70:	0a000118 	beq	108ed8 <_vfprintf_r+0x4f8>
  108a74:	e59a3010 	ldr	r3, [sl, #16]
  108a78:	e3530000 	cmp	r3, #0
  108a7c:	0a000115 	beq	108ed8 <_vfprintf_r+0x4f8>
  108a80:	e201301a 	and	r3, r1, #26
  108a84:	e353000a 	cmp	r3, #10
  108a88:	0a00011b 	beq	108efc <_vfprintf_r+0x51c>
  108a8c:	ed9f8be7 	vldr	d8, [pc, #924]	; 108e30 <_vfprintf_r+0x450>
  108a90:	e305176c 	movw	r1, #22380	; 0x576c
  108a94:	ed9f9be7 	vldr	d9, [pc, #924]	; 108e38 <_vfprintf_r+0x458>
  108a98:	e3060667 	movw	r0, #26215	; 0x6667
  108a9c:	e3a03000 	mov	r3, #0
  108aa0:	e3401012 	movt	r1, #18
  108aa4:	e3460666 	movt	r0, #26214	; 0x6666
  108aa8:	e28d80c0 	add	r8, sp, #192	; 0xc0
  108aac:	e58d3044 	str	r3, [sp, #68]	; 0x44
  108ab0:	e58d3050 	str	r3, [sp, #80]	; 0x50
  108ab4:	e58d3060 	str	r3, [sp, #96]	; 0x60
  108ab8:	e58d3020 	str	r3, [sp, #32]
  108abc:	e58d103c 	str	r1, [sp, #60]	; 0x3c
  108ac0:	e58d0064 	str	r0, [sp, #100]	; 0x64
  108ac4:	e58d3094 	str	r3, [sp, #148]	; 0x94
  108ac8:	e58d3090 	str	r3, [sp, #144]	; 0x90
  108acc:	e58d808c 	str	r8, [sp, #140]	; 0x8c
  108ad0:	e58da024 	str	sl, [sp, #36]	; 0x24
  108ad4:	e5d93000 	ldrb	r3, [r9]
  108ad8:	e1a05009 	mov	r5, r9
  108adc:	e3530025 	cmp	r3, #37	; 0x25
  108ae0:	13530000 	cmpne	r3, #0
  108ae4:	0a000013 	beq	108b38 <_vfprintf_r+0x158>
  108ae8:	e5f53001 	ldrb	r3, [r5, #1]!
  108aec:	e3530000 	cmp	r3, #0
  108af0:	13530025 	cmpne	r3, #37	; 0x25
  108af4:	1afffffb 	bne	108ae8 <_vfprintf_r+0x108>
  108af8:	e0554009 	subs	r4, r5, r9
  108afc:	0a00000d 	beq	108b38 <_vfprintf_r+0x158>
  108b00:	e59d3090 	ldr	r3, [sp, #144]	; 0x90
  108b04:	e59d2094 	ldr	r2, [sp, #148]	; 0x94
  108b08:	e5889000 	str	r9, [r8]
  108b0c:	e2833001 	add	r3, r3, #1
  108b10:	e5884004 	str	r4, [r8, #4]
  108b14:	e3530007 	cmp	r3, #7
  108b18:	e0822004 	add	r2, r2, r4
  108b1c:	e58d3090 	str	r3, [sp, #144]	; 0x90
  108b20:	d2888008 	addle	r8, r8, #8
  108b24:	e58d2094 	str	r2, [sp, #148]	; 0x94
  108b28:	ca000107 	bgt	108f4c <_vfprintf_r+0x56c>
  108b2c:	e59d3020 	ldr	r3, [sp, #32]
  108b30:	e0833004 	add	r3, r3, r4
  108b34:	e58d3020 	str	r3, [sp, #32]
  108b38:	e5d53000 	ldrb	r3, [r5]
  108b3c:	e3530000 	cmp	r3, #0
  108b40:	0a0002f9 	beq	10972c <_vfprintf_r+0xd4c>
  108b44:	e2859001 	add	r9, r5, #1
  108b48:	e5d55001 	ldrb	r5, [r5, #1]
  108b4c:	e3a03000 	mov	r3, #0
  108b50:	e3e04000 	mvn	r4, #0
  108b54:	e1a02003 	mov	r2, r3
  108b58:	e1a01003 	mov	r1, r3
  108b5c:	e1a0a003 	mov	sl, r3
  108b60:	e1a00004 	mov	r0, r4
  108b64:	e5cd306f 	strb	r3, [sp, #111]	; 0x6f
  108b68:	e58d3028 	str	r3, [sp, #40]	; 0x28
  108b6c:	e2899001 	add	r9, r9, #1
  108b70:	e2453020 	sub	r3, r5, #32
  108b74:	e3530058 	cmp	r3, #88	; 0x58
  108b78:	979ff103 	ldrls	pc, [pc, r3, lsl #2]
  108b7c:	ea000221 	b	109408 <_vfprintf_r+0xa28>
  108b80:	0010920c 	.word	0x0010920c
  108b84:	00109408 	.word	0x00109408
  108b88:	00109408 	.word	0x00109408
  108b8c:	00109338 	.word	0x00109338
  108b90:	00109408 	.word	0x00109408
  108b94:	00109408 	.word	0x00109408
  108b98:	00109408 	.word	0x00109408
  108b9c:	00109408 	.word	0x00109408
  108ba0:	00109408 	.word	0x00109408
  108ba4:	00109408 	.word	0x00109408
  108ba8:	001092dc 	.word	0x001092dc
  108bac:	00109278 	.word	0x00109278
  108bb0:	00109408 	.word	0x00109408
  108bb4:	00108fcc 	.word	0x00108fcc
  108bb8:	0010922c 	.word	0x0010922c
  108bbc:	00109408 	.word	0x00109408
  108bc0:	0010926c 	.word	0x0010926c
  108bc4:	00109300 	.word	0x00109300
  108bc8:	00109300 	.word	0x00109300
  108bcc:	00109300 	.word	0x00109300
  108bd0:	00109300 	.word	0x00109300
  108bd4:	00109300 	.word	0x00109300
  108bd8:	00109300 	.word	0x00109300
  108bdc:	00109300 	.word	0x00109300
  108be0:	00109300 	.word	0x00109300
  108be4:	00109300 	.word	0x00109300
  108be8:	00109408 	.word	0x00109408
  108bec:	00109408 	.word	0x00109408
  108bf0:	00109408 	.word	0x00109408
  108bf4:	00109408 	.word	0x00109408
  108bf8:	00109408 	.word	0x00109408
  108bfc:	00109408 	.word	0x00109408
  108c00:	00109408 	.word	0x00109408
  108c04:	00109408 	.word	0x00109408
  108c08:	00109408 	.word	0x00109408
  108c0c:	00109408 	.word	0x00109408
  108c10:	00109328 	.word	0x00109328
  108c14:	00109344 	.word	0x00109344
  108c18:	00109408 	.word	0x00109408
  108c1c:	00109344 	.word	0x00109344
  108c20:	00109408 	.word	0x00109408
  108c24:	00109408 	.word	0x00109408
  108c28:	00109408 	.word	0x00109408
  108c2c:	00109408 	.word	0x00109408
  108c30:	00109220 	.word	0x00109220
  108c34:	00109408 	.word	0x00109408
  108c38:	00109408 	.word	0x00109408
  108c3c:	00108d1c 	.word	0x00108d1c
  108c40:	00109408 	.word	0x00109408
  108c44:	00109408 	.word	0x00109408
  108c48:	00109408 	.word	0x00109408
  108c4c:	00109408 	.word	0x00109408
  108c50:	00109408 	.word	0x00109408
  108c54:	00108ce4 	.word	0x00108ce4
  108c58:	00109408 	.word	0x00109408
  108c5c:	00109408 	.word	0x00109408
  108c60:	001092c4 	.word	0x001092c4
  108c64:	00109408 	.word	0x00109408
  108c68:	00109408 	.word	0x00109408
  108c6c:	00109408 	.word	0x00109408
  108c70:	00109408 	.word	0x00109408
  108c74:	00109408 	.word	0x00109408
  108c78:	00109408 	.word	0x00109408
  108c7c:	00109408 	.word	0x00109408
  108c80:	00109408 	.word	0x00109408
  108c84:	00109408 	.word	0x00109408
  108c88:	00109408 	.word	0x00109408
  108c8c:	00108fd8 	.word	0x00108fd8
  108c90:	00109018 	.word	0x00109018
  108c94:	00109344 	.word	0x00109344
  108c98:	00109344 	.word	0x00109344
  108c9c:	00109344 	.word	0x00109344
  108ca0:	001090c4 	.word	0x001090c4
  108ca4:	00109018 	.word	0x00109018
  108ca8:	00109408 	.word	0x00109408
  108cac:	00109408 	.word	0x00109408
  108cb0:	001090d0 	.word	0x001090d0
  108cb4:	00109408 	.word	0x00109408
  108cb8:	001090ec 	.word	0x001090ec
  108cbc:	00108d20 	.word	0x00108d20
  108cc0:	00109288 	.word	0x00109288
  108cc4:	00109128 	.word	0x00109128
  108cc8:	00109408 	.word	0x00109408
  108ccc:	00109134 	.word	0x00109134
  108cd0:	00109408 	.word	0x00109408
  108cd4:	00108ce8 	.word	0x00108ce8
  108cd8:	00109408 	.word	0x00109408
  108cdc:	00109408 	.word	0x00109408
  108ce0:	001091a4 	.word	0x001091a4
  108ce4:	e38aa010 	orr	sl, sl, #16
  108ce8:	e31a0020 	tst	sl, #32
  108cec:	e59d3030 	ldr	r3, [sp, #48]	; 0x30
  108cf0:	1a0001b5 	bne	1093cc <_vfprintf_r+0x9ec>
  108cf4:	e31a0010 	tst	sl, #16
  108cf8:	1a000412 	bne	109d48 <_vfprintf_r+0x1368>
  108cfc:	e31a0040 	tst	sl, #64	; 0x40
  108d00:	0a000410 	beq	109d48 <_vfprintf_r+0x1368>
  108d04:	e1d360b0 	ldrh	r6, [r3]
  108d08:	e2833004 	add	r3, r3, #4
  108d0c:	e3a07000 	mov	r7, #0
  108d10:	e3a02001 	mov	r2, #1
  108d14:	e58d3030 	str	r3, [sp, #48]	; 0x30
  108d18:	ea00000c 	b	108d50 <_vfprintf_r+0x370>
  108d1c:	e38aa010 	orr	sl, sl, #16
  108d20:	e21a7020 	ands	r7, sl, #32
  108d24:	1a0001af 	bne	1093e8 <_vfprintf_r+0xa08>
  108d28:	e21a3010 	ands	r3, sl, #16
  108d2c:	1a0003f2 	bne	109cfc <_vfprintf_r+0x131c>
  108d30:	e21a7040 	ands	r7, sl, #64	; 0x40
  108d34:	0a0003f0 	beq	109cfc <_vfprintf_r+0x131c>
  108d38:	e1a02003 	mov	r2, r3
  108d3c:	e59d3030 	ldr	r3, [sp, #48]	; 0x30
  108d40:	e3a07000 	mov	r7, #0
  108d44:	e1d360b0 	ldrh	r6, [r3]
  108d48:	e2833004 	add	r3, r3, #4
  108d4c:	e58d3030 	str	r3, [sp, #48]	; 0x30
  108d50:	e3a03000 	mov	r3, #0
  108d54:	e1a0b003 	mov	fp, r3
  108d58:	e5cd306f 	strb	r3, [sp, #111]	; 0x6f
  108d5c:	e3740001 	cmn	r4, #1
  108d60:	0a0000c2 	beq	109070 <_vfprintf_r+0x690>
  108d64:	e1863007 	orr	r3, r6, r7
  108d68:	e3ca1080 	bic	r1, sl, #128	; 0x80
  108d6c:	e3530000 	cmp	r3, #0
  108d70:	03540000 	cmpeq	r4, #0
  108d74:	e58d1018 	str	r1, [sp, #24]
  108d78:	13a03001 	movne	r3, #1
  108d7c:	03a03000 	moveq	r3, #0
  108d80:	1a000361 	bne	109b0c <_vfprintf_r+0x112c>
  108d84:	e3520000 	cmp	r2, #0
  108d88:	1a00035b 	bne	109afc <_vfprintf_r+0x111c>
  108d8c:	e21a3001 	ands	r3, sl, #1
  108d90:	e58d302c 	str	r3, [sp, #44]	; 0x2c
  108d94:	028d30c0 	addeq	r3, sp, #192	; 0xc0
  108d98:	058d3038 	streq	r3, [sp, #56]	; 0x38
  108d9c:	128d2c01 	addne	r2, sp, #256	; 0x100
  108da0:	13a03030 	movne	r3, #48	; 0x30
  108da4:	15623041 	strbne	r3, [r2, #-65]!	; 0xffffffbf
  108da8:	158d2038 	strne	r2, [sp, #56]	; 0x38
  108dac:	e59d302c 	ldr	r3, [sp, #44]	; 0x2c
  108db0:	e3a02000 	mov	r2, #0
  108db4:	e58d2040 	str	r2, [sp, #64]	; 0x40
  108db8:	e1540003 	cmp	r4, r3
  108dbc:	a1a07004 	movge	r7, r4
  108dc0:	b1a07003 	movlt	r7, r3
  108dc4:	e35b0000 	cmp	fp, #0
  108dc8:	0a000000 	beq	108dd0 <_vfprintf_r+0x3f0>
  108dcc:	e2877001 	add	r7, r7, #1
  108dd0:	e59d3018 	ldr	r3, [sp, #24]
  108dd4:	e213a002 	ands	sl, r3, #2
  108dd8:	e59d3018 	ldr	r3, [sp, #24]
  108ddc:	12877002 	addne	r7, r7, #2
  108de0:	e2133084 	ands	r3, r3, #132	; 0x84
  108de4:	e58d3034 	str	r3, [sp, #52]	; 0x34
  108de8:	1a0001a5 	bne	109484 <_vfprintf_r+0xaa4>
  108dec:	e59d3028 	ldr	r3, [sp, #40]	; 0x28
  108df0:	e0436007 	sub	r6, r3, r7
  108df4:	e3560000 	cmp	r6, #0
  108df8:	da0001a1 	ble	109484 <_vfprintf_r+0xaa4>
  108dfc:	e3560010 	cmp	r6, #16
  108e00:	e59d2094 	ldr	r2, [sp, #148]	; 0x94
  108e04:	d59d1090 	ldrle	r1, [sp, #144]	; 0x90
  108e08:	da000027 	ble	108eac <_vfprintf_r+0x4cc>
  108e0c:	e58d5054 	str	r5, [sp, #84]	; 0x54
  108e10:	e3a0b010 	mov	fp, #16
  108e14:	e58d4058 	str	r4, [sp, #88]	; 0x58
  108e18:	e58d705c 	str	r7, [sp, #92]	; 0x5c
  108e1c:	e59d1090 	ldr	r1, [sp, #144]	; 0x90
  108e20:	e59d401c 	ldr	r4, [sp, #28]
  108e24:	e59d5024 	ldr	r5, [sp, #36]	; 0x24
  108e28:	e59d703c 	ldr	r7, [sp, #60]	; 0x3c
  108e2c:	ea000007 	b	108e50 <_vfprintf_r+0x470>
	...
  108e38:	ffffffff 	.word	0xffffffff
  108e3c:	7fefffff 	.word	0x7fefffff
  108e40:	0012577c 	.word	0x0012577c
  108e44:	e2466010 	sub	r6, r6, #16
  108e48:	e3560010 	cmp	r6, #16
  108e4c:	da000013 	ble	108ea0 <_vfprintf_r+0x4c0>
  108e50:	e2811001 	add	r1, r1, #1
  108e54:	e2822010 	add	r2, r2, #16
  108e58:	e3510007 	cmp	r1, #7
  108e5c:	e8880880 	stm	r8, {r7, fp}
  108e60:	e58d1090 	str	r1, [sp, #144]	; 0x90
  108e64:	d2888008 	addle	r8, r8, #8
  108e68:	e58d2094 	str	r2, [sp, #148]	; 0x94
  108e6c:	dafffff4 	ble	108e44 <_vfprintf_r+0x464>
  108e70:	e28d208c 	add	r2, sp, #140	; 0x8c
  108e74:	e1a01005 	mov	r1, r5
  108e78:	e1a00004 	mov	r0, r4
  108e7c:	e28d80c0 	add	r8, sp, #192	; 0xc0
  108e80:	eb00140f 	bl	10dec4 <__sprint_r>
  108e84:	e3500000 	cmp	r0, #0
  108e88:	1a00029a 	bne	1098f8 <_vfprintf_r+0xf18>
  108e8c:	e2466010 	sub	r6, r6, #16
  108e90:	e59d2094 	ldr	r2, [sp, #148]	; 0x94
  108e94:	e3560010 	cmp	r6, #16
  108e98:	e59d1090 	ldr	r1, [sp, #144]	; 0x90
  108e9c:	caffffeb 	bgt	108e50 <_vfprintf_r+0x470>
  108ea0:	e59d5054 	ldr	r5, [sp, #84]	; 0x54
  108ea4:	e59d4058 	ldr	r4, [sp, #88]	; 0x58
  108ea8:	e59d705c 	ldr	r7, [sp, #92]	; 0x5c
  108eac:	e2811001 	add	r1, r1, #1
  108eb0:	e59d303c 	ldr	r3, [sp, #60]	; 0x3c
  108eb4:	e3510007 	cmp	r1, #7
  108eb8:	e0862002 	add	r2, r6, r2
  108ebc:	e58d1090 	str	r1, [sp, #144]	; 0x90
  108ec0:	e58d2094 	str	r2, [sp, #148]	; 0x94
  108ec4:	e8880048 	stm	r8, {r3, r6}
  108ec8:	ca000165 	bgt	109464 <_vfprintf_r+0xa84>
  108ecc:	e2888008 	add	r8, r8, #8
  108ed0:	e5ddb06f 	ldrb	fp, [sp, #111]	; 0x6f
  108ed4:	ea00016b 	b	109488 <_vfprintf_r+0xaa8>
  108ed8:	e1a0100a 	mov	r1, sl
  108edc:	e59d001c 	ldr	r0, [sp, #28]
  108ee0:	eb0006c7 	bl	10aa04 <__swsetup_r>
  108ee4:	e3500000 	cmp	r0, #0
  108ee8:	1a000022 	bne	108f78 <_vfprintf_r+0x598>
  108eec:	e1da10bc 	ldrh	r1, [sl, #12]
  108ef0:	e201301a 	and	r3, r1, #26
  108ef4:	e353000a 	cmp	r3, #10
  108ef8:	1afffee3 	bne	108a8c <_vfprintf_r+0xac>
  108efc:	e1da30fe 	ldrsh	r3, [sl, #14]
  108f00:	e3530000 	cmp	r3, #0
  108f04:	bafffee0 	blt	108a8c <_vfprintf_r+0xac>
  108f08:	e59a3064 	ldr	r3, [sl, #100]	; 0x64
  108f0c:	e3130001 	tst	r3, #1
  108f10:	1a000003 	bne	108f24 <_vfprintf_r+0x544>
  108f14:	e3110c02 	tst	r1, #512	; 0x200
  108f18:	1a000001 	bne	108f24 <_vfprintf_r+0x544>
  108f1c:	e28a0058 	add	r0, sl, #88	; 0x58
  108f20:	eb001fbd 	bl	110e1c <__generic_gxx_recursive_mutex_unlock>
  108f24:	e1a03005 	mov	r3, r5
  108f28:	e1a02009 	mov	r2, r9
  108f2c:	e1a0100a 	mov	r1, sl
  108f30:	e59d001c 	ldr	r0, [sp, #28]
  108f34:	eb00067f 	bl	10a938 <__sbprintf>
  108f38:	e58d0020 	str	r0, [sp, #32]
  108f3c:	e59d0020 	ldr	r0, [sp, #32]
  108f40:	e28ddf41 	add	sp, sp, #260	; 0x104
  108f44:	ecbd8b06 	vpop	{d8-d10}
  108f48:	e8bd8ff0 	pop	{r4, r5, r6, r7, r8, r9, sl, fp, pc}
  108f4c:	e28d208c 	add	r2, sp, #140	; 0x8c
  108f50:	e59d1024 	ldr	r1, [sp, #36]	; 0x24
  108f54:	e59d001c 	ldr	r0, [sp, #28]
  108f58:	eb0013d9 	bl	10dec4 <__sprint_r>
  108f5c:	e3500000 	cmp	r0, #0
  108f60:	1a0002e3 	bne	109af4 <_vfprintf_r+0x1114>
  108f64:	e28d80c0 	add	r8, sp, #192	; 0xc0
  108f68:	eafffeef 	b	108b2c <_vfprintf_r+0x14c>
  108f6c:	e59d001c 	ldr	r0, [sp, #28]
  108f70:	eb000cf2 	bl	10c340 <__sinit>
  108f74:	eafffead 	b	108a30 <_vfprintf_r+0x50>
  108f78:	e59a3064 	ldr	r3, [sl, #100]	; 0x64
  108f7c:	e3130001 	tst	r3, #1
  108f80:	1a000002 	bne	108f90 <_vfprintf_r+0x5b0>
  108f84:	e1da30bc 	ldrh	r3, [sl, #12]
  108f88:	e3130c02 	tst	r3, #512	; 0x200
  108f8c:	0a0004cd 	beq	10a2c8 <_vfprintf_r+0x18e8>
  108f90:	e3e03000 	mvn	r3, #0
  108f94:	e58d3020 	str	r3, [sp, #32]
  108f98:	e59d0020 	ldr	r0, [sp, #32]
  108f9c:	e28ddf41 	add	sp, sp, #260	; 0x104
  108fa0:	ecbd8b06 	vpop	{d8-d10}
  108fa4:	e8bd8ff0 	pop	{r4, r5, r6, r7, r8, r9, sl, fp, pc}
  108fa8:	e28a0058 	add	r0, sl, #88	; 0x58
  108fac:	eb001f9c 	bl	110e24 <__generic_gxx_recursive_mutex_lock>
  108fb0:	e1da30fc 	ldrsh	r3, [sl, #12]
  108fb4:	e6ff1073 	uxth	r1, r3
  108fb8:	eafffea3 	b	108a4c <_vfprintf_r+0x6c>
  108fbc:	e59dc028 	ldr	ip, [sp, #40]	; 0x28
  108fc0:	e58d3030 	str	r3, [sp, #48]	; 0x30
  108fc4:	e26cc000 	rsb	ip, ip, #0
  108fc8:	e58dc028 	str	ip, [sp, #40]	; 0x28
  108fcc:	e38aa004 	orr	sl, sl, #4
  108fd0:	e5d95000 	ldrb	r5, [r9]
  108fd4:	eafffee4 	b	108b6c <_vfprintf_r+0x18c>
  108fd8:	e59d1030 	ldr	r1, [sp, #48]	; 0x30
  108fdc:	e3a03000 	mov	r3, #0
  108fe0:	e1a0b003 	mov	fp, r3
  108fe4:	e5cd306f 	strb	r3, [sp, #111]	; 0x6f
  108fe8:	e1a04003 	mov	r4, r3
  108fec:	e58d3040 	str	r3, [sp, #64]	; 0x40
  108ff0:	e5912000 	ldr	r2, [r1]
  108ff4:	e2813004 	add	r3, r1, #4
  108ff8:	e3a07001 	mov	r7, #1
  108ffc:	e58d3030 	str	r3, [sp, #48]	; 0x30
  109000:	e28d3098 	add	r3, sp, #152	; 0x98
  109004:	e58da018 	str	sl, [sp, #24]
  109008:	e5cd2098 	strb	r2, [sp, #152]	; 0x98
  10900c:	e58d702c 	str	r7, [sp, #44]	; 0x2c
  109010:	e58d3038 	str	r3, [sp, #56]	; 0x38
  109014:	eaffff6d 	b	108dd0 <_vfprintf_r+0x3f0>
  109018:	e3520000 	cmp	r2, #0
  10901c:	15cd106f 	strbne	r1, [sp, #111]	; 0x6f
  109020:	e31a0020 	tst	sl, #32
  109024:	e59d3030 	ldr	r3, [sp, #48]	; 0x30
  109028:	1a0003d4 	bne	109f80 <_vfprintf_r+0x15a0>
  10902c:	e31a0010 	tst	sl, #16
  109030:	1a000338 	bne	109d18 <_vfprintf_r+0x1338>
  109034:	e31a0040 	tst	sl, #64	; 0x40
  109038:	0a000336 	beq	109d18 <_vfprintf_r+0x1338>
  10903c:	e1d360f0 	ldrsh	r6, [r3]
  109040:	e2833004 	add	r3, r3, #4
  109044:	e58d3030 	str	r3, [sp, #48]	; 0x30
  109048:	e1a02006 	mov	r2, r6
  10904c:	e1a07fc6 	asr	r7, r6, #31
  109050:	e1a03007 	mov	r3, r7
  109054:	e3520000 	cmp	r2, #0
  109058:	e2d33000 	sbcs	r3, r3, #0
  10905c:	ba000409 	blt	10a088 <_vfprintf_r+0x16a8>
  109060:	e3740001 	cmn	r4, #1
  109064:	e5ddb06f 	ldrb	fp, [sp, #111]	; 0x6f
  109068:	e3a02001 	mov	r2, #1
  10906c:	1affff3c 	bne	108d64 <_vfprintf_r+0x384>
  109070:	e3520001 	cmp	r2, #1
  109074:	0a0002a7 	beq	109b18 <_vfprintf_r+0x1138>
  109078:	e3520002 	cmp	r2, #2
  10907c:	128d20c0 	addne	r2, sp, #192	; 0xc0
  109080:	1a000204 	bne	109898 <_vfprintf_r+0xeb8>
  109084:	e59d1050 	ldr	r1, [sp, #80]	; 0x50
  109088:	e28d30c0 	add	r3, sp, #192	; 0xc0
  10908c:	e206200f 	and	r2, r6, #15
  109090:	e1a06226 	lsr	r6, r6, #4
  109094:	e7d12002 	ldrb	r2, [r1, r2]
  109098:	e1866e07 	orr	r6, r6, r7, lsl #28
  10909c:	e1a07227 	lsr	r7, r7, #4
  1090a0:	e1960007 	orrs	r0, r6, r7
  1090a4:	e5632001 	strb	r2, [r3, #-1]!
  1090a8:	1afffff7 	bne	10908c <_vfprintf_r+0x6ac>
  1090ac:	e28d20c0 	add	r2, sp, #192	; 0xc0
  1090b0:	e58d3038 	str	r3, [sp, #56]	; 0x38
  1090b4:	e0423003 	sub	r3, r2, r3
  1090b8:	e58da018 	str	sl, [sp, #24]
  1090bc:	e58d302c 	str	r3, [sp, #44]	; 0x2c
  1090c0:	eaffff39 	b	108dac <_vfprintf_r+0x3cc>
  1090c4:	e38aa040 	orr	sl, sl, #64	; 0x40
  1090c8:	e5d95000 	ldrb	r5, [r9]
  1090cc:	eafffea6 	b	108b6c <_vfprintf_r+0x18c>
  1090d0:	e5d95000 	ldrb	r5, [r9]
  1090d4:	e355006c 	cmp	r5, #108	; 0x6c
  1090d8:	05d95001 	ldrbeq	r5, [r9, #1]
  1090dc:	038aa020 	orreq	sl, sl, #32
  1090e0:	02899001 	addeq	r9, r9, #1
  1090e4:	138aa010 	orrne	sl, sl, #16
  1090e8:	eafffe9f 	b	108b6c <_vfprintf_r+0x18c>
  1090ec:	e3520000 	cmp	r2, #0
  1090f0:	15cd106f 	strbne	r1, [sp, #111]	; 0x6f
  1090f4:	e31a0020 	tst	sl, #32
  1090f8:	1a0004f8 	bne	10a4e0 <_vfprintf_r+0x1b00>
  1090fc:	e31a0010 	tst	sl, #16
  109100:	1a0000d0 	bne	109448 <_vfprintf_r+0xa68>
  109104:	e31a0040 	tst	sl, #64	; 0x40
  109108:	0a0000ce 	beq	109448 <_vfprintf_r+0xa68>
  10910c:	e59d2030 	ldr	r2, [sp, #48]	; 0x30
  109110:	e5923000 	ldr	r3, [r2]
  109114:	e2822004 	add	r2, r2, #4
  109118:	e58d2030 	str	r2, [sp, #48]	; 0x30
  10911c:	e1dd22b0 	ldrh	r2, [sp, #32]
  109120:	e1c320b0 	strh	r2, [r3]
  109124:	eafffe6a 	b	108ad4 <_vfprintf_r+0xf4>
  109128:	e38aa020 	orr	sl, sl, #32
  10912c:	e5d95000 	ldrb	r5, [r9]
  109130:	eafffe8d 	b	108b6c <_vfprintf_r+0x18c>
  109134:	e59d3030 	ldr	r3, [sp, #48]	; 0x30
  109138:	e3a06000 	mov	r6, #0
  10913c:	e5cd606f 	strb	r6, [sp, #111]	; 0x6f
  109140:	e5932000 	ldr	r2, [r3]
  109144:	e2833004 	add	r3, r3, #4
  109148:	e1520006 	cmp	r2, r6
  10914c:	e58d2038 	str	r2, [sp, #56]	; 0x38
  109150:	0a000540 	beq	10a658 <_vfprintf_r+0x1c78>
  109154:	e3740001 	cmn	r4, #1
  109158:	e58d3018 	str	r3, [sp, #24]
  10915c:	0a0004f1 	beq	10a528 <_vfprintf_r+0x1b48>
  109160:	e1a02004 	mov	r2, r4
  109164:	e1a01006 	mov	r1, r6
  109168:	e59d0038 	ldr	r0, [sp, #56]	; 0x38
  10916c:	fa000eab 	blx	10cc20 <memchr>
  109170:	e3500000 	cmp	r0, #0
  109174:	e59d3018 	ldr	r3, [sp, #24]
  109178:	0a000569 	beq	10a724 <_vfprintf_r+0x1d44>
  10917c:	e59d2038 	ldr	r2, [sp, #56]	; 0x38
  109180:	e1a04006 	mov	r4, r6
  109184:	e58d3030 	str	r3, [sp, #48]	; 0x30
  109188:	e58da018 	str	sl, [sp, #24]
  10918c:	e0402002 	sub	r2, r0, r2
  109190:	e58d6040 	str	r6, [sp, #64]	; 0x40
  109194:	e58d202c 	str	r2, [sp, #44]	; 0x2c
  109198:	e1c27fc2 	bic	r7, r2, r2, asr #31
  10919c:	e5ddb06f 	ldrb	fp, [sp, #111]	; 0x6f
  1091a0:	eaffff07 	b	108dc4 <_vfprintf_r+0x3e4>
  1091a4:	e30537b0 	movw	r3, #22448	; 0x57b0
  1091a8:	e3520000 	cmp	r2, #0
  1091ac:	e3403012 	movt	r3, #18
  1091b0:	15cd106f 	strbne	r1, [sp, #111]	; 0x6f
  1091b4:	e58d3050 	str	r3, [sp, #80]	; 0x50
  1091b8:	e31a0020 	tst	sl, #32
  1091bc:	e59d3030 	ldr	r3, [sp, #48]	; 0x30
  1091c0:	1a000376 	bne	109fa0 <_vfprintf_r+0x15c0>
  1091c4:	e31a0010 	tst	sl, #16
  1091c8:	1a0002d9 	bne	109d34 <_vfprintf_r+0x1354>
  1091cc:	e31a0040 	tst	sl, #64	; 0x40
  1091d0:	0a0002d7 	beq	109d34 <_vfprintf_r+0x1354>
  1091d4:	e3a07000 	mov	r7, #0
  1091d8:	e1d360b0 	ldrh	r6, [r3]
  1091dc:	e2833004 	add	r3, r3, #4
  1091e0:	e58d3030 	str	r3, [sp, #48]	; 0x30
  1091e4:	e31a0001 	tst	sl, #1
  1091e8:	0a000266 	beq	109b88 <_vfprintf_r+0x11a8>
  1091ec:	e1963007 	orrs	r3, r6, r7
  1091f0:	0a000264 	beq	109b88 <_vfprintf_r+0x11a8>
  1091f4:	e3a03030 	mov	r3, #48	; 0x30
  1091f8:	e5cd5071 	strb	r5, [sp, #113]	; 0x71
  1091fc:	e38aa002 	orr	sl, sl, #2
  109200:	e5cd3070 	strb	r3, [sp, #112]	; 0x70
  109204:	e3a02002 	mov	r2, #2
  109208:	eafffed0 	b	108d50 <_vfprintf_r+0x370>
  10920c:	e3510000 	cmp	r1, #0
  109210:	e5d95000 	ldrb	r5, [r9]
  109214:	03a02001 	moveq	r2, #1
  109218:	03a01020 	moveq	r1, #32
  10921c:	eafffe52 	b	108b6c <_vfprintf_r+0x18c>
  109220:	e38aa008 	orr	sl, sl, #8
  109224:	e5d95000 	ldrb	r5, [r9]
  109228:	eafffe4f 	b	108b6c <_vfprintf_r+0x18c>
  10922c:	e5d95000 	ldrb	r5, [r9]
  109230:	e289c001 	add	ip, r9, #1
  109234:	e355002a 	cmp	r5, #42	; 0x2a
  109238:	0a0005a6 	beq	10a8d8 <_vfprintf_r+0x1ef8>
  10923c:	e2453030 	sub	r3, r5, #48	; 0x30
  109240:	e1a0900c 	mov	r9, ip
  109244:	e3530009 	cmp	r3, #9
  109248:	e3a04000 	mov	r4, #0
  10924c:	8afffe47 	bhi	108b70 <_vfprintf_r+0x190>
  109250:	e4d95001 	ldrb	r5, [r9], #1
  109254:	e0844104 	add	r4, r4, r4, lsl #2
  109258:	e0834084 	add	r4, r3, r4, lsl #1
  10925c:	e2453030 	sub	r3, r5, #48	; 0x30
  109260:	e3530009 	cmp	r3, #9
  109264:	9afffff9 	bls	109250 <_vfprintf_r+0x870>
  109268:	eafffe40 	b	108b70 <_vfprintf_r+0x190>
  10926c:	e38aa080 	orr	sl, sl, #128	; 0x80
  109270:	e5d95000 	ldrb	r5, [r9]
  109274:	eafffe3c 	b	108b6c <_vfprintf_r+0x18c>
  109278:	e5d95000 	ldrb	r5, [r9]
  10927c:	e3a02001 	mov	r2, #1
  109280:	e3a0102b 	mov	r1, #43	; 0x2b
  109284:	eafffe38 	b	108b6c <_vfprintf_r+0x18c>
  109288:	e59d2030 	ldr	r2, [sp, #48]	; 0x30
  10928c:	e30517b0 	movw	r1, #22448	; 0x57b0
  109290:	e3a03030 	mov	r3, #48	; 0x30
  109294:	e3a05078 	mov	r5, #120	; 0x78
  109298:	e3401012 	movt	r1, #18
  10929c:	e38aa002 	orr	sl, sl, #2
  1092a0:	e5926000 	ldr	r6, [r2]
  1092a4:	e2822004 	add	r2, r2, #4
  1092a8:	e58d2030 	str	r2, [sp, #48]	; 0x30
  1092ac:	e3a07000 	mov	r7, #0
  1092b0:	e5cd3070 	strb	r3, [sp, #112]	; 0x70
  1092b4:	e3a02002 	mov	r2, #2
  1092b8:	e5cd5071 	strb	r5, [sp, #113]	; 0x71
  1092bc:	e58d1050 	str	r1, [sp, #80]	; 0x50
  1092c0:	eafffea2 	b	108d50 <_vfprintf_r+0x370>
  1092c4:	e305379c 	movw	r3, #22428	; 0x579c
  1092c8:	e3520000 	cmp	r2, #0
  1092cc:	e3403012 	movt	r3, #18
  1092d0:	15cd106f 	strbne	r1, [sp, #111]	; 0x6f
  1092d4:	e58d3050 	str	r3, [sp, #80]	; 0x50
  1092d8:	eaffffb6 	b	1091b8 <_vfprintf_r+0x7d8>
  1092dc:	e59d3030 	ldr	r3, [sp, #48]	; 0x30
  1092e0:	e593c000 	ldr	ip, [r3]
  1092e4:	e2833004 	add	r3, r3, #4
  1092e8:	e35c0000 	cmp	ip, #0
  1092ec:	e58dc028 	str	ip, [sp, #40]	; 0x28
  1092f0:	baffff31 	blt	108fbc <_vfprintf_r+0x5dc>
  1092f4:	e58d3030 	str	r3, [sp, #48]	; 0x30
  1092f8:	e5d95000 	ldrb	r5, [r9]
  1092fc:	eafffe1a 	b	108b6c <_vfprintf_r+0x18c>
  109300:	e2453030 	sub	r3, r5, #48	; 0x30
  109304:	e3a0c000 	mov	ip, #0
  109308:	e4d95001 	ldrb	r5, [r9], #1
  10930c:	e08cc10c 	add	ip, ip, ip, lsl #2
  109310:	e083c08c 	add	ip, r3, ip, lsl #1
  109314:	e2453030 	sub	r3, r5, #48	; 0x30
  109318:	e3530009 	cmp	r3, #9
  10931c:	9afffff9 	bls	109308 <_vfprintf_r+0x928>
  109320:	e58dc028 	str	ip, [sp, #40]	; 0x28
  109324:	eafffe11 	b	108b70 <_vfprintf_r+0x190>
  109328:	e3520000 	cmp	r2, #0
  10932c:	e38aa010 	orr	sl, sl, #16
  109330:	15cd106f 	strbne	r1, [sp, #111]	; 0x6f
  109334:	eaffff39 	b	109020 <_vfprintf_r+0x640>
  109338:	e38aa001 	orr	sl, sl, #1
  10933c:	e5d95000 	ldrb	r5, [r9]
  109340:	eafffe09 	b	108b6c <_vfprintf_r+0x18c>
  109344:	e59d3030 	ldr	r3, [sp, #48]	; 0x30
  109348:	e3520000 	cmp	r2, #0
  10934c:	15cd106f 	strbne	r1, [sp, #111]	; 0x6f
  109350:	e31a0008 	tst	sl, #8
  109354:	e2833007 	add	r3, r3, #7
  109358:	e3c33007 	bic	r3, r3, #7
  10935c:	0d938b00 	vldreq	d8, [r3]
  109360:	12832008 	addne	r2, r3, #8
  109364:	1d938b00 	vldrne	d8, [r3]
  109368:	02833008 	addeq	r3, r3, #8
  10936c:	158d2030 	strne	r2, [sp, #48]	; 0x30
  109370:	058d3030 	streq	r3, [sp, #48]	; 0x30
  109374:	eef00bc8 	vabs.f64	d16, d8
  109378:	eef40b49 	vcmp.f64	d16, d9
  10937c:	eef1fa10 	vmrs	APSR_nzcv, fpscr
  109380:	da000346 	ble	10a0a0 <_vfprintf_r+0x16c0>
  109384:	eeb58bc0 	vcmpe.f64	d8, #0.0
  109388:	eef1fa10 	vmrs	APSR_nzcv, fpscr
  10938c:	4a000415 	bmi	10a3e8 <_vfprintf_r+0x1a08>
  109390:	e5ddb06f 	ldrb	fp, [sp, #111]	; 0x6f
  109394:	e305378c 	movw	r3, #22412	; 0x578c
  109398:	e3052790 	movw	r2, #22416	; 0x5790
  10939c:	e3403012 	movt	r3, #18
  1093a0:	e3550047 	cmp	r5, #71	; 0x47
  1093a4:	e3402012 	movt	r2, #18
  1093a8:	e3a07003 	mov	r7, #3
  1093ac:	e3a04000 	mov	r4, #0
  1093b0:	e3ca1080 	bic	r1, sl, #128	; 0x80
  1093b4:	d1a02003 	movle	r2, r3
  1093b8:	e58d1018 	str	r1, [sp, #24]
  1093bc:	e58d2038 	str	r2, [sp, #56]	; 0x38
  1093c0:	e58d702c 	str	r7, [sp, #44]	; 0x2c
  1093c4:	e58d4040 	str	r4, [sp, #64]	; 0x40
  1093c8:	eafffe7d 	b	108dc4 <_vfprintf_r+0x3e4>
  1093cc:	e2833007 	add	r3, r3, #7
  1093d0:	e3a02001 	mov	r2, #1
  1093d4:	e3c33007 	bic	r3, r3, #7
  1093d8:	e2831008 	add	r1, r3, #8
  1093dc:	e1c360d0 	ldrd	r6, [r3]
  1093e0:	e58d1030 	str	r1, [sp, #48]	; 0x30
  1093e4:	eafffe59 	b	108d50 <_vfprintf_r+0x370>
  1093e8:	e59d3030 	ldr	r3, [sp, #48]	; 0x30
  1093ec:	e3a02000 	mov	r2, #0
  1093f0:	e2833007 	add	r3, r3, #7
  1093f4:	e3c33007 	bic	r3, r3, #7
  1093f8:	e2831008 	add	r1, r3, #8
  1093fc:	e1c360d0 	ldrd	r6, [r3]
  109400:	e58d1030 	str	r1, [sp, #48]	; 0x30
  109404:	eafffe51 	b	108d50 <_vfprintf_r+0x370>
  109408:	e3520000 	cmp	r2, #0
  10940c:	15cd106f 	strbne	r1, [sp, #111]	; 0x6f
  109410:	e3550000 	cmp	r5, #0
  109414:	0a0000c4 	beq	10972c <_vfprintf_r+0xd4c>
  109418:	e3a03000 	mov	r3, #0
  10941c:	e3a07001 	mov	r7, #1
  109420:	e1a0b003 	mov	fp, r3
  109424:	e5cd306f 	strb	r3, [sp, #111]	; 0x6f
  109428:	e1a04003 	mov	r4, r3
  10942c:	e58d3040 	str	r3, [sp, #64]	; 0x40
  109430:	e28d3098 	add	r3, sp, #152	; 0x98
  109434:	e5cd5098 	strb	r5, [sp, #152]	; 0x98
  109438:	e58da018 	str	sl, [sp, #24]
  10943c:	e58d702c 	str	r7, [sp, #44]	; 0x2c
  109440:	e58d3038 	str	r3, [sp, #56]	; 0x38
  109444:	eafffe61 	b	108dd0 <_vfprintf_r+0x3f0>
  109448:	e59d2030 	ldr	r2, [sp, #48]	; 0x30
  10944c:	e5923000 	ldr	r3, [r2]
  109450:	e2822004 	add	r2, r2, #4
  109454:	e58d2030 	str	r2, [sp, #48]	; 0x30
  109458:	e59d2020 	ldr	r2, [sp, #32]
  10945c:	e5832000 	str	r2, [r3]
  109460:	eafffd9b 	b	108ad4 <_vfprintf_r+0xf4>
  109464:	e28d208c 	add	r2, sp, #140	; 0x8c
  109468:	e59d1024 	ldr	r1, [sp, #36]	; 0x24
  10946c:	e59d001c 	ldr	r0, [sp, #28]
  109470:	eb001293 	bl	10dec4 <__sprint_r>
  109474:	e3500000 	cmp	r0, #0
  109478:	1a00019d 	bne	109af4 <_vfprintf_r+0x1114>
  10947c:	e5ddb06f 	ldrb	fp, [sp, #111]	; 0x6f
  109480:	e28d80c0 	add	r8, sp, #192	; 0xc0
  109484:	e59d2094 	ldr	r2, [sp, #148]	; 0x94
  109488:	e35b0000 	cmp	fp, #0
  10948c:	0a00000b 	beq	1094c0 <_vfprintf_r+0xae0>
  109490:	e59d3090 	ldr	r3, [sp, #144]	; 0x90
  109494:	e28d106f 	add	r1, sp, #111	; 0x6f
  109498:	e5881000 	str	r1, [r8]
  10949c:	e3a01001 	mov	r1, #1
  1094a0:	e2822001 	add	r2, r2, #1
  1094a4:	e5881004 	str	r1, [r8, #4]
  1094a8:	e0833001 	add	r3, r3, r1
  1094ac:	e58d2094 	str	r2, [sp, #148]	; 0x94
  1094b0:	e3530007 	cmp	r3, #7
  1094b4:	e58d3090 	str	r3, [sp, #144]	; 0x90
  1094b8:	d2888008 	addle	r8, r8, #8
  1094bc:	ca00019f 	bgt	109b40 <_vfprintf_r+0x1160>
  1094c0:	e35a0000 	cmp	sl, #0
  1094c4:	0a00000b 	beq	1094f8 <_vfprintf_r+0xb18>
  1094c8:	e59d3090 	ldr	r3, [sp, #144]	; 0x90
  1094cc:	e28d1070 	add	r1, sp, #112	; 0x70
  1094d0:	e5881000 	str	r1, [r8]
  1094d4:	e2822002 	add	r2, r2, #2
  1094d8:	e3a01002 	mov	r1, #2
  1094dc:	e58d2094 	str	r2, [sp, #148]	; 0x94
  1094e0:	e2833001 	add	r3, r3, #1
  1094e4:	e5881004 	str	r1, [r8, #4]
  1094e8:	e3530007 	cmp	r3, #7
  1094ec:	e58d3090 	str	r3, [sp, #144]	; 0x90
  1094f0:	d2888008 	addle	r8, r8, #8
  1094f4:	ca00019a 	bgt	109b64 <_vfprintf_r+0x1184>
  1094f8:	e59d3034 	ldr	r3, [sp, #52]	; 0x34
  1094fc:	e3530080 	cmp	r3, #128	; 0x80
  109500:	0a0000fe 	beq	109900 <_vfprintf_r+0xf20>
  109504:	e59d302c 	ldr	r3, [sp, #44]	; 0x2c
  109508:	e0444003 	sub	r4, r4, r3
  10950c:	e3540000 	cmp	r4, #0
  109510:	da000034 	ble	1095e8 <_vfprintf_r+0xc08>
  109514:	e3540010 	cmp	r4, #16
  109518:	e59d3090 	ldr	r3, [sp, #144]	; 0x90
  10951c:	d51f66e4 	ldrle	r6, [pc, #-1764]	; 108e40 <_vfprintf_r+0x460>
  109520:	da00001f 	ble	1095a4 <_vfprintf_r+0xbc4>
  109524:	e58d5034 	str	r5, [sp, #52]	; 0x34
  109528:	e3a0a010 	mov	sl, #16
  10952c:	e51f66f4 	ldr	r6, [pc, #-1780]	; 108e40 <_vfprintf_r+0x460>
  109530:	e1a01003 	mov	r1, r3
  109534:	e59db01c 	ldr	fp, [sp, #28]
  109538:	e59d5024 	ldr	r5, [sp, #36]	; 0x24
  10953c:	ea000002 	b	10954c <_vfprintf_r+0xb6c>
  109540:	e2444010 	sub	r4, r4, #16
  109544:	e3540010 	cmp	r4, #16
  109548:	da000013 	ble	10959c <_vfprintf_r+0xbbc>
  10954c:	e2811001 	add	r1, r1, #1
  109550:	e2822010 	add	r2, r2, #16
  109554:	e3510007 	cmp	r1, #7
  109558:	e8880440 	stm	r8, {r6, sl}
  10955c:	e58d1090 	str	r1, [sp, #144]	; 0x90
  109560:	d2888008 	addle	r8, r8, #8
  109564:	e58d2094 	str	r2, [sp, #148]	; 0x94
  109568:	dafffff4 	ble	109540 <_vfprintf_r+0xb60>
  10956c:	e28d208c 	add	r2, sp, #140	; 0x8c
  109570:	e1a01005 	mov	r1, r5
  109574:	e1a0000b 	mov	r0, fp
  109578:	e28d80c0 	add	r8, sp, #192	; 0xc0
  10957c:	eb001250 	bl	10dec4 <__sprint_r>
  109580:	e3500000 	cmp	r0, #0
  109584:	1a0000db 	bne	1098f8 <_vfprintf_r+0xf18>
  109588:	e2444010 	sub	r4, r4, #16
  10958c:	e59d2094 	ldr	r2, [sp, #148]	; 0x94
  109590:	e3540010 	cmp	r4, #16
  109594:	e59d1090 	ldr	r1, [sp, #144]	; 0x90
  109598:	caffffeb 	bgt	10954c <_vfprintf_r+0xb6c>
  10959c:	e59d5034 	ldr	r5, [sp, #52]	; 0x34
  1095a0:	e1a03001 	mov	r3, r1
  1095a4:	e2833001 	add	r3, r3, #1
  1095a8:	e0822004 	add	r2, r2, r4
  1095ac:	e3530007 	cmp	r3, #7
  1095b0:	e5886000 	str	r6, [r8]
  1095b4:	e5884004 	str	r4, [r8, #4]
  1095b8:	d2888008 	addle	r8, r8, #8
  1095bc:	e58d3090 	str	r3, [sp, #144]	; 0x90
  1095c0:	e58d2094 	str	r2, [sp, #148]	; 0x94
  1095c4:	da000007 	ble	1095e8 <_vfprintf_r+0xc08>
  1095c8:	e28d208c 	add	r2, sp, #140	; 0x8c
  1095cc:	e59d1024 	ldr	r1, [sp, #36]	; 0x24
  1095d0:	e59d001c 	ldr	r0, [sp, #28]
  1095d4:	eb00123a 	bl	10dec4 <__sprint_r>
  1095d8:	e3500000 	cmp	r0, #0
  1095dc:	1a000144 	bne	109af4 <_vfprintf_r+0x1114>
  1095e0:	e59d2094 	ldr	r2, [sp, #148]	; 0x94
  1095e4:	e28d80c0 	add	r8, sp, #192	; 0xc0
  1095e8:	e59d3018 	ldr	r3, [sp, #24]
  1095ec:	e3130c01 	tst	r3, #256	; 0x100
  1095f0:	1a00005f 	bne	109774 <_vfprintf_r+0xd94>
  1095f4:	e59d3090 	ldr	r3, [sp, #144]	; 0x90
  1095f8:	e59d102c 	ldr	r1, [sp, #44]	; 0x2c
  1095fc:	e59d0038 	ldr	r0, [sp, #56]	; 0x38
  109600:	e2833001 	add	r3, r3, #1
  109604:	e3530007 	cmp	r3, #7
  109608:	e0822001 	add	r2, r2, r1
  10960c:	e58d2094 	str	r2, [sp, #148]	; 0x94
  109610:	e5880000 	str	r0, [r8]
  109614:	e5881004 	str	r1, [r8, #4]
  109618:	e58d3090 	str	r3, [sp, #144]	; 0x90
  10961c:	ca000125 	bgt	109ab8 <_vfprintf_r+0x10d8>
  109620:	e2888008 	add	r8, r8, #8
  109624:	e59d3018 	ldr	r3, [sp, #24]
  109628:	e3130004 	tst	r3, #4
  10962c:	0a000032 	beq	1096fc <_vfprintf_r+0xd1c>
  109630:	e59d3028 	ldr	r3, [sp, #40]	; 0x28
  109634:	e0434007 	sub	r4, r3, r7
  109638:	e3540000 	cmp	r4, #0
  10963c:	da00002e 	ble	1096fc <_vfprintf_r+0xd1c>
  109640:	e3540010 	cmp	r4, #16
  109644:	e59d3090 	ldr	r3, [sp, #144]	; 0x90
  109648:	da00001c 	ble	1096c0 <_vfprintf_r+0xce0>
  10964c:	e3a05010 	mov	r5, #16
  109650:	e59d601c 	ldr	r6, [sp, #28]
  109654:	e59da024 	ldr	sl, [sp, #36]	; 0x24
  109658:	e59db03c 	ldr	fp, [sp, #60]	; 0x3c
  10965c:	ea000002 	b	10966c <_vfprintf_r+0xc8c>
  109660:	e2444010 	sub	r4, r4, #16
  109664:	e3540010 	cmp	r4, #16
  109668:	da000014 	ble	1096c0 <_vfprintf_r+0xce0>
  10966c:	e2833001 	add	r3, r3, #1
  109670:	e2822010 	add	r2, r2, #16
  109674:	e3530007 	cmp	r3, #7
  109678:	e588b000 	str	fp, [r8]
  10967c:	e5885004 	str	r5, [r8, #4]
  109680:	d2888008 	addle	r8, r8, #8
  109684:	e58d3090 	str	r3, [sp, #144]	; 0x90
  109688:	e58d2094 	str	r2, [sp, #148]	; 0x94
  10968c:	dafffff3 	ble	109660 <_vfprintf_r+0xc80>
  109690:	e28d208c 	add	r2, sp, #140	; 0x8c
  109694:	e1a0100a 	mov	r1, sl
  109698:	e1a00006 	mov	r0, r6
  10969c:	e28d80c0 	add	r8, sp, #192	; 0xc0
  1096a0:	eb001207 	bl	10dec4 <__sprint_r>
  1096a4:	e3500000 	cmp	r0, #0
  1096a8:	1a000025 	bne	109744 <_vfprintf_r+0xd64>
  1096ac:	e2444010 	sub	r4, r4, #16
  1096b0:	e59d2094 	ldr	r2, [sp, #148]	; 0x94
  1096b4:	e3540010 	cmp	r4, #16
  1096b8:	e59d3090 	ldr	r3, [sp, #144]	; 0x90
  1096bc:	caffffea 	bgt	10966c <_vfprintf_r+0xc8c>
  1096c0:	e2833001 	add	r3, r3, #1
  1096c4:	e0822004 	add	r2, r2, r4
  1096c8:	e3530007 	cmp	r3, #7
  1096cc:	e58d3090 	str	r3, [sp, #144]	; 0x90
  1096d0:	e59d303c 	ldr	r3, [sp, #60]	; 0x3c
  1096d4:	e58d2094 	str	r2, [sp, #148]	; 0x94
  1096d8:	e8880018 	stm	r8, {r3, r4}
  1096dc:	da000006 	ble	1096fc <_vfprintf_r+0xd1c>
  1096e0:	e28d208c 	add	r2, sp, #140	; 0x8c
  1096e4:	e59d1024 	ldr	r1, [sp, #36]	; 0x24
  1096e8:	e59d001c 	ldr	r0, [sp, #28]
  1096ec:	eb0011f4 	bl	10dec4 <__sprint_r>
  1096f0:	e3500000 	cmp	r0, #0
  1096f4:	1a0000fe 	bne	109af4 <_vfprintf_r+0x1114>
  1096f8:	e59d2094 	ldr	r2, [sp, #148]	; 0x94
  1096fc:	e59d3020 	ldr	r3, [sp, #32]
  109700:	e59d1028 	ldr	r1, [sp, #40]	; 0x28
  109704:	e1510007 	cmp	r1, r7
  109708:	a0833001 	addge	r3, r3, r1
  10970c:	b0833007 	addlt	r3, r3, r7
  109710:	e3520000 	cmp	r2, #0
  109714:	e58d3020 	str	r3, [sp, #32]
  109718:	1a0000ef 	bne	109adc <_vfprintf_r+0x10fc>
  10971c:	e3a03000 	mov	r3, #0
  109720:	e28d80c0 	add	r8, sp, #192	; 0xc0
  109724:	e58d3090 	str	r3, [sp, #144]	; 0x90
  109728:	eafffce9 	b	108ad4 <_vfprintf_r+0xf4>
  10972c:	e59d3094 	ldr	r3, [sp, #148]	; 0x94
  109730:	e59da024 	ldr	sl, [sp, #36]	; 0x24
  109734:	e3530000 	cmp	r3, #0
  109738:	1a0003e8 	bne	10a6e0 <_vfprintf_r+0x1d00>
  10973c:	e3a03000 	mov	r3, #0
  109740:	e58d3090 	str	r3, [sp, #144]	; 0x90
  109744:	e59a3064 	ldr	r3, [sl, #100]	; 0x64
  109748:	e3130001 	tst	r3, #1
  10974c:	e1da30bc 	ldrh	r3, [sl, #12]
  109750:	1a000001 	bne	10975c <_vfprintf_r+0xd7c>
  109754:	e3130c02 	tst	r3, #512	; 0x200
  109758:	0a00018a 	beq	109d88 <_vfprintf_r+0x13a8>
  10975c:	e3130040 	tst	r3, #64	; 0x40
  109760:	1afffe0a 	bne	108f90 <_vfprintf_r+0x5b0>
  109764:	e59d0020 	ldr	r0, [sp, #32]
  109768:	e28ddf41 	add	sp, sp, #260	; 0x104
  10976c:	ecbd8b06 	vpop	{d8-d10}
  109770:	e8bd8ff0 	pop	{r4, r5, r6, r7, r8, r9, sl, fp, pc}
  109774:	e3550065 	cmp	r5, #101	; 0x65
  109778:	da00009b 	ble	1099ec <_vfprintf_r+0x100c>
  10977c:	eeb58b40 	vcmp.f64	d8, #0.0
  109780:	eef1fa10 	vmrs	APSR_nzcv, fpscr
  109784:	1a000101 	bne	109b90 <_vfprintf_r+0x11b0>
  109788:	e59d3090 	ldr	r3, [sp, #144]	; 0x90
  10978c:	e2822001 	add	r2, r2, #1
  109790:	e58d2094 	str	r2, [sp, #148]	; 0x94
  109794:	e30527cc 	movw	r2, #22476	; 0x57cc
  109798:	e3402012 	movt	r2, #18
  10979c:	e2833001 	add	r3, r3, #1
  1097a0:	e5882000 	str	r2, [r8]
  1097a4:	e3530007 	cmp	r3, #7
  1097a8:	e3a02001 	mov	r2, #1
  1097ac:	e5882004 	str	r2, [r8, #4]
  1097b0:	d2888008 	addle	r8, r8, #8
  1097b4:	e58d3090 	str	r3, [sp, #144]	; 0x90
  1097b8:	ca00030e 	bgt	10a3f8 <_vfprintf_r+0x1a18>
  1097bc:	e59d3074 	ldr	r3, [sp, #116]	; 0x74
  1097c0:	e59d2044 	ldr	r2, [sp, #68]	; 0x44
  1097c4:	e1530002 	cmp	r3, r2
  1097c8:	ba000002 	blt	1097d8 <_vfprintf_r+0xdf8>
  1097cc:	e59d3018 	ldr	r3, [sp, #24]
  1097d0:	e3130001 	tst	r3, #1
  1097d4:	0a0002c4 	beq	10a2ec <_vfprintf_r+0x190c>
  1097d8:	e59d104c 	ldr	r1, [sp, #76]	; 0x4c
  1097dc:	e59d3090 	ldr	r3, [sp, #144]	; 0x90
  1097e0:	e59d2094 	ldr	r2, [sp, #148]	; 0x94
  1097e4:	e5881000 	str	r1, [r8]
  1097e8:	e59d1048 	ldr	r1, [sp, #72]	; 0x48
  1097ec:	e2833001 	add	r3, r3, #1
  1097f0:	e3530007 	cmp	r3, #7
  1097f4:	e58d3090 	str	r3, [sp, #144]	; 0x90
  1097f8:	e0812002 	add	r2, r1, r2
  1097fc:	e5881004 	str	r1, [r8, #4]
  109800:	e58d2094 	str	r2, [sp, #148]	; 0x94
  109804:	d2888008 	addle	r8, r8, #8
  109808:	ca00033d 	bgt	10a504 <_vfprintf_r+0x1b24>
  10980c:	e59d3044 	ldr	r3, [sp, #68]	; 0x44
  109810:	e2434001 	sub	r4, r3, #1
  109814:	e3540000 	cmp	r4, #0
  109818:	daffff81 	ble	109624 <_vfprintf_r+0xc44>
  10981c:	e3540010 	cmp	r4, #16
  109820:	e59d3090 	ldr	r3, [sp, #144]	; 0x90
  109824:	da00014d 	ble	109d60 <_vfprintf_r+0x1380>
  109828:	e3a05010 	mov	r5, #16
  10982c:	e51f69f4 	ldr	r6, [pc, #-2548]	; 108e40 <_vfprintf_r+0x460>
  109830:	e59da01c 	ldr	sl, [sp, #28]
  109834:	e59db024 	ldr	fp, [sp, #36]	; 0x24
  109838:	ea000002 	b	109848 <_vfprintf_r+0xe68>
  10983c:	e2444010 	sub	r4, r4, #16
  109840:	e3540010 	cmp	r4, #16
  109844:	da000146 	ble	109d64 <_vfprintf_r+0x1384>
  109848:	e2833001 	add	r3, r3, #1
  10984c:	e2822010 	add	r2, r2, #16
  109850:	e3530007 	cmp	r3, #7
  109854:	e5886000 	str	r6, [r8]
  109858:	e5885004 	str	r5, [r8, #4]
  10985c:	d2888008 	addle	r8, r8, #8
  109860:	e58d3090 	str	r3, [sp, #144]	; 0x90
  109864:	e58d2094 	str	r2, [sp, #148]	; 0x94
  109868:	dafffff3 	ble	10983c <_vfprintf_r+0xe5c>
  10986c:	e28d208c 	add	r2, sp, #140	; 0x8c
  109870:	e1a0100b 	mov	r1, fp
  109874:	e1a0000a 	mov	r0, sl
  109878:	e28d80c0 	add	r8, sp, #192	; 0xc0
  10987c:	eb001190 	bl	10dec4 <__sprint_r>
  109880:	e3500000 	cmp	r0, #0
  109884:	1a0001de 	bne	10a004 <_vfprintf_r+0x1624>
  109888:	e59d2094 	ldr	r2, [sp, #148]	; 0x94
  10988c:	e59d3090 	ldr	r3, [sp, #144]	; 0x90
  109890:	eaffffe9 	b	10983c <_vfprintf_r+0xe5c>
  109894:	e1a02001 	mov	r2, r1
  109898:	e2063007 	and	r3, r6, #7
  10989c:	e1a061a6 	lsr	r6, r6, #3
  1098a0:	e2833030 	add	r3, r3, #48	; 0x30
  1098a4:	e1866e87 	orr	r6, r6, r7, lsl #29
  1098a8:	e1a071a7 	lsr	r7, r7, #3
  1098ac:	e5423001 	strb	r3, [r2, #-1]
  1098b0:	e1961007 	orrs	r1, r6, r7
  1098b4:	e2421001 	sub	r1, r2, #1
  1098b8:	1afffff5 	bne	109894 <_vfprintf_r+0xeb4>
  1098bc:	e3530030 	cmp	r3, #48	; 0x30
  1098c0:	03a03000 	moveq	r3, #0
  1098c4:	120a3001 	andne	r3, sl, #1
  1098c8:	e3530000 	cmp	r3, #0
  1098cc:	0a0002fd 	beq	10a4c8 <_vfprintf_r+0x1ae8>
  1098d0:	e2423002 	sub	r3, r2, #2
  1098d4:	e28d00c0 	add	r0, sp, #192	; 0xc0
  1098d8:	e1a02003 	mov	r2, r3
  1098dc:	e58d3038 	str	r3, [sp, #56]	; 0x38
  1098e0:	e0402002 	sub	r2, r0, r2
  1098e4:	e3a03030 	mov	r3, #48	; 0x30
  1098e8:	e58da018 	str	sl, [sp, #24]
  1098ec:	e58d202c 	str	r2, [sp, #44]	; 0x2c
  1098f0:	e5413001 	strb	r3, [r1, #-1]
  1098f4:	eafffd2c 	b	108dac <_vfprintf_r+0x3cc>
  1098f8:	e1a0a005 	mov	sl, r5
  1098fc:	eaffff90 	b	109744 <_vfprintf_r+0xd64>
  109900:	e59d3028 	ldr	r3, [sp, #40]	; 0x28
  109904:	e043a007 	sub	sl, r3, r7
  109908:	e35a0000 	cmp	sl, #0
  10990c:	dafffefc 	ble	109504 <_vfprintf_r+0xb24>
  109910:	e35a0010 	cmp	sl, #16
  109914:	e59d3090 	ldr	r3, [sp, #144]	; 0x90
  109918:	d51f6ae0 	ldrle	r6, [pc, #-2784]	; 108e40 <_vfprintf_r+0x460>
  10991c:	da000021 	ble	1099a8 <_vfprintf_r+0xfc8>
  109920:	e58d5034 	str	r5, [sp, #52]	; 0x34
  109924:	e3a0b010 	mov	fp, #16
  109928:	e58d4054 	str	r4, [sp, #84]	; 0x54
  10992c:	e1a01003 	mov	r1, r3
  109930:	e51f6af8 	ldr	r6, [pc, #-2808]	; 108e40 <_vfprintf_r+0x460>
  109934:	e59d401c 	ldr	r4, [sp, #28]
  109938:	e59d5024 	ldr	r5, [sp, #36]	; 0x24
  10993c:	ea000002 	b	10994c <_vfprintf_r+0xf6c>
  109940:	e24aa010 	sub	sl, sl, #16
  109944:	e35a0010 	cmp	sl, #16
  109948:	da000013 	ble	10999c <_vfprintf_r+0xfbc>
  10994c:	e2811001 	add	r1, r1, #1
  109950:	e2822010 	add	r2, r2, #16
  109954:	e3510007 	cmp	r1, #7
  109958:	e8880840 	stm	r8, {r6, fp}
  10995c:	e58d1090 	str	r1, [sp, #144]	; 0x90
  109960:	d2888008 	addle	r8, r8, #8
  109964:	e58d2094 	str	r2, [sp, #148]	; 0x94
  109968:	dafffff4 	ble	109940 <_vfprintf_r+0xf60>
  10996c:	e28d208c 	add	r2, sp, #140	; 0x8c
  109970:	e1a01005 	mov	r1, r5
  109974:	e1a00004 	mov	r0, r4
  109978:	e28d80c0 	add	r8, sp, #192	; 0xc0
  10997c:	eb001150 	bl	10dec4 <__sprint_r>
  109980:	e3500000 	cmp	r0, #0
  109984:	1affffdb 	bne	1098f8 <_vfprintf_r+0xf18>
  109988:	e24aa010 	sub	sl, sl, #16
  10998c:	e59d2094 	ldr	r2, [sp, #148]	; 0x94
  109990:	e35a0010 	cmp	sl, #16
  109994:	e59d1090 	ldr	r1, [sp, #144]	; 0x90
  109998:	caffffeb 	bgt	10994c <_vfprintf_r+0xf6c>
  10999c:	e59d5034 	ldr	r5, [sp, #52]	; 0x34
  1099a0:	e1a03001 	mov	r3, r1
  1099a4:	e59d4054 	ldr	r4, [sp, #84]	; 0x54
  1099a8:	e2833001 	add	r3, r3, #1
  1099ac:	e082200a 	add	r2, r2, sl
  1099b0:	e3530007 	cmp	r3, #7
  1099b4:	e8880440 	stm	r8, {r6, sl}
  1099b8:	e58d3090 	str	r3, [sp, #144]	; 0x90
  1099bc:	d2888008 	addle	r8, r8, #8
  1099c0:	e58d2094 	str	r2, [sp, #148]	; 0x94
  1099c4:	dafffece 	ble	109504 <_vfprintf_r+0xb24>
  1099c8:	e28d208c 	add	r2, sp, #140	; 0x8c
  1099cc:	e59d1024 	ldr	r1, [sp, #36]	; 0x24
  1099d0:	e59d001c 	ldr	r0, [sp, #28]
  1099d4:	eb00113a 	bl	10dec4 <__sprint_r>
  1099d8:	e3500000 	cmp	r0, #0
  1099dc:	1a000044 	bne	109af4 <_vfprintf_r+0x1114>
  1099e0:	e59d2094 	ldr	r2, [sp, #148]	; 0x94
  1099e4:	e28d80c0 	add	r8, sp, #192	; 0xc0
  1099e8:	eafffec5 	b	109504 <_vfprintf_r+0xb24>
  1099ec:	e59d3044 	ldr	r3, [sp, #68]	; 0x44
  1099f0:	e3530001 	cmp	r3, #1
  1099f4:	da00013f 	ble	109ef8 <_vfprintf_r+0x1518>
  1099f8:	e59d3090 	ldr	r3, [sp, #144]	; 0x90
  1099fc:	e3a01001 	mov	r1, #1
  109a00:	e59d0038 	ldr	r0, [sp, #56]	; 0x38
  109a04:	e2822001 	add	r2, r2, #1
  109a08:	e5881004 	str	r1, [r8, #4]
  109a0c:	e0833001 	add	r3, r3, r1
  109a10:	e58d2094 	str	r2, [sp, #148]	; 0x94
  109a14:	e3530007 	cmp	r3, #7
  109a18:	e5880000 	str	r0, [r8]
  109a1c:	e58d3090 	str	r3, [sp, #144]	; 0x90
  109a20:	d2888008 	addle	r8, r8, #8
  109a24:	ca00014b 	bgt	109f58 <_vfprintf_r+0x1578>
  109a28:	e59d1048 	ldr	r1, [sp, #72]	; 0x48
  109a2c:	e2833001 	add	r3, r3, #1
  109a30:	e59d004c 	ldr	r0, [sp, #76]	; 0x4c
  109a34:	e3530007 	cmp	r3, #7
  109a38:	e58d3090 	str	r3, [sp, #144]	; 0x90
  109a3c:	e0812002 	add	r2, r1, r2
  109a40:	e8880003 	stm	r8, {r0, r1}
  109a44:	d2888008 	addle	r8, r8, #8
  109a48:	e58d2094 	str	r2, [sp, #148]	; 0x94
  109a4c:	ca000159 	bgt	109fb8 <_vfprintf_r+0x15d8>
  109a50:	eeb58b40 	vcmp.f64	d8, #0.0
  109a54:	eef1fa10 	vmrs	APSR_nzcv, fpscr
  109a58:	0a000086 	beq	109c78 <_vfprintf_r+0x1298>
  109a5c:	e59d1044 	ldr	r1, [sp, #68]	; 0x44
  109a60:	e2833001 	add	r3, r3, #1
  109a64:	e59d0038 	ldr	r0, [sp, #56]	; 0x38
  109a68:	e3530007 	cmp	r3, #7
  109a6c:	e58d3090 	str	r3, [sp, #144]	; 0x90
  109a70:	e2411001 	sub	r1, r1, #1
  109a74:	e2800001 	add	r0, r0, #1
  109a78:	e0822001 	add	r2, r2, r1
  109a7c:	e5880000 	str	r0, [r8]
  109a80:	e58d2094 	str	r2, [sp, #148]	; 0x94
  109a84:	e5881004 	str	r1, [r8, #4]
  109a88:	ca000128 	bgt	109f30 <_vfprintf_r+0x1550>
  109a8c:	e2888008 	add	r8, r8, #8
  109a90:	e59d0060 	ldr	r0, [sp, #96]	; 0x60
  109a94:	e2833001 	add	r3, r3, #1
  109a98:	e3530007 	cmp	r3, #7
  109a9c:	e28d107c 	add	r1, sp, #124	; 0x7c
  109aa0:	e58d3090 	str	r3, [sp, #144]	; 0x90
  109aa4:	e0802002 	add	r2, r0, r2
  109aa8:	e1a03000 	mov	r3, r0
  109aac:	e58d2094 	str	r2, [sp, #148]	; 0x94
  109ab0:	e888000a 	stm	r8, {r1, r3}
  109ab4:	dafffed9 	ble	109620 <_vfprintf_r+0xc40>
  109ab8:	e28d208c 	add	r2, sp, #140	; 0x8c
  109abc:	e59d1024 	ldr	r1, [sp, #36]	; 0x24
  109ac0:	e59d001c 	ldr	r0, [sp, #28]
  109ac4:	eb0010fe 	bl	10dec4 <__sprint_r>
  109ac8:	e3500000 	cmp	r0, #0
  109acc:	1a000008 	bne	109af4 <_vfprintf_r+0x1114>
  109ad0:	e59d2094 	ldr	r2, [sp, #148]	; 0x94
  109ad4:	e28d80c0 	add	r8, sp, #192	; 0xc0
  109ad8:	eafffed1 	b	109624 <_vfprintf_r+0xc44>
  109adc:	e28d208c 	add	r2, sp, #140	; 0x8c
  109ae0:	e59d1024 	ldr	r1, [sp, #36]	; 0x24
  109ae4:	e59d001c 	ldr	r0, [sp, #28]
  109ae8:	eb0010f5 	bl	10dec4 <__sprint_r>
  109aec:	e3500000 	cmp	r0, #0
  109af0:	0affff09 	beq	10971c <_vfprintf_r+0xd3c>
  109af4:	e59da024 	ldr	sl, [sp, #36]	; 0x24
  109af8:	eaffff11 	b	109744 <_vfprintf_r+0xd64>
  109afc:	e58d302c 	str	r3, [sp, #44]	; 0x2c
  109b00:	e28d30c0 	add	r3, sp, #192	; 0xc0
  109b04:	e58d3038 	str	r3, [sp, #56]	; 0x38
  109b08:	eafffca7 	b	108dac <_vfprintf_r+0x3cc>
  109b0c:	e3520001 	cmp	r2, #1
  109b10:	e1a0a001 	mov	sl, r1
  109b14:	1afffd57 	bne	109078 <_vfprintf_r+0x698>
  109b18:	e3570000 	cmp	r7, #0
  109b1c:	03560009 	cmpeq	r6, #9
  109b20:	8a000139 	bhi	10a00c <_vfprintf_r+0x162c>
  109b24:	e28d3c01 	add	r3, sp, #256	; 0x100
  109b28:	e2866030 	add	r6, r6, #48	; 0x30
  109b2c:	e5636041 	strb	r6, [r3, #-65]!	; 0xffffffbf
  109b30:	e58da018 	str	sl, [sp, #24]
  109b34:	e58d202c 	str	r2, [sp, #44]	; 0x2c
  109b38:	e58d3038 	str	r3, [sp, #56]	; 0x38
  109b3c:	eafffc9a 	b	108dac <_vfprintf_r+0x3cc>
  109b40:	e28d208c 	add	r2, sp, #140	; 0x8c
  109b44:	e59d1024 	ldr	r1, [sp, #36]	; 0x24
  109b48:	e59d001c 	ldr	r0, [sp, #28]
  109b4c:	eb0010dc 	bl	10dec4 <__sprint_r>
  109b50:	e3500000 	cmp	r0, #0
  109b54:	1affffe6 	bne	109af4 <_vfprintf_r+0x1114>
  109b58:	e59d2094 	ldr	r2, [sp, #148]	; 0x94
  109b5c:	e28d80c0 	add	r8, sp, #192	; 0xc0
  109b60:	eafffe56 	b	1094c0 <_vfprintf_r+0xae0>
  109b64:	e28d208c 	add	r2, sp, #140	; 0x8c
  109b68:	e59d1024 	ldr	r1, [sp, #36]	; 0x24
  109b6c:	e59d001c 	ldr	r0, [sp, #28]
  109b70:	eb0010d3 	bl	10dec4 <__sprint_r>
  109b74:	e3500000 	cmp	r0, #0
  109b78:	1affffdd 	bne	109af4 <_vfprintf_r+0x1114>
  109b7c:	e59d2094 	ldr	r2, [sp, #148]	; 0x94
  109b80:	e28d80c0 	add	r8, sp, #192	; 0xc0
  109b84:	eafffe5b 	b	1094f8 <_vfprintf_r+0xb18>
  109b88:	e3a02002 	mov	r2, #2
  109b8c:	eafffc6f 	b	108d50 <_vfprintf_r+0x370>
  109b90:	e59d4074 	ldr	r4, [sp, #116]	; 0x74
  109b94:	e3540000 	cmp	r4, #0
  109b98:	da00021e 	ble	10a418 <_vfprintf_r+0x1a38>
  109b9c:	e59d3040 	ldr	r3, [sp, #64]	; 0x40
  109ba0:	e59d1044 	ldr	r1, [sp, #68]	; 0x44
  109ba4:	e1530001 	cmp	r3, r1
  109ba8:	b1a04003 	movlt	r4, r3
  109bac:	a1a04001 	movge	r4, r1
  109bb0:	e3540000 	cmp	r4, #0
  109bb4:	da00000a 	ble	109be4 <_vfprintf_r+0x1204>
  109bb8:	e59d3090 	ldr	r3, [sp, #144]	; 0x90
  109bbc:	e0822004 	add	r2, r2, r4
  109bc0:	e59d1038 	ldr	r1, [sp, #56]	; 0x38
  109bc4:	e5884004 	str	r4, [r8, #4]
  109bc8:	e2833001 	add	r3, r3, #1
  109bcc:	e58d2094 	str	r2, [sp, #148]	; 0x94
  109bd0:	e3530007 	cmp	r3, #7
  109bd4:	e5881000 	str	r1, [r8]
  109bd8:	e58d3090 	str	r3, [sp, #144]	; 0x90
  109bdc:	d2888008 	addle	r8, r8, #8
  109be0:	ca000293 	bgt	10a634 <_vfprintf_r+0x1c54>
  109be4:	e59d3040 	ldr	r3, [sp, #64]	; 0x40
  109be8:	e3540000 	cmp	r4, #0
  109bec:	a0433004 	subge	r3, r3, r4
  109bf0:	e3530000 	cmp	r3, #0
  109bf4:	e1a04003 	mov	r4, r3
  109bf8:	da000077 	ble	109ddc <_vfprintf_r+0x13fc>
  109bfc:	e3540010 	cmp	r4, #16
  109c00:	e59d3090 	ldr	r3, [sp, #144]	; 0x90
  109c04:	d51f6dcc 	ldrle	r6, [pc, #-3532]	; 108e40 <_vfprintf_r+0x460>
  109c08:	da000062 	ble	109d98 <_vfprintf_r+0x13b8>
  109c0c:	e3a05010 	mov	r5, #16
  109c10:	e51f6dd8 	ldr	r6, [pc, #-3544]	; 108e40 <_vfprintf_r+0x460>
  109c14:	e59da01c 	ldr	sl, [sp, #28]
  109c18:	e59db024 	ldr	fp, [sp, #36]	; 0x24
  109c1c:	ea000002 	b	109c2c <_vfprintf_r+0x124c>
  109c20:	e2444010 	sub	r4, r4, #16
  109c24:	e3540010 	cmp	r4, #16
  109c28:	da00005a 	ble	109d98 <_vfprintf_r+0x13b8>
  109c2c:	e2833001 	add	r3, r3, #1
  109c30:	e2822010 	add	r2, r2, #16
  109c34:	e3530007 	cmp	r3, #7
  109c38:	e5886000 	str	r6, [r8]
  109c3c:	e5885004 	str	r5, [r8, #4]
  109c40:	d2888008 	addle	r8, r8, #8
  109c44:	e58d3090 	str	r3, [sp, #144]	; 0x90
  109c48:	e58d2094 	str	r2, [sp, #148]	; 0x94
  109c4c:	dafffff3 	ble	109c20 <_vfprintf_r+0x1240>
  109c50:	e28d208c 	add	r2, sp, #140	; 0x8c
  109c54:	e1a0100b 	mov	r1, fp
  109c58:	e1a0000a 	mov	r0, sl
  109c5c:	e28d80c0 	add	r8, sp, #192	; 0xc0
  109c60:	eb001097 	bl	10dec4 <__sprint_r>
  109c64:	e3500000 	cmp	r0, #0
  109c68:	1a0000e5 	bne	10a004 <_vfprintf_r+0x1624>
  109c6c:	e59d2094 	ldr	r2, [sp, #148]	; 0x94
  109c70:	e59d3090 	ldr	r3, [sp, #144]	; 0x90
  109c74:	eaffffe9 	b	109c20 <_vfprintf_r+0x1240>
  109c78:	e59d1044 	ldr	r1, [sp, #68]	; 0x44
  109c7c:	e2414001 	sub	r4, r1, #1
  109c80:	e3540000 	cmp	r4, #0
  109c84:	daffff81 	ble	109a90 <_vfprintf_r+0x10b0>
  109c88:	e3540010 	cmp	r4, #16
  109c8c:	e51f6e54 	ldr	r6, [pc, #-3668]	; 108e40 <_vfprintf_r+0x460>
  109c90:	da0000d2 	ble	109fe0 <_vfprintf_r+0x1600>
  109c94:	e3a05010 	mov	r5, #16
  109c98:	e59da01c 	ldr	sl, [sp, #28]
  109c9c:	e59db024 	ldr	fp, [sp, #36]	; 0x24
  109ca0:	ea000002 	b	109cb0 <_vfprintf_r+0x12d0>
  109ca4:	e2444010 	sub	r4, r4, #16
  109ca8:	e3540010 	cmp	r4, #16
  109cac:	da0000cb 	ble	109fe0 <_vfprintf_r+0x1600>
  109cb0:	e2833001 	add	r3, r3, #1
  109cb4:	e2822010 	add	r2, r2, #16
  109cb8:	e3530007 	cmp	r3, #7
  109cbc:	e5886000 	str	r6, [r8]
  109cc0:	e5885004 	str	r5, [r8, #4]
  109cc4:	d2888008 	addle	r8, r8, #8
  109cc8:	e58d3090 	str	r3, [sp, #144]	; 0x90
  109ccc:	e58d2094 	str	r2, [sp, #148]	; 0x94
  109cd0:	dafffff3 	ble	109ca4 <_vfprintf_r+0x12c4>
  109cd4:	e28d208c 	add	r2, sp, #140	; 0x8c
  109cd8:	e1a0100b 	mov	r1, fp
  109cdc:	e1a0000a 	mov	r0, sl
  109ce0:	e28d80c0 	add	r8, sp, #192	; 0xc0
  109ce4:	eb001076 	bl	10dec4 <__sprint_r>
  109ce8:	e3500000 	cmp	r0, #0
  109cec:	1a0000c4 	bne	10a004 <_vfprintf_r+0x1624>
  109cf0:	e59d2094 	ldr	r2, [sp, #148]	; 0x94
  109cf4:	e59d3090 	ldr	r3, [sp, #144]	; 0x90
  109cf8:	eaffffe9 	b	109ca4 <_vfprintf_r+0x12c4>
  109cfc:	e59d3030 	ldr	r3, [sp, #48]	; 0x30
  109d00:	e1a02007 	mov	r2, r7
  109d04:	e3a07000 	mov	r7, #0
  109d08:	e5936000 	ldr	r6, [r3]
  109d0c:	e2833004 	add	r3, r3, #4
  109d10:	e58d3030 	str	r3, [sp, #48]	; 0x30
  109d14:	eafffc0d 	b	108d50 <_vfprintf_r+0x370>
  109d18:	e5936000 	ldr	r6, [r3]
  109d1c:	e2833004 	add	r3, r3, #4
  109d20:	e58d3030 	str	r3, [sp, #48]	; 0x30
  109d24:	e1a02006 	mov	r2, r6
  109d28:	e1a07fc6 	asr	r7, r6, #31
  109d2c:	e1a03007 	mov	r3, r7
  109d30:	eafffcc7 	b	109054 <_vfprintf_r+0x674>
  109d34:	e5936000 	ldr	r6, [r3]
  109d38:	e2833004 	add	r3, r3, #4
  109d3c:	e58d3030 	str	r3, [sp, #48]	; 0x30
  109d40:	e3a07000 	mov	r7, #0
  109d44:	eafffd26 	b	1091e4 <_vfprintf_r+0x804>
  109d48:	e5936000 	ldr	r6, [r3]
  109d4c:	e2833004 	add	r3, r3, #4
  109d50:	e3a02001 	mov	r2, #1
  109d54:	e58d3030 	str	r3, [sp, #48]	; 0x30
  109d58:	e3a07000 	mov	r7, #0
  109d5c:	eafffbfb 	b	108d50 <_vfprintf_r+0x370>
  109d60:	e51f6f28 	ldr	r6, [pc, #-3880]	; 108e40 <_vfprintf_r+0x460>
  109d64:	e2833001 	add	r3, r3, #1
  109d68:	e0822004 	add	r2, r2, r4
  109d6c:	e3530007 	cmp	r3, #7
  109d70:	e58d3090 	str	r3, [sp, #144]	; 0x90
  109d74:	e58d2094 	str	r2, [sp, #148]	; 0x94
  109d78:	e5886000 	str	r6, [r8]
  109d7c:	e5884004 	str	r4, [r8, #4]
  109d80:	dafffe26 	ble	109620 <_vfprintf_r+0xc40>
  109d84:	eaffff4b 	b	109ab8 <_vfprintf_r+0x10d8>
  109d88:	e28a0058 	add	r0, sl, #88	; 0x58
  109d8c:	eb001c22 	bl	110e1c <__generic_gxx_recursive_mutex_unlock>
  109d90:	e1da30bc 	ldrh	r3, [sl, #12]
  109d94:	eafffe70 	b	10975c <_vfprintf_r+0xd7c>
  109d98:	e2833001 	add	r3, r3, #1
  109d9c:	e0822004 	add	r2, r2, r4
  109da0:	e3530007 	cmp	r3, #7
  109da4:	e5886000 	str	r6, [r8]
  109da8:	e5884004 	str	r4, [r8, #4]
  109dac:	d2888008 	addle	r8, r8, #8
  109db0:	e58d3090 	str	r3, [sp, #144]	; 0x90
  109db4:	e58d2094 	str	r2, [sp, #148]	; 0x94
  109db8:	da000007 	ble	109ddc <_vfprintf_r+0x13fc>
  109dbc:	e28d208c 	add	r2, sp, #140	; 0x8c
  109dc0:	e59d1024 	ldr	r1, [sp, #36]	; 0x24
  109dc4:	e59d001c 	ldr	r0, [sp, #28]
  109dc8:	eb00103d 	bl	10dec4 <__sprint_r>
  109dcc:	e3500000 	cmp	r0, #0
  109dd0:	1affff47 	bne	109af4 <_vfprintf_r+0x1114>
  109dd4:	e59d2094 	ldr	r2, [sp, #148]	; 0x94
  109dd8:	e28d80c0 	add	r8, sp, #192	; 0xc0
  109ddc:	e59d1074 	ldr	r1, [sp, #116]	; 0x74
  109de0:	e59d3044 	ldr	r3, [sp, #68]	; 0x44
  109de4:	e1510003 	cmp	r1, r3
  109de8:	aa00013b 	bge	10a2dc <_vfprintf_r+0x18fc>
  109dec:	e59d3090 	ldr	r3, [sp, #144]	; 0x90
  109df0:	e59d0048 	ldr	r0, [sp, #72]	; 0x48
  109df4:	e59dc04c 	ldr	ip, [sp, #76]	; 0x4c
  109df8:	e2833001 	add	r3, r3, #1
  109dfc:	e3530007 	cmp	r3, #7
  109e00:	e0822000 	add	r2, r2, r0
  109e04:	e588c000 	str	ip, [r8]
  109e08:	e5880004 	str	r0, [r8, #4]
  109e0c:	d2888008 	addle	r8, r8, #8
  109e10:	e58d2094 	str	r2, [sp, #148]	; 0x94
  109e14:	e58d3090 	str	r3, [sp, #144]	; 0x90
  109e18:	ca000141 	bgt	10a324 <_vfprintf_r+0x1944>
  109e1c:	e59d3044 	ldr	r3, [sp, #68]	; 0x44
  109e20:	e59dc040 	ldr	ip, [sp, #64]	; 0x40
  109e24:	e0431001 	sub	r1, r3, r1
  109e28:	e043400c 	sub	r4, r3, ip
  109e2c:	e1540001 	cmp	r4, r1
  109e30:	a1a04001 	movge	r4, r1
  109e34:	e3540000 	cmp	r4, #0
  109e38:	da00000b 	ble	109e6c <_vfprintf_r+0x148c>
  109e3c:	e59de038 	ldr	lr, [sp, #56]	; 0x38
  109e40:	e0822004 	add	r2, r2, r4
  109e44:	e59d0090 	ldr	r0, [sp, #144]	; 0x90
  109e48:	e5884004 	str	r4, [r8, #4]
  109e4c:	e08e300c 	add	r3, lr, ip
  109e50:	e58d2094 	str	r2, [sp, #148]	; 0x94
  109e54:	e5883000 	str	r3, [r8]
  109e58:	e2803001 	add	r3, r0, #1
  109e5c:	e3530007 	cmp	r3, #7
  109e60:	e58d3090 	str	r3, [sp, #144]	; 0x90
  109e64:	d2888008 	addle	r8, r8, #8
  109e68:	ca000121 	bgt	10a2f4 <_vfprintf_r+0x1914>
  109e6c:	e3540000 	cmp	r4, #0
  109e70:	a0414004 	subge	r4, r1, r4
  109e74:	b1a04001 	movlt	r4, r1
  109e78:	e3540000 	cmp	r4, #0
  109e7c:	dafffde8 	ble	109624 <_vfprintf_r+0xc44>
  109e80:	e3540010 	cmp	r4, #16
  109e84:	e59d3090 	ldr	r3, [sp, #144]	; 0x90
  109e88:	daffffb4 	ble	109d60 <_vfprintf_r+0x1380>
  109e8c:	e3a05010 	mov	r5, #16
  109e90:	e59f6a74 	ldr	r6, [pc, #2676]	; 10a90c <_vfprintf_r+0x1f2c>
  109e94:	e59da01c 	ldr	sl, [sp, #28]
  109e98:	e59db024 	ldr	fp, [sp, #36]	; 0x24
  109e9c:	ea000002 	b	109eac <_vfprintf_r+0x14cc>
  109ea0:	e2444010 	sub	r4, r4, #16
  109ea4:	e3540010 	cmp	r4, #16
  109ea8:	daffffad 	ble	109d64 <_vfprintf_r+0x1384>
  109eac:	e2833001 	add	r3, r3, #1
  109eb0:	e2822010 	add	r2, r2, #16
  109eb4:	e3530007 	cmp	r3, #7
  109eb8:	e5886000 	str	r6, [r8]
  109ebc:	e5885004 	str	r5, [r8, #4]
  109ec0:	d2888008 	addle	r8, r8, #8
  109ec4:	e58d3090 	str	r3, [sp, #144]	; 0x90
  109ec8:	e58d2094 	str	r2, [sp, #148]	; 0x94
  109ecc:	dafffff3 	ble	109ea0 <_vfprintf_r+0x14c0>
  109ed0:	e28d208c 	add	r2, sp, #140	; 0x8c
  109ed4:	e1a0100b 	mov	r1, fp
  109ed8:	e1a0000a 	mov	r0, sl
  109edc:	e28d80c0 	add	r8, sp, #192	; 0xc0
  109ee0:	eb000ff7 	bl	10dec4 <__sprint_r>
  109ee4:	e3500000 	cmp	r0, #0
  109ee8:	1a000045 	bne	10a004 <_vfprintf_r+0x1624>
  109eec:	e59d2094 	ldr	r2, [sp, #148]	; 0x94
  109ef0:	e59d3090 	ldr	r3, [sp, #144]	; 0x90
  109ef4:	eaffffe9 	b	109ea0 <_vfprintf_r+0x14c0>
  109ef8:	e59d3018 	ldr	r3, [sp, #24]
  109efc:	e3130001 	tst	r3, #1
  109f00:	1afffebc 	bne	1099f8 <_vfprintf_r+0x1018>
  109f04:	e59d3090 	ldr	r3, [sp, #144]	; 0x90
  109f08:	e3a01001 	mov	r1, #1
  109f0c:	e59d0038 	ldr	r0, [sp, #56]	; 0x38
  109f10:	e2822001 	add	r2, r2, #1
  109f14:	e58d2094 	str	r2, [sp, #148]	; 0x94
  109f18:	e0833001 	add	r3, r3, r1
  109f1c:	e5881004 	str	r1, [r8, #4]
  109f20:	e3530007 	cmp	r3, #7
  109f24:	e5880000 	str	r0, [r8]
  109f28:	e58d3090 	str	r3, [sp, #144]	; 0x90
  109f2c:	dafffed6 	ble	109a8c <_vfprintf_r+0x10ac>
  109f30:	e28d208c 	add	r2, sp, #140	; 0x8c
  109f34:	e59d1024 	ldr	r1, [sp, #36]	; 0x24
  109f38:	e59d001c 	ldr	r0, [sp, #28]
  109f3c:	eb000fe0 	bl	10dec4 <__sprint_r>
  109f40:	e3500000 	cmp	r0, #0
  109f44:	1afffeea 	bne	109af4 <_vfprintf_r+0x1114>
  109f48:	e59d2094 	ldr	r2, [sp, #148]	; 0x94
  109f4c:	e28d80c0 	add	r8, sp, #192	; 0xc0
  109f50:	e59d3090 	ldr	r3, [sp, #144]	; 0x90
  109f54:	eafffecd 	b	109a90 <_vfprintf_r+0x10b0>
  109f58:	e28d208c 	add	r2, sp, #140	; 0x8c
  109f5c:	e59d1024 	ldr	r1, [sp, #36]	; 0x24
  109f60:	e59d001c 	ldr	r0, [sp, #28]
  109f64:	eb000fd6 	bl	10dec4 <__sprint_r>
  109f68:	e3500000 	cmp	r0, #0
  109f6c:	1afffee0 	bne	109af4 <_vfprintf_r+0x1114>
  109f70:	e59d2094 	ldr	r2, [sp, #148]	; 0x94
  109f74:	e28d80c0 	add	r8, sp, #192	; 0xc0
  109f78:	e59d3090 	ldr	r3, [sp, #144]	; 0x90
  109f7c:	eafffea9 	b	109a28 <_vfprintf_r+0x1048>
  109f80:	e2833007 	add	r3, r3, #7
  109f84:	e3c31007 	bic	r1, r3, #7
  109f88:	e1c120d0 	ldrd	r2, [r1]
  109f8c:	e2811008 	add	r1, r1, #8
  109f90:	e58d1030 	str	r1, [sp, #48]	; 0x30
  109f94:	e1a06002 	mov	r6, r2
  109f98:	e1a07003 	mov	r7, r3
  109f9c:	eafffc2c 	b	109054 <_vfprintf_r+0x674>
  109fa0:	e2833007 	add	r3, r3, #7
  109fa4:	e3c33007 	bic	r3, r3, #7
  109fa8:	e2832008 	add	r2, r3, #8
  109fac:	e1c360d0 	ldrd	r6, [r3]
  109fb0:	e58d2030 	str	r2, [sp, #48]	; 0x30
  109fb4:	eafffc8a 	b	1091e4 <_vfprintf_r+0x804>
  109fb8:	e28d208c 	add	r2, sp, #140	; 0x8c
  109fbc:	e59d1024 	ldr	r1, [sp, #36]	; 0x24
  109fc0:	e59d001c 	ldr	r0, [sp, #28]
  109fc4:	eb000fbe 	bl	10dec4 <__sprint_r>
  109fc8:	e3500000 	cmp	r0, #0
  109fcc:	1afffec8 	bne	109af4 <_vfprintf_r+0x1114>
  109fd0:	e59d2094 	ldr	r2, [sp, #148]	; 0x94
  109fd4:	e28d80c0 	add	r8, sp, #192	; 0xc0
  109fd8:	e59d3090 	ldr	r3, [sp, #144]	; 0x90
  109fdc:	eafffe9b 	b	109a50 <_vfprintf_r+0x1070>
  109fe0:	e2833001 	add	r3, r3, #1
  109fe4:	e0822004 	add	r2, r2, r4
  109fe8:	e3530007 	cmp	r3, #7
  109fec:	e58d3090 	str	r3, [sp, #144]	; 0x90
  109ff0:	e58d2094 	str	r2, [sp, #148]	; 0x94
  109ff4:	e5886000 	str	r6, [r8]
  109ff8:	e5884004 	str	r4, [r8, #4]
  109ffc:	dafffea2 	ble	109a8c <_vfprintf_r+0x10ac>
  10a000:	eaffffca 	b	109f30 <_vfprintf_r+0x1550>
  10a004:	e1a0a00b 	mov	sl, fp
  10a008:	eafffdcd 	b	109744 <_vfprintf_r+0xd64>
  10a00c:	e28d30c0 	add	r3, sp, #192	; 0xc0
  10a010:	e58db018 	str	fp, [sp, #24]
  10a014:	e1a0b008 	mov	fp, r8
  10a018:	e1a08004 	mov	r8, r4
  10a01c:	e1a04003 	mov	r4, r3
  10a020:	e1a00006 	mov	r0, r6
  10a024:	e1a01007 	mov	r1, r7
  10a028:	e3a0200a 	mov	r2, #10
  10a02c:	e3a03000 	mov	r3, #0
  10a030:	eb001b14 	bl	110c88 <__aeabi_uldivmod>
  10a034:	e2822030 	add	r2, r2, #48	; 0x30
  10a038:	e1a00006 	mov	r0, r6
  10a03c:	e1a01007 	mov	r1, r7
  10a040:	e5642001 	strb	r2, [r4, #-1]!
  10a044:	e3a03000 	mov	r3, #0
  10a048:	e3a0200a 	mov	r2, #10
  10a04c:	eb001b0d 	bl	110c88 <__aeabi_uldivmod>
  10a050:	e1a06000 	mov	r6, r0
  10a054:	e1a07001 	mov	r7, r1
  10a058:	e1963007 	orrs	r3, r6, r7
  10a05c:	1affffef 	bne	10a020 <_vfprintf_r+0x1640>
  10a060:	e1a03004 	mov	r3, r4
  10a064:	e28d20c0 	add	r2, sp, #192	; 0xc0
  10a068:	e0423003 	sub	r3, r2, r3
  10a06c:	e58d4038 	str	r4, [sp, #56]	; 0x38
  10a070:	e58d302c 	str	r3, [sp, #44]	; 0x2c
  10a074:	e1a04008 	mov	r4, r8
  10a078:	e1a0800b 	mov	r8, fp
  10a07c:	e59db018 	ldr	fp, [sp, #24]
  10a080:	e58da018 	str	sl, [sp, #24]
  10a084:	eafffb48 	b	108dac <_vfprintf_r+0x3cc>
  10a088:	e3a0b02d 	mov	fp, #45	; 0x2d
  10a08c:	e2766000 	rsbs	r6, r6, #0
  10a090:	e2e77000 	rsc	r7, r7, #0
  10a094:	e5cdb06f 	strb	fp, [sp, #111]	; 0x6f
  10a098:	e3a02001 	mov	r2, #1
  10a09c:	eafffb2e 	b	108d5c <_vfprintf_r+0x37c>
  10a0a0:	eeb48b48 	vcmp.f64	d8, d8
  10a0a4:	eef1fa10 	vmrs	APSR_nzcv, fpscr
  10a0a8:	6a0001e9 	bvs	10a854 <_vfprintf_r+0x1e74>
  10a0ac:	e3740001 	cmn	r4, #1
  10a0b0:	e3c57020 	bic	r7, r5, #32
  10a0b4:	03a04006 	moveq	r4, #6
  10a0b8:	0a0000a3 	beq	10a34c <_vfprintf_r+0x196c>
  10a0bc:	e3570047 	cmp	r7, #71	; 0x47
  10a0c0:	03540000 	cmpeq	r4, #0
  10a0c4:	1a0000a0 	bne	10a34c <_vfprintf_r+0x196c>
  10a0c8:	ee183a90 	vmov	r3, s17
  10a0cc:	e38a2c01 	orr	r2, sl, #256	; 0x100
  10a0d0:	e3530000 	cmp	r3, #0
  10a0d4:	e58d2018 	str	r2, [sp, #24]
  10a0d8:	ba00016b 	blt	10a68c <_vfprintf_r+0x1cac>
  10a0dc:	eeb0ab48 	vmov.f64	d10, d8
  10a0e0:	e3a07047 	mov	r7, #71	; 0x47
  10a0e4:	e3a0b000 	mov	fp, #0
  10a0e8:	e3a04001 	mov	r4, #1
  10a0ec:	e28d2074 	add	r2, sp, #116	; 0x74
  10a0f0:	e3a03002 	mov	r3, #2
  10a0f4:	e28d0084 	add	r0, sp, #132	; 0x84
  10a0f8:	e28d1078 	add	r1, sp, #120	; 0x78
  10a0fc:	e58d0010 	str	r0, [sp, #16]
  10a100:	e58d2008 	str	r2, [sp, #8]
  10a104:	e58d3000 	str	r3, [sp]
  10a108:	e58d4004 	str	r4, [sp, #4]
  10a10c:	e59d001c 	ldr	r0, [sp, #28]
  10a110:	e58d100c 	str	r1, [sp, #12]
  10a114:	ec532b1a 	vmov	r2, r3, d10
  10a118:	eb000300 	bl	10ad20 <_dtoa_r>
  10a11c:	e3570047 	cmp	r7, #71	; 0x47
  10a120:	e58d0038 	str	r0, [sp, #56]	; 0x38
  10a124:	1a0001f4 	bne	10a8fc <_vfprintf_r+0x1f1c>
  10a128:	e31a0001 	tst	sl, #1
  10a12c:	0a000184 	beq	10a744 <_vfprintf_r+0x1d64>
  10a130:	e59d3038 	ldr	r3, [sp, #56]	; 0x38
  10a134:	e0836004 	add	r6, r3, r4
  10a138:	eeb5ab40 	vcmp.f64	d10, #0.0
  10a13c:	eef1fa10 	vmrs	APSR_nzcv, fpscr
  10a140:	01a03006 	moveq	r3, r6
  10a144:	0a000009 	beq	10a170 <_vfprintf_r+0x1790>
  10a148:	e59d3084 	ldr	r3, [sp, #132]	; 0x84
  10a14c:	e1530006 	cmp	r3, r6
  10a150:	2a000006 	bcs	10a170 <_vfprintf_r+0x1790>
  10a154:	e3a01030 	mov	r1, #48	; 0x30
  10a158:	e2832001 	add	r2, r3, #1
  10a15c:	e58d2084 	str	r2, [sp, #132]	; 0x84
  10a160:	e5c31000 	strb	r1, [r3]
  10a164:	e59d3084 	ldr	r3, [sp, #132]	; 0x84
  10a168:	e1560003 	cmp	r6, r3
  10a16c:	8afffff9 	bhi	10a158 <_vfprintf_r+0x1778>
  10a170:	e59d2038 	ldr	r2, [sp, #56]	; 0x38
  10a174:	e3570047 	cmp	r7, #71	; 0x47
  10a178:	e0433002 	sub	r3, r3, r2
  10a17c:	e58d3044 	str	r3, [sp, #68]	; 0x44
  10a180:	e59d3074 	ldr	r3, [sp, #116]	; 0x74
  10a184:	1a000116 	bne	10a5e4 <_vfprintf_r+0x1c04>
  10a188:	e3730003 	cmn	r3, #3
  10a18c:	e1a02003 	mov	r2, r3
  10a190:	e58d3040 	str	r3, [sp, #64]	; 0x40
  10a194:	a3a03000 	movge	r3, #0
  10a198:	b3a03001 	movlt	r3, #1
  10a19c:	e1520004 	cmp	r2, r4
  10a1a0:	d1a04003 	movle	r4, r3
  10a1a4:	c3834001 	orrgt	r4, r3, #1
  10a1a8:	e3540000 	cmp	r4, #0
  10a1ac:	12455002 	subne	r5, r5, #2
  10a1b0:	0a0000fc 	beq	10a5a8 <_vfprintf_r+0x1bc8>
  10a1b4:	e59d3040 	ldr	r3, [sp, #64]	; 0x40
  10a1b8:	e5cd507c 	strb	r5, [sp, #124]	; 0x7c
  10a1bc:	e2433001 	sub	r3, r3, #1
  10a1c0:	e3530000 	cmp	r3, #0
  10a1c4:	e58d3074 	str	r3, [sp, #116]	; 0x74
  10a1c8:	b59d3040 	ldrlt	r3, [sp, #64]	; 0x40
  10a1cc:	b3a0202d 	movlt	r2, #45	; 0x2d
  10a1d0:	a3a0202b 	movge	r2, #43	; 0x2b
  10a1d4:	e5cd207d 	strb	r2, [sp, #125]	; 0x7d
  10a1d8:	b2633001 	rsblt	r3, r3, #1
  10a1dc:	e3530009 	cmp	r3, #9
  10a1e0:	da000195 	ble	10a83c <_vfprintf_r+0x1e5c>
  10a1e4:	e28de08b 	add	lr, sp, #139	; 0x8b
  10a1e8:	e1a06005 	mov	r6, r5
  10a1ec:	e1a0c00e 	mov	ip, lr
  10a1f0:	e59d1064 	ldr	r1, [sp, #100]	; 0x64
  10a1f4:	ea000000 	b	10a1fc <_vfprintf_r+0x181c>
  10a1f8:	e1a0c000 	mov	ip, r0
  10a1fc:	e0c54193 	smull	r4, r5, r3, r1
  10a200:	e1a04fc3 	asr	r4, r3, #31
  10a204:	e24c0001 	sub	r0, ip, #1
  10a208:	e0644145 	rsb	r4, r4, r5, asr #2
  10a20c:	e0842104 	add	r2, r4, r4, lsl #2
  10a210:	e3540009 	cmp	r4, #9
  10a214:	e0432082 	sub	r2, r3, r2, lsl #1
  10a218:	e1a03004 	mov	r3, r4
  10a21c:	e2822030 	add	r2, r2, #48	; 0x30
  10a220:	e54c2001 	strb	r2, [ip, #-1]
  10a224:	cafffff3 	bgt	10a1f8 <_vfprintf_r+0x1818>
  10a228:	e2843030 	add	r3, r4, #48	; 0x30
  10a22c:	e24cc002 	sub	ip, ip, #2
  10a230:	e6ef2073 	uxtb	r2, r3
  10a234:	e15e000c 	cmp	lr, ip
  10a238:	e1a05006 	mov	r5, r6
  10a23c:	e5402001 	strb	r2, [r0, #-1]
  10a240:	9a0001af 	bls	10a904 <_vfprintf_r+0x1f24>
  10a244:	e1a03000 	mov	r3, r0
  10a248:	e28d107e 	add	r1, sp, #126	; 0x7e
  10a24c:	ea000000 	b	10a254 <_vfprintf_r+0x1874>
  10a250:	e4d32001 	ldrb	r2, [r3], #1
  10a254:	e153000e 	cmp	r3, lr
  10a258:	e4c12001 	strb	r2, [r1], #1
  10a25c:	1afffffb 	bne	10a250 <_vfprintf_r+0x1870>
  10a260:	e2833001 	add	r3, r3, #1
  10a264:	e0430000 	sub	r0, r3, r0
  10a268:	e28d307e 	add	r3, sp, #126	; 0x7e
  10a26c:	e0830000 	add	r0, r3, r0
  10a270:	e59d2044 	ldr	r2, [sp, #68]	; 0x44
  10a274:	e28d307c 	add	r3, sp, #124	; 0x7c
  10a278:	e0403003 	sub	r3, r0, r3
  10a27c:	e1a01003 	mov	r1, r3
  10a280:	e58d3060 	str	r3, [sp, #96]	; 0x60
  10a284:	e3520001 	cmp	r2, #1
  10a288:	e1a03002 	mov	r3, r2
  10a28c:	e0833001 	add	r3, r3, r1
  10a290:	e58d302c 	str	r3, [sp, #44]	; 0x2c
  10a294:	da00017d 	ble	10a890 <_vfprintf_r+0x1eb0>
  10a298:	e59d302c 	ldr	r3, [sp, #44]	; 0x2c
  10a29c:	e59d2048 	ldr	r2, [sp, #72]	; 0x48
  10a2a0:	e0833002 	add	r3, r3, r2
  10a2a4:	e3a02000 	mov	r2, #0
  10a2a8:	e1c37fc3 	bic	r7, r3, r3, asr #31
  10a2ac:	e58d302c 	str	r3, [sp, #44]	; 0x2c
  10a2b0:	e58d2040 	str	r2, [sp, #64]	; 0x40
  10a2b4:	e35b0000 	cmp	fp, #0
  10a2b8:	1a0000b6 	bne	10a598 <_vfprintf_r+0x1bb8>
  10a2bc:	e1a0400b 	mov	r4, fp
  10a2c0:	e5ddb06f 	ldrb	fp, [sp, #111]	; 0x6f
  10a2c4:	eafffabe 	b	108dc4 <_vfprintf_r+0x3e4>
  10a2c8:	e3e03000 	mvn	r3, #0
  10a2cc:	e28a0058 	add	r0, sl, #88	; 0x58
  10a2d0:	e58d3020 	str	r3, [sp, #32]
  10a2d4:	eb001ad0 	bl	110e1c <__generic_gxx_recursive_mutex_unlock>
  10a2d8:	eafffb2e 	b	108f98 <_vfprintf_r+0x5b8>
  10a2dc:	e59d3018 	ldr	r3, [sp, #24]
  10a2e0:	e3130001 	tst	r3, #1
  10a2e4:	0afffecc 	beq	109e1c <_vfprintf_r+0x143c>
  10a2e8:	eafffebf 	b	109dec <_vfprintf_r+0x140c>
  10a2ec:	e59d2094 	ldr	r2, [sp, #148]	; 0x94
  10a2f0:	eafffccb 	b	109624 <_vfprintf_r+0xc44>
  10a2f4:	e28d208c 	add	r2, sp, #140	; 0x8c
  10a2f8:	e59d1024 	ldr	r1, [sp, #36]	; 0x24
  10a2fc:	e59d001c 	ldr	r0, [sp, #28]
  10a300:	eb000eef 	bl	10dec4 <__sprint_r>
  10a304:	e3500000 	cmp	r0, #0
  10a308:	1afffdf9 	bne	109af4 <_vfprintf_r+0x1114>
  10a30c:	e59d1074 	ldr	r1, [sp, #116]	; 0x74
  10a310:	e28d80c0 	add	r8, sp, #192	; 0xc0
  10a314:	e59d3044 	ldr	r3, [sp, #68]	; 0x44
  10a318:	e59d2094 	ldr	r2, [sp, #148]	; 0x94
  10a31c:	e0431001 	sub	r1, r3, r1
  10a320:	eafffed1 	b	109e6c <_vfprintf_r+0x148c>
  10a324:	e28d208c 	add	r2, sp, #140	; 0x8c
  10a328:	e59d1024 	ldr	r1, [sp, #36]	; 0x24
  10a32c:	e59d001c 	ldr	r0, [sp, #28]
  10a330:	eb000ee3 	bl	10dec4 <__sprint_r>
  10a334:	e3500000 	cmp	r0, #0
  10a338:	1afffded 	bne	109af4 <_vfprintf_r+0x1114>
  10a33c:	e59d1074 	ldr	r1, [sp, #116]	; 0x74
  10a340:	e28d80c0 	add	r8, sp, #192	; 0xc0
  10a344:	e59d2094 	ldr	r2, [sp, #148]	; 0x94
  10a348:	eafffeb3 	b	109e1c <_vfprintf_r+0x143c>
  10a34c:	ee183a90 	vmov	r3, s17
  10a350:	e38a2c01 	orr	r2, sl, #256	; 0x100
  10a354:	e3530000 	cmp	r3, #0
  10a358:	e58d2018 	str	r2, [sp, #24]
  10a35c:	a3a0b000 	movge	fp, #0
  10a360:	aeb0ab48 	vmovge.f64	d10, d8
  10a364:	ba0000ca 	blt	10a694 <_vfprintf_r+0x1cb4>
  10a368:	e3570046 	cmp	r7, #70	; 0x46
  10a36c:	1a000078 	bne	10a554 <_vfprintf_r+0x1b74>
  10a370:	e28d2074 	add	r2, sp, #116	; 0x74
  10a374:	e3a03003 	mov	r3, #3
  10a378:	e28d0084 	add	r0, sp, #132	; 0x84
  10a37c:	e28d1078 	add	r1, sp, #120	; 0x78
  10a380:	e58d0010 	str	r0, [sp, #16]
  10a384:	e58d2008 	str	r2, [sp, #8]
  10a388:	e58d3000 	str	r3, [sp]
  10a38c:	e58d4004 	str	r4, [sp, #4]
  10a390:	ec532b1a 	vmov	r2, r3, d10
  10a394:	e59d001c 	ldr	r0, [sp, #28]
  10a398:	e58d100c 	str	r1, [sp, #12]
  10a39c:	eb00025f 	bl	10ad20 <_dtoa_r>
  10a3a0:	eeb5ab40 	vcmp.f64	d10, #0.0
  10a3a4:	e1a03000 	mov	r3, r0
  10a3a8:	e5d02000 	ldrb	r2, [r0]
  10a3ac:	eef1fa10 	vmrs	APSR_nzcv, fpscr
  10a3b0:	13a03001 	movne	r3, #1
  10a3b4:	03a03000 	moveq	r3, #0
  10a3b8:	e3520030 	cmp	r2, #48	; 0x30
  10a3bc:	13a03000 	movne	r3, #0
  10a3c0:	02033001 	andeq	r3, r3, #1
  10a3c4:	e58d0038 	str	r0, [sp, #56]	; 0x38
  10a3c8:	e3530000 	cmp	r3, #0
  10a3cc:	12643001 	rsbne	r3, r4, #1
  10a3d0:	158d3074 	strne	r3, [sp, #116]	; 0x74
  10a3d4:	059d3074 	ldreq	r3, [sp, #116]	; 0x74
  10a3d8:	e0836004 	add	r6, r3, r4
  10a3dc:	e59d3038 	ldr	r3, [sp, #56]	; 0x38
  10a3e0:	e0836006 	add	r6, r3, r6
  10a3e4:	eaffff53 	b	10a138 <_vfprintf_r+0x1758>
  10a3e8:	e3a0302d 	mov	r3, #45	; 0x2d
  10a3ec:	e1a0b003 	mov	fp, r3
  10a3f0:	e5cd306f 	strb	r3, [sp, #111]	; 0x6f
  10a3f4:	eafffbe6 	b	109394 <_vfprintf_r+0x9b4>
  10a3f8:	e28d208c 	add	r2, sp, #140	; 0x8c
  10a3fc:	e59d1024 	ldr	r1, [sp, #36]	; 0x24
  10a400:	e59d001c 	ldr	r0, [sp, #28]
  10a404:	eb000eae 	bl	10dec4 <__sprint_r>
  10a408:	e3500000 	cmp	r0, #0
  10a40c:	1afffdb8 	bne	109af4 <_vfprintf_r+0x1114>
  10a410:	e28d80c0 	add	r8, sp, #192	; 0xc0
  10a414:	eafffce8 	b	1097bc <_vfprintf_r+0xddc>
  10a418:	e59d3090 	ldr	r3, [sp, #144]	; 0x90
  10a41c:	e30517cc 	movw	r1, #22476	; 0x57cc
  10a420:	e3401012 	movt	r1, #18
  10a424:	e2822001 	add	r2, r2, #1
  10a428:	e5881000 	str	r1, [r8]
  10a42c:	e3a01001 	mov	r1, #1
  10a430:	e2833001 	add	r3, r3, #1
  10a434:	e5881004 	str	r1, [r8, #4]
  10a438:	e3530007 	cmp	r3, #7
  10a43c:	e58d2094 	str	r2, [sp, #148]	; 0x94
  10a440:	e58d3090 	str	r3, [sp, #144]	; 0x90
  10a444:	d2888008 	addle	r8, r8, #8
  10a448:	ca0000ab 	bgt	10a6fc <_vfprintf_r+0x1d1c>
  10a44c:	e59d3044 	ldr	r3, [sp, #68]	; 0x44
  10a450:	e1933004 	orrs	r3, r3, r4
  10a454:	1a000002 	bne	10a464 <_vfprintf_r+0x1a84>
  10a458:	e59d3018 	ldr	r3, [sp, #24]
  10a45c:	e3130001 	tst	r3, #1
  10a460:	0afffc6f 	beq	109624 <_vfprintf_r+0xc44>
  10a464:	e59d3090 	ldr	r3, [sp, #144]	; 0x90
  10a468:	e59d1048 	ldr	r1, [sp, #72]	; 0x48
  10a46c:	e59d004c 	ldr	r0, [sp, #76]	; 0x4c
  10a470:	e2833001 	add	r3, r3, #1
  10a474:	e3530007 	cmp	r3, #7
  10a478:	e0812002 	add	r2, r1, r2
  10a47c:	e5880000 	str	r0, [r8]
  10a480:	e5881004 	str	r1, [r8, #4]
  10a484:	d2888008 	addle	r8, r8, #8
  10a488:	e58d2094 	str	r2, [sp, #148]	; 0x94
  10a48c:	e58d3090 	str	r3, [sp, #144]	; 0x90
  10a490:	ca0000cb 	bgt	10a7c4 <_vfprintf_r+0x1de4>
  10a494:	e3540000 	cmp	r4, #0
  10a498:	ba0000ab 	blt	10a74c <_vfprintf_r+0x1d6c>
  10a49c:	e2833001 	add	r3, r3, #1
  10a4a0:	e59d1044 	ldr	r1, [sp, #68]	; 0x44
  10a4a4:	e3530007 	cmp	r3, #7
  10a4a8:	e58d3090 	str	r3, [sp, #144]	; 0x90
  10a4ac:	e59d3038 	ldr	r3, [sp, #56]	; 0x38
  10a4b0:	e0812002 	add	r2, r1, r2
  10a4b4:	e5881004 	str	r1, [r8, #4]
  10a4b8:	e58d2094 	str	r2, [sp, #148]	; 0x94
  10a4bc:	e5883000 	str	r3, [r8]
  10a4c0:	dafffc56 	ble	109620 <_vfprintf_r+0xc40>
  10a4c4:	eafffd7b 	b	109ab8 <_vfprintf_r+0x10d8>
  10a4c8:	e28d30c0 	add	r3, sp, #192	; 0xc0
  10a4cc:	e58da018 	str	sl, [sp, #24]
  10a4d0:	e0433001 	sub	r3, r3, r1
  10a4d4:	e58d1038 	str	r1, [sp, #56]	; 0x38
  10a4d8:	e58d302c 	str	r3, [sp, #44]	; 0x2c
  10a4dc:	eafffa32 	b	108dac <_vfprintf_r+0x3cc>
  10a4e0:	e59d1020 	ldr	r1, [sp, #32]
  10a4e4:	e59d2030 	ldr	r2, [sp, #48]	; 0x30
  10a4e8:	ee801b90 	vdup.32	d16, r1
  10a4ec:	e2822004 	add	r2, r2, #4
  10a4f0:	e5123004 	ldr	r3, [r2, #-4]
  10a4f4:	f2e000b0 	vshr.s64	d16, d16, #32
  10a4f8:	e58d2030 	str	r2, [sp, #48]	; 0x30
  10a4fc:	edc30b00 	vstr	d16, [r3]
  10a500:	eafff973 	b	108ad4 <_vfprintf_r+0xf4>
  10a504:	e28d208c 	add	r2, sp, #140	; 0x8c
  10a508:	e59d1024 	ldr	r1, [sp, #36]	; 0x24
  10a50c:	e59d001c 	ldr	r0, [sp, #28]
  10a510:	eb000e6b 	bl	10dec4 <__sprint_r>
  10a514:	e3500000 	cmp	r0, #0
  10a518:	1afffd75 	bne	109af4 <_vfprintf_r+0x1114>
  10a51c:	e59d2094 	ldr	r2, [sp, #148]	; 0x94
  10a520:	e28d80c0 	add	r8, sp, #192	; 0xc0
  10a524:	eafffcb8 	b	10980c <_vfprintf_r+0xe2c>
  10a528:	e59d0038 	ldr	r0, [sp, #56]	; 0x38
  10a52c:	e1a04006 	mov	r4, r6
  10a530:	fa000e02 	blx	10dd40 <strlen>
  10a534:	e59d3018 	ldr	r3, [sp, #24]
  10a538:	e1c07fc0 	bic	r7, r0, r0, asr #31
  10a53c:	e58d002c 	str	r0, [sp, #44]	; 0x2c
  10a540:	e58da018 	str	sl, [sp, #24]
  10a544:	e58d3030 	str	r3, [sp, #48]	; 0x30
  10a548:	e58d6040 	str	r6, [sp, #64]	; 0x40
  10a54c:	e5ddb06f 	ldrb	fp, [sp, #111]	; 0x6f
  10a550:	eafffa1b 	b	108dc4 <_vfprintf_r+0x3e4>
  10a554:	e3570045 	cmp	r7, #69	; 0x45
  10a558:	1afffee3 	bne	10a0ec <_vfprintf_r+0x170c>
  10a55c:	e28d2074 	add	r2, sp, #116	; 0x74
  10a560:	e3a03002 	mov	r3, #2
  10a564:	e28d0084 	add	r0, sp, #132	; 0x84
  10a568:	e28d1078 	add	r1, sp, #120	; 0x78
  10a56c:	e2846001 	add	r6, r4, #1
  10a570:	e58d0010 	str	r0, [sp, #16]
  10a574:	e58d2008 	str	r2, [sp, #8]
  10a578:	e58d3000 	str	r3, [sp]
  10a57c:	e58d6004 	str	r6, [sp, #4]
  10a580:	e59d001c 	ldr	r0, [sp, #28]
  10a584:	e58d100c 	str	r1, [sp, #12]
  10a588:	ec532b1a 	vmov	r2, r3, d10
  10a58c:	eb0001e3 	bl	10ad20 <_dtoa_r>
  10a590:	e58d0038 	str	r0, [sp, #56]	; 0x38
  10a594:	eaffff90 	b	10a3dc <_vfprintf_r+0x19fc>
  10a598:	e3a0b02d 	mov	fp, #45	; 0x2d
  10a59c:	e3a04000 	mov	r4, #0
  10a5a0:	e5cdb06f 	strb	fp, [sp, #111]	; 0x6f
  10a5a4:	eafffa08 	b	108dcc <_vfprintf_r+0x3ec>
  10a5a8:	e59d2044 	ldr	r2, [sp, #68]	; 0x44
  10a5ac:	e59d3040 	ldr	r3, [sp, #64]	; 0x40
  10a5b0:	e1520003 	cmp	r2, r3
  10a5b4:	ca000039 	bgt	10a6a0 <_vfprintf_r+0x1cc0>
  10a5b8:	e31a0001 	tst	sl, #1
  10a5bc:	159d3040 	ldrne	r3, [sp, #64]	; 0x40
  10a5c0:	01c37fc3 	biceq	r7, r3, r3, asr #31
  10a5c4:	159d2048 	ldrne	r2, [sp, #72]	; 0x48
  10a5c8:	03a05067 	moveq	r5, #103	; 0x67
  10a5cc:	058d302c 	streq	r3, [sp, #44]	; 0x2c
  10a5d0:	13a05067 	movne	r5, #103	; 0x67
  10a5d4:	10833002 	addne	r3, r3, r2
  10a5d8:	158d302c 	strne	r3, [sp, #44]	; 0x2c
  10a5dc:	11c37fc3 	bicne	r7, r3, r3, asr #31
  10a5e0:	eaffff33 	b	10a2b4 <_vfprintf_r+0x18d4>
  10a5e4:	e3550065 	cmp	r5, #101	; 0x65
  10a5e8:	e58d3040 	str	r3, [sp, #64]	; 0x40
  10a5ec:	dafffef0 	ble	10a1b4 <_vfprintf_r+0x17d4>
  10a5f0:	e3550066 	cmp	r5, #102	; 0x66
  10a5f4:	1affffeb 	bne	10a5a8 <_vfprintf_r+0x1bc8>
  10a5f8:	e3530000 	cmp	r3, #0
  10a5fc:	da0000a9 	ble	10a8a8 <_vfprintf_r+0x1ec8>
  10a600:	e3540000 	cmp	r4, #0
  10a604:	1a000003 	bne	10a618 <_vfprintf_r+0x1c38>
  10a608:	e31a0001 	tst	sl, #1
  10a60c:	01a07003 	moveq	r7, r3
  10a610:	058d302c 	streq	r3, [sp, #44]	; 0x2c
  10a614:	0affff26 	beq	10a2b4 <_vfprintf_r+0x18d4>
  10a618:	e59d3040 	ldr	r3, [sp, #64]	; 0x40
  10a61c:	e59d2048 	ldr	r2, [sp, #72]	; 0x48
  10a620:	e0837002 	add	r7, r3, r2
  10a624:	e0873004 	add	r3, r7, r4
  10a628:	e58d302c 	str	r3, [sp, #44]	; 0x2c
  10a62c:	e1c37fc3 	bic	r7, r3, r3, asr #31
  10a630:	eaffff1f 	b	10a2b4 <_vfprintf_r+0x18d4>
  10a634:	e28d208c 	add	r2, sp, #140	; 0x8c
  10a638:	e59d1024 	ldr	r1, [sp, #36]	; 0x24
  10a63c:	e59d001c 	ldr	r0, [sp, #28]
  10a640:	eb000e1f 	bl	10dec4 <__sprint_r>
  10a644:	e3500000 	cmp	r0, #0
  10a648:	1afffd29 	bne	109af4 <_vfprintf_r+0x1114>
  10a64c:	e59d2094 	ldr	r2, [sp, #148]	; 0x94
  10a650:	e28d80c0 	add	r8, sp, #192	; 0xc0
  10a654:	eafffd62 	b	109be4 <_vfprintf_r+0x1204>
  10a658:	e3540006 	cmp	r4, #6
  10a65c:	e1a0b002 	mov	fp, r2
  10a660:	31a07004 	movcc	r7, r4
  10a664:	e1a04002 	mov	r4, r2
  10a668:	e30527c4 	movw	r2, #22468	; 0x57c4
  10a66c:	23a07006 	movcs	r7, #6
  10a670:	e3402012 	movt	r2, #18
  10a674:	e58d3030 	str	r3, [sp, #48]	; 0x30
  10a678:	e58da018 	str	sl, [sp, #24]
  10a67c:	e58d702c 	str	r7, [sp, #44]	; 0x2c
  10a680:	e58db040 	str	fp, [sp, #64]	; 0x40
  10a684:	e58d2038 	str	r2, [sp, #56]	; 0x38
  10a688:	eafff9cd 	b	108dc4 <_vfprintf_r+0x3e4>
  10a68c:	e3a07047 	mov	r7, #71	; 0x47
  10a690:	e3a04001 	mov	r4, #1
  10a694:	eeb1ab48 	vneg.f64	d10, d8
  10a698:	e3a0b02d 	mov	fp, #45	; 0x2d
  10a69c:	eaffff31 	b	10a368 <_vfprintf_r+0x1988>
  10a6a0:	e59d3040 	ldr	r3, [sp, #64]	; 0x40
  10a6a4:	e59d2048 	ldr	r2, [sp, #72]	; 0x48
  10a6a8:	e3530000 	cmp	r3, #0
  10a6ac:	e59d3044 	ldr	r3, [sp, #68]	; 0x44
  10a6b0:	c3a05067 	movgt	r5, #103	; 0x67
  10a6b4:	d3a05067 	movle	r5, #103	; 0x67
  10a6b8:	e0833002 	add	r3, r3, r2
  10a6bc:	e58d302c 	str	r3, [sp, #44]	; 0x2c
  10a6c0:	c1c37fc3 	bicgt	r7, r3, r3, asr #31
  10a6c4:	d59d3040 	ldrle	r3, [sp, #64]	; 0x40
  10a6c8:	d59d202c 	ldrle	r2, [sp, #44]	; 0x2c
  10a6cc:	d2633001 	rsble	r3, r3, #1
  10a6d0:	d0823003 	addle	r3, r2, r3
  10a6d4:	d58d302c 	strle	r3, [sp, #44]	; 0x2c
  10a6d8:	d1c37fc3 	bicle	r7, r3, r3, asr #31
  10a6dc:	eafffef4 	b	10a2b4 <_vfprintf_r+0x18d4>
  10a6e0:	e59d001c 	ldr	r0, [sp, #28]
  10a6e4:	e28d208c 	add	r2, sp, #140	; 0x8c
  10a6e8:	e1a0100a 	mov	r1, sl
  10a6ec:	eb000df4 	bl	10dec4 <__sprint_r>
  10a6f0:	e3500000 	cmp	r0, #0
  10a6f4:	0afffc10 	beq	10973c <_vfprintf_r+0xd5c>
  10a6f8:	eafffc11 	b	109744 <_vfprintf_r+0xd64>
  10a6fc:	e28d208c 	add	r2, sp, #140	; 0x8c
  10a700:	e59d1024 	ldr	r1, [sp, #36]	; 0x24
  10a704:	e59d001c 	ldr	r0, [sp, #28]
  10a708:	eb000ded 	bl	10dec4 <__sprint_r>
  10a70c:	e3500000 	cmp	r0, #0
  10a710:	1afffcf7 	bne	109af4 <_vfprintf_r+0x1114>
  10a714:	e59d4074 	ldr	r4, [sp, #116]	; 0x74
  10a718:	e28d80c0 	add	r8, sp, #192	; 0xc0
  10a71c:	e59d2094 	ldr	r2, [sp, #148]	; 0x94
  10a720:	eaffff49 	b	10a44c <_vfprintf_r+0x1a6c>
  10a724:	e1a07004 	mov	r7, r4
  10a728:	e58d402c 	str	r4, [sp, #44]	; 0x2c
  10a72c:	e58d3030 	str	r3, [sp, #48]	; 0x30
  10a730:	e1a04000 	mov	r4, r0
  10a734:	e58da018 	str	sl, [sp, #24]
  10a738:	e58d0040 	str	r0, [sp, #64]	; 0x40
  10a73c:	e5ddb06f 	ldrb	fp, [sp, #111]	; 0x6f
  10a740:	eafff99f 	b	108dc4 <_vfprintf_r+0x3e4>
  10a744:	e59d3084 	ldr	r3, [sp, #132]	; 0x84
  10a748:	eafffe88 	b	10a170 <_vfprintf_r+0x1790>
  10a74c:	e3740010 	cmn	r4, #16
  10a750:	e59f61b4 	ldr	r6, [pc, #436]	; 10a90c <_vfprintf_r+0x1f2c>
  10a754:	e2644000 	rsb	r4, r4, #0
  10a758:	aa000024 	bge	10a7f0 <_vfprintf_r+0x1e10>
  10a75c:	e3a05010 	mov	r5, #16
  10a760:	e59da01c 	ldr	sl, [sp, #28]
  10a764:	e59db024 	ldr	fp, [sp, #36]	; 0x24
  10a768:	ea000002 	b	10a778 <_vfprintf_r+0x1d98>
  10a76c:	e2444010 	sub	r4, r4, #16
  10a770:	e3540010 	cmp	r4, #16
  10a774:	da00001d 	ble	10a7f0 <_vfprintf_r+0x1e10>
  10a778:	e2833001 	add	r3, r3, #1
  10a77c:	e2822010 	add	r2, r2, #16
  10a780:	e3530007 	cmp	r3, #7
  10a784:	e5886000 	str	r6, [r8]
  10a788:	e5885004 	str	r5, [r8, #4]
  10a78c:	d2888008 	addle	r8, r8, #8
  10a790:	e58d3090 	str	r3, [sp, #144]	; 0x90
  10a794:	e58d2094 	str	r2, [sp, #148]	; 0x94
  10a798:	dafffff3 	ble	10a76c <_vfprintf_r+0x1d8c>
  10a79c:	e28d208c 	add	r2, sp, #140	; 0x8c
  10a7a0:	e1a0100b 	mov	r1, fp
  10a7a4:	e1a0000a 	mov	r0, sl
  10a7a8:	e28d80c0 	add	r8, sp, #192	; 0xc0
  10a7ac:	eb000dc4 	bl	10dec4 <__sprint_r>
  10a7b0:	e3500000 	cmp	r0, #0
  10a7b4:	1afffe12 	bne	10a004 <_vfprintf_r+0x1624>
  10a7b8:	e59d2094 	ldr	r2, [sp, #148]	; 0x94
  10a7bc:	e59d3090 	ldr	r3, [sp, #144]	; 0x90
  10a7c0:	eaffffe9 	b	10a76c <_vfprintf_r+0x1d8c>
  10a7c4:	e28d208c 	add	r2, sp, #140	; 0x8c
  10a7c8:	e59d1024 	ldr	r1, [sp, #36]	; 0x24
  10a7cc:	e59d001c 	ldr	r0, [sp, #28]
  10a7d0:	eb000dbb 	bl	10dec4 <__sprint_r>
  10a7d4:	e3500000 	cmp	r0, #0
  10a7d8:	1afffcc5 	bne	109af4 <_vfprintf_r+0x1114>
  10a7dc:	e59d4074 	ldr	r4, [sp, #116]	; 0x74
  10a7e0:	e28d80c0 	add	r8, sp, #192	; 0xc0
  10a7e4:	e59d2094 	ldr	r2, [sp, #148]	; 0x94
  10a7e8:	e59d3090 	ldr	r3, [sp, #144]	; 0x90
  10a7ec:	eaffff28 	b	10a494 <_vfprintf_r+0x1ab4>
  10a7f0:	e2833001 	add	r3, r3, #1
  10a7f4:	e0822004 	add	r2, r2, r4
  10a7f8:	e3530007 	cmp	r3, #7
  10a7fc:	e5886000 	str	r6, [r8]
  10a800:	e5884004 	str	r4, [r8, #4]
  10a804:	e2888008 	add	r8, r8, #8
  10a808:	e58d3090 	str	r3, [sp, #144]	; 0x90
  10a80c:	e58d2094 	str	r2, [sp, #148]	; 0x94
  10a810:	daffff21 	ble	10a49c <_vfprintf_r+0x1abc>
  10a814:	e28d208c 	add	r2, sp, #140	; 0x8c
  10a818:	e59d1024 	ldr	r1, [sp, #36]	; 0x24
  10a81c:	e59d001c 	ldr	r0, [sp, #28]
  10a820:	eb000da7 	bl	10dec4 <__sprint_r>
  10a824:	e3500000 	cmp	r0, #0
  10a828:	1afffcb1 	bne	109af4 <_vfprintf_r+0x1114>
  10a82c:	e59d2094 	ldr	r2, [sp, #148]	; 0x94
  10a830:	e28d80c0 	add	r8, sp, #192	; 0xc0
  10a834:	e59d3090 	ldr	r3, [sp, #144]	; 0x90
  10a838:	eaffff17 	b	10a49c <_vfprintf_r+0x1abc>
  10a83c:	e2833030 	add	r3, r3, #48	; 0x30
  10a840:	e3a02030 	mov	r2, #48	; 0x30
  10a844:	e5cd307f 	strb	r3, [sp, #127]	; 0x7f
  10a848:	e28d0080 	add	r0, sp, #128	; 0x80
  10a84c:	e5cd207e 	strb	r2, [sp, #126]	; 0x7e
  10a850:	eafffe86 	b	10a270 <_vfprintf_r+0x1890>
  10a854:	e3053794 	movw	r3, #22420	; 0x5794
  10a858:	e3052798 	movw	r2, #22424	; 0x5798
  10a85c:	e3403012 	movt	r3, #18
  10a860:	e3550047 	cmp	r5, #71	; 0x47
  10a864:	e3402012 	movt	r2, #18
  10a868:	e3a07003 	mov	r7, #3
  10a86c:	e3a04000 	mov	r4, #0
  10a870:	e3ca1080 	bic	r1, sl, #128	; 0x80
  10a874:	d1a02003 	movle	r2, r3
  10a878:	e58d1018 	str	r1, [sp, #24]
  10a87c:	e58d2038 	str	r2, [sp, #56]	; 0x38
  10a880:	e58d702c 	str	r7, [sp, #44]	; 0x2c
  10a884:	e58d4040 	str	r4, [sp, #64]	; 0x40
  10a888:	e5ddb06f 	ldrb	fp, [sp, #111]	; 0x6f
  10a88c:	eafff94c 	b	108dc4 <_vfprintf_r+0x3e4>
  10a890:	e21a3001 	ands	r3, sl, #1
  10a894:	e58d3040 	str	r3, [sp, #64]	; 0x40
  10a898:	1afffe7e 	bne	10a298 <_vfprintf_r+0x18b8>
  10a89c:	e59d302c 	ldr	r3, [sp, #44]	; 0x2c
  10a8a0:	e1c37fc3 	bic	r7, r3, r3, asr #31
  10a8a4:	eafffe82 	b	10a2b4 <_vfprintf_r+0x18d4>
  10a8a8:	e3540000 	cmp	r4, #0
  10a8ac:	1a000003 	bne	10a8c0 <_vfprintf_r+0x1ee0>
  10a8b0:	e31a0001 	tst	sl, #1
  10a8b4:	03a07001 	moveq	r7, #1
  10a8b8:	058d702c 	streq	r7, [sp, #44]	; 0x2c
  10a8bc:	0afffe7c 	beq	10a2b4 <_vfprintf_r+0x18d4>
  10a8c0:	e59d3048 	ldr	r3, [sp, #72]	; 0x48
  10a8c4:	e2837001 	add	r7, r3, #1
  10a8c8:	e0873004 	add	r3, r7, r4
  10a8cc:	e58d302c 	str	r3, [sp, #44]	; 0x2c
  10a8d0:	e1c37fc3 	bic	r7, r3, r3, asr #31
  10a8d4:	eafffe76 	b	10a2b4 <_vfprintf_r+0x18d4>
  10a8d8:	e59d3030 	ldr	r3, [sp, #48]	; 0x30
  10a8dc:	e5d95001 	ldrb	r5, [r9, #1]
  10a8e0:	e1a0900c 	mov	r9, ip
  10a8e4:	e5934000 	ldr	r4, [r3]
  10a8e8:	e2833004 	add	r3, r3, #4
  10a8ec:	e58d3030 	str	r3, [sp, #48]	; 0x30
  10a8f0:	e1540000 	cmp	r4, r0
  10a8f4:	b1a04000 	movlt	r4, r0
  10a8f8:	eafff89b 	b	108b6c <_vfprintf_r+0x18c>
  10a8fc:	e1a06004 	mov	r6, r4
  10a900:	eafffeb5 	b	10a3dc <_vfprintf_r+0x19fc>
  10a904:	e28d007e 	add	r0, sp, #126	; 0x7e
  10a908:	eafffe58 	b	10a270 <_vfprintf_r+0x1890>
  10a90c:	0012577c 	.word	0x0012577c

0010a910 <vfprintf>:
  10a910:	e92d4070 	push	{r4, r5, r6, lr}
  10a914:	e1a05001 	mov	r5, r1
  10a918:	e1a06002 	mov	r6, r2
  10a91c:	e1a04000 	mov	r4, r0
  10a920:	ebfff57f 	bl	107f24 <__getreent>
  10a924:	e1a03006 	mov	r3, r6
  10a928:	e1a02005 	mov	r2, r5
  10a92c:	e1a01004 	mov	r1, r4
  10a930:	e8bd4070 	pop	{r4, r5, r6, lr}
  10a934:	eafff829 	b	1089e0 <_vfprintf_r>

0010a938 <__sbprintf>:
  10a938:	e92d41f0 	push	{r4, r5, r6, r7, r8, lr}
  10a93c:	e1a04001 	mov	r4, r1
  10a940:	e1d110bc 	ldrh	r1, [r1, #12]
  10a944:	e1a07000 	mov	r7, r0
  10a948:	e1a08003 	mov	r8, r3
  10a94c:	e1a06002 	mov	r6, r2
  10a950:	e1d4c0be 	ldrh	ip, [r4, #14]
  10a954:	e24dde46 	sub	sp, sp, #1120	; 0x460
  10a958:	e5940064 	ldr	r0, [r4, #100]	; 0x64
  10a95c:	e24dd008 	sub	sp, sp, #8
  10a960:	e594301c 	ldr	r3, [r4, #28]
  10a964:	e3c11002 	bic	r1, r1, #2
  10a968:	e5942024 	ldr	r2, [r4, #36]	; 0x24
  10a96c:	e1cd10bc 	strh	r1, [sp, #12]
  10a970:	e3a01b01 	mov	r1, #1024	; 0x400
  10a974:	e1cdc0be 	strh	ip, [sp, #14]
  10a978:	e28dc068 	add	ip, sp, #104	; 0x68
  10a97c:	e58d0064 	str	r0, [sp, #100]	; 0x64
  10a980:	e28d0058 	add	r0, sp, #88	; 0x58
  10a984:	e58d301c 	str	r3, [sp, #28]
  10a988:	e3a03000 	mov	r3, #0
  10a98c:	e58d2024 	str	r2, [sp, #36]	; 0x24
  10a990:	e58dc000 	str	ip, [sp]
  10a994:	e58dc010 	str	ip, [sp, #16]
  10a998:	e58d1008 	str	r1, [sp, #8]
  10a99c:	e58d1014 	str	r1, [sp, #20]
  10a9a0:	e58d3018 	str	r3, [sp, #24]
  10a9a4:	eb001918 	bl	110e0c <__generic_gxx_recursive_mutex_init_function>
  10a9a8:	e1a02006 	mov	r2, r6
  10a9ac:	e1a03008 	mov	r3, r8
  10a9b0:	e1a0100d 	mov	r1, sp
  10a9b4:	e1a00007 	mov	r0, r7
  10a9b8:	ebfff808 	bl	1089e0 <_vfprintf_r>
  10a9bc:	e2506000 	subs	r6, r0, #0
  10a9c0:	ba000004 	blt	10a9d8 <__sbprintf+0xa0>
  10a9c4:	e1a0100d 	mov	r1, sp
  10a9c8:	e1a00007 	mov	r0, r7
  10a9cc:	eb0005d3 	bl	10c120 <_fflush_r>
  10a9d0:	e3500000 	cmp	r0, #0
  10a9d4:	13e06000 	mvnne	r6, #0
  10a9d8:	e1dd30bc 	ldrh	r3, [sp, #12]
  10a9dc:	e28d0058 	add	r0, sp, #88	; 0x58
  10a9e0:	e3130040 	tst	r3, #64	; 0x40
  10a9e4:	11d430bc 	ldrhne	r3, [r4, #12]
  10a9e8:	13833040 	orrne	r3, r3, #64	; 0x40
  10a9ec:	11c430bc 	strhne	r3, [r4, #12]
  10a9f0:	eb001907 	bl	110e14 <__generic_gxx_recursive_mutex_destroy>
  10a9f4:	e1a00006 	mov	r0, r6
  10a9f8:	e28dde46 	add	sp, sp, #1120	; 0x460
  10a9fc:	e28dd008 	add	sp, sp, #8
  10aa00:	e8bd81f0 	pop	{r4, r5, r6, r7, r8, pc}

0010aa04 <__swsetup_r>:
  10aa04:	e92d4070 	push	{r4, r5, r6, lr}
  10aa08:	e1a05000 	mov	r5, r0
  10aa0c:	e1a04001 	mov	r4, r1
  10aa10:	ebfff543 	bl	107f24 <__getreent>
  10aa14:	e2503000 	subs	r3, r0, #0
  10aa18:	0a000002 	beq	10aa28 <__swsetup_r+0x24>
  10aa1c:	e5933038 	ldr	r3, [r3, #56]	; 0x38
  10aa20:	e3530000 	cmp	r3, #0
  10aa24:	0a00002f 	beq	10aae8 <__swsetup_r+0xe4>
  10aa28:	e1d420fc 	ldrsh	r2, [r4, #12]
  10aa2c:	e6ff3072 	uxth	r3, r2
  10aa30:	e3130008 	tst	r3, #8
  10aa34:	0a00000b 	beq	10aa68 <__swsetup_r+0x64>
  10aa38:	e5940010 	ldr	r0, [r4, #16]
  10aa3c:	e3500000 	cmp	r0, #0
  10aa40:	0a000012 	beq	10aa90 <__swsetup_r+0x8c>
  10aa44:	e2132001 	ands	r2, r3, #1
  10aa48:	1a000019 	bne	10aab4 <__swsetup_r+0xb0>
  10aa4c:	e3130002 	tst	r3, #2
  10aa50:	05942014 	ldreq	r2, [r4, #20]
  10aa54:	e3500000 	cmp	r0, #0
  10aa58:	e5842008 	str	r2, [r4, #8]
  10aa5c:	0a00001b 	beq	10aad0 <__swsetup_r+0xcc>
  10aa60:	e3a00000 	mov	r0, #0
  10aa64:	e8bd8070 	pop	{r4, r5, r6, pc}
  10aa68:	e3130010 	tst	r3, #16
  10aa6c:	0a00002f 	beq	10ab30 <__swsetup_r+0x12c>
  10aa70:	e3130004 	tst	r3, #4
  10aa74:	1a00001d 	bne	10aaf0 <__swsetup_r+0xec>
  10aa78:	e5940010 	ldr	r0, [r4, #16]
  10aa7c:	e3500000 	cmp	r0, #0
  10aa80:	e3822008 	orr	r2, r2, #8
  10aa84:	e6ff3072 	uxth	r3, r2
  10aa88:	e1c420bc 	strh	r2, [r4, #12]
  10aa8c:	1affffec 	bne	10aa44 <__swsetup_r+0x40>
  10aa90:	e2032d0a 	and	r2, r3, #640	; 0x280
  10aa94:	e3520c02 	cmp	r2, #512	; 0x200
  10aa98:	0affffe9 	beq	10aa44 <__swsetup_r+0x40>
  10aa9c:	e1a00005 	mov	r0, r5
  10aaa0:	e1a01004 	mov	r1, r4
  10aaa4:	eb000821 	bl	10cb30 <__smakebuf_r>
  10aaa8:	e1d430bc 	ldrh	r3, [r4, #12]
  10aaac:	e5940010 	ldr	r0, [r4, #16]
  10aab0:	eaffffe3 	b	10aa44 <__swsetup_r+0x40>
  10aab4:	e5943014 	ldr	r3, [r4, #20]
  10aab8:	e3500000 	cmp	r0, #0
  10aabc:	e3a02000 	mov	r2, #0
  10aac0:	e5842008 	str	r2, [r4, #8]
  10aac4:	e2633000 	rsb	r3, r3, #0
  10aac8:	e5843018 	str	r3, [r4, #24]
  10aacc:	1affffe3 	bne	10aa60 <__swsetup_r+0x5c>
  10aad0:	e1d430fc 	ldrsh	r3, [r4, #12]
  10aad4:	e3130080 	tst	r3, #128	; 0x80
  10aad8:	13833040 	orrne	r3, r3, #64	; 0x40
  10aadc:	13e00000 	mvnne	r0, #0
  10aae0:	11c430bc 	strhne	r3, [r4, #12]
  10aae4:	e8bd8070 	pop	{r4, r5, r6, pc}
  10aae8:	eb000614 	bl	10c340 <__sinit>
  10aaec:	eaffffcd 	b	10aa28 <__swsetup_r+0x24>
  10aaf0:	e5941030 	ldr	r1, [r4, #48]	; 0x30
  10aaf4:	e3510000 	cmp	r1, #0
  10aaf8:	0a000007 	beq	10ab1c <__swsetup_r+0x118>
  10aafc:	e2843040 	add	r3, r4, #64	; 0x40
  10ab00:	e1510003 	cmp	r1, r3
  10ab04:	0a000002 	beq	10ab14 <__swsetup_r+0x110>
  10ab08:	e1a00005 	mov	r0, r5
  10ab0c:	eb0006d8 	bl	10c674 <_free_r>
  10ab10:	e1d420fc 	ldrsh	r2, [r4, #12]
  10ab14:	e3a03000 	mov	r3, #0
  10ab18:	e5843030 	str	r3, [r4, #48]	; 0x30
  10ab1c:	e5940010 	ldr	r0, [r4, #16]
  10ab20:	e3a03000 	mov	r3, #0
  10ab24:	e3c22024 	bic	r2, r2, #36	; 0x24
  10ab28:	e8840009 	stm	r4, {r0, r3}
  10ab2c:	eaffffd2 	b	10aa7c <__swsetup_r+0x78>
  10ab30:	e3822040 	orr	r2, r2, #64	; 0x40
  10ab34:	e3a03009 	mov	r3, #9
  10ab38:	e5853000 	str	r3, [r5]
  10ab3c:	e3e00000 	mvn	r0, #0
  10ab40:	e1c420bc 	strh	r2, [r4, #12]
  10ab44:	e8bd8070 	pop	{r4, r5, r6, pc}

0010ab48 <quorem>:
  10ab48:	e92d4ff0 	push	{r4, r5, r6, r7, r8, r9, sl, fp, lr}
  10ab4c:	e24dd014 	sub	sp, sp, #20
  10ab50:	e5903010 	ldr	r3, [r0, #16]
  10ab54:	e5915010 	ldr	r5, [r1, #16]
  10ab58:	e1550003 	cmp	r5, r3
  10ab5c:	c3a00000 	movgt	r0, #0
  10ab60:	ca00006c 	bgt	10ad18 <quorem+0x1d0>
  10ab64:	e2455001 	sub	r5, r5, #1
  10ab68:	e2814014 	add	r4, r1, #20
  10ab6c:	e58d1004 	str	r1, [sp, #4]
  10ab70:	e1a03105 	lsl	r3, r5, #2
  10ab74:	e7941105 	ldr	r1, [r4, r5, lsl #2]
  10ab78:	e2809014 	add	r9, r0, #20
  10ab7c:	e1a07000 	mov	r7, r0
  10ab80:	e7990105 	ldr	r0, [r9, r5, lsl #2]
  10ab84:	e1a0a003 	mov	sl, r3
  10ab88:	e58d3008 	str	r3, [sp, #8]
  10ab8c:	e2811001 	add	r1, r1, #1
  10ab90:	e0848003 	add	r8, r4, r3
  10ab94:	ebfff419 	bl	107c00 <__aeabi_uidiv>
  10ab98:	e2506000 	subs	r6, r0, #0
  10ab9c:	e089300a 	add	r3, r9, sl
  10aba0:	e58d300c 	str	r3, [sp, #12]
  10aba4:	0a00002e 	beq	10ac64 <quorem+0x11c>
  10aba8:	e3a0c000 	mov	ip, #0
  10abac:	e1a0a004 	mov	sl, r4
  10abb0:	e1a0e009 	mov	lr, r9
  10abb4:	e1a0300c 	mov	r3, ip
  10abb8:	e49a1004 	ldr	r1, [sl], #4
  10abbc:	e59e0000 	ldr	r0, [lr]
  10abc0:	e158000a 	cmp	r8, sl
  10abc4:	e6ff2071 	uxth	r2, r1
  10abc8:	e1a01821 	lsr	r1, r1, #16
  10abcc:	e6ffb070 	uxth	fp, r0
  10abd0:	e022c296 	mla	r2, r6, r2, ip
  10abd4:	e1a0c822 	lsr	ip, r2, #16
  10abd8:	e6ff2072 	uxth	r2, r2
  10abdc:	e02cc196 	mla	ip, r6, r1, ip
  10abe0:	e0433002 	sub	r3, r3, r2
  10abe4:	e083300b 	add	r3, r3, fp
  10abe8:	e6ff207c 	uxth	r2, ip
  10abec:	e6ff1073 	uxth	r1, r3
  10abf0:	e1a0c82c 	lsr	ip, ip, #16
  10abf4:	e0622820 	rsb	r2, r2, r0, lsr #16
  10abf8:	e0823843 	add	r3, r2, r3, asr #16
  10abfc:	e1811803 	orr	r1, r1, r3, lsl #16
  10ac00:	e1a03843 	asr	r3, r3, #16
  10ac04:	e48e1004 	str	r1, [lr], #4
  10ac08:	2affffea 	bcs	10abb8 <quorem+0x70>
  10ac0c:	e59d3008 	ldr	r3, [sp, #8]
  10ac10:	e7993003 	ldr	r3, [r9, r3]
  10ac14:	e3530000 	cmp	r3, #0
  10ac18:	1a000011 	bne	10ac64 <quorem+0x11c>
  10ac1c:	e59d200c 	ldr	r2, [sp, #12]
  10ac20:	e2423004 	sub	r3, r2, #4
  10ac24:	e1590003 	cmp	r9, r3
  10ac28:	2a00000c 	bcs	10ac60 <quorem+0x118>
  10ac2c:	e5123004 	ldr	r3, [r2, #-4]
  10ac30:	e3530000 	cmp	r3, #0
  10ac34:	1a000009 	bne	10ac60 <quorem+0x118>
  10ac38:	e2423008 	sub	r3, r2, #8
  10ac3c:	ea000002 	b	10ac4c <quorem+0x104>
  10ac40:	e5922000 	ldr	r2, [r2]
  10ac44:	e3520000 	cmp	r2, #0
  10ac48:	1a000004 	bne	10ac60 <quorem+0x118>
  10ac4c:	e1590003 	cmp	r9, r3
  10ac50:	e1a02003 	mov	r2, r3
  10ac54:	e2455001 	sub	r5, r5, #1
  10ac58:	e2433004 	sub	r3, r3, #4
  10ac5c:	3afffff7 	bcc	10ac40 <quorem+0xf8>
  10ac60:	e5875010 	str	r5, [r7, #16]
  10ac64:	e59d1004 	ldr	r1, [sp, #4]
  10ac68:	e1a00007 	mov	r0, r7
  10ac6c:	eb0009d5 	bl	10d3c8 <__mcmp>
  10ac70:	e3500000 	cmp	r0, #0
  10ac74:	ba000026 	blt	10ad14 <quorem+0x1cc>
  10ac78:	e2866001 	add	r6, r6, #1
  10ac7c:	e1a0c009 	mov	ip, r9
  10ac80:	e3a03000 	mov	r3, #0
  10ac84:	e4942004 	ldr	r2, [r4], #4
  10ac88:	e59c0000 	ldr	r0, [ip]
  10ac8c:	e1580004 	cmp	r8, r4
  10ac90:	e6ff1072 	uxth	r1, r2
  10ac94:	e1a02822 	lsr	r2, r2, #16
  10ac98:	e6ffe070 	uxth	lr, r0
  10ac9c:	e0431001 	sub	r1, r3, r1
  10aca0:	e0623820 	rsb	r3, r2, r0, lsr #16
  10aca4:	e081200e 	add	r2, r1, lr
  10aca8:	e0833842 	add	r3, r3, r2, asr #16
  10acac:	e6ff2072 	uxth	r2, r2
  10acb0:	e1822803 	orr	r2, r2, r3, lsl #16
  10acb4:	e1a03843 	asr	r3, r3, #16
  10acb8:	e48c2004 	str	r2, [ip], #4
  10acbc:	2afffff0 	bcs	10ac84 <quorem+0x13c>
  10acc0:	e7992105 	ldr	r2, [r9, r5, lsl #2]
  10acc4:	e0893105 	add	r3, r9, r5, lsl #2
  10acc8:	e3520000 	cmp	r2, #0
  10accc:	1a000010 	bne	10ad14 <quorem+0x1cc>
  10acd0:	e2432004 	sub	r2, r3, #4
  10acd4:	e1590002 	cmp	r9, r2
  10acd8:	2a00000c 	bcs	10ad10 <quorem+0x1c8>
  10acdc:	e5132004 	ldr	r2, [r3, #-4]
  10ace0:	e3520000 	cmp	r2, #0
  10ace4:	1a000009 	bne	10ad10 <quorem+0x1c8>
  10ace8:	e2433008 	sub	r3, r3, #8
  10acec:	ea000002 	b	10acfc <quorem+0x1b4>
  10acf0:	e5922000 	ldr	r2, [r2]
  10acf4:	e3520000 	cmp	r2, #0
  10acf8:	1a000004 	bne	10ad10 <quorem+0x1c8>
  10acfc:	e1590003 	cmp	r9, r3
  10ad00:	e1a02003 	mov	r2, r3
  10ad04:	e2455001 	sub	r5, r5, #1
  10ad08:	e2433004 	sub	r3, r3, #4
  10ad0c:	3afffff7 	bcc	10acf0 <quorem+0x1a8>
  10ad10:	e5875010 	str	r5, [r7, #16]
  10ad14:	e1a00006 	mov	r0, r6
  10ad18:	e28dd014 	add	sp, sp, #20
  10ad1c:	e8bd8ff0 	pop	{r4, r5, r6, r7, r8, r9, sl, fp, pc}

0010ad20 <_dtoa_r>:
  10ad20:	e590c040 	ldr	ip, [r0, #64]	; 0x40
  10ad24:	e92d4ff0 	push	{r4, r5, r6, r7, r8, r9, sl, fp, lr}
  10ad28:	e1a04000 	mov	r4, r0
  10ad2c:	ed2d8b02 	vpush	{d8}
  10ad30:	e24dd03c 	sub	sp, sp, #60	; 0x3c
  10ad34:	e35c0000 	cmp	ip, #0
  10ad38:	e1a0a002 	mov	sl, r2
  10ad3c:	e1a0b003 	mov	fp, r3
  10ad40:	e59d5074 	ldr	r5, [sp, #116]	; 0x74
  10ad44:	0a000008 	beq	10ad6c <_dtoa_r+0x4c>
  10ad48:	e5902044 	ldr	r2, [r0, #68]	; 0x44
  10ad4c:	e3a03001 	mov	r3, #1
  10ad50:	e1a0100c 	mov	r1, ip
  10ad54:	e58c2004 	str	r2, [ip, #4]
  10ad58:	e1a03213 	lsl	r3, r3, r2
  10ad5c:	e58c3008 	str	r3, [ip, #8]
  10ad60:	eb0007f8 	bl	10cd48 <_Bfree>
  10ad64:	e3a03000 	mov	r3, #0
  10ad68:	e5843040 	str	r3, [r4, #64]	; 0x40
  10ad6c:	e35b0000 	cmp	fp, #0
  10ad70:	e1a0600b 	mov	r6, fp
  10ad74:	b3a03001 	movlt	r3, #1
  10ad78:	a3a03000 	movge	r3, #0
  10ad7c:	b5853000 	strlt	r3, [r5]
  10ad80:	b3cb6102 	biclt	r6, fp, #-2147483648	; 0x80000000
  10ad84:	a5853000 	strge	r3, [r5]
  10ad88:	e3a03000 	mov	r3, #0
  10ad8c:	e3473ff0 	movt	r3, #32752	; 0x7ff0
  10ad90:	b1a0b006 	movlt	fp, r6
  10ad94:	e1d33006 	bics	r3, r3, r6
  10ad98:	0a000010 	beq	10ade0 <_dtoa_r+0xc0>
  10ad9c:	ec4bab18 	vmov	d8, sl, fp
  10ada0:	eeb58b40 	vcmp.f64	d8, #0.0
  10ada4:	eef1fa10 	vmrs	APSR_nzcv, fpscr
  10ada8:	1a000028 	bne	10ae50 <_dtoa_r+0x130>
  10adac:	e59d3078 	ldr	r3, [sp, #120]	; 0x78
  10adb0:	e59d2070 	ldr	r2, [sp, #112]	; 0x70
  10adb4:	e3530000 	cmp	r3, #0
  10adb8:	e3a03001 	mov	r3, #1
  10adbc:	e5823000 	str	r3, [r2]
  10adc0:	0a000087 	beq	10afe4 <_dtoa_r+0x2c4>
  10adc4:	e59f0304 	ldr	r0, [pc, #772]	; 10b0d0 <_dtoa_r+0x3b0>
  10adc8:	e59d3078 	ldr	r3, [sp, #120]	; 0x78
  10adcc:	e5830000 	str	r0, [r3]
  10add0:	e2400001 	sub	r0, r0, #1
  10add4:	e28dd03c 	add	sp, sp, #60	; 0x3c
  10add8:	ecbd8b02 	vpop	{d8}
  10addc:	e8bd8ff0 	pop	{r4, r5, r6, r7, r8, r9, sl, fp, pc}
  10ade0:	e59d2070 	ldr	r2, [sp, #112]	; 0x70
  10ade4:	e35a0000 	cmp	sl, #0
  10ade8:	e302370f 	movw	r3, #9999	; 0x270f
  10adec:	e5823000 	str	r3, [r2]
  10adf0:	1a00000d 	bne	10ae2c <_dtoa_r+0x10c>
  10adf4:	e7f36056 	ubfx	r6, r6, #0, #20
  10adf8:	e3560000 	cmp	r6, #0
  10adfc:	1a00000a 	bne	10ae2c <_dtoa_r+0x10c>
  10ae00:	e59d3078 	ldr	r3, [sp, #120]	; 0x78
  10ae04:	e30507d0 	movw	r0, #22480	; 0x57d0
  10ae08:	e3400012 	movt	r0, #18
  10ae0c:	e3530000 	cmp	r3, #0
  10ae10:	12803008 	addne	r3, r0, #8
  10ae14:	0affffee 	beq	10add4 <_dtoa_r+0xb4>
  10ae18:	e59d2078 	ldr	r2, [sp, #120]	; 0x78
  10ae1c:	e5823000 	str	r3, [r2]
  10ae20:	e28dd03c 	add	sp, sp, #60	; 0x3c
  10ae24:	ecbd8b02 	vpop	{d8}
  10ae28:	e8bd8ff0 	pop	{r4, r5, r6, r7, r8, r9, sl, fp, pc}
  10ae2c:	e59d3078 	ldr	r3, [sp, #120]	; 0x78
  10ae30:	e30507dc 	movw	r0, #22492	; 0x57dc
  10ae34:	e3400012 	movt	r0, #18
  10ae38:	e3530000 	cmp	r3, #0
  10ae3c:	12803003 	addne	r3, r0, #3
  10ae40:	0affffe3 	beq	10add4 <_dtoa_r+0xb4>
  10ae44:	e59d2078 	ldr	r2, [sp, #120]	; 0x78
  10ae48:	e5823000 	str	r3, [r2]
  10ae4c:	eafffff3 	b	10ae20 <_dtoa_r+0x100>
  10ae50:	e28d2030 	add	r2, sp, #48	; 0x30
  10ae54:	e28d3034 	add	r3, sp, #52	; 0x34
  10ae58:	e58d2004 	str	r2, [sp, #4]
  10ae5c:	e1a00004 	mov	r0, r4
  10ae60:	e58d3000 	str	r3, [sp]
  10ae64:	e1a0200a 	mov	r2, sl
  10ae68:	e1a0300b 	mov	r3, fp
  10ae6c:	eb000a23 	bl	10d700 <__d2b>
  10ae70:	e1b01a26 	lsrs	r1, r6, #20
  10ae74:	e1a07000 	mov	r7, r0
  10ae78:	1a00004e 	bne	10afb8 <_dtoa_r+0x298>
  10ae7c:	e59d0030 	ldr	r0, [sp, #48]	; 0x30
  10ae80:	e3a0c001 	mov	ip, #1
  10ae84:	e59d1034 	ldr	r1, [sp, #52]	; 0x34
  10ae88:	e58dc018 	str	ip, [sp, #24]
  10ae8c:	e0801001 	add	r1, r0, r1
  10ae90:	e2813e43 	add	r3, r1, #1072	; 0x430
  10ae94:	e2833002 	add	r3, r3, #2
  10ae98:	e3530020 	cmp	r3, #32
  10ae9c:	c2633040 	rsbgt	r3, r3, #64	; 0x40
  10aea0:	c2812e41 	addgt	r2, r1, #1040	; 0x410
  10aea4:	c1a06316 	lslgt	r6, r6, r3
  10aea8:	d2633020 	rsble	r3, r3, #32
  10aeac:	c2822002 	addgt	r2, r2, #2
  10aeb0:	d1a0331a 	lslle	r3, sl, r3
  10aeb4:	c186323a 	orrgt	r3, r6, sl, lsr r2
  10aeb8:	e2411001 	sub	r1, r1, #1
  10aebc:	ee073a90 	vmov	s15, r3
  10aec0:	eef80b67 	vcvt.f64.u32	d16, s15
  10aec4:	ec532b30 	vmov	r2, r3, d16
  10aec8:	e243361f 	sub	r3, r3, #32505856	; 0x1f00000
  10aecc:	ec432b30 	vmov	d16, r2, r3
  10aed0:	eef71b08 	vmov.f64	d17, #120	; 0x3fc00000  1.5
  10aed4:	eddf3b77 	vldr	d19, [pc, #476]	; 10b0b8 <_dtoa_r+0x398>
  10aed8:	ee701be1 	vsub.f64	d17, d16, d17
  10aedc:	eddf0b77 	vldr	d16, [pc, #476]	; 10b0c0 <_dtoa_r+0x3a0>
  10aee0:	ee071a90 	vmov	s15, r1
  10aee4:	eddf2b77 	vldr	d18, [pc, #476]	; 10b0c8 <_dtoa_r+0x3a8>
  10aee8:	ee410ba3 	vmla.f64	d16, d17, d19
  10aeec:	eef81be7 	vcvt.f64.s32	d17, s15
  10aef0:	ee410ba2 	vmla.f64	d16, d17, d18
  10aef4:	eefd7be0 	vcvt.s32.f64	s15, d16
  10aef8:	eef50bc0 	vcmpe.f64	d16, #0.0
  10aefc:	eef1fa10 	vmrs	APSR_nzcv, fpscr
  10af00:	ee179a90 	vmov	r9, s15
  10af04:	4a000111 	bmi	10b350 <_dtoa_r+0x630>
  10af08:	e3590016 	cmp	r9, #22
  10af0c:	83a03001 	movhi	r3, #1
  10af10:	858d3020 	strhi	r3, [sp, #32]
  10af14:	8a000009 	bhi	10af40 <_dtoa_r+0x220>
  10af18:	e30537f0 	movw	r3, #22512	; 0x57f0
  10af1c:	ec4bab31 	vmov	d17, sl, fp
  10af20:	e3403012 	movt	r3, #18
  10af24:	e0833189 	add	r3, r3, r9, lsl #3
  10af28:	edd30b00 	vldr	d16, [r3]
  10af2c:	e3a03000 	mov	r3, #0
  10af30:	e58d3020 	str	r3, [sp, #32]
  10af34:	eef40be1 	vcmpe.f64	d16, d17
  10af38:	eef1fa10 	vmrs	APSR_nzcv, fpscr
  10af3c:	c2499001 	subgt	r9, r9, #1
  10af40:	e0403001 	sub	r3, r0, r1
  10af44:	e2538001 	subs	r8, r3, #1
  10af48:	42633001 	rsbmi	r3, r3, #1
  10af4c:	53a03000 	movpl	r3, #0
  10af50:	458d3010 	strmi	r3, [sp, #16]
  10af54:	43a08000 	movmi	r8, #0
  10af58:	558d3010 	strpl	r3, [sp, #16]
  10af5c:	e3590000 	cmp	r9, #0
  10af60:	ba0000f2 	blt	10b330 <_dtoa_r+0x610>
  10af64:	e0888009 	add	r8, r8, r9
  10af68:	e3a03000 	mov	r3, #0
  10af6c:	e58d9024 	str	r9, [sp, #36]	; 0x24
  10af70:	e58d300c 	str	r3, [sp, #12]
  10af74:	e59d3068 	ldr	r3, [sp, #104]	; 0x68
  10af78:	e3530009 	cmp	r3, #9
  10af7c:	8a00001b 	bhi	10aff0 <_dtoa_r+0x2d0>
  10af80:	e3530005 	cmp	r3, #5
  10af84:	d3a05001 	movle	r5, #1
  10af88:	c3a05000 	movgt	r5, #0
  10af8c:	c2433004 	subgt	r3, r3, #4
  10af90:	c58d3068 	strgt	r3, [sp, #104]	; 0x68
  10af94:	e59d3068 	ldr	r3, [sp, #104]	; 0x68
  10af98:	e2433002 	sub	r3, r3, #2
  10af9c:	e3530003 	cmp	r3, #3
  10afa0:	979ff103 	ldrls	pc, [pc, r3, lsl #2]
  10afa4:	ea0000ee 	b	10b364 <_dtoa_r+0x644>
  10afa8:	0010b64c 	.word	0x0010b64c
  10afac:	0010b43c 	.word	0x0010b43c
  10afb0:	0010b67c 	.word	0x0010b67c
  10afb4:	0010b95c 	.word	0x0010b95c
  10afb8:	e1a0300b 	mov	r3, fp
  10afbc:	e2411fff 	sub	r1, r1, #1020	; 0x3fc
  10afc0:	e7f30053 	ubfx	r0, r3, #0, #20
  10afc4:	e3a0c000 	mov	ip, #0
  10afc8:	e38035ff 	orr	r3, r0, #1069547520	; 0x3fc00000
  10afcc:	e1a0200a 	mov	r2, sl
  10afd0:	e2411003 	sub	r1, r1, #3
  10afd4:	e59d0030 	ldr	r0, [sp, #48]	; 0x30
  10afd8:	e3833603 	orr	r3, r3, #3145728	; 0x300000
  10afdc:	e58dc018 	str	ip, [sp, #24]
  10afe0:	eaffffb9 	b	10aecc <_dtoa_r+0x1ac>
  10afe4:	e30507cc 	movw	r0, #22476	; 0x57cc
  10afe8:	e3400012 	movt	r0, #18
  10afec:	eaffff78 	b	10add4 <_dtoa_r+0xb4>
  10aff0:	e3a01000 	mov	r1, #0
  10aff4:	e3e03000 	mvn	r3, #0
  10aff8:	e1a00004 	mov	r0, r4
  10affc:	e5841044 	str	r1, [r4, #68]	; 0x44
  10b000:	e1a05003 	mov	r5, r3
  10b004:	e58d3028 	str	r3, [sp, #40]	; 0x28
  10b008:	e58d1068 	str	r1, [sp, #104]	; 0x68
  10b00c:	eb00072b 	bl	10ccc0 <_Balloc>
  10b010:	e59d3068 	ldr	r3, [sp, #104]	; 0x68
  10b014:	e1a06000 	mov	r6, r0
  10b018:	e5840040 	str	r0, [r4, #64]	; 0x40
  10b01c:	e58d5014 	str	r5, [sp, #20]
  10b020:	e58d306c 	str	r3, [sp, #108]	; 0x6c
  10b024:	e3a03001 	mov	r3, #1
  10b028:	e58d301c 	str	r3, [sp, #28]
  10b02c:	e59d3034 	ldr	r3, [sp, #52]	; 0x34
  10b030:	e359000e 	cmp	r9, #14
  10b034:	e1e02003 	mvn	r2, r3
  10b038:	e1a02fa2 	lsr	r2, r2, #31
  10b03c:	c3a02000 	movgt	r2, #0
  10b040:	e3520000 	cmp	r2, #0
  10b044:	0a000022 	beq	10b0d4 <_dtoa_r+0x3b4>
  10b048:	e59d1014 	ldr	r1, [sp, #20]
  10b04c:	e30537f0 	movw	r3, #22512	; 0x57f0
  10b050:	e59d006c 	ldr	r0, [sp, #108]	; 0x6c
  10b054:	e3403012 	movt	r3, #18
  10b058:	e0833189 	add	r3, r3, r9, lsl #3
  10b05c:	e3510000 	cmp	r1, #0
  10b060:	e1a02001 	mov	r2, r1
  10b064:	c3a02000 	movgt	r2, #0
  10b068:	d3a02001 	movle	r2, #1
  10b06c:	edd32b00 	vldr	d18, [r3]
  10b070:	e0122fa0 	ands	r2, r2, r0, lsr #31
  10b074:	0a000183 	beq	10b688 <_dtoa_r+0x968>
  10b078:	e59d3014 	ldr	r3, [sp, #20]
  10b07c:	e3530000 	cmp	r3, #0
  10b080:	1a0001c7 	bne	10b7a4 <_dtoa_r+0xa84>
  10b084:	eef10b04 	vmov.f64	d16, #20	; 0x40a00000  5.0
  10b088:	ee622ba0 	vmul.f64	d18, d18, d16
  10b08c:	ec4bab30 	vmov	d16, sl, fp
  10b090:	eef42be0 	vcmpe.f64	d18, d16
  10b094:	eef1fa10 	vmrs	APSR_nzcv, fpscr
  10b098:	ba00020d 	blt	10b8d4 <_dtoa_r+0xbb4>
  10b09c:	e59d3014 	ldr	r3, [sp, #20]
  10b0a0:	e58d300c 	str	r3, [sp, #12]
  10b0a4:	e58d3018 	str	r3, [sp, #24]
  10b0a8:	e59d306c 	ldr	r3, [sp, #108]	; 0x6c
  10b0ac:	e1a05006 	mov	r5, r6
  10b0b0:	e1e09003 	mvn	r9, r3
  10b0b4:	ea000083 	b	10b2c8 <_dtoa_r+0x5a8>
  10b0b8:	636f4361 	.word	0x636f4361
  10b0bc:	3fd287a7 	.word	0x3fd287a7
  10b0c0:	8b60c8b3 	.word	0x8b60c8b3
  10b0c4:	3fc68a28 	.word	0x3fc68a28
  10b0c8:	509f79fb 	.word	0x509f79fb
  10b0cc:	3fd34413 	.word	0x3fd34413
  10b0d0:	001257cd 	.word	0x001257cd
  10b0d4:	e59d201c 	ldr	r2, [sp, #28]
  10b0d8:	e3520000 	cmp	r2, #0
  10b0dc:	1a0000b5 	bne	10b3b8 <_dtoa_r+0x698>
  10b0e0:	e59d300c 	ldr	r3, [sp, #12]
  10b0e4:	e59d5010 	ldr	r5, [sp, #16]
  10b0e8:	e58d302c 	str	r3, [sp, #44]	; 0x2c
  10b0ec:	e59d301c 	ldr	r3, [sp, #28]
  10b0f0:	e58d3018 	str	r3, [sp, #24]
  10b0f4:	e3550000 	cmp	r5, #0
  10b0f8:	c3580000 	cmpgt	r8, #0
  10b0fc:	da000007 	ble	10b120 <_dtoa_r+0x400>
  10b100:	e1550008 	cmp	r5, r8
  10b104:	e59d2010 	ldr	r2, [sp, #16]
  10b108:	b1a03005 	movlt	r3, r5
  10b10c:	a1a03008 	movge	r3, r8
  10b110:	e0455003 	sub	r5, r5, r3
  10b114:	e0488003 	sub	r8, r8, r3
  10b118:	e0422003 	sub	r2, r2, r3
  10b11c:	e58d2010 	str	r2, [sp, #16]
  10b120:	e59d300c 	ldr	r3, [sp, #12]
  10b124:	e3530000 	cmp	r3, #0
  10b128:	0a000017 	beq	10b18c <_dtoa_r+0x46c>
  10b12c:	e59d301c 	ldr	r3, [sp, #28]
  10b130:	e3530000 	cmp	r3, #0
  10b134:	0a0001e9 	beq	10b8e0 <_dtoa_r+0xbc0>
  10b138:	e59d302c 	ldr	r3, [sp, #44]	; 0x2c
  10b13c:	e3530000 	cmp	r3, #0
  10b140:	da00000d 	ble	10b17c <_dtoa_r+0x45c>
  10b144:	e1a02003 	mov	r2, r3
  10b148:	e59d1018 	ldr	r1, [sp, #24]
  10b14c:	e1a00004 	mov	r0, r4
  10b150:	eb000822 	bl	10d1e0 <__pow5mult>
  10b154:	e1a02007 	mov	r2, r7
  10b158:	e1a01000 	mov	r1, r0
  10b15c:	e58d0018 	str	r0, [sp, #24]
  10b160:	e1a00004 	mov	r0, r4
  10b164:	eb0007b0 	bl	10d02c <__multiply>
  10b168:	e1a01007 	mov	r1, r7
  10b16c:	e1a03000 	mov	r3, r0
  10b170:	e1a00004 	mov	r0, r4
  10b174:	e1a07003 	mov	r7, r3
  10b178:	eb0006f2 	bl	10cd48 <_Bfree>
  10b17c:	e59d300c 	ldr	r3, [sp, #12]
  10b180:	e59d202c 	ldr	r2, [sp, #44]	; 0x2c
  10b184:	e0532002 	subs	r2, r3, r2
  10b188:	1a0001d5 	bne	10b8e4 <_dtoa_r+0xbc4>
  10b18c:	e3a01001 	mov	r1, #1
  10b190:	e1a00004 	mov	r0, r4
  10b194:	eb00079c 	bl	10d00c <__i2b>
  10b198:	e59d3024 	ldr	r3, [sp, #36]	; 0x24
  10b19c:	e58d000c 	str	r0, [sp, #12]
  10b1a0:	e3530000 	cmp	r3, #0
  10b1a4:	da0001bf 	ble	10b8a8 <_dtoa_r+0xb88>
  10b1a8:	e1a01000 	mov	r1, r0
  10b1ac:	e1a02003 	mov	r2, r3
  10b1b0:	e1a00004 	mov	r0, r4
  10b1b4:	eb000809 	bl	10d1e0 <__pow5mult>
  10b1b8:	e59d3068 	ldr	r3, [sp, #104]	; 0x68
  10b1bc:	e58d000c 	str	r0, [sp, #12]
  10b1c0:	e3530001 	cmp	r3, #1
  10b1c4:	da00029d 	ble	10bc40 <_dtoa_r+0xf20>
  10b1c8:	e3a03000 	mov	r3, #0
  10b1cc:	e58d302c 	str	r3, [sp, #44]	; 0x2c
  10b1d0:	e59d200c 	ldr	r2, [sp, #12]
  10b1d4:	e5923010 	ldr	r3, [r2, #16]
  10b1d8:	e0823103 	add	r3, r2, r3, lsl #2
  10b1dc:	e5930010 	ldr	r0, [r3, #16]
  10b1e0:	eb00074d 	bl	10cf1c <__hi0bits>
  10b1e4:	e2600020 	rsb	r0, r0, #32
  10b1e8:	e0800008 	add	r0, r0, r8
  10b1ec:	e210001f 	ands	r0, r0, #31
  10b1f0:	0a00016f 	beq	10b7b4 <_dtoa_r+0xa94>
  10b1f4:	e2603020 	rsb	r3, r0, #32
  10b1f8:	e3530004 	cmp	r3, #4
  10b1fc:	da000336 	ble	10bedc <_dtoa_r+0x11bc>
  10b200:	e260001c 	rsb	r0, r0, #28
  10b204:	e59d3010 	ldr	r3, [sp, #16]
  10b208:	e0855000 	add	r5, r5, r0
  10b20c:	e0888000 	add	r8, r8, r0
  10b210:	e0833000 	add	r3, r3, r0
  10b214:	e58d3010 	str	r3, [sp, #16]
  10b218:	e59d3010 	ldr	r3, [sp, #16]
  10b21c:	e3530000 	cmp	r3, #0
  10b220:	da000004 	ble	10b238 <_dtoa_r+0x518>
  10b224:	e1a01007 	mov	r1, r7
  10b228:	e1a02003 	mov	r2, r3
  10b22c:	e1a00004 	mov	r0, r4
  10b230:	eb000829 	bl	10d2dc <__lshift>
  10b234:	e1a07000 	mov	r7, r0
  10b238:	e3580000 	cmp	r8, #0
  10b23c:	da000004 	ble	10b254 <_dtoa_r+0x534>
  10b240:	e1a02008 	mov	r2, r8
  10b244:	e59d100c 	ldr	r1, [sp, #12]
  10b248:	e1a00004 	mov	r0, r4
  10b24c:	eb000822 	bl	10d2dc <__lshift>
  10b250:	e58d000c 	str	r0, [sp, #12]
  10b254:	e59d3020 	ldr	r3, [sp, #32]
  10b258:	e3530000 	cmp	r3, #0
  10b25c:	1a0001e2 	bne	10b9ec <_dtoa_r+0xccc>
  10b260:	e59d3014 	ldr	r3, [sp, #20]
  10b264:	e59d2068 	ldr	r2, [sp, #104]	; 0x68
  10b268:	e3530000 	cmp	r3, #0
  10b26c:	d3a03001 	movle	r3, #1
  10b270:	c3a03000 	movgt	r3, #0
  10b274:	e3520002 	cmp	r2, #2
  10b278:	d3a03000 	movle	r3, #0
  10b27c:	e3530000 	cmp	r3, #0
  10b280:	0a00014d 	beq	10b7bc <_dtoa_r+0xa9c>
  10b284:	e59d3014 	ldr	r3, [sp, #20]
  10b288:	e3530000 	cmp	r3, #0
  10b28c:	1affff85 	bne	10b0a8 <_dtoa_r+0x388>
  10b290:	e59d100c 	ldr	r1, [sp, #12]
  10b294:	e3a02005 	mov	r2, #5
  10b298:	e1a00004 	mov	r0, r4
  10b29c:	eb0006b0 	bl	10cd64 <__multadd>
  10b2a0:	e1a01000 	mov	r1, r0
  10b2a4:	e58d000c 	str	r0, [sp, #12]
  10b2a8:	e1a00007 	mov	r0, r7
  10b2ac:	eb000845 	bl	10d3c8 <__mcmp>
  10b2b0:	e3500000 	cmp	r0, #0
  10b2b4:	daffff7b 	ble	10b0a8 <_dtoa_r+0x388>
  10b2b8:	e2899001 	add	r9, r9, #1
  10b2bc:	e2865001 	add	r5, r6, #1
  10b2c0:	e3a03031 	mov	r3, #49	; 0x31
  10b2c4:	e5c63000 	strb	r3, [r6]
  10b2c8:	e59d100c 	ldr	r1, [sp, #12]
  10b2cc:	e1a00004 	mov	r0, r4
  10b2d0:	eb00069c 	bl	10cd48 <_Bfree>
  10b2d4:	e59d3018 	ldr	r3, [sp, #24]
  10b2d8:	e3530000 	cmp	r3, #0
  10b2dc:	0a000002 	beq	10b2ec <_dtoa_r+0x5cc>
  10b2e0:	e59d1018 	ldr	r1, [sp, #24]
  10b2e4:	e1a00004 	mov	r0, r4
  10b2e8:	eb000696 	bl	10cd48 <_Bfree>
  10b2ec:	e1a01007 	mov	r1, r7
  10b2f0:	e1a00004 	mov	r0, r4
  10b2f4:	eb000693 	bl	10cd48 <_Bfree>
  10b2f8:	e59d3078 	ldr	r3, [sp, #120]	; 0x78
  10b2fc:	e3a02000 	mov	r2, #0
  10b300:	e5c52000 	strb	r2, [r5]
  10b304:	e59d2070 	ldr	r2, [sp, #112]	; 0x70
  10b308:	e3530000 	cmp	r3, #0
  10b30c:	e2893001 	add	r3, r9, #1
  10b310:	e5823000 	str	r3, [r2]
  10b314:	0a000247 	beq	10bc38 <_dtoa_r+0xf18>
  10b318:	e59d3078 	ldr	r3, [sp, #120]	; 0x78
  10b31c:	e1a00006 	mov	r0, r6
  10b320:	e5835000 	str	r5, [r3]
  10b324:	e28dd03c 	add	sp, sp, #60	; 0x3c
  10b328:	ecbd8b02 	vpop	{d8}
  10b32c:	e8bd8ff0 	pop	{r4, r5, r6, r7, r8, r9, sl, fp, pc}
  10b330:	e59d3010 	ldr	r3, [sp, #16]
  10b334:	e0433009 	sub	r3, r3, r9
  10b338:	e58d3010 	str	r3, [sp, #16]
  10b33c:	e2693000 	rsb	r3, r9, #0
  10b340:	e58d300c 	str	r3, [sp, #12]
  10b344:	e3a03000 	mov	r3, #0
  10b348:	e58d3024 	str	r3, [sp, #36]	; 0x24
  10b34c:	eaffff08 	b	10af74 <_dtoa_r+0x254>
  10b350:	eef81be7 	vcvt.f64.s32	d17, s15
  10b354:	eef40b61 	vcmp.f64	d16, d17
  10b358:	eef1fa10 	vmrs	APSR_nzcv, fpscr
  10b35c:	12499001 	subne	r9, r9, #1
  10b360:	eafffee8 	b	10af08 <_dtoa_r+0x1e8>
  10b364:	e3a05000 	mov	r5, #0
  10b368:	e1a00004 	mov	r0, r4
  10b36c:	e5845044 	str	r5, [r4, #68]	; 0x44
  10b370:	e1a01005 	mov	r1, r5
  10b374:	eb000651 	bl	10ccc0 <_Balloc>
  10b378:	e59d3034 	ldr	r3, [sp, #52]	; 0x34
  10b37c:	e359000e 	cmp	r9, #14
  10b380:	c3a02000 	movgt	r2, #0
  10b384:	d3a02001 	movle	r2, #1
  10b388:	e1a06000 	mov	r6, r0
  10b38c:	e5840040 	str	r0, [r4, #64]	; 0x40
  10b390:	e1530005 	cmp	r3, r5
  10b394:	b3a02000 	movlt	r2, #0
  10b398:	e1520005 	cmp	r2, r5
  10b39c:	1a0002d1 	bne	10bee8 <_dtoa_r+0x11c8>
  10b3a0:	e3e01000 	mvn	r1, #0
  10b3a4:	e58d206c 	str	r2, [sp, #108]	; 0x6c
  10b3a8:	e3a02001 	mov	r2, #1
  10b3ac:	e58d1028 	str	r1, [sp, #40]	; 0x28
  10b3b0:	e58d1014 	str	r1, [sp, #20]
  10b3b4:	e58d201c 	str	r2, [sp, #28]
  10b3b8:	e59d2068 	ldr	r2, [sp, #104]	; 0x68
  10b3bc:	e3520001 	cmp	r2, #1
  10b3c0:	da00025d 	ble	10bd3c <_dtoa_r+0x101c>
  10b3c4:	e59d3014 	ldr	r3, [sp, #20]
  10b3c8:	e2435001 	sub	r5, r3, #1
  10b3cc:	e59d300c 	ldr	r3, [sp, #12]
  10b3d0:	e1530005 	cmp	r3, r5
  10b3d4:	b59d300c 	ldrlt	r3, [sp, #12]
  10b3d8:	a0433005 	subge	r3, r3, r5
  10b3dc:	b59d2024 	ldrlt	r2, [sp, #36]	; 0x24
  10b3e0:	b58d500c 	strlt	r5, [sp, #12]
  10b3e4:	b0453003 	sublt	r3, r5, r3
  10b3e8:	b0823003 	addlt	r3, r2, r3
  10b3ec:	b58d3024 	strlt	r3, [sp, #36]	; 0x24
  10b3f0:	b3a03000 	movlt	r3, #0
  10b3f4:	e58d302c 	str	r3, [sp, #44]	; 0x2c
  10b3f8:	e59d3014 	ldr	r3, [sp, #20]
  10b3fc:	e3530000 	cmp	r3, #0
  10b400:	b59d3010 	ldrlt	r3, [sp, #16]
  10b404:	b59d2014 	ldrlt	r2, [sp, #20]
  10b408:	a59d5010 	ldrge	r5, [sp, #16]
  10b40c:	a59d3014 	ldrge	r3, [sp, #20]
  10b410:	b0435002 	sublt	r5, r3, r2
  10b414:	b3a03000 	movlt	r3, #0
  10b418:	e59d2010 	ldr	r2, [sp, #16]
  10b41c:	e3a01001 	mov	r1, #1
  10b420:	e1a00004 	mov	r0, r4
  10b424:	e0888003 	add	r8, r8, r3
  10b428:	e0822003 	add	r2, r2, r3
  10b42c:	e58d2010 	str	r2, [sp, #16]
  10b430:	eb0006f5 	bl	10d00c <__i2b>
  10b434:	e58d0018 	str	r0, [sp, #24]
  10b438:	eaffff2d 	b	10b0f4 <_dtoa_r+0x3d4>
  10b43c:	e3a03000 	mov	r3, #0
  10b440:	e58d301c 	str	r3, [sp, #28]
  10b444:	e59d306c 	ldr	r3, [sp, #108]	; 0x6c
  10b448:	e0893003 	add	r3, r9, r3
  10b44c:	e58d3028 	str	r3, [sp, #40]	; 0x28
  10b450:	e2833001 	add	r3, r3, #1
  10b454:	e3530001 	cmp	r3, #1
  10b458:	e58d3014 	str	r3, [sp, #20]
  10b45c:	a1a0c003 	movge	ip, r3
  10b460:	b3a0c001 	movlt	ip, #1
  10b464:	e353000e 	cmp	r3, #14
  10b468:	83a05000 	movhi	r5, #0
  10b46c:	92055001 	andls	r5, r5, #1
  10b470:	e35c0017 	cmp	ip, #23
  10b474:	e3a01000 	mov	r1, #0
  10b478:	e5841044 	str	r1, [r4, #68]	; 0x44
  10b47c:	9a000008 	bls	10b4a4 <_dtoa_r+0x784>
  10b480:	e3a02001 	mov	r2, #1
  10b484:	e3a03004 	mov	r3, #4
  10b488:	e1a03083 	lsl	r3, r3, #1
  10b48c:	e1a01002 	mov	r1, r2
  10b490:	e2822001 	add	r2, r2, #1
  10b494:	e2830014 	add	r0, r3, #20
  10b498:	e150000c 	cmp	r0, ip
  10b49c:	9afffff9 	bls	10b488 <_dtoa_r+0x768>
  10b4a0:	e5841044 	str	r1, [r4, #68]	; 0x44
  10b4a4:	e1a00004 	mov	r0, r4
  10b4a8:	eb000604 	bl	10ccc0 <_Balloc>
  10b4ac:	e3550000 	cmp	r5, #0
  10b4b0:	e1a06000 	mov	r6, r0
  10b4b4:	e5840040 	str	r0, [r4, #64]	; 0x40
  10b4b8:	0afffedb 	beq	10b02c <_dtoa_r+0x30c>
  10b4bc:	e3590000 	cmp	r9, #0
  10b4c0:	ec4bab35 	vmov	d21, sl, fp
  10b4c4:	da00010d 	ble	10b900 <_dtoa_r+0xbe0>
  10b4c8:	e30527f0 	movw	r2, #22512	; 0x57f0
  10b4cc:	e1a03249 	asr	r3, r9, #4
  10b4d0:	e209100f 	and	r1, r9, #15
  10b4d4:	e3402012 	movt	r2, #18
  10b4d8:	e3130010 	tst	r3, #16
  10b4dc:	e0822181 	add	r2, r2, r1, lsl #3
  10b4e0:	1203300f 	andne	r3, r3, #15
  10b4e4:	13a01003 	movne	r1, #3
  10b4e8:	0ef02b65 	vmoveq.f64	d18, d21
  10b4ec:	edd20b00 	vldr	d16, [r2]
  10b4f0:	130528e0 	movwne	r2, #22752	; 0x58e0
  10b4f4:	13402012 	movtne	r2, #18
  10b4f8:	03a01002 	moveq	r1, #2
  10b4fc:	1dd21b08 	vldrne	d17, [r2, #32]
  10b500:	1ec52ba1 	vdivne.f64	d18, d21, d17
  10b504:	e3530000 	cmp	r3, #0
  10b508:	0a000008 	beq	10b530 <_dtoa_r+0x810>
  10b50c:	e30528e0 	movw	r2, #22752	; 0x58e0
  10b510:	e3402012 	movt	r2, #18
  10b514:	e3130001 	tst	r3, #1
  10b518:	e2822008 	add	r2, r2, #8
  10b51c:	1d521b02 	vldrne	d17, [r2, #-8]
  10b520:	12811001 	addne	r1, r1, #1
  10b524:	1e600ba1 	vmulne.f64	d16, d16, d17
  10b528:	e1b030c3 	asrs	r3, r3, #1
  10b52c:	1afffff8 	bne	10b514 <_dtoa_r+0x7f4>
  10b530:	eec23ba0 	vdiv.f64	d19, d18, d16
  10b534:	e59d3020 	ldr	r3, [sp, #32]
  10b538:	e3530000 	cmp	r3, #0
  10b53c:	0a000003 	beq	10b550 <_dtoa_r+0x830>
  10b540:	eef70b00 	vmov.f64	d16, #112	; 0x3f800000  1.0
  10b544:	eef43be0 	vcmpe.f64	d19, d16
  10b548:	eef1fa10 	vmrs	APSR_nzcv, fpscr
  10b54c:	4a0001d4 	bmi	10bca4 <_dtoa_r+0xf84>
  10b550:	ee071a90 	vmov	s15, r1
  10b554:	eef80be7 	vcvt.f64.s32	d16, s15
  10b558:	eef12b0c 	vmov.f64	d18, #28	; 0x40e00000  7.0
  10b55c:	e59d3014 	ldr	r3, [sp, #20]
  10b560:	ee402ba3 	vmla.f64	d18, d16, d19
  10b564:	e3530000 	cmp	r3, #0
  10b568:	ec510b32 	vmov	r0, r1, d18
  10b56c:	e241150d 	sub	r1, r1, #54525952	; 0x3400000
  10b570:	0a000081 	beq	10b77c <_dtoa_r+0xa5c>
  10b574:	e59dc014 	ldr	ip, [sp, #20]
  10b578:	e1a02009 	mov	r2, r9
  10b57c:	e59d301c 	ldr	r3, [sp, #28]
  10b580:	e3530000 	cmp	r3, #0
  10b584:	e30537f0 	movw	r3, #22512	; 0x57f0
  10b588:	0a0000f6 	beq	10b968 <_dtoa_r+0xc48>
  10b58c:	e3403012 	movt	r3, #18
  10b590:	eef64b00 	vmov.f64	d20, #96	; 0x3f000000  0.5
  10b594:	e083318c 	add	r3, r3, ip, lsl #3
  10b598:	eefd7be3 	vcvt.s32.f64	s15, d19
  10b59c:	e2865001 	add	r5, r6, #1
  10b5a0:	ed532b02 	vldr	d18, [r3, #-8]
  10b5a4:	eef80be7 	vcvt.f64.s32	d16, s15
  10b5a8:	ee173a90 	vmov	r3, s15
  10b5ac:	eec41ba2 	vdiv.f64	d17, d20, d18
  10b5b0:	e2833030 	add	r3, r3, #48	; 0x30
  10b5b4:	ec410b32 	vmov	d18, r0, r1
  10b5b8:	e6ef3073 	uxtb	r3, r3
  10b5bc:	ee730be0 	vsub.f64	d16, d19, d16
  10b5c0:	e5c63000 	strb	r3, [r6]
  10b5c4:	ee712be2 	vsub.f64	d18, d17, d18
  10b5c8:	eef42be0 	vcmpe.f64	d18, d16
  10b5cc:	eef1fa10 	vmrs	APSR_nzcv, fpscr
  10b5d0:	ca00001b 	bgt	10b644 <_dtoa_r+0x924>
  10b5d4:	eef74b00 	vmov.f64	d20, #112	; 0x3f800000  1.0
  10b5d8:	ee741be0 	vsub.f64	d17, d20, d16
  10b5dc:	eef42be1 	vcmpe.f64	d18, d17
  10b5e0:	eef1fa10 	vmrs	APSR_nzcv, fpscr
  10b5e4:	ca0001e1 	bgt	10bd70 <_dtoa_r+0x1050>
  10b5e8:	e35c0001 	cmp	ip, #1
  10b5ec:	1086100c 	addne	r1, r6, ip
  10b5f0:	1ef23b04 	vmovne.f64	d19, #36	; 0x41200000  10.0
  10b5f4:	1a000006 	bne	10b614 <_dtoa_r+0x8f4>
  10b5f8:	ea0000be 	b	10b8f8 <_dtoa_r+0xbd8>
  10b5fc:	ee741be0 	vsub.f64	d17, d20, d16
  10b600:	eef41be2 	vcmpe.f64	d17, d18
  10b604:	eef1fa10 	vmrs	APSR_nzcv, fpscr
  10b608:	4a0001d8 	bmi	10bd70 <_dtoa_r+0x1050>
  10b60c:	e1510005 	cmp	r1, r5
  10b610:	0a0000b8 	beq	10b8f8 <_dtoa_r+0xbd8>
  10b614:	ee600ba3 	vmul.f64	d16, d16, d19
  10b618:	ee622ba3 	vmul.f64	d18, d18, d19
  10b61c:	eefd7be0 	vcvt.s32.f64	s15, d16
  10b620:	eef81be7 	vcvt.f64.s32	d17, s15
  10b624:	ee173a90 	vmov	r3, s15
  10b628:	e2833030 	add	r3, r3, #48	; 0x30
  10b62c:	e6ef3073 	uxtb	r3, r3
  10b630:	ee700be1 	vsub.f64	d16, d16, d17
  10b634:	e4c53001 	strb	r3, [r5], #1
  10b638:	eef40be2 	vcmpe.f64	d16, d18
  10b63c:	eef1fa10 	vmrs	APSR_nzcv, fpscr
  10b640:	5affffed 	bpl	10b5fc <_dtoa_r+0x8dc>
  10b644:	e1a09002 	mov	r9, r2
  10b648:	eaffff27 	b	10b2ec <_dtoa_r+0x5cc>
  10b64c:	e3a03000 	mov	r3, #0
  10b650:	e58d301c 	str	r3, [sp, #28]
  10b654:	e59d306c 	ldr	r3, [sp, #108]	; 0x6c
  10b658:	e3530000 	cmp	r3, #0
  10b65c:	da000189 	ble	10bc88 <_dtoa_r+0xf68>
  10b660:	e353000e 	cmp	r3, #14
  10b664:	83a05000 	movhi	r5, #0
  10b668:	92055001 	andls	r5, r5, #1
  10b66c:	e1a0c003 	mov	ip, r3
  10b670:	e58d3028 	str	r3, [sp, #40]	; 0x28
  10b674:	e58d3014 	str	r3, [sp, #20]
  10b678:	eaffff7c 	b	10b470 <_dtoa_r+0x750>
  10b67c:	e3a03001 	mov	r3, #1
  10b680:	e58d301c 	str	r3, [sp, #28]
  10b684:	eafffff2 	b	10b654 <_dtoa_r+0x934>
  10b688:	ec4bab30 	vmov	d16, sl, fp
  10b68c:	e3510001 	cmp	r1, #1
  10b690:	e1a02001 	mov	r2, r1
  10b694:	e2865001 	add	r5, r6, #1
  10b698:	eec01ba2 	vdiv.f64	d17, d16, d18
  10b69c:	eefd7be1 	vcvt.s32.f64	s15, d17
  10b6a0:	eef81be7 	vcvt.f64.s32	d17, s15
  10b6a4:	ee173a90 	vmov	r3, s15
  10b6a8:	e2833030 	add	r3, r3, #48	; 0x30
  10b6ac:	e5c63000 	strb	r3, [r6]
  10b6b0:	ee410be2 	vmls.f64	d16, d17, d18
  10b6b4:	0a000014 	beq	10b70c <_dtoa_r+0x9ec>
  10b6b8:	eef23b04 	vmov.f64	d19, #36	; 0x41200000  10.0
  10b6bc:	ee600ba3 	vmul.f64	d16, d16, d19
  10b6c0:	eef50b40 	vcmp.f64	d16, #0.0
  10b6c4:	eef1fa10 	vmrs	APSR_nzcv, fpscr
  10b6c8:	159d2014 	ldrne	r2, [sp, #20]
  10b6cc:	1a000004 	bne	10b6e4 <_dtoa_r+0x9c4>
  10b6d0:	eaffff05 	b	10b2ec <_dtoa_r+0x5cc>
  10b6d4:	ee600ba3 	vmul.f64	d16, d16, d19
  10b6d8:	eef50b40 	vcmp.f64	d16, #0.0
  10b6dc:	eef1fa10 	vmrs	APSR_nzcv, fpscr
  10b6e0:	0affff01 	beq	10b2ec <_dtoa_r+0x5cc>
  10b6e4:	eec01ba2 	vdiv.f64	d17, d16, d18
  10b6e8:	eefd7be1 	vcvt.s32.f64	s15, d17
  10b6ec:	ee173a90 	vmov	r3, s15
  10b6f0:	e2833030 	add	r3, r3, #48	; 0x30
  10b6f4:	eef81be7 	vcvt.f64.s32	d17, s15
  10b6f8:	e4c53001 	strb	r3, [r5], #1
  10b6fc:	e0453006 	sub	r3, r5, r6
  10b700:	e1530002 	cmp	r3, r2
  10b704:	ee410be2 	vmls.f64	d16, d17, d18
  10b708:	1afffff1 	bne	10b6d4 <_dtoa_r+0x9b4>
  10b70c:	ee700ba0 	vadd.f64	d16, d16, d16
  10b710:	eef42be0 	vcmpe.f64	d18, d16
  10b714:	eef1fa10 	vmrs	APSR_nzcv, fpscr
  10b718:	4a000005 	bmi	10b734 <_dtoa_r+0xa14>
  10b71c:	eef42b60 	vcmp.f64	d18, d16
  10b720:	eef1fa10 	vmrs	APSR_nzcv, fpscr
  10b724:	1afffef0 	bne	10b2ec <_dtoa_r+0x5cc>
  10b728:	ee173a90 	vmov	r3, s15
  10b72c:	e3130001 	tst	r3, #1
  10b730:	0afffeed 	beq	10b2ec <_dtoa_r+0x5cc>
  10b734:	e5553001 	ldrb	r3, [r5, #-1]
  10b738:	e2452001 	sub	r2, r5, #1
  10b73c:	ea000002 	b	10b74c <_dtoa_r+0xa2c>
  10b740:	e1560002 	cmp	r6, r2
  10b744:	0a000168 	beq	10bcec <_dtoa_r+0xfcc>
  10b748:	e5723001 	ldrb	r3, [r2, #-1]!
  10b74c:	e3530039 	cmp	r3, #57	; 0x39
  10b750:	e2825001 	add	r5, r2, #1
  10b754:	0afffff9 	beq	10b740 <_dtoa_r+0xa20>
  10b758:	e2833001 	add	r3, r3, #1
  10b75c:	e5c23000 	strb	r3, [r2]
  10b760:	eafffee1 	b	10b2ec <_dtoa_r+0x5cc>
  10b764:	ee071a90 	vmov	s15, r1
  10b768:	eef80be7 	vcvt.f64.s32	d16, s15
  10b76c:	eef12b0c 	vmov.f64	d18, #28	; 0x40e00000  7.0
  10b770:	ee402ba3 	vmla.f64	d18, d16, d19
  10b774:	ec510b32 	vmov	r0, r1, d18
  10b778:	e241150d 	sub	r1, r1, #54525952	; 0x3400000
  10b77c:	eef10b04 	vmov.f64	d16, #20	; 0x40a00000  5.0
  10b780:	ec410b32 	vmov	d18, r0, r1
  10b784:	ee730be0 	vsub.f64	d16, d19, d16
  10b788:	eef40be2 	vcmpe.f64	d16, d18
  10b78c:	eef1fa10 	vmrs	APSR_nzcv, fpscr
  10b790:	ca00004e 	bgt	10b8d0 <_dtoa_r+0xbb0>
  10b794:	eef12b62 	vneg.f64	d18, d18
  10b798:	eef40be2 	vcmpe.f64	d16, d18
  10b79c:	eef1fa10 	vmrs	APSR_nzcv, fpscr
  10b7a0:	5a000054 	bpl	10b8f8 <_dtoa_r+0xbd8>
  10b7a4:	e3a03000 	mov	r3, #0
  10b7a8:	e58d300c 	str	r3, [sp, #12]
  10b7ac:	e58d3018 	str	r3, [sp, #24]
  10b7b0:	eafffe3c 	b	10b0a8 <_dtoa_r+0x388>
  10b7b4:	e3a0001c 	mov	r0, #28
  10b7b8:	eafffe91 	b	10b204 <_dtoa_r+0x4e4>
  10b7bc:	e59d301c 	ldr	r3, [sp, #28]
  10b7c0:	e3530000 	cmp	r3, #0
  10b7c4:	1a0000b6 	bne	10baa4 <_dtoa_r+0xd84>
  10b7c8:	e1a05006 	mov	r5, r6
  10b7cc:	e59da00c 	ldr	sl, [sp, #12]
  10b7d0:	e59db014 	ldr	fp, [sp, #20]
  10b7d4:	ea000001 	b	10b7e0 <_dtoa_r+0xac0>
  10b7d8:	eb000561 	bl	10cd64 <__multadd>
  10b7dc:	e1a07000 	mov	r7, r0
  10b7e0:	e1a0100a 	mov	r1, sl
  10b7e4:	e1a00007 	mov	r0, r7
  10b7e8:	ebfffcd6 	bl	10ab48 <quorem>
  10b7ec:	e2808030 	add	r8, r0, #48	; 0x30
  10b7f0:	e3a03000 	mov	r3, #0
  10b7f4:	e4c58001 	strb	r8, [r5], #1
  10b7f8:	e0452006 	sub	r2, r5, r6
  10b7fc:	e15b0002 	cmp	fp, r2
  10b800:	e1a01007 	mov	r1, r7
  10b804:	e3a0200a 	mov	r2, #10
  10b808:	e1a00004 	mov	r0, r4
  10b80c:	cafffff1 	bgt	10b7d8 <_dtoa_r+0xab8>
  10b810:	e59d3014 	ldr	r3, [sp, #20]
  10b814:	e3a0a000 	mov	sl, #0
  10b818:	e3530001 	cmp	r3, #1
  10b81c:	a0865003 	addge	r5, r6, r3
  10b820:	b2865001 	addlt	r5, r6, #1
  10b824:	e1a01007 	mov	r1, r7
  10b828:	e3a02001 	mov	r2, #1
  10b82c:	e1a00004 	mov	r0, r4
  10b830:	eb0006a9 	bl	10d2dc <__lshift>
  10b834:	e59d100c 	ldr	r1, [sp, #12]
  10b838:	e1a07000 	mov	r7, r0
  10b83c:	eb0006e1 	bl	10d3c8 <__mcmp>
  10b840:	e3500000 	cmp	r0, #0
  10b844:	da000163 	ble	10bdd8 <_dtoa_r+0x10b8>
  10b848:	e5552001 	ldrb	r2, [r5, #-1]
  10b84c:	e2453001 	sub	r3, r5, #1
  10b850:	ea000002 	b	10b860 <_dtoa_r+0xb40>
  10b854:	e1560003 	cmp	r6, r3
  10b858:	0a000133 	beq	10bd2c <_dtoa_r+0x100c>
  10b85c:	e5732001 	ldrb	r2, [r3, #-1]!
  10b860:	e3520039 	cmp	r2, #57	; 0x39
  10b864:	e2835001 	add	r5, r3, #1
  10b868:	0afffff9 	beq	10b854 <_dtoa_r+0xb34>
  10b86c:	e2822001 	add	r2, r2, #1
  10b870:	e5c32000 	strb	r2, [r3]
  10b874:	e59d100c 	ldr	r1, [sp, #12]
  10b878:	e1a00004 	mov	r0, r4
  10b87c:	eb000531 	bl	10cd48 <_Bfree>
  10b880:	e59d3018 	ldr	r3, [sp, #24]
  10b884:	e3530000 	cmp	r3, #0
  10b888:	0afffe97 	beq	10b2ec <_dtoa_r+0x5cc>
  10b88c:	e35a0000 	cmp	sl, #0
  10b890:	115a0003 	cmpne	sl, r3
  10b894:	0afffe91 	beq	10b2e0 <_dtoa_r+0x5c0>
  10b898:	e1a0100a 	mov	r1, sl
  10b89c:	e1a00004 	mov	r0, r4
  10b8a0:	eb000528 	bl	10cd48 <_Bfree>
  10b8a4:	eafffe8d 	b	10b2e0 <_dtoa_r+0x5c0>
  10b8a8:	e59d3068 	ldr	r3, [sp, #104]	; 0x68
  10b8ac:	e3530001 	cmp	r3, #1
  10b8b0:	da000177 	ble	10be94 <_dtoa_r+0x1174>
  10b8b4:	e3a03000 	mov	r3, #0
  10b8b8:	e58d302c 	str	r3, [sp, #44]	; 0x2c
  10b8bc:	e59d3024 	ldr	r3, [sp, #36]	; 0x24
  10b8c0:	e3530000 	cmp	r3, #0
  10b8c4:	03a00001 	moveq	r0, #1
  10b8c8:	0afffe46 	beq	10b1e8 <_dtoa_r+0x4c8>
  10b8cc:	eafffe3f 	b	10b1d0 <_dtoa_r+0x4b0>
  10b8d0:	e3a03000 	mov	r3, #0
  10b8d4:	e58d300c 	str	r3, [sp, #12]
  10b8d8:	e58d3018 	str	r3, [sp, #24]
  10b8dc:	eafffe75 	b	10b2b8 <_dtoa_r+0x598>
  10b8e0:	e59d200c 	ldr	r2, [sp, #12]
  10b8e4:	e1a01007 	mov	r1, r7
  10b8e8:	e1a00004 	mov	r0, r4
  10b8ec:	eb00063b 	bl	10d1e0 <__pow5mult>
  10b8f0:	e1a07000 	mov	r7, r0
  10b8f4:	eafffe24 	b	10b18c <_dtoa_r+0x46c>
  10b8f8:	ec5bab35 	vmov	sl, fp, d21
  10b8fc:	eafffdca 	b	10b02c <_dtoa_r+0x30c>
  10b900:	0ef03b65 	vmoveq.f64	d19, d21
  10b904:	03a01002 	moveq	r1, #2
  10b908:	0affff09 	beq	10b534 <_dtoa_r+0x814>
  10b90c:	e2693000 	rsb	r3, r9, #0
  10b910:	e30527f0 	movw	r2, #22512	; 0x57f0
  10b914:	e203100f 	and	r1, r3, #15
  10b918:	e3402012 	movt	r2, #18
  10b91c:	e0822181 	add	r2, r2, r1, lsl #3
  10b920:	e1b03243 	asrs	r3, r3, #4
  10b924:	edd23b00 	vldr	d19, [r2]
  10b928:	ee653ba3 	vmul.f64	d19, d21, d19
  10b92c:	0a000168 	beq	10bed4 <_dtoa_r+0x11b4>
  10b930:	e30528e0 	movw	r2, #22752	; 0x58e0
  10b934:	e3a01002 	mov	r1, #2
  10b938:	e3402012 	movt	r2, #18
  10b93c:	e3130001 	tst	r3, #1
  10b940:	e2822008 	add	r2, r2, #8
  10b944:	1d520b02 	vldrne	d16, [r2, #-8]
  10b948:	12811001 	addne	r1, r1, #1
  10b94c:	1e633ba0 	vmulne.f64	d19, d19, d16
  10b950:	e1b030c3 	asrs	r3, r3, #1
  10b954:	1afffff8 	bne	10b93c <_dtoa_r+0xc1c>
  10b958:	eafffef5 	b	10b534 <_dtoa_r+0x814>
  10b95c:	e3a03001 	mov	r3, #1
  10b960:	e58d301c 	str	r3, [sp, #28]
  10b964:	eafffeb6 	b	10b444 <_dtoa_r+0x724>
  10b968:	eefd7be3 	vcvt.s32.f64	s15, d19
  10b96c:	e3403012 	movt	r3, #18
  10b970:	e083318c 	add	r3, r3, ip, lsl #3
  10b974:	e35c0001 	cmp	ip, #1
  10b978:	ec410b31 	vmov	d17, r0, r1
  10b97c:	e2865001 	add	r5, r6, #1
  10b980:	ed534b02 	vldr	d20, [r3, #-8]
  10b984:	1086100c 	addne	r1, r6, ip
  10b988:	eef80be7 	vcvt.f64.s32	d16, s15
  10b98c:	ee173a90 	vmov	r3, s15
  10b990:	e2833030 	add	r3, r3, #48	; 0x30
  10b994:	1ef22b04 	vmovne.f64	d18, #36	; 0x41200000  10.0
  10b998:	e5c63000 	strb	r3, [r6]
  10b99c:	ee644ba1 	vmul.f64	d20, d20, d17
  10b9a0:	ee730be0 	vsub.f64	d16, d19, d16
  10b9a4:	0a000008 	beq	10b9cc <_dtoa_r+0xcac>
  10b9a8:	ee600ba2 	vmul.f64	d16, d16, d18
  10b9ac:	eefd7be0 	vcvt.s32.f64	s15, d16
  10b9b0:	eef81be7 	vcvt.f64.s32	d17, s15
  10b9b4:	ee173a90 	vmov	r3, s15
  10b9b8:	e2833030 	add	r3, r3, #48	; 0x30
  10b9bc:	e4c53001 	strb	r3, [r5], #1
  10b9c0:	e1510005 	cmp	r1, r5
  10b9c4:	ee700be1 	vsub.f64	d16, d16, d17
  10b9c8:	1afffff6 	bne	10b9a8 <_dtoa_r+0xc88>
  10b9cc:	eef61b00 	vmov.f64	d17, #96	; 0x3f000000  0.5
  10b9d0:	ee742ba1 	vadd.f64	d18, d20, d17
  10b9d4:	eef42be0 	vcmpe.f64	d18, d16
  10b9d8:	eef1fa10 	vmrs	APSR_nzcv, fpscr
  10b9dc:	5a0000c7 	bpl	10bd00 <_dtoa_r+0xfe0>
  10b9e0:	e1a09002 	mov	r9, r2
  10b9e4:	e5553001 	ldrb	r3, [r5, #-1]
  10b9e8:	eaffff52 	b	10b738 <_dtoa_r+0xa18>
  10b9ec:	e59d100c 	ldr	r1, [sp, #12]
  10b9f0:	e1a00007 	mov	r0, r7
  10b9f4:	eb000673 	bl	10d3c8 <__mcmp>
  10b9f8:	e3500000 	cmp	r0, #0
  10b9fc:	aafffe17 	bge	10b260 <_dtoa_r+0x540>
  10ba00:	e1a01007 	mov	r1, r7
  10ba04:	e3a03000 	mov	r3, #0
  10ba08:	e3a0200a 	mov	r2, #10
  10ba0c:	e1a00004 	mov	r0, r4
  10ba10:	eb0004d3 	bl	10cd64 <__multadd>
  10ba14:	e59d301c 	ldr	r3, [sp, #28]
  10ba18:	e1a07000 	mov	r7, r0
  10ba1c:	e2499001 	sub	r9, r9, #1
  10ba20:	e3530000 	cmp	r3, #0
  10ba24:	1a00000e 	bne	10ba64 <_dtoa_r+0xd44>
  10ba28:	e59d2028 	ldr	r2, [sp, #40]	; 0x28
  10ba2c:	e59d1068 	ldr	r1, [sp, #104]	; 0x68
  10ba30:	e3520000 	cmp	r2, #0
  10ba34:	e1a03002 	mov	r3, r2
  10ba38:	d3a03001 	movle	r3, #1
  10ba3c:	c3a03000 	movgt	r3, #0
  10ba40:	e3510002 	cmp	r1, #2
  10ba44:	d3a03000 	movle	r3, #0
  10ba48:	e3530000 	cmp	r3, #0
  10ba4c:	01a03002 	moveq	r3, r2
  10ba50:	058d3014 	streq	r3, [sp, #20]
  10ba54:	0affff5b 	beq	10b7c8 <_dtoa_r+0xaa8>
  10ba58:	e59d3028 	ldr	r3, [sp, #40]	; 0x28
  10ba5c:	e58d3014 	str	r3, [sp, #20]
  10ba60:	eafffe07 	b	10b284 <_dtoa_r+0x564>
  10ba64:	e3a03000 	mov	r3, #0
  10ba68:	e3a0200a 	mov	r2, #10
  10ba6c:	e59d1018 	ldr	r1, [sp, #24]
  10ba70:	e1a00004 	mov	r0, r4
  10ba74:	eb0004ba 	bl	10cd64 <__multadd>
  10ba78:	e59d3068 	ldr	r3, [sp, #104]	; 0x68
  10ba7c:	e59d2028 	ldr	r2, [sp, #40]	; 0x28
  10ba80:	e58d0018 	str	r0, [sp, #24]
  10ba84:	e3530002 	cmp	r3, #2
  10ba88:	c3a03001 	movgt	r3, #1
  10ba8c:	d3a03000 	movle	r3, #0
  10ba90:	e3520000 	cmp	r2, #0
  10ba94:	c3a03000 	movgt	r3, #0
  10ba98:	e3530000 	cmp	r3, #0
  10ba9c:	058d2014 	streq	r2, [sp, #20]
  10baa0:	1affffec 	bne	10ba58 <_dtoa_r+0xd38>
  10baa4:	e3550000 	cmp	r5, #0
  10baa8:	da000004 	ble	10bac0 <_dtoa_r+0xda0>
  10baac:	e1a02005 	mov	r2, r5
  10bab0:	e59d1018 	ldr	r1, [sp, #24]
  10bab4:	e1a00004 	mov	r0, r4
  10bab8:	eb000607 	bl	10d2dc <__lshift>
  10babc:	e58d0018 	str	r0, [sp, #24]
  10bac0:	e59d302c 	ldr	r3, [sp, #44]	; 0x2c
  10bac4:	e3530000 	cmp	r3, #0
  10bac8:	1a0000cc 	bne	10be00 <_dtoa_r+0x10e0>
  10bacc:	e59d3018 	ldr	r3, [sp, #24]
  10bad0:	e58d3010 	str	r3, [sp, #16]
  10bad4:	e59d3014 	ldr	r3, [sp, #20]
  10bad8:	e20a2001 	and	r2, sl, #1
  10badc:	e1a05006 	mov	r5, r6
  10bae0:	e58d9020 	str	r9, [sp, #32]
  10bae4:	e58d6024 	str	r6, [sp, #36]	; 0x24
  10bae8:	e2433001 	sub	r3, r3, #1
  10baec:	e58d2014 	str	r2, [sp, #20]
  10baf0:	e0863003 	add	r3, r6, r3
  10baf4:	e59d9010 	ldr	r9, [sp, #16]
  10baf8:	e58d301c 	str	r3, [sp, #28]
  10bafc:	e59d6018 	ldr	r6, [sp, #24]
  10bb00:	ea000008 	b	10bb28 <_dtoa_r+0xe08>
  10bb04:	eb000496 	bl	10cd64 <__multadd>
  10bb08:	e1a01009 	mov	r1, r9
  10bb0c:	e1a06000 	mov	r6, r0
  10bb10:	e3a03000 	mov	r3, #0
  10bb14:	e1a00004 	mov	r0, r4
  10bb18:	e3a0200a 	mov	r2, #10
  10bb1c:	eb000490 	bl	10cd64 <__multadd>
  10bb20:	e1a09000 	mov	r9, r0
  10bb24:	e1a0500a 	mov	r5, sl
  10bb28:	e59d100c 	ldr	r1, [sp, #12]
  10bb2c:	e1a00007 	mov	r0, r7
  10bb30:	ebfffc04 	bl	10ab48 <quorem>
  10bb34:	e1a01006 	mov	r1, r6
  10bb38:	e1a0b000 	mov	fp, r0
  10bb3c:	e1a00007 	mov	r0, r7
  10bb40:	e28b8030 	add	r8, fp, #48	; 0x30
  10bb44:	eb00061f 	bl	10d3c8 <__mcmp>
  10bb48:	e1a02009 	mov	r2, r9
  10bb4c:	e1a0a000 	mov	sl, r0
  10bb50:	e59d100c 	ldr	r1, [sp, #12]
  10bb54:	e1a00004 	mov	r0, r4
  10bb58:	eb000632 	bl	10d428 <__mdiff>
  10bb5c:	e590200c 	ldr	r2, [r0, #12]
  10bb60:	e1a03000 	mov	r3, r0
  10bb64:	e3520000 	cmp	r2, #0
  10bb68:	1a000030 	bne	10bc30 <_dtoa_r+0xf10>
  10bb6c:	e1a01000 	mov	r1, r0
  10bb70:	e58d0010 	str	r0, [sp, #16]
  10bb74:	e1a00007 	mov	r0, r7
  10bb78:	eb000612 	bl	10d3c8 <__mcmp>
  10bb7c:	e59d3010 	ldr	r3, [sp, #16]
  10bb80:	e1a02000 	mov	r2, r0
  10bb84:	e1a01003 	mov	r1, r3
  10bb88:	e1a00004 	mov	r0, r4
  10bb8c:	e58d2010 	str	r2, [sp, #16]
  10bb90:	eb00046c 	bl	10cd48 <_Bfree>
  10bb94:	e59d3068 	ldr	r3, [sp, #104]	; 0x68
  10bb98:	e59d2010 	ldr	r2, [sp, #16]
  10bb9c:	e1923003 	orrs	r3, r2, r3
  10bba0:	1a000002 	bne	10bbb0 <_dtoa_r+0xe90>
  10bba4:	e59d3014 	ldr	r3, [sp, #20]
  10bba8:	e3530000 	cmp	r3, #0
  10bbac:	0a0000bb 	beq	10bea0 <_dtoa_r+0x1180>
  10bbb0:	e35a0000 	cmp	sl, #0
  10bbb4:	ba00006f 	blt	10bd78 <_dtoa_r+0x1058>
  10bbb8:	e59d3068 	ldr	r3, [sp, #104]	; 0x68
  10bbbc:	e19a3003 	orrs	r3, sl, r3
  10bbc0:	1a000002 	bne	10bbd0 <_dtoa_r+0xeb0>
  10bbc4:	e59d3014 	ldr	r3, [sp, #20]
  10bbc8:	e3530000 	cmp	r3, #0
  10bbcc:	0a000069 	beq	10bd78 <_dtoa_r+0x1058>
  10bbd0:	e3520000 	cmp	r2, #0
  10bbd4:	ca00009a 	bgt	10be44 <_dtoa_r+0x1124>
  10bbd8:	e59d301c 	ldr	r3, [sp, #28]
  10bbdc:	e285a001 	add	sl, r5, #1
  10bbe0:	e5c58000 	strb	r8, [r5]
  10bbe4:	e1530005 	cmp	r3, r5
  10bbe8:	e1a0500a 	mov	r5, sl
  10bbec:	0a0000a2 	beq	10be7c <_dtoa_r+0x115c>
  10bbf0:	e1a01007 	mov	r1, r7
  10bbf4:	e3a03000 	mov	r3, #0
  10bbf8:	e3a0200a 	mov	r2, #10
  10bbfc:	e1a00004 	mov	r0, r4
  10bc00:	eb000457 	bl	10cd64 <__multadd>
  10bc04:	e1560009 	cmp	r6, r9
  10bc08:	e1a07000 	mov	r7, r0
  10bc0c:	e1a01006 	mov	r1, r6
  10bc10:	e3a03000 	mov	r3, #0
  10bc14:	e3a0200a 	mov	r2, #10
  10bc18:	e1a00004 	mov	r0, r4
  10bc1c:	1affffb8 	bne	10bb04 <_dtoa_r+0xde4>
  10bc20:	eb00044f 	bl	10cd64 <__multadd>
  10bc24:	e1a06000 	mov	r6, r0
  10bc28:	e1a09000 	mov	r9, r0
  10bc2c:	eaffffbc 	b	10bb24 <_dtoa_r+0xe04>
  10bc30:	e3a02001 	mov	r2, #1
  10bc34:	eaffffd2 	b	10bb84 <_dtoa_r+0xe64>
  10bc38:	e1a00006 	mov	r0, r6
  10bc3c:	eafffc64 	b	10add4 <_dtoa_r+0xb4>
  10bc40:	e35a0000 	cmp	sl, #0
  10bc44:	1afffd5f 	bne	10b1c8 <_dtoa_r+0x4a8>
  10bc48:	e7f3305b 	ubfx	r3, fp, #0, #20
  10bc4c:	e3530000 	cmp	r3, #0
  10bc50:	1affff17 	bne	10b8b4 <_dtoa_r+0xb94>
  10bc54:	e3cb3102 	bic	r3, fp, #-2147483648	; 0x80000000
  10bc58:	e1a03a23 	lsr	r3, r3, #20
  10bc5c:	e1a03a03 	lsl	r3, r3, #20
  10bc60:	e3530000 	cmp	r3, #0
  10bc64:	058d302c 	streq	r3, [sp, #44]	; 0x2c
  10bc68:	0affff13 	beq	10b8bc <_dtoa_r+0xb9c>
  10bc6c:	e59d3010 	ldr	r3, [sp, #16]
  10bc70:	e2888001 	add	r8, r8, #1
  10bc74:	e2833001 	add	r3, r3, #1
  10bc78:	e58d3010 	str	r3, [sp, #16]
  10bc7c:	e3a03001 	mov	r3, #1
  10bc80:	e58d302c 	str	r3, [sp, #44]	; 0x2c
  10bc84:	eaffff0c 	b	10b8bc <_dtoa_r+0xb9c>
  10bc88:	e3a03001 	mov	r3, #1
  10bc8c:	e3a01000 	mov	r1, #0
  10bc90:	e58d3028 	str	r3, [sp, #40]	; 0x28
  10bc94:	e5841044 	str	r1, [r4, #68]	; 0x44
  10bc98:	e58d306c 	str	r3, [sp, #108]	; 0x6c
  10bc9c:	e58d3014 	str	r3, [sp, #20]
  10bca0:	eafffdff 	b	10b4a4 <_dtoa_r+0x784>
  10bca4:	e59d3014 	ldr	r3, [sp, #20]
  10bca8:	e3530000 	cmp	r3, #0
  10bcac:	0afffeac 	beq	10b764 <_dtoa_r+0xa44>
  10bcb0:	e59d3028 	ldr	r3, [sp, #40]	; 0x28
  10bcb4:	e3530000 	cmp	r3, #0
  10bcb8:	daffff0e 	ble	10b8f8 <_dtoa_r+0xbd8>
  10bcbc:	eef20b04 	vmov.f64	d16, #36	; 0x41200000  10.0
  10bcc0:	e2811001 	add	r1, r1, #1
  10bcc4:	eef12b0c 	vmov.f64	d18, #28	; 0x40e00000  7.0
  10bcc8:	e2492001 	sub	r2, r9, #1
  10bccc:	ee633ba0 	vmul.f64	d19, d19, d16
  10bcd0:	e1a0c003 	mov	ip, r3
  10bcd4:	ee071a90 	vmov	s15, r1
  10bcd8:	eef80be7 	vcvt.f64.s32	d16, s15
  10bcdc:	ee402ba3 	vmla.f64	d18, d16, d19
  10bce0:	ec510b32 	vmov	r0, r1, d18
  10bce4:	e241150d 	sub	r1, r1, #54525952	; 0x3400000
  10bce8:	eafffe23 	b	10b57c <_dtoa_r+0x85c>
  10bcec:	e3a03030 	mov	r3, #48	; 0x30
  10bcf0:	e2899001 	add	r9, r9, #1
  10bcf4:	e5c63000 	strb	r3, [r6]
  10bcf8:	e5553001 	ldrb	r3, [r5, #-1]
  10bcfc:	eafffe95 	b	10b758 <_dtoa_r+0xa38>
  10bd00:	ee711be4 	vsub.f64	d17, d17, d20
  10bd04:	eef41be0 	vcmpe.f64	d17, d16
  10bd08:	eef1fa10 	vmrs	APSR_nzcv, fpscr
  10bd0c:	ca000001 	bgt	10bd18 <_dtoa_r+0xff8>
  10bd10:	eafffef8 	b	10b8f8 <_dtoa_r+0xbd8>
  10bd14:	e1a05001 	mov	r5, r1
  10bd18:	e5553001 	ldrb	r3, [r5, #-1]
  10bd1c:	e2451001 	sub	r1, r5, #1
  10bd20:	e3530030 	cmp	r3, #48	; 0x30
  10bd24:	0afffffa 	beq	10bd14 <_dtoa_r+0xff4>
  10bd28:	eafffe45 	b	10b644 <_dtoa_r+0x924>
  10bd2c:	e3a03031 	mov	r3, #49	; 0x31
  10bd30:	e2899001 	add	r9, r9, #1
  10bd34:	e5c63000 	strb	r3, [r6]
  10bd38:	eafffecd 	b	10b874 <_dtoa_r+0xb54>
  10bd3c:	e59d2018 	ldr	r2, [sp, #24]
  10bd40:	e3520000 	cmp	r2, #0
  10bd44:	159d200c 	ldrne	r2, [sp, #12]
  10bd48:	12833e43 	addne	r3, r3, #1072	; 0x430
  10bd4c:	059d3030 	ldreq	r3, [sp, #48]	; 0x30
  10bd50:	12833003 	addne	r3, r3, #3
  10bd54:	059d200c 	ldreq	r2, [sp, #12]
  10bd58:	158d202c 	strne	r2, [sp, #44]	; 0x2c
  10bd5c:	159d5010 	ldrne	r5, [sp, #16]
  10bd60:	02633036 	rsbeq	r3, r3, #54	; 0x36
  10bd64:	058d202c 	streq	r2, [sp, #44]	; 0x2c
  10bd68:	059d5010 	ldreq	r5, [sp, #16]
  10bd6c:	eafffda9 	b	10b418 <_dtoa_r+0x6f8>
  10bd70:	e1a09002 	mov	r9, r2
  10bd74:	eafffe6f 	b	10b738 <_dtoa_r+0xa18>
  10bd78:	e3520000 	cmp	r2, #0
  10bd7c:	e58d6018 	str	r6, [sp, #24]
  10bd80:	e58d9010 	str	r9, [sp, #16]
  10bd84:	e59d6024 	ldr	r6, [sp, #36]	; 0x24
  10bd88:	e59d9020 	ldr	r9, [sp, #32]
  10bd8c:	da00000b 	ble	10bdc0 <_dtoa_r+0x10a0>
  10bd90:	e1a01007 	mov	r1, r7
  10bd94:	e3a02001 	mov	r2, #1
  10bd98:	e1a00004 	mov	r0, r4
  10bd9c:	eb00054e 	bl	10d2dc <__lshift>
  10bda0:	e59d100c 	ldr	r1, [sp, #12]
  10bda4:	e1a07000 	mov	r7, r0
  10bda8:	eb000586 	bl	10d3c8 <__mcmp>
  10bdac:	e3500000 	cmp	r0, #0
  10bdb0:	da000043 	ble	10bec4 <_dtoa_r+0x11a4>
  10bdb4:	e3580039 	cmp	r8, #57	; 0x39
  10bdb8:	0a000028 	beq	10be60 <_dtoa_r+0x1140>
  10bdbc:	e28b8031 	add	r8, fp, #49	; 0x31
  10bdc0:	e59d3010 	ldr	r3, [sp, #16]
  10bdc4:	e2855001 	add	r5, r5, #1
  10bdc8:	e59da018 	ldr	sl, [sp, #24]
  10bdcc:	e5458001 	strb	r8, [r5, #-1]
  10bdd0:	e58d3018 	str	r3, [sp, #24]
  10bdd4:	eafffea6 	b	10b874 <_dtoa_r+0xb54>
  10bdd8:	1a000003 	bne	10bdec <_dtoa_r+0x10cc>
  10bddc:	e3180001 	tst	r8, #1
  10bde0:	0a000001 	beq	10bdec <_dtoa_r+0x10cc>
  10bde4:	eafffe97 	b	10b848 <_dtoa_r+0xb28>
  10bde8:	e1a05002 	mov	r5, r2
  10bdec:	e5553001 	ldrb	r3, [r5, #-1]
  10bdf0:	e2452001 	sub	r2, r5, #1
  10bdf4:	e3530030 	cmp	r3, #48	; 0x30
  10bdf8:	0afffffa 	beq	10bde8 <_dtoa_r+0x10c8>
  10bdfc:	eafffe9c 	b	10b874 <_dtoa_r+0xb54>
  10be00:	e59d8018 	ldr	r8, [sp, #24]
  10be04:	e1a00004 	mov	r0, r4
  10be08:	e5981004 	ldr	r1, [r8, #4]
  10be0c:	eb0003ab 	bl	10ccc0 <_Balloc>
  10be10:	e5982010 	ldr	r2, [r8, #16]
  10be14:	e1a05000 	mov	r5, r0
  10be18:	e288100c 	add	r1, r8, #12
  10be1c:	e280000c 	add	r0, r0, #12
  10be20:	e2822002 	add	r2, r2, #2
  10be24:	e1a02102 	lsl	r2, r2, #2
  10be28:	ebfff228 	bl	1086d0 <memcpy>
  10be2c:	e1a01005 	mov	r1, r5
  10be30:	e3a02001 	mov	r2, #1
  10be34:	e1a00004 	mov	r0, r4
  10be38:	eb000527 	bl	10d2dc <__lshift>
  10be3c:	e58d0010 	str	r0, [sp, #16]
  10be40:	eaffff23 	b	10bad4 <_dtoa_r+0xdb4>
  10be44:	e3580039 	cmp	r8, #57	; 0x39
  10be48:	e58d6018 	str	r6, [sp, #24]
  10be4c:	e58d9010 	str	r9, [sp, #16]
  10be50:	12888001 	addne	r8, r8, #1
  10be54:	e59d9020 	ldr	r9, [sp, #32]
  10be58:	e59d6024 	ldr	r6, [sp, #36]	; 0x24
  10be5c:	1affffd7 	bne	10bdc0 <_dtoa_r+0x10a0>
  10be60:	e59d3010 	ldr	r3, [sp, #16]
  10be64:	e3a02039 	mov	r2, #57	; 0x39
  10be68:	e59da018 	ldr	sl, [sp, #24]
  10be6c:	e2855001 	add	r5, r5, #1
  10be70:	e5452001 	strb	r2, [r5, #-1]
  10be74:	e58d3018 	str	r3, [sp, #24]
  10be78:	eafffe73 	b	10b84c <_dtoa_r+0xb2c>
  10be7c:	e1a03009 	mov	r3, r9
  10be80:	e1a0a006 	mov	sl, r6
  10be84:	e59d9020 	ldr	r9, [sp, #32]
  10be88:	e59d6024 	ldr	r6, [sp, #36]	; 0x24
  10be8c:	e58d3018 	str	r3, [sp, #24]
  10be90:	eafffe63 	b	10b824 <_dtoa_r+0xb04>
  10be94:	e35a0000 	cmp	sl, #0
  10be98:	1afffe85 	bne	10b8b4 <_dtoa_r+0xb94>
  10be9c:	eaffff69 	b	10bc48 <_dtoa_r+0xf28>
  10bea0:	e3580039 	cmp	r8, #57	; 0x39
  10bea4:	e58d6018 	str	r6, [sp, #24]
  10bea8:	e58d9010 	str	r9, [sp, #16]
  10beac:	e59d6024 	ldr	r6, [sp, #36]	; 0x24
  10beb0:	e59d9020 	ldr	r9, [sp, #32]
  10beb4:	0affffe9 	beq	10be60 <_dtoa_r+0x1140>
  10beb8:	e35a0000 	cmp	sl, #0
  10bebc:	caffffbe 	bgt	10bdbc <_dtoa_r+0x109c>
  10bec0:	eaffffbe 	b	10bdc0 <_dtoa_r+0x10a0>
  10bec4:	1affffbd 	bne	10bdc0 <_dtoa_r+0x10a0>
  10bec8:	e3180001 	tst	r8, #1
  10becc:	0affffbb 	beq	10bdc0 <_dtoa_r+0x10a0>
  10bed0:	eaffffb7 	b	10bdb4 <_dtoa_r+0x1094>
  10bed4:	e3a01002 	mov	r1, #2
  10bed8:	eafffd95 	b	10b534 <_dtoa_r+0x814>
  10bedc:	1260003c 	rsbne	r0, r0, #60	; 0x3c
  10bee0:	0afffccc 	beq	10b218 <_dtoa_r+0x4f8>
  10bee4:	eafffcc6 	b	10b204 <_dtoa_r+0x4e4>
  10bee8:	e3e03000 	mvn	r3, #0
  10beec:	e58d506c 	str	r5, [sp, #108]	; 0x6c
  10bef0:	e58d3014 	str	r3, [sp, #20]
  10bef4:	eafffc53 	b	10b048 <_dtoa_r+0x328>

0010bef8 <__sflush_r>:
  10bef8:	e1d130fc 	ldrsh	r3, [r1, #12]
  10befc:	e92d41f0 	push	{r4, r5, r6, r7, r8, lr}
  10bf00:	e1a05001 	mov	r5, r1
  10bf04:	e1a08000 	mov	r8, r0
  10bf08:	e6ff2073 	uxth	r2, r3
  10bf0c:	e3120008 	tst	r2, #8
  10bf10:	1a000031 	bne	10bfdc <__sflush_r+0xe4>
  10bf14:	e5912004 	ldr	r2, [r1, #4]
  10bf18:	e3833b02 	orr	r3, r3, #2048	; 0x800
  10bf1c:	e1c130bc 	strh	r3, [r1, #12]
  10bf20:	e3520000 	cmp	r2, #0
  10bf24:	da00004a 	ble	10c054 <__sflush_r+0x15c>
  10bf28:	e5956028 	ldr	r6, [r5, #40]	; 0x28
  10bf2c:	e3560000 	cmp	r6, #0
  10bf30:	0a00004a 	beq	10c060 <__sflush_r+0x168>
  10bf34:	e6ff3073 	uxth	r3, r3
  10bf38:	e3a02000 	mov	r2, #0
  10bf3c:	e5987000 	ldr	r7, [r8]
  10bf40:	e2134a01 	ands	r4, r3, #4096	; 0x1000
  10bf44:	e5882000 	str	r2, [r8]
  10bf48:	0a00005c 	beq	10c0c0 <__sflush_r+0x1c8>
  10bf4c:	e5952050 	ldr	r2, [r5, #80]	; 0x50
  10bf50:	e3130004 	tst	r3, #4
  10bf54:	0a000005 	beq	10bf70 <__sflush_r+0x78>
  10bf58:	e5951030 	ldr	r1, [r5, #48]	; 0x30
  10bf5c:	e5953004 	ldr	r3, [r5, #4]
  10bf60:	e3510000 	cmp	r1, #0
  10bf64:	e0422003 	sub	r2, r2, r3
  10bf68:	1595303c 	ldrne	r3, [r5, #60]	; 0x3c
  10bf6c:	10422003 	subne	r2, r2, r3
  10bf70:	e3a03000 	mov	r3, #0
  10bf74:	e595101c 	ldr	r1, [r5, #28]
  10bf78:	e1a00008 	mov	r0, r8
  10bf7c:	e12fff36 	blx	r6
  10bf80:	e3700001 	cmn	r0, #1
  10bf84:	0a000037 	beq	10c068 <__sflush_r+0x170>
  10bf88:	e1d530fc 	ldrsh	r3, [r5, #12]
  10bf8c:	e3a01000 	mov	r1, #0
  10bf90:	e5952010 	ldr	r2, [r5, #16]
  10bf94:	e5851004 	str	r1, [r5, #4]
  10bf98:	e3c33b02 	bic	r3, r3, #2048	; 0x800
  10bf9c:	e3130a01 	tst	r3, #4096	; 0x1000
  10bfa0:	e1c530bc 	strh	r3, [r5, #12]
  10bfa4:	e5852000 	str	r2, [r5]
  10bfa8:	1a000042 	bne	10c0b8 <__sflush_r+0x1c0>
  10bfac:	e5951030 	ldr	r1, [r5, #48]	; 0x30
  10bfb0:	e5887000 	str	r7, [r8]
  10bfb4:	e3510000 	cmp	r1, #0
  10bfb8:	0a000028 	beq	10c060 <__sflush_r+0x168>
  10bfbc:	e2853040 	add	r3, r5, #64	; 0x40
  10bfc0:	e1510003 	cmp	r1, r3
  10bfc4:	0a000001 	beq	10bfd0 <__sflush_r+0xd8>
  10bfc8:	e1a00008 	mov	r0, r8
  10bfcc:	eb0001a8 	bl	10c674 <_free_r>
  10bfd0:	e3a00000 	mov	r0, #0
  10bfd4:	e5850030 	str	r0, [r5, #48]	; 0x30
  10bfd8:	e8bd81f0 	pop	{r4, r5, r6, r7, r8, pc}
  10bfdc:	e5916010 	ldr	r6, [r1, #16]
  10bfe0:	e3560000 	cmp	r6, #0
  10bfe4:	0a00001d 	beq	10c060 <__sflush_r+0x168>
  10bfe8:	e5914000 	ldr	r4, [r1]
  10bfec:	e3120003 	tst	r2, #3
  10bff0:	05913014 	ldreq	r3, [r1, #20]
  10bff4:	13a03000 	movne	r3, #0
  10bff8:	e5816000 	str	r6, [r1]
  10bffc:	e0444006 	sub	r4, r4, r6
  10c000:	e3540000 	cmp	r4, #0
  10c004:	e5813008 	str	r3, [r1, #8]
  10c008:	ca000002 	bgt	10c018 <__sflush_r+0x120>
  10c00c:	ea000013 	b	10c060 <__sflush_r+0x168>
  10c010:	e3540000 	cmp	r4, #0
  10c014:	da000011 	ble	10c060 <__sflush_r+0x168>
  10c018:	e1a03004 	mov	r3, r4
  10c01c:	e1a02006 	mov	r2, r6
  10c020:	e5957024 	ldr	r7, [r5, #36]	; 0x24
  10c024:	e1a00008 	mov	r0, r8
  10c028:	e595101c 	ldr	r1, [r5, #28]
  10c02c:	e12fff37 	blx	r7
  10c030:	e3500000 	cmp	r0, #0
  10c034:	e0444000 	sub	r4, r4, r0
  10c038:	e0866000 	add	r6, r6, r0
  10c03c:	cafffff3 	bgt	10c010 <__sflush_r+0x118>
  10c040:	e1d530bc 	ldrh	r3, [r5, #12]
  10c044:	e3e00000 	mvn	r0, #0
  10c048:	e3833040 	orr	r3, r3, #64	; 0x40
  10c04c:	e1c530bc 	strh	r3, [r5, #12]
  10c050:	e8bd81f0 	pop	{r4, r5, r6, r7, r8, pc}
  10c054:	e591203c 	ldr	r2, [r1, #60]	; 0x3c
  10c058:	e3520000 	cmp	r2, #0
  10c05c:	caffffb1 	bgt	10bf28 <__sflush_r+0x30>
  10c060:	e3a00000 	mov	r0, #0
  10c064:	e8bd81f0 	pop	{r4, r5, r6, r7, r8, pc}
  10c068:	e5982000 	ldr	r2, [r8]
  10c06c:	e352001d 	cmp	r2, #29
  10c070:	13520000 	cmpne	r2, #0
  10c074:	03a03001 	moveq	r3, #1
  10c078:	13a03000 	movne	r3, #0
  10c07c:	e3520016 	cmp	r2, #22
  10c080:	03833001 	orreq	r3, r3, #1
  10c084:	e3530000 	cmp	r3, #0
  10c088:	0a000020 	beq	10c110 <__sflush_r+0x218>
  10c08c:	e1d530fc 	ldrsh	r3, [r5, #12]
  10c090:	e3a0c000 	mov	ip, #0
  10c094:	e5951010 	ldr	r1, [r5, #16]
  10c098:	e585c004 	str	ip, [r5, #4]
  10c09c:	e3c33b02 	bic	r3, r3, #2048	; 0x800
  10c0a0:	e3130a01 	tst	r3, #4096	; 0x1000
  10c0a4:	e1c530bc 	strh	r3, [r5, #12]
  10c0a8:	e5851000 	str	r1, [r5]
  10c0ac:	0affffbe 	beq	10bfac <__sflush_r+0xb4>
  10c0b0:	e3520000 	cmp	r2, #0
  10c0b4:	1affffbc 	bne	10bfac <__sflush_r+0xb4>
  10c0b8:	e5850050 	str	r0, [r5, #80]	; 0x50
  10c0bc:	eaffffba 	b	10bfac <__sflush_r+0xb4>
  10c0c0:	e1a02004 	mov	r2, r4
  10c0c4:	e3a03001 	mov	r3, #1
  10c0c8:	e595101c 	ldr	r1, [r5, #28]
  10c0cc:	e1a00008 	mov	r0, r8
  10c0d0:	e12fff36 	blx	r6
  10c0d4:	e3700001 	cmn	r0, #1
  10c0d8:	e1a02000 	mov	r2, r0
  10c0dc:	0a000002 	beq	10c0ec <__sflush_r+0x1f4>
  10c0e0:	e1d530bc 	ldrh	r3, [r5, #12]
  10c0e4:	e5956028 	ldr	r6, [r5, #40]	; 0x28
  10c0e8:	eaffff98 	b	10bf50 <__sflush_r+0x58>
  10c0ec:	e5983000 	ldr	r3, [r8]
  10c0f0:	e3530000 	cmp	r3, #0
  10c0f4:	0afffff9 	beq	10c0e0 <__sflush_r+0x1e8>
  10c0f8:	e3530016 	cmp	r3, #22
  10c0fc:	1353001d 	cmpne	r3, #29
  10c100:	1affffce 	bne	10c040 <__sflush_r+0x148>
  10c104:	e5887000 	str	r7, [r8]
  10c108:	e1a00004 	mov	r0, r4
  10c10c:	e8bd81f0 	pop	{r4, r5, r6, r7, r8, pc}
  10c110:	e1d530bc 	ldrh	r3, [r5, #12]
  10c114:	e3833040 	orr	r3, r3, #64	; 0x40
  10c118:	e1c530bc 	strh	r3, [r5, #12]
  10c11c:	e8bd81f0 	pop	{r4, r5, r6, r7, r8, pc}

0010c120 <_fflush_r>:
  10c120:	e92d4070 	push	{r4, r5, r6, lr}
  10c124:	e2504000 	subs	r4, r0, #0
  10c128:	e1a05001 	mov	r5, r1
  10c12c:	0a000002 	beq	10c13c <_fflush_r+0x1c>
  10c130:	e5943038 	ldr	r3, [r4, #56]	; 0x38
  10c134:	e3530000 	cmp	r3, #0
  10c138:	0a000014 	beq	10c190 <_fflush_r+0x70>
  10c13c:	e1d500fc 	ldrsh	r0, [r5, #12]
  10c140:	e3500000 	cmp	r0, #0
  10c144:	01a04000 	moveq	r4, r0
  10c148:	0a00000e 	beq	10c188 <_fflush_r+0x68>
  10c14c:	e5953064 	ldr	r3, [r5, #100]	; 0x64
  10c150:	e3130001 	tst	r3, #1
  10c154:	1a000001 	bne	10c160 <_fflush_r+0x40>
  10c158:	e3100c02 	tst	r0, #512	; 0x200
  10c15c:	0a000011 	beq	10c1a8 <_fflush_r+0x88>
  10c160:	e1a00004 	mov	r0, r4
  10c164:	e1a01005 	mov	r1, r5
  10c168:	ebffff62 	bl	10bef8 <__sflush_r>
  10c16c:	e5953064 	ldr	r3, [r5, #100]	; 0x64
  10c170:	e1a04000 	mov	r4, r0
  10c174:	e3130001 	tst	r3, #1
  10c178:	1a000002 	bne	10c188 <_fflush_r+0x68>
  10c17c:	e1d530bc 	ldrh	r3, [r5, #12]
  10c180:	e3130c02 	tst	r3, #512	; 0x200
  10c184:	0a000003 	beq	10c198 <_fflush_r+0x78>
  10c188:	e1a00004 	mov	r0, r4
  10c18c:	e8bd8070 	pop	{r4, r5, r6, pc}
  10c190:	eb00006a 	bl	10c340 <__sinit>
  10c194:	eaffffe8 	b	10c13c <_fflush_r+0x1c>
  10c198:	e2850058 	add	r0, r5, #88	; 0x58
  10c19c:	eb00131e 	bl	110e1c <__generic_gxx_recursive_mutex_unlock>
  10c1a0:	e1a00004 	mov	r0, r4
  10c1a4:	e8bd8070 	pop	{r4, r5, r6, pc}
  10c1a8:	e2850058 	add	r0, r5, #88	; 0x58
  10c1ac:	eb00131c 	bl	110e24 <__generic_gxx_recursive_mutex_lock>
  10c1b0:	eaffffea 	b	10c160 <_fflush_r+0x40>

0010c1b4 <fflush>:
  10c1b4:	e92d4010 	push	{r4, lr}
  10c1b8:	e2504000 	subs	r4, r0, #0
  10c1bc:	0a000003 	beq	10c1d0 <fflush+0x1c>
  10c1c0:	ebffef57 	bl	107f24 <__getreent>
  10c1c4:	e1a01004 	mov	r1, r4
  10c1c8:	e8bd4010 	pop	{r4, lr}
  10c1cc:	eaffffd3 	b	10c120 <_fflush_r>
  10c1d0:	e3053768 	movw	r3, #22376	; 0x5768
  10c1d4:	e30c1120 	movw	r1, #49440	; 0xc120
  10c1d8:	e3403012 	movt	r3, #18
  10c1dc:	e3401010 	movt	r1, #16
  10c1e0:	e5930000 	ldr	r0, [r3]
  10c1e4:	e8bd4010 	pop	{r4, lr}
  10c1e8:	ea0001f7 	b	10c9cc <_fwalk_reent>

0010c1ec <_cleanup_r>:
  10c1ec:	e30f147c 	movw	r1, #62588	; 0xf47c
  10c1f0:	e3401010 	movt	r1, #16
  10c1f4:	ea0001f4 	b	10c9cc <_fwalk_reent>

0010c1f8 <std.isra.0>:
  10c1f8:	e92d4010 	push	{r4, lr}
  10c1fc:	e3a03000 	mov	r3, #0
  10c200:	e1a04000 	mov	r4, r0
  10c204:	e1c010bc 	strh	r1, [r0, #12]
  10c208:	e1a01003 	mov	r1, r3
  10c20c:	e280005c 	add	r0, r0, #92	; 0x5c
  10c210:	e1c420be 	strh	r2, [r4, #14]
  10c214:	e3a02008 	mov	r2, #8
  10c218:	e5843000 	str	r3, [r4]
  10c21c:	e5843004 	str	r3, [r4, #4]
  10c220:	e5843008 	str	r3, [r4, #8]
  10c224:	e5843064 	str	r3, [r4, #100]	; 0x64
  10c228:	e5843010 	str	r3, [r4, #16]
  10c22c:	e5843014 	str	r3, [r4, #20]
  10c230:	e5843018 	str	r3, [r4, #24]
  10c234:	ebfff16a 	bl	1087e4 <memset>
  10c238:	e30dcc74 	movw	ip, #56436	; 0xdc74
  10c23c:	e30d1cac 	movw	r1, #56492	; 0xdcac
  10c240:	e30d2d00 	movw	r2, #56576	; 0xdd00
  10c244:	e30d3d2c 	movw	r3, #56620	; 0xdd2c
  10c248:	e340c010 	movt	ip, #16
  10c24c:	e3401010 	movt	r1, #16
  10c250:	e3402010 	movt	r2, #16
  10c254:	e3403010 	movt	r3, #16
  10c258:	e584401c 	str	r4, [r4, #28]
  10c25c:	e2840058 	add	r0, r4, #88	; 0x58
  10c260:	e584c020 	str	ip, [r4, #32]
  10c264:	e5841024 	str	r1, [r4, #36]	; 0x24
  10c268:	e5842028 	str	r2, [r4, #40]	; 0x28
  10c26c:	e584302c 	str	r3, [r4, #44]	; 0x2c
  10c270:	e8bd4010 	pop	{r4, lr}
  10c274:	ea0012e4 	b	110e0c <__generic_gxx_recursive_mutex_init_function>

0010c278 <__fp_lock>:
  10c278:	e5903064 	ldr	r3, [r0, #100]	; 0x64
  10c27c:	e3130001 	tst	r3, #1
  10c280:	1a000002 	bne	10c290 <__fp_lock+0x18>
  10c284:	e1d030bc 	ldrh	r3, [r0, #12]
  10c288:	e3130c02 	tst	r3, #512	; 0x200
  10c28c:	0a000001 	beq	10c298 <__fp_lock+0x20>
  10c290:	e3a00000 	mov	r0, #0
  10c294:	e12fff1e 	bx	lr
  10c298:	e92d4010 	push	{r4, lr}
  10c29c:	e2800058 	add	r0, r0, #88	; 0x58
  10c2a0:	eb0012df 	bl	110e24 <__generic_gxx_recursive_mutex_lock>
  10c2a4:	e3a00000 	mov	r0, #0
  10c2a8:	e8bd8010 	pop	{r4, pc}

0010c2ac <__fp_unlock>:
  10c2ac:	e5903064 	ldr	r3, [r0, #100]	; 0x64
  10c2b0:	e3130001 	tst	r3, #1
  10c2b4:	1a000002 	bne	10c2c4 <__fp_unlock+0x18>
  10c2b8:	e1d030bc 	ldrh	r3, [r0, #12]
  10c2bc:	e3130c02 	tst	r3, #512	; 0x200
  10c2c0:	0a000001 	beq	10c2cc <__fp_unlock+0x20>
  10c2c4:	e3a00000 	mov	r0, #0
  10c2c8:	e12fff1e 	bx	lr
  10c2cc:	e92d4010 	push	{r4, lr}
  10c2d0:	e2800058 	add	r0, r0, #88	; 0x58
  10c2d4:	eb0012d0 	bl	110e1c <__generic_gxx_recursive_mutex_unlock>
  10c2d8:	e3a00000 	mov	r0, #0
  10c2dc:	e8bd8010 	pop	{r4, pc}

0010c2e0 <__sfmoreglue>:
  10c2e0:	e92d4070 	push	{r4, r5, r6, lr}
  10c2e4:	e2412001 	sub	r2, r1, #1
  10c2e8:	e3a05068 	mov	r5, #104	; 0x68
  10c2ec:	e1a06001 	mov	r6, r1
  10c2f0:	e0050295 	mul	r5, r5, r2
  10c2f4:	e2851074 	add	r1, r5, #116	; 0x74
  10c2f8:	ebffef19 	bl	107f64 <_malloc_r>
  10c2fc:	e2504000 	subs	r4, r0, #0
  10c300:	0a000006 	beq	10c320 <__sfmoreglue+0x40>
  10c304:	e3a01000 	mov	r1, #0
  10c308:	e284000c 	add	r0, r4, #12
  10c30c:	e5846004 	str	r6, [r4, #4]
  10c310:	e2852068 	add	r2, r5, #104	; 0x68
  10c314:	e5841000 	str	r1, [r4]
  10c318:	e5840008 	str	r0, [r4, #8]
  10c31c:	ebfff130 	bl	1087e4 <memset>
  10c320:	e1a00004 	mov	r0, r4
  10c324:	e8bd8070 	pop	{r4, r5, r6, pc}

0010c328 <_cleanup>:
  10c328:	e3053768 	movw	r3, #22376	; 0x5768
  10c32c:	e30f147c 	movw	r1, #62588	; 0xf47c
  10c330:	e3403012 	movt	r3, #18
  10c334:	e3401010 	movt	r1, #16
  10c338:	e5930000 	ldr	r0, [r3]
  10c33c:	ea0001a2 	b	10c9cc <_fwalk_reent>

0010c340 <__sinit>:
  10c340:	e92d4010 	push	{r4, lr}
  10c344:	e1a04000 	mov	r4, r0
  10c348:	e3010408 	movw	r0, #5128	; 0x1408
  10c34c:	e3400013 	movt	r0, #19
  10c350:	eb0012b3 	bl	110e24 <__generic_gxx_recursive_mutex_lock>
  10c354:	e5942038 	ldr	r2, [r4, #56]	; 0x38
  10c358:	e3520000 	cmp	r2, #0
  10c35c:	1a000018 	bne	10c3c4 <__sinit+0x84>
  10c360:	e30c31ec 	movw	r3, #49644	; 0xc1ec
  10c364:	e3a0c003 	mov	ip, #3
  10c368:	e3403010 	movt	r3, #16
  10c36c:	e2840fbb 	add	r0, r4, #748	; 0x2ec
  10c370:	e584303c 	str	r3, [r4, #60]	; 0x3c
  10c374:	e3a01004 	mov	r1, #4
  10c378:	e584c2e4 	str	ip, [r4, #740]	; 0x2e4
  10c37c:	e58422e0 	str	r2, [r4, #736]	; 0x2e0
  10c380:	e58402e8 	str	r0, [r4, #744]	; 0x2e8
  10c384:	e5940004 	ldr	r0, [r4, #4]
  10c388:	ebffff9a 	bl	10c1f8 <std.isra.0>
  10c38c:	e5940008 	ldr	r0, [r4, #8]
  10c390:	e3a02001 	mov	r2, #1
  10c394:	e3a01009 	mov	r1, #9
  10c398:	ebffff96 	bl	10c1f8 <std.isra.0>
  10c39c:	e594000c 	ldr	r0, [r4, #12]
  10c3a0:	e3a02002 	mov	r2, #2
  10c3a4:	e3a01012 	mov	r1, #18
  10c3a8:	ebffff92 	bl	10c1f8 <std.isra.0>
  10c3ac:	e3a03001 	mov	r3, #1
  10c3b0:	e3010408 	movw	r0, #5128	; 0x1408
  10c3b4:	e5843038 	str	r3, [r4, #56]	; 0x38
  10c3b8:	e3400013 	movt	r0, #19
  10c3bc:	e8bd4010 	pop	{r4, lr}
  10c3c0:	ea001295 	b	110e1c <__generic_gxx_recursive_mutex_unlock>
  10c3c4:	e3010408 	movw	r0, #5128	; 0x1408
  10c3c8:	e8bd4010 	pop	{r4, lr}
  10c3cc:	e3400013 	movt	r0, #19
  10c3d0:	ea001291 	b	110e1c <__generic_gxx_recursive_mutex_unlock>

0010c3d4 <__sfp>:
  10c3d4:	e92d4070 	push	{r4, r5, r6, lr}
  10c3d8:	e1a06000 	mov	r6, r0
  10c3dc:	e59f0100 	ldr	r0, [pc, #256]	; 10c4e4 <__sfp+0x110>
  10c3e0:	eb00128f 	bl	110e24 <__generic_gxx_recursive_mutex_lock>
  10c3e4:	e3053768 	movw	r3, #22376	; 0x5768
  10c3e8:	e3403012 	movt	r3, #18
  10c3ec:	e5935000 	ldr	r5, [r3]
  10c3f0:	e5953038 	ldr	r3, [r5, #56]	; 0x38
  10c3f4:	e3530000 	cmp	r3, #0
  10c3f8:	0a00002a 	beq	10c4a8 <__sfp+0xd4>
  10c3fc:	e2855e2e 	add	r5, r5, #736	; 0x2e0
  10c400:	e9950018 	ldmib	r5, {r3, r4}
  10c404:	e2533001 	subs	r3, r3, #1
  10c408:	5a000004 	bpl	10c420 <__sfp+0x4c>
  10c40c:	ea000020 	b	10c494 <__sfp+0xc0>
  10c410:	e2433001 	sub	r3, r3, #1
  10c414:	e2844068 	add	r4, r4, #104	; 0x68
  10c418:	e3730001 	cmn	r3, #1
  10c41c:	0a00001c 	beq	10c494 <__sfp+0xc0>
  10c420:	e1d420fc 	ldrsh	r2, [r4, #12]
  10c424:	e3520000 	cmp	r2, #0
  10c428:	1afffff8 	bne	10c410 <__sfp+0x3c>
  10c42c:	e3a05000 	mov	r5, #0
  10c430:	e3e02000 	mvn	r2, #0
  10c434:	e3a03001 	mov	r3, #1
  10c438:	e1c420be 	strh	r2, [r4, #14]
  10c43c:	e1c430bc 	strh	r3, [r4, #12]
  10c440:	e2840058 	add	r0, r4, #88	; 0x58
  10c444:	e5845064 	str	r5, [r4, #100]	; 0x64
  10c448:	eb00126f 	bl	110e0c <__generic_gxx_recursive_mutex_init_function>
  10c44c:	e59f0090 	ldr	r0, [pc, #144]	; 10c4e4 <__sfp+0x110>
  10c450:	eb001271 	bl	110e1c <__generic_gxx_recursive_mutex_unlock>
  10c454:	e5845000 	str	r5, [r4]
  10c458:	e1a01005 	mov	r1, r5
  10c45c:	e5845008 	str	r5, [r4, #8]
  10c460:	e3a02008 	mov	r2, #8
  10c464:	e5845004 	str	r5, [r4, #4]
  10c468:	e284005c 	add	r0, r4, #92	; 0x5c
  10c46c:	e5845010 	str	r5, [r4, #16]
  10c470:	e5845014 	str	r5, [r4, #20]
  10c474:	e5845018 	str	r5, [r4, #24]
  10c478:	ebfff0d9 	bl	1087e4 <memset>
  10c47c:	e5845030 	str	r5, [r4, #48]	; 0x30
  10c480:	e5845034 	str	r5, [r4, #52]	; 0x34
  10c484:	e5845044 	str	r5, [r4, #68]	; 0x44
  10c488:	e5845048 	str	r5, [r4, #72]	; 0x48
  10c48c:	e1a00004 	mov	r0, r4
  10c490:	e8bd8070 	pop	{r4, r5, r6, pc}
  10c494:	e5954000 	ldr	r4, [r5]
  10c498:	e3540000 	cmp	r4, #0
  10c49c:	0a000004 	beq	10c4b4 <__sfp+0xe0>
  10c4a0:	e1a05004 	mov	r5, r4
  10c4a4:	eaffffd5 	b	10c400 <__sfp+0x2c>
  10c4a8:	e1a00005 	mov	r0, r5
  10c4ac:	ebffffa3 	bl	10c340 <__sinit>
  10c4b0:	eaffffd1 	b	10c3fc <__sfp+0x28>
  10c4b4:	e3a01004 	mov	r1, #4
  10c4b8:	e1a00006 	mov	r0, r6
  10c4bc:	ebffff87 	bl	10c2e0 <__sfmoreglue>
  10c4c0:	e3500000 	cmp	r0, #0
  10c4c4:	e1a04000 	mov	r4, r0
  10c4c8:	e5850000 	str	r0, [r5]
  10c4cc:	1afffff3 	bne	10c4a0 <__sfp+0xcc>
  10c4d0:	e59f000c 	ldr	r0, [pc, #12]	; 10c4e4 <__sfp+0x110>
  10c4d4:	eb001250 	bl	110e1c <__generic_gxx_recursive_mutex_unlock>
  10c4d8:	e3a0300c 	mov	r3, #12
  10c4dc:	e5863000 	str	r3, [r6]
  10c4e0:	eaffffe9 	b	10c48c <__sfp+0xb8>
  10c4e4:	0013140c 	.word	0x0013140c

0010c4e8 <__sfp_lock_acquire>:
  10c4e8:	e59f0000 	ldr	r0, [pc]	; 10c4f0 <__sfp_lock_acquire+0x8>
  10c4ec:	ea00124c 	b	110e24 <__generic_gxx_recursive_mutex_lock>
  10c4f0:	0013140c 	.word	0x0013140c

0010c4f4 <__sfp_lock_release>:
  10c4f4:	e59f0000 	ldr	r0, [pc]	; 10c4fc <__sfp_lock_release+0x8>
  10c4f8:	ea001247 	b	110e1c <__generic_gxx_recursive_mutex_unlock>
  10c4fc:	0013140c 	.word	0x0013140c

0010c500 <__sinit_lock_acquire>:
  10c500:	e3010408 	movw	r0, #5128	; 0x1408
  10c504:	e3400013 	movt	r0, #19
  10c508:	ea001245 	b	110e24 <__generic_gxx_recursive_mutex_lock>

0010c50c <__sinit_lock_release>:
  10c50c:	e3010408 	movw	r0, #5128	; 0x1408
  10c510:	e3400013 	movt	r0, #19
  10c514:	ea001240 	b	110e1c <__generic_gxx_recursive_mutex_unlock>

0010c518 <__fp_lock_all>:
  10c518:	e92d4010 	push	{r4, lr}
  10c51c:	e59f0014 	ldr	r0, [pc, #20]	; 10c538 <__fp_lock_all+0x20>
  10c520:	eb00123f 	bl	110e24 <__generic_gxx_recursive_mutex_lock>
  10c524:	ebffee7e 	bl	107f24 <__getreent>
  10c528:	e30c1278 	movw	r1, #49784	; 0xc278
  10c52c:	e8bd4010 	pop	{r4, lr}
  10c530:	e3401010 	movt	r1, #16
  10c534:	ea000106 	b	10c954 <_fwalk>
  10c538:	0013140c 	.word	0x0013140c

0010c53c <__fp_unlock_all>:
  10c53c:	e92d4010 	push	{r4, lr}
  10c540:	ebffee77 	bl	107f24 <__getreent>
  10c544:	e30c12ac 	movw	r1, #49836	; 0xc2ac
  10c548:	e3401010 	movt	r1, #16
  10c54c:	eb000100 	bl	10c954 <_fwalk>
  10c550:	e59f0004 	ldr	r0, [pc, #4]	; 10c55c <__fp_unlock_all+0x20>
  10c554:	e8bd4010 	pop	{r4, lr}
  10c558:	ea00122f 	b	110e1c <__generic_gxx_recursive_mutex_unlock>
  10c55c:	0013140c 	.word	0x0013140c

0010c560 <__init___sfp_lock>:
  10c560:	e59f0000 	ldr	r0, [pc]	; 10c568 <__init___sfp_lock+0x8>
  10c564:	ea001228 	b	110e0c <__generic_gxx_recursive_mutex_init_function>
  10c568:	0013140c 	.word	0x0013140c

0010c56c <__init___sinit_lock>:
  10c56c:	e3010408 	movw	r0, #5128	; 0x1408
  10c570:	e3400013 	movt	r0, #19
  10c574:	ea001224 	b	110e0c <__generic_gxx_recursive_mutex_init_function>

0010c578 <_malloc_trim_r>:
  10c578:	e92d41f0 	push	{r4, r5, r6, r7, r8, lr}
  10c57c:	e3007438 	movw	r7, #1080	; 0x438
  10c580:	e3407013 	movt	r7, #19
  10c584:	e1a04001 	mov	r4, r1
  10c588:	e1a06000 	mov	r6, r0
  10c58c:	ebfff0d8 	bl	1088f4 <__malloc_lock>
  10c590:	e5973008 	ldr	r3, [r7, #8]
  10c594:	e2641efe 	rsb	r1, r4, #4064	; 0xfe0
  10c598:	e281100f 	add	r1, r1, #15
  10c59c:	e5935004 	ldr	r5, [r3, #4]
  10c5a0:	e3c55003 	bic	r5, r5, #3
  10c5a4:	e0811005 	add	r1, r1, r5
  10c5a8:	e3c11eff 	bic	r1, r1, #4080	; 0xff0
  10c5ac:	e3c1100f 	bic	r1, r1, #15
  10c5b0:	e2414a01 	sub	r4, r1, #4096	; 0x1000
  10c5b4:	e3540a01 	cmp	r4, #4096	; 0x1000
  10c5b8:	ba000006 	blt	10c5d8 <_malloc_trim_r+0x60>
  10c5bc:	e3a01000 	mov	r1, #0
  10c5c0:	e1a00006 	mov	r0, r6
  10c5c4:	ebfff0f7 	bl	1089a8 <_sbrk_r>
  10c5c8:	e5973008 	ldr	r3, [r7, #8]
  10c5cc:	e0833005 	add	r3, r3, r5
  10c5d0:	e1500003 	cmp	r0, r3
  10c5d4:	0a000003 	beq	10c5e8 <_malloc_trim_r+0x70>
  10c5d8:	e1a00006 	mov	r0, r6
  10c5dc:	ebfff0c7 	bl	108900 <__malloc_unlock>
  10c5e0:	e3a00000 	mov	r0, #0
  10c5e4:	e8bd81f0 	pop	{r4, r5, r6, r7, r8, pc}
  10c5e8:	e2641000 	rsb	r1, r4, #0
  10c5ec:	e1a00006 	mov	r0, r6
  10c5f0:	ebfff0ec 	bl	1089a8 <_sbrk_r>
  10c5f4:	e3700001 	cmn	r0, #1
  10c5f8:	0a00000c 	beq	10c630 <_malloc_trim_r+0xb8>
  10c5fc:	e30133d4 	movw	r3, #5076	; 0x13d4
  10c600:	e5972008 	ldr	r2, [r7, #8]
  10c604:	e3403013 	movt	r3, #19
  10c608:	e0455004 	sub	r5, r5, r4
  10c60c:	e5931000 	ldr	r1, [r3]
  10c610:	e3855001 	orr	r5, r5, #1
  10c614:	e1a00006 	mov	r0, r6
  10c618:	e5825004 	str	r5, [r2, #4]
  10c61c:	e0411004 	sub	r1, r1, r4
  10c620:	e5831000 	str	r1, [r3]
  10c624:	ebfff0b5 	bl	108900 <__malloc_unlock>
  10c628:	e3a00001 	mov	r0, #1
  10c62c:	e8bd81f0 	pop	{r4, r5, r6, r7, r8, pc}
  10c630:	e3a01000 	mov	r1, #0
  10c634:	e1a00006 	mov	r0, r6
  10c638:	ebfff0da 	bl	1089a8 <_sbrk_r>
  10c63c:	e5972008 	ldr	r2, [r7, #8]
  10c640:	e0403002 	sub	r3, r0, r2
  10c644:	e353000f 	cmp	r3, #15
  10c648:	daffffe2 	ble	10c5d8 <_malloc_trim_r+0x60>
  10c64c:	e300c840 	movw	ip, #2112	; 0x840
  10c650:	e30113d4 	movw	r1, #5076	; 0x13d4
  10c654:	e340c013 	movt	ip, #19
  10c658:	e3833001 	orr	r3, r3, #1
  10c65c:	e59cc000 	ldr	ip, [ip]
  10c660:	e3401013 	movt	r1, #19
  10c664:	e5823004 	str	r3, [r2, #4]
  10c668:	e040000c 	sub	r0, r0, ip
  10c66c:	e5810000 	str	r0, [r1]
  10c670:	eaffffd8 	b	10c5d8 <_malloc_trim_r+0x60>

0010c674 <_free_r>:
  10c674:	e92d4070 	push	{r4, r5, r6, lr}
  10c678:	e2515000 	subs	r5, r1, #0
  10c67c:	08bd8070 	popeq	{r4, r5, r6, pc}
  10c680:	e1a04000 	mov	r4, r0
  10c684:	ebfff09a 	bl	1088f4 <__malloc_lock>
  10c688:	e5151004 	ldr	r1, [r5, #-4]
  10c68c:	e300e438 	movw	lr, #1080	; 0x438
  10c690:	e340e013 	movt	lr, #19
  10c694:	e245c008 	sub	ip, r5, #8
  10c698:	e59e6008 	ldr	r6, [lr, #8]
  10c69c:	e3c13001 	bic	r3, r1, #1
  10c6a0:	e08c0003 	add	r0, ip, r3
  10c6a4:	e5902004 	ldr	r2, [r0, #4]
  10c6a8:	e1500006 	cmp	r0, r6
  10c6ac:	e3c22003 	bic	r2, r2, #3
  10c6b0:	0a00004f 	beq	10c7f4 <_free_r+0x180>
  10c6b4:	e3110001 	tst	r1, #1
  10c6b8:	e5802004 	str	r2, [r0, #4]
  10c6bc:	1a000009 	bne	10c6e8 <_free_r+0x74>
  10c6c0:	e5151008 	ldr	r1, [r5, #-8]
  10c6c4:	e28e5008 	add	r5, lr, #8
  10c6c8:	e04cc001 	sub	ip, ip, r1
  10c6cc:	e0833001 	add	r3, r3, r1
  10c6d0:	e59c1008 	ldr	r1, [ip, #8]
  10c6d4:	e1510005 	cmp	r1, r5
  10c6d8:	0a00005f 	beq	10c85c <_free_r+0x1e8>
  10c6dc:	e59c500c 	ldr	r5, [ip, #12]
  10c6e0:	e581500c 	str	r5, [r1, #12]
  10c6e4:	e5851008 	str	r1, [r5, #8]
  10c6e8:	e0801002 	add	r1, r0, r2
  10c6ec:	e5911004 	ldr	r1, [r1, #4]
  10c6f0:	e3110001 	tst	r1, #1
  10c6f4:	13832001 	orrne	r2, r3, #1
  10c6f8:	158c2004 	strne	r2, [ip, #4]
  10c6fc:	178c3003 	strne	r3, [ip, r3]
  10c700:	0a00002d 	beq	10c7bc <_free_r+0x148>
  10c704:	e3530c02 	cmp	r3, #512	; 0x200
  10c708:	2a000010 	bcs	10c750 <_free_r+0xdc>
  10c70c:	e59e0004 	ldr	r0, [lr, #4]
  10c710:	e1a031a3 	lsr	r3, r3, #3
  10c714:	e3a06001 	mov	r6, #1
  10c718:	e0832006 	add	r2, r3, r6
  10c71c:	e1a03143 	asr	r3, r3, #2
  10c720:	e79e5182 	ldr	r5, [lr, r2, lsl #3]
  10c724:	e08e1182 	add	r1, lr, r2, lsl #3
  10c728:	e1803316 	orr	r3, r0, r6, lsl r3
  10c72c:	e2411008 	sub	r1, r1, #8
  10c730:	e58c100c 	str	r1, [ip, #12]
  10c734:	e58c5008 	str	r5, [ip, #8]
  10c738:	e58e3004 	str	r3, [lr, #4]
  10c73c:	e78ec182 	str	ip, [lr, r2, lsl #3]
  10c740:	e585c00c 	str	ip, [r5, #12]
  10c744:	e1a00004 	mov	r0, r4
  10c748:	e8bd4070 	pop	{r4, r5, r6, lr}
  10c74c:	eafff06b 	b	108900 <__malloc_unlock>
  10c750:	e1a024a3 	lsr	r2, r3, #9
  10c754:	e3520004 	cmp	r2, #4
  10c758:	8a00004c 	bhi	10c890 <_free_r+0x21c>
  10c75c:	e1a02323 	lsr	r2, r3, #6
  10c760:	e2820039 	add	r0, r2, #57	; 0x39
  10c764:	e2821038 	add	r1, r2, #56	; 0x38
  10c768:	e1a00180 	lsl	r0, r0, #3
  10c76c:	e79e2000 	ldr	r2, [lr, r0]
  10c770:	e08e0000 	add	r0, lr, r0
  10c774:	e2400008 	sub	r0, r0, #8
  10c778:	e1500002 	cmp	r0, r2
  10c77c:	0a000049 	beq	10c8a8 <_free_r+0x234>
  10c780:	e5921004 	ldr	r1, [r2, #4]
  10c784:	e3c11003 	bic	r1, r1, #3
  10c788:	e1530001 	cmp	r3, r1
  10c78c:	2a000030 	bcs	10c854 <_free_r+0x1e0>
  10c790:	e5922008 	ldr	r2, [r2, #8]
  10c794:	e1500002 	cmp	r0, r2
  10c798:	1afffff8 	bne	10c780 <_free_r+0x10c>
  10c79c:	e590300c 	ldr	r3, [r0, #12]
  10c7a0:	e58c0008 	str	r0, [ip, #8]
  10c7a4:	e58c300c 	str	r3, [ip, #12]
  10c7a8:	e583c008 	str	ip, [r3, #8]
  10c7ac:	e580c00c 	str	ip, [r0, #12]
  10c7b0:	e1a00004 	mov	r0, r4
  10c7b4:	e8bd4070 	pop	{r4, r5, r6, lr}
  10c7b8:	eafff050 	b	108900 <__malloc_unlock>
  10c7bc:	e5901008 	ldr	r1, [r0, #8]
  10c7c0:	e0833002 	add	r3, r3, r2
  10c7c4:	e59f2184 	ldr	r2, [pc, #388]	; 10c950 <_free_r+0x2dc>
  10c7c8:	e1510002 	cmp	r1, r2
  10c7cc:	0a00003c 	beq	10c8c4 <_free_r+0x250>
  10c7d0:	e590000c 	ldr	r0, [r0, #12]
  10c7d4:	e3530c02 	cmp	r3, #512	; 0x200
  10c7d8:	e3832001 	orr	r2, r3, #1
  10c7dc:	e581000c 	str	r0, [r1, #12]
  10c7e0:	e5801008 	str	r1, [r0, #8]
  10c7e4:	e58c2004 	str	r2, [ip, #4]
  10c7e8:	e78c3003 	str	r3, [ip, r3]
  10c7ec:	2affffd7 	bcs	10c750 <_free_r+0xdc>
  10c7f0:	eaffffc5 	b	10c70c <_free_r+0x98>
  10c7f4:	e3110001 	tst	r1, #1
  10c7f8:	e0833002 	add	r3, r3, r2
  10c7fc:	1a000006 	bne	10c81c <_free_r+0x1a8>
  10c800:	e5152008 	ldr	r2, [r5, #-8]
  10c804:	e04cc002 	sub	ip, ip, r2
  10c808:	e0833002 	add	r3, r3, r2
  10c80c:	e59c1008 	ldr	r1, [ip, #8]
  10c810:	e59c200c 	ldr	r2, [ip, #12]
  10c814:	e581200c 	str	r2, [r1, #12]
  10c818:	e5821008 	str	r1, [r2, #8]
  10c81c:	e3001844 	movw	r1, #2116	; 0x844
  10c820:	e3832001 	orr	r2, r3, #1
  10c824:	e3401013 	movt	r1, #19
  10c828:	e58c2004 	str	r2, [ip, #4]
  10c82c:	e5912000 	ldr	r2, [r1]
  10c830:	e58ec008 	str	ip, [lr, #8]
  10c834:	e1530002 	cmp	r3, r2
  10c838:	3affffc1 	bcc	10c744 <_free_r+0xd0>
  10c83c:	e30133d0 	movw	r3, #5072	; 0x13d0
  10c840:	e1a00004 	mov	r0, r4
  10c844:	e3403013 	movt	r3, #19
  10c848:	e5931000 	ldr	r1, [r3]
  10c84c:	ebffff49 	bl	10c578 <_malloc_trim_r>
  10c850:	eaffffbb 	b	10c744 <_free_r+0xd0>
  10c854:	e1a00002 	mov	r0, r2
  10c858:	eaffffcf 	b	10c79c <_free_r+0x128>
  10c85c:	e0801002 	add	r1, r0, r2
  10c860:	e5911004 	ldr	r1, [r1, #4]
  10c864:	e3110001 	tst	r1, #1
  10c868:	1a000034 	bne	10c940 <_free_r+0x2cc>
  10c86c:	e5901008 	ldr	r1, [r0, #8]
  10c870:	e0823003 	add	r3, r2, r3
  10c874:	e590200c 	ldr	r2, [r0, #12]
  10c878:	e3830001 	orr	r0, r3, #1
  10c87c:	e581200c 	str	r2, [r1, #12]
  10c880:	e5821008 	str	r1, [r2, #8]
  10c884:	e58c0004 	str	r0, [ip, #4]
  10c888:	e78c3003 	str	r3, [ip, r3]
  10c88c:	eaffffac 	b	10c744 <_free_r+0xd0>
  10c890:	e3520014 	cmp	r2, #20
  10c894:	8a000012 	bhi	10c8e4 <_free_r+0x270>
  10c898:	e282005c 	add	r0, r2, #92	; 0x5c
  10c89c:	e282105b 	add	r1, r2, #91	; 0x5b
  10c8a0:	e1a00180 	lsl	r0, r0, #3
  10c8a4:	eaffffb0 	b	10c76c <_free_r+0xf8>
  10c8a8:	e59e5004 	ldr	r5, [lr, #4]
  10c8ac:	e1a02141 	asr	r2, r1, #2
  10c8b0:	e3a01001 	mov	r1, #1
  10c8b4:	e1a03000 	mov	r3, r0
  10c8b8:	e1852211 	orr	r2, r5, r1, lsl r2
  10c8bc:	e58e2004 	str	r2, [lr, #4]
  10c8c0:	eaffffb6 	b	10c7a0 <_free_r+0x12c>
  10c8c4:	e3832001 	orr	r2, r3, #1
  10c8c8:	e58ec014 	str	ip, [lr, #20]
  10c8cc:	e58ec010 	str	ip, [lr, #16]
  10c8d0:	e58c100c 	str	r1, [ip, #12]
  10c8d4:	e58c1008 	str	r1, [ip, #8]
  10c8d8:	e58c2004 	str	r2, [ip, #4]
  10c8dc:	e78c3003 	str	r3, [ip, r3]
  10c8e0:	eaffff97 	b	10c744 <_free_r+0xd0>
  10c8e4:	e3520054 	cmp	r2, #84	; 0x54
  10c8e8:	8a000004 	bhi	10c900 <_free_r+0x28c>
  10c8ec:	e1a02623 	lsr	r2, r3, #12
  10c8f0:	e282006f 	add	r0, r2, #111	; 0x6f
  10c8f4:	e282106e 	add	r1, r2, #110	; 0x6e
  10c8f8:	e1a00180 	lsl	r0, r0, #3
  10c8fc:	eaffff9a 	b	10c76c <_free_r+0xf8>
  10c900:	e3520f55 	cmp	r2, #340	; 0x154
  10c904:	8a000004 	bhi	10c91c <_free_r+0x2a8>
  10c908:	e1a027a3 	lsr	r2, r3, #15
  10c90c:	e2820078 	add	r0, r2, #120	; 0x78
  10c910:	e2821077 	add	r1, r2, #119	; 0x77
  10c914:	e1a00180 	lsl	r0, r0, #3
  10c918:	eaffff93 	b	10c76c <_free_r+0xf8>
  10c91c:	e3001554 	movw	r1, #1364	; 0x554
  10c920:	e1520001 	cmp	r2, r1
  10c924:	91a02923 	lsrls	r2, r3, #18
  10c928:	83a00ffe 	movhi	r0, #1016	; 0x3f8
  10c92c:	83a0107e 	movhi	r1, #126	; 0x7e
  10c930:	9282007d 	addls	r0, r2, #125	; 0x7d
  10c934:	9282107c 	addls	r1, r2, #124	; 0x7c
  10c938:	91a00180 	lslls	r0, r0, #3
  10c93c:	eaffff8a 	b	10c76c <_free_r+0xf8>
  10c940:	e3832001 	orr	r2, r3, #1
  10c944:	e58c2004 	str	r2, [ip, #4]
  10c948:	e5803000 	str	r3, [r0]
  10c94c:	eaffff7c 	b	10c744 <_free_r+0xd0>
  10c950:	00130440 	.word	0x00130440

0010c954 <_fwalk>:
  10c954:	e92d41f0 	push	{r4, r5, r6, r7, r8, lr}
  10c958:	e2907e2e 	adds	r7, r0, #736	; 0x2e0
  10c95c:	0a000017 	beq	10c9c0 <_fwalk+0x6c>
  10c960:	e1a08001 	mov	r8, r1
  10c964:	e3a06000 	mov	r6, #0
  10c968:	e5975004 	ldr	r5, [r7, #4]
  10c96c:	e5974008 	ldr	r4, [r7, #8]
  10c970:	e2555001 	subs	r5, r5, #1
  10c974:	4a00000c 	bmi	10c9ac <_fwalk+0x58>
  10c978:	e1d430bc 	ldrh	r3, [r4, #12]
  10c97c:	e2455001 	sub	r5, r5, #1
  10c980:	e3530001 	cmp	r3, #1
  10c984:	9a000005 	bls	10c9a0 <_fwalk+0x4c>
  10c988:	e1d430fe 	ldrsh	r3, [r4, #14]
  10c98c:	e1a00004 	mov	r0, r4
  10c990:	e3730001 	cmn	r3, #1
  10c994:	0a000001 	beq	10c9a0 <_fwalk+0x4c>
  10c998:	e12fff38 	blx	r8
  10c99c:	e1866000 	orr	r6, r6, r0
  10c9a0:	e3750001 	cmn	r5, #1
  10c9a4:	e2844068 	add	r4, r4, #104	; 0x68
  10c9a8:	1afffff2 	bne	10c978 <_fwalk+0x24>
  10c9ac:	e5977000 	ldr	r7, [r7]
  10c9b0:	e3570000 	cmp	r7, #0
  10c9b4:	1affffeb 	bne	10c968 <_fwalk+0x14>
  10c9b8:	e1a00006 	mov	r0, r6
  10c9bc:	e8bd81f0 	pop	{r4, r5, r6, r7, r8, pc}
  10c9c0:	e1a06007 	mov	r6, r7
  10c9c4:	e1a00006 	mov	r0, r6
  10c9c8:	e8bd81f0 	pop	{r4, r5, r6, r7, r8, pc}

0010c9cc <_fwalk_reent>:
  10c9cc:	e92d47f0 	push	{r4, r5, r6, r7, r8, r9, sl, lr}
  10c9d0:	e2907e2e 	adds	r7, r0, #736	; 0x2e0
  10c9d4:	0a000019 	beq	10ca40 <_fwalk_reent+0x74>
  10c9d8:	e1a08001 	mov	r8, r1
  10c9dc:	e1a06000 	mov	r6, r0
  10c9e0:	e3a09000 	mov	r9, #0
  10c9e4:	e5975004 	ldr	r5, [r7, #4]
  10c9e8:	e5974008 	ldr	r4, [r7, #8]
  10c9ec:	e2555001 	subs	r5, r5, #1
  10c9f0:	4a00000d 	bmi	10ca2c <_fwalk_reent+0x60>
  10c9f4:	e1d430bc 	ldrh	r3, [r4, #12]
  10c9f8:	e2455001 	sub	r5, r5, #1
  10c9fc:	e3530001 	cmp	r3, #1
  10ca00:	9a000006 	bls	10ca20 <_fwalk_reent+0x54>
  10ca04:	e1d430fe 	ldrsh	r3, [r4, #14]
  10ca08:	e1a01004 	mov	r1, r4
  10ca0c:	e1a00006 	mov	r0, r6
  10ca10:	e3730001 	cmn	r3, #1
  10ca14:	0a000001 	beq	10ca20 <_fwalk_reent+0x54>
  10ca18:	e12fff38 	blx	r8
  10ca1c:	e1899000 	orr	r9, r9, r0
  10ca20:	e3750001 	cmn	r5, #1
  10ca24:	e2844068 	add	r4, r4, #104	; 0x68
  10ca28:	1afffff1 	bne	10c9f4 <_fwalk_reent+0x28>
  10ca2c:	e5977000 	ldr	r7, [r7]
  10ca30:	e3570000 	cmp	r7, #0
  10ca34:	1affffea 	bne	10c9e4 <_fwalk_reent+0x18>
  10ca38:	e1a00009 	mov	r0, r9
  10ca3c:	e8bd87f0 	pop	{r4, r5, r6, r7, r8, r9, sl, pc}
  10ca40:	e1a09007 	mov	r9, r7
  10ca44:	e1a00009 	mov	r0, r9
  10ca48:	e8bd87f0 	pop	{r4, r5, r6, r7, r8, r9, sl, pc}

0010ca4c <__localeconv_l>:
  10ca4c:	e28000f0 	add	r0, r0, #240	; 0xf0
  10ca50:	e12fff1e 	bx	lr

0010ca54 <_localeconv_r>:
  10ca54:	e92d4010 	push	{r4, lr}
  10ca58:	ebffed31 	bl	107f24 <__getreent>
  10ca5c:	e3003848 	movw	r3, #2120	; 0x848
  10ca60:	e5900034 	ldr	r0, [r0, #52]	; 0x34
  10ca64:	e3403013 	movt	r3, #19
  10ca68:	e3500000 	cmp	r0, #0
  10ca6c:	01a00003 	moveq	r0, r3
  10ca70:	e28000f0 	add	r0, r0, #240	; 0xf0
  10ca74:	e8bd8010 	pop	{r4, pc}

0010ca78 <localeconv>:
  10ca78:	e92d4010 	push	{r4, lr}
  10ca7c:	ebffed28 	bl	107f24 <__getreent>
  10ca80:	e3003848 	movw	r3, #2120	; 0x848
  10ca84:	e5900034 	ldr	r0, [r0, #52]	; 0x34
  10ca88:	e3403013 	movt	r3, #19
  10ca8c:	e3500000 	cmp	r0, #0
  10ca90:	01a00003 	moveq	r0, r3
  10ca94:	e28000f0 	add	r0, r0, #240	; 0xf0
  10ca98:	e8bd8010 	pop	{r4, pc}

0010ca9c <__swhatbuf_r>:
  10ca9c:	e92d4070 	push	{r4, r5, r6, lr}
  10caa0:	e1a04001 	mov	r4, r1
  10caa4:	e1d110fe 	ldrsh	r1, [r1, #14]
  10caa8:	e24dd040 	sub	sp, sp, #64	; 0x40
  10caac:	e1a05002 	mov	r5, r2
  10cab0:	e1a06003 	mov	r6, r3
  10cab4:	e3510000 	cmp	r1, #0
  10cab8:	ba00000e 	blt	10caf8 <__swhatbuf_r+0x5c>
  10cabc:	e28d2004 	add	r2, sp, #4
  10cac0:	eb000b44 	bl	10f7d8 <_fstat_r>
  10cac4:	e3500000 	cmp	r0, #0
  10cac8:	ba00000a 	blt	10caf8 <__swhatbuf_r+0x5c>
  10cacc:	e59d2008 	ldr	r2, [sp, #8]
  10cad0:	e3a03b01 	mov	r3, #1024	; 0x400
  10cad4:	e3a00b02 	mov	r0, #2048	; 0x800
  10cad8:	e2022a0f 	and	r2, r2, #61440	; 0xf000
  10cadc:	e2422a02 	sub	r2, r2, #8192	; 0x2000
  10cae0:	e16f2f12 	clz	r2, r2
  10cae4:	e1a022a2 	lsr	r2, r2, #5
  10cae8:	e5862000 	str	r2, [r6]
  10caec:	e5853000 	str	r3, [r5]
  10caf0:	e28dd040 	add	sp, sp, #64	; 0x40
  10caf4:	e8bd8070 	pop	{r4, r5, r6, pc}
  10caf8:	e1d420bc 	ldrh	r2, [r4, #12]
  10cafc:	e3a03000 	mov	r3, #0
  10cb00:	e5863000 	str	r3, [r6]
  10cb04:	e2120080 	ands	r0, r2, #128	; 0x80
  10cb08:	0a000004 	beq	10cb20 <__swhatbuf_r+0x84>
  10cb0c:	e3a02040 	mov	r2, #64	; 0x40
  10cb10:	e1a00003 	mov	r0, r3
  10cb14:	e5852000 	str	r2, [r5]
  10cb18:	e28dd040 	add	sp, sp, #64	; 0x40
  10cb1c:	e8bd8070 	pop	{r4, r5, r6, pc}
  10cb20:	e3a03b01 	mov	r3, #1024	; 0x400
  10cb24:	e5853000 	str	r3, [r5]
  10cb28:	e28dd040 	add	sp, sp, #64	; 0x40
  10cb2c:	e8bd8070 	pop	{r4, r5, r6, pc}

0010cb30 <__smakebuf_r>:
  10cb30:	e1d120bc 	ldrh	r2, [r1, #12]
  10cb34:	e92d4070 	push	{r4, r5, r6, lr}
  10cb38:	e1a04001 	mov	r4, r1
  10cb3c:	e24dd008 	sub	sp, sp, #8
  10cb40:	e3120002 	tst	r2, #2
  10cb44:	0a000006 	beq	10cb64 <__smakebuf_r+0x34>
  10cb48:	e2812043 	add	r2, r1, #67	; 0x43
  10cb4c:	e3a01001 	mov	r1, #1
  10cb50:	e5842000 	str	r2, [r4]
  10cb54:	e5842010 	str	r2, [r4, #16]
  10cb58:	e5841014 	str	r1, [r4, #20]
  10cb5c:	e28dd008 	add	sp, sp, #8
  10cb60:	e8bd8070 	pop	{r4, r5, r6, pc}
  10cb64:	e1a05000 	mov	r5, r0
  10cb68:	e28d3004 	add	r3, sp, #4
  10cb6c:	e1a0200d 	mov	r2, sp
  10cb70:	ebffffc9 	bl	10ca9c <__swhatbuf_r>
  10cb74:	e59d1000 	ldr	r1, [sp]
  10cb78:	e1a06000 	mov	r6, r0
  10cb7c:	e1a00005 	mov	r0, r5
  10cb80:	ebffecf7 	bl	107f64 <_malloc_r>
  10cb84:	e3500000 	cmp	r0, #0
  10cb88:	0a000017 	beq	10cbec <__smakebuf_r+0xbc>
  10cb8c:	e59dc004 	ldr	ip, [sp, #4]
  10cb90:	e30c21ec 	movw	r2, #49644	; 0xc1ec
  10cb94:	e1d430fc 	ldrsh	r3, [r4, #12]
  10cb98:	e3402010 	movt	r2, #16
  10cb9c:	e59d1000 	ldr	r1, [sp]
  10cba0:	e35c0000 	cmp	ip, #0
  10cba4:	e585203c 	str	r2, [r5, #60]	; 0x3c
  10cba8:	e3833080 	orr	r3, r3, #128	; 0x80
  10cbac:	e5840000 	str	r0, [r4]
  10cbb0:	e5840010 	str	r0, [r4, #16]
  10cbb4:	e1c430bc 	strh	r3, [r4, #12]
  10cbb8:	e5841014 	str	r1, [r4, #20]
  10cbbc:	1a000003 	bne	10cbd0 <__smakebuf_r+0xa0>
  10cbc0:	e1833006 	orr	r3, r3, r6
  10cbc4:	e1c430bc 	strh	r3, [r4, #12]
  10cbc8:	e28dd008 	add	sp, sp, #8
  10cbcc:	e8bd8070 	pop	{r4, r5, r6, pc}
  10cbd0:	e1a00005 	mov	r0, r5
  10cbd4:	e1d410fe 	ldrsh	r1, [r4, #14]
  10cbd8:	eb000c3a 	bl	10fcc8 <_isatty_r>
  10cbdc:	e1d430fc 	ldrsh	r3, [r4, #12]
  10cbe0:	e3500000 	cmp	r0, #0
  10cbe4:	13833001 	orrne	r3, r3, #1
  10cbe8:	eafffff4 	b	10cbc0 <__smakebuf_r+0x90>
  10cbec:	e1d430fc 	ldrsh	r3, [r4, #12]
  10cbf0:	e3130c02 	tst	r3, #512	; 0x200
  10cbf4:	1affffd8 	bne	10cb5c <__smakebuf_r+0x2c>
  10cbf8:	e2842043 	add	r2, r4, #67	; 0x43
  10cbfc:	e3833002 	orr	r3, r3, #2
  10cc00:	e3a01001 	mov	r1, #1
  10cc04:	e1c430bc 	strh	r3, [r4, #12]
  10cc08:	e5842000 	str	r2, [r4]
  10cc0c:	e5842010 	str	r2, [r4, #16]
  10cc10:	e5841014 	str	r1, [r4, #20]
  10cc14:	eaffffd0 	b	10cb5c <__smakebuf_r+0x2c>
	...

0010cc20 <memchr>:
  10cc20:	f001 01ff 	and.w	r1, r1, #255	; 0xff
  10cc24:	2a10      	cmp	r2, #16
  10cc26:	db2b      	blt.n	10cc80 <memchr+0x60>
  10cc28:	f010 0f07 	tst.w	r0, #7
  10cc2c:	d008      	beq.n	10cc40 <memchr+0x20>
  10cc2e:	f810 3b01 	ldrb.w	r3, [r0], #1
  10cc32:	3a01      	subs	r2, #1
  10cc34:	428b      	cmp	r3, r1
  10cc36:	d02d      	beq.n	10cc94 <memchr+0x74>
  10cc38:	f010 0f07 	tst.w	r0, #7
  10cc3c:	b342      	cbz	r2, 10cc90 <memchr+0x70>
  10cc3e:	d1f6      	bne.n	10cc2e <memchr+0xe>
  10cc40:	b4f0      	push	{r4, r5, r6, r7}
  10cc42:	ea41 2101 	orr.w	r1, r1, r1, lsl #8
  10cc46:	ea41 4101 	orr.w	r1, r1, r1, lsl #16
  10cc4a:	f022 0407 	bic.w	r4, r2, #7
  10cc4e:	f07f 0700 	mvns.w	r7, #0
  10cc52:	2300      	movs	r3, #0
  10cc54:	e8f0 5602 	ldrd	r5, r6, [r0], #8
  10cc58:	3c08      	subs	r4, #8
  10cc5a:	ea85 0501 	eor.w	r5, r5, r1
  10cc5e:	ea86 0601 	eor.w	r6, r6, r1
  10cc62:	fa85 f547 	uadd8	r5, r5, r7
  10cc66:	faa3 f587 	sel	r5, r3, r7
  10cc6a:	fa86 f647 	uadd8	r6, r6, r7
  10cc6e:	faa5 f687 	sel	r6, r5, r7
  10cc72:	b98e      	cbnz	r6, 10cc98 <memchr+0x78>
  10cc74:	d1ee      	bne.n	10cc54 <memchr+0x34>
  10cc76:	bcf0      	pop	{r4, r5, r6, r7}
  10cc78:	f001 01ff 	and.w	r1, r1, #255	; 0xff
  10cc7c:	f002 0207 	and.w	r2, r2, #7
  10cc80:	b132      	cbz	r2, 10cc90 <memchr+0x70>
  10cc82:	f810 3b01 	ldrb.w	r3, [r0], #1
  10cc86:	3a01      	subs	r2, #1
  10cc88:	ea83 0301 	eor.w	r3, r3, r1
  10cc8c:	b113      	cbz	r3, 10cc94 <memchr+0x74>
  10cc8e:	d1f8      	bne.n	10cc82 <memchr+0x62>
  10cc90:	2000      	movs	r0, #0
  10cc92:	4770      	bx	lr
  10cc94:	3801      	subs	r0, #1
  10cc96:	4770      	bx	lr
  10cc98:	2d00      	cmp	r5, #0
  10cc9a:	bf06      	itte	eq
  10cc9c:	4635      	moveq	r5, r6
  10cc9e:	3803      	subeq	r0, #3
  10cca0:	3807      	subne	r0, #7
  10cca2:	f015 0f01 	tst.w	r5, #1
  10cca6:	d107      	bne.n	10ccb8 <memchr+0x98>
  10cca8:	3001      	adds	r0, #1
  10ccaa:	f415 7f80 	tst.w	r5, #256	; 0x100
  10ccae:	bf02      	ittt	eq
  10ccb0:	3001      	addeq	r0, #1
  10ccb2:	f415 3fc0 	tsteq.w	r5, #98304	; 0x18000
  10ccb6:	3001      	addeq	r0, #1
  10ccb8:	bcf0      	pop	{r4, r5, r6, r7}
  10ccba:	3801      	subs	r0, #1
  10ccbc:	4770      	bx	lr
  10ccbe:	bf00      	nop

0010ccc0 <_Balloc>:
  10ccc0:	e590304c 	ldr	r3, [r0, #76]	; 0x4c
  10ccc4:	e92d4070 	push	{r4, r5, r6, lr}
  10ccc8:	e1a05000 	mov	r5, r0
  10cccc:	e1a04001 	mov	r4, r1
  10ccd0:	e3530000 	cmp	r3, #0
  10ccd4:	0a000008 	beq	10ccfc <_Balloc+0x3c>
  10ccd8:	e7930104 	ldr	r0, [r3, r4, lsl #2]
  10ccdc:	e3500000 	cmp	r0, #0
  10cce0:	0a00000e 	beq	10cd20 <_Balloc+0x60>
  10cce4:	e5902000 	ldr	r2, [r0]
  10cce8:	e7832104 	str	r2, [r3, r4, lsl #2]
  10ccec:	e3a03000 	mov	r3, #0
  10ccf0:	e5803010 	str	r3, [r0, #16]
  10ccf4:	e580300c 	str	r3, [r0, #12]
  10ccf8:	e8bd8070 	pop	{r4, r5, r6, pc}
  10ccfc:	e3a02021 	mov	r2, #33	; 0x21
  10cd00:	e3a01004 	mov	r1, #4
  10cd04:	ebffec5f 	bl	107e88 <_calloc_r>
  10cd08:	e3500000 	cmp	r0, #0
  10cd0c:	e585004c 	str	r0, [r5, #76]	; 0x4c
  10cd10:	11a03000 	movne	r3, r0
  10cd14:	1affffef 	bne	10ccd8 <_Balloc+0x18>
  10cd18:	e3a00000 	mov	r0, #0
  10cd1c:	e8bd8070 	pop	{r4, r5, r6, pc}
  10cd20:	e3a01001 	mov	r1, #1
  10cd24:	e1a00005 	mov	r0, r5
  10cd28:	e1a05411 	lsl	r5, r1, r4
  10cd2c:	e2852005 	add	r2, r5, #5
  10cd30:	e1a02102 	lsl	r2, r2, #2
  10cd34:	ebffec53 	bl	107e88 <_calloc_r>
  10cd38:	e3500000 	cmp	r0, #0
  10cd3c:	0afffff5 	beq	10cd18 <_Balloc+0x58>
  10cd40:	e9800030 	stmib	r0, {r4, r5}
  10cd44:	eaffffe8 	b	10ccec <_Balloc+0x2c>

0010cd48 <_Bfree>:
  10cd48:	e3510000 	cmp	r1, #0
  10cd4c:	1590304c 	ldrne	r3, [r0, #76]	; 0x4c
  10cd50:	15912004 	ldrne	r2, [r1, #4]
  10cd54:	17930102 	ldrne	r0, [r3, r2, lsl #2]
  10cd58:	15810000 	strne	r0, [r1]
  10cd5c:	17831102 	strne	r1, [r3, r2, lsl #2]
  10cd60:	e12fff1e 	bx	lr

0010cd64 <__multadd>:
  10cd64:	e92d40f0 	push	{r4, r5, r6, r7, lr}
  10cd68:	e3a0c000 	mov	ip, #0
  10cd6c:	e5914010 	ldr	r4, [r1, #16]
  10cd70:	e24dd00c 	sub	sp, sp, #12
  10cd74:	e1a05001 	mov	r5, r1
  10cd78:	e1a06000 	mov	r6, r0
  10cd7c:	e281e014 	add	lr, r1, #20
  10cd80:	e59e0000 	ldr	r0, [lr]
  10cd84:	e28cc001 	add	ip, ip, #1
  10cd88:	e154000c 	cmp	r4, ip
  10cd8c:	e6ff1070 	uxth	r1, r0
  10cd90:	e1a00820 	lsr	r0, r0, #16
  10cd94:	e0233192 	mla	r3, r2, r1, r3
  10cd98:	e1a01823 	lsr	r1, r3, #16
  10cd9c:	e6ff3073 	uxth	r3, r3
  10cda0:	e0201092 	mla	r0, r2, r0, r1
  10cda4:	e0831800 	add	r1, r3, r0, lsl #16
  10cda8:	e1a03820 	lsr	r3, r0, #16
  10cdac:	e48e1004 	str	r1, [lr], #4
  10cdb0:	cafffff2 	bgt	10cd80 <__multadd+0x1c>
  10cdb4:	e3530000 	cmp	r3, #0
  10cdb8:	0a000006 	beq	10cdd8 <__multadd+0x74>
  10cdbc:	e5952008 	ldr	r2, [r5, #8]
  10cdc0:	e1540002 	cmp	r4, r2
  10cdc4:	aa000006 	bge	10cde4 <__multadd+0x80>
  10cdc8:	e0852104 	add	r2, r5, r4, lsl #2
  10cdcc:	e2844001 	add	r4, r4, #1
  10cdd0:	e5823014 	str	r3, [r2, #20]
  10cdd4:	e5854010 	str	r4, [r5, #16]
  10cdd8:	e1a00005 	mov	r0, r5
  10cddc:	e28dd00c 	add	sp, sp, #12
  10cde0:	e8bd80f0 	pop	{r4, r5, r6, r7, pc}
  10cde4:	e5951004 	ldr	r1, [r5, #4]
  10cde8:	e1a00006 	mov	r0, r6
  10cdec:	e58d3004 	str	r3, [sp, #4]
  10cdf0:	e2811001 	add	r1, r1, #1
  10cdf4:	ebffffb1 	bl	10ccc0 <_Balloc>
  10cdf8:	e5952010 	ldr	r2, [r5, #16]
  10cdfc:	e285100c 	add	r1, r5, #12
  10ce00:	e1a07000 	mov	r7, r0
  10ce04:	e280000c 	add	r0, r0, #12
  10ce08:	e2822002 	add	r2, r2, #2
  10ce0c:	e1a02102 	lsl	r2, r2, #2
  10ce10:	ebffee2e 	bl	1086d0 <memcpy>
  10ce14:	e596204c 	ldr	r2, [r6, #76]	; 0x4c
  10ce18:	e5951004 	ldr	r1, [r5, #4]
  10ce1c:	e59d3004 	ldr	r3, [sp, #4]
  10ce20:	e7920101 	ldr	r0, [r2, r1, lsl #2]
  10ce24:	e5850000 	str	r0, [r5]
  10ce28:	e7825101 	str	r5, [r2, r1, lsl #2]
  10ce2c:	e1a05007 	mov	r5, r7
  10ce30:	eaffffe4 	b	10cdc8 <__multadd+0x64>

0010ce34 <__s2b>:
  10ce34:	e92d47f0 	push	{r4, r5, r6, r7, r8, r9, sl, lr}
  10ce38:	e3088e39 	movw	r8, #36409	; 0x8e39
  10ce3c:	e1a06003 	mov	r6, r3
  10ce40:	e34388e3 	movt	r8, #14563	; 0x38e3
  10ce44:	e2833008 	add	r3, r3, #8
  10ce48:	e1a07002 	mov	r7, r2
  10ce4c:	e0c98893 	smull	r8, r9, r3, r8
  10ce50:	e1a03fc3 	asr	r3, r3, #31
  10ce54:	e1a05000 	mov	r5, r0
  10ce58:	e59d8020 	ldr	r8, [sp, #32]
  10ce5c:	e1a04001 	mov	r4, r1
  10ce60:	e06320c9 	rsb	r2, r3, r9, asr #1
  10ce64:	e3520001 	cmp	r2, #1
  10ce68:	da000028 	ble	10cf10 <__s2b+0xdc>
  10ce6c:	e3a03001 	mov	r3, #1
  10ce70:	e3a01000 	mov	r1, #0
  10ce74:	e1a03083 	lsl	r3, r3, #1
  10ce78:	e2811001 	add	r1, r1, #1
  10ce7c:	e1520003 	cmp	r2, r3
  10ce80:	cafffffb 	bgt	10ce74 <__s2b+0x40>
  10ce84:	e1a00005 	mov	r0, r5
  10ce88:	ebffff8c 	bl	10ccc0 <_Balloc>
  10ce8c:	e3570009 	cmp	r7, #9
  10ce90:	e3a03001 	mov	r3, #1
  10ce94:	e5808014 	str	r8, [r0, #20]
  10ce98:	d284400a 	addle	r4, r4, #10
  10ce9c:	e5803010 	str	r3, [r0, #16]
  10cea0:	d3a07009 	movle	r7, #9
  10cea4:	da00000c 	ble	10cedc <__s2b+0xa8>
  10cea8:	e2849009 	add	r9, r4, #9
  10ceac:	e0844007 	add	r4, r4, r7
  10ceb0:	e1a08009 	mov	r8, r9
  10ceb4:	e4d83001 	ldrb	r3, [r8], #1
  10ceb8:	e1a01000 	mov	r1, r0
  10cebc:	e3a0200a 	mov	r2, #10
  10cec0:	e1a00005 	mov	r0, r5
  10cec4:	e2433030 	sub	r3, r3, #48	; 0x30
  10cec8:	ebffffa5 	bl	10cd64 <__multadd>
  10cecc:	e1580004 	cmp	r8, r4
  10ced0:	1afffff7 	bne	10ceb4 <__s2b+0x80>
  10ced4:	e2474008 	sub	r4, r7, #8
  10ced8:	e0894004 	add	r4, r9, r4
  10cedc:	e1560007 	cmp	r6, r7
  10cee0:	c0466007 	subgt	r6, r6, r7
  10cee4:	c0846006 	addgt	r6, r4, r6
  10cee8:	da00000a 	ble	10cf18 <__s2b+0xe4>
  10ceec:	e4d43001 	ldrb	r3, [r4], #1
  10cef0:	e1a01000 	mov	r1, r0
  10cef4:	e3a0200a 	mov	r2, #10
  10cef8:	e1a00005 	mov	r0, r5
  10cefc:	e2433030 	sub	r3, r3, #48	; 0x30
  10cf00:	ebffff97 	bl	10cd64 <__multadd>
  10cf04:	e1560004 	cmp	r6, r4
  10cf08:	1afffff7 	bne	10ceec <__s2b+0xb8>
  10cf0c:	e8bd87f0 	pop	{r4, r5, r6, r7, r8, r9, sl, pc}
  10cf10:	e3a01000 	mov	r1, #0
  10cf14:	eaffffda 	b	10ce84 <__s2b+0x50>
  10cf18:	e8bd87f0 	pop	{r4, r5, r6, r7, r8, r9, sl, pc}

0010cf1c <__hi0bits>:
  10cf1c:	e1a02820 	lsr	r2, r0, #16
  10cf20:	e1a03000 	mov	r3, r0
  10cf24:	e1a02802 	lsl	r2, r2, #16
  10cf28:	e3520000 	cmp	r2, #0
  10cf2c:	01a03800 	lsleq	r3, r0, #16
  10cf30:	13a00000 	movne	r0, #0
  10cf34:	03a00010 	moveq	r0, #16
  10cf38:	e31304ff 	tst	r3, #-16777216	; 0xff000000
  10cf3c:	01a03403 	lsleq	r3, r3, #8
  10cf40:	02800008 	addeq	r0, r0, #8
  10cf44:	e313020f 	tst	r3, #-268435456	; 0xf0000000
  10cf48:	01a03203 	lsleq	r3, r3, #4
  10cf4c:	02800004 	addeq	r0, r0, #4
  10cf50:	e3130103 	tst	r3, #-1073741824	; 0xc0000000
  10cf54:	01a03103 	lsleq	r3, r3, #2
  10cf58:	02800002 	addeq	r0, r0, #2
  10cf5c:	e3530000 	cmp	r3, #0
  10cf60:	b12fff1e 	bxlt	lr
  10cf64:	e3130101 	tst	r3, #1073741824	; 0x40000000
  10cf68:	12800001 	addne	r0, r0, #1
  10cf6c:	03a00020 	moveq	r0, #32
  10cf70:	e12fff1e 	bx	lr

0010cf74 <__lo0bits>:
  10cf74:	e5903000 	ldr	r3, [r0]
  10cf78:	e1a01000 	mov	r1, r0
  10cf7c:	e2132007 	ands	r2, r3, #7
  10cf80:	0a000008 	beq	10cfa8 <__lo0bits+0x34>
  10cf84:	e3130001 	tst	r3, #1
  10cf88:	1a00001d 	bne	10d004 <__lo0bits+0x90>
  10cf8c:	e3130002 	tst	r3, #2
  10cf90:	11a030a3 	lsrne	r3, r3, #1
  10cf94:	01a03123 	lsreq	r3, r3, #2
  10cf98:	13a00001 	movne	r0, #1
  10cf9c:	03a00002 	moveq	r0, #2
  10cfa0:	e5813000 	str	r3, [r1]
  10cfa4:	e12fff1e 	bx	lr
  10cfa8:	e6ff0073 	uxth	r0, r3
  10cfac:	e3500000 	cmp	r0, #0
  10cfb0:	01a03823 	lsreq	r3, r3, #16
  10cfb4:	03a00010 	moveq	r0, #16
  10cfb8:	11a00002 	movne	r0, r2
  10cfbc:	e31300ff 	tst	r3, #255	; 0xff
  10cfc0:	01a03423 	lsreq	r3, r3, #8
  10cfc4:	02800008 	addeq	r0, r0, #8
  10cfc8:	e313000f 	tst	r3, #15
  10cfcc:	01a03223 	lsreq	r3, r3, #4
  10cfd0:	02800004 	addeq	r0, r0, #4
  10cfd4:	e3130003 	tst	r3, #3
  10cfd8:	01a03123 	lsreq	r3, r3, #2
  10cfdc:	02800002 	addeq	r0, r0, #2
  10cfe0:	e3130001 	tst	r3, #1
  10cfe4:	1a000004 	bne	10cffc <__lo0bits+0x88>
  10cfe8:	e1b030a3 	lsrs	r3, r3, #1
  10cfec:	1a000001 	bne	10cff8 <__lo0bits+0x84>
  10cff0:	e3a00020 	mov	r0, #32
  10cff4:	e12fff1e 	bx	lr
  10cff8:	e2800001 	add	r0, r0, #1
  10cffc:	e5813000 	str	r3, [r1]
  10d000:	e12fff1e 	bx	lr
  10d004:	e3a00000 	mov	r0, #0
  10d008:	e12fff1e 	bx	lr

0010d00c <__i2b>:
  10d00c:	e92d4010 	push	{r4, lr}
  10d010:	e1a04001 	mov	r4, r1
  10d014:	e3a01001 	mov	r1, #1
  10d018:	ebffff28 	bl	10ccc0 <_Balloc>
  10d01c:	e3a02001 	mov	r2, #1
  10d020:	e5804014 	str	r4, [r0, #20]
  10d024:	e5802010 	str	r2, [r0, #16]
  10d028:	e8bd8010 	pop	{r4, pc}

0010d02c <__multiply>:
  10d02c:	e92d4ff0 	push	{r4, r5, r6, r7, r8, r9, sl, fp, lr}
  10d030:	e1a0b001 	mov	fp, r1
  10d034:	e5916010 	ldr	r6, [r1, #16]
  10d038:	e24dd00c 	sub	sp, sp, #12
  10d03c:	e1a08002 	mov	r8, r2
  10d040:	e5924010 	ldr	r4, [r2, #16]
  10d044:	e1560004 	cmp	r6, r4
  10d048:	aa000004 	bge	10d060 <__multiply+0x34>
  10d04c:	e1a02006 	mov	r2, r6
  10d050:	e1a0b008 	mov	fp, r8
  10d054:	e1a06004 	mov	r6, r4
  10d058:	e1a08001 	mov	r8, r1
  10d05c:	e1a04002 	mov	r4, r2
  10d060:	e59b3008 	ldr	r3, [fp, #8]
  10d064:	e0867004 	add	r7, r6, r4
  10d068:	e59b1004 	ldr	r1, [fp, #4]
  10d06c:	e1570003 	cmp	r7, r3
  10d070:	c2811001 	addgt	r1, r1, #1
  10d074:	ebffff11 	bl	10ccc0 <_Balloc>
  10d078:	e2809014 	add	r9, r0, #20
  10d07c:	e1a03000 	mov	r3, r0
  10d080:	e089a107 	add	sl, r9, r7, lsl #2
  10d084:	e58d0000 	str	r0, [sp]
  10d088:	e159000a 	cmp	r9, sl
  10d08c:	31a03009 	movcc	r3, r9
  10d090:	33a01000 	movcc	r1, #0
  10d094:	2a000002 	bcs	10d0a4 <__multiply+0x78>
  10d098:	e4831004 	str	r1, [r3], #4
  10d09c:	e15a0003 	cmp	sl, r3
  10d0a0:	8afffffc 	bhi	10d098 <__multiply+0x6c>
  10d0a4:	e2888014 	add	r8, r8, #20
  10d0a8:	e28bb014 	add	fp, fp, #20
  10d0ac:	e0883104 	add	r3, r8, r4, lsl #2
  10d0b0:	e08b6106 	add	r6, fp, r6, lsl #2
  10d0b4:	e1580003 	cmp	r8, r3
  10d0b8:	358da004 	strcc	sl, [sp, #4]
  10d0bc:	31a0a003 	movcc	sl, r3
  10d0c0:	2a000035 	bcs	10d19c <__multiply+0x170>
  10d0c4:	e598e000 	ldr	lr, [r8]
  10d0c8:	e6ff507e 	uxth	r5, lr
  10d0cc:	e3550000 	cmp	r5, #0
  10d0d0:	0a000014 	beq	10d128 <__multiply+0xfc>
  10d0d4:	e1a0e009 	mov	lr, r9
  10d0d8:	e1a0400b 	mov	r4, fp
  10d0dc:	e3a02000 	mov	r2, #0
  10d0e0:	e4943004 	ldr	r3, [r4], #4
  10d0e4:	e59e0000 	ldr	r0, [lr]
  10d0e8:	e1560004 	cmp	r6, r4
  10d0ec:	e6ff1073 	uxth	r1, r3
  10d0f0:	e1a03823 	lsr	r3, r3, #16
  10d0f4:	e6ffc070 	uxth	ip, r0
  10d0f8:	e1a00820 	lsr	r0, r0, #16
  10d0fc:	e021c195 	mla	r1, r5, r1, ip
  10d100:	e0230395 	mla	r3, r5, r3, r0
  10d104:	e0812002 	add	r2, r1, r2
  10d108:	e6ff1072 	uxth	r1, r2
  10d10c:	e0832822 	add	r2, r3, r2, lsr #16
  10d110:	e1813802 	orr	r3, r1, r2, lsl #16
  10d114:	e1a02822 	lsr	r2, r2, #16
  10d118:	e48e3004 	str	r3, [lr], #4
  10d11c:	8affffef 	bhi	10d0e0 <__multiply+0xb4>
  10d120:	e58e2000 	str	r2, [lr]
  10d124:	e598e000 	ldr	lr, [r8]
  10d128:	e1b0e82e 	lsrs	lr, lr, #16
  10d12c:	0a000015 	beq	10d188 <__multiply+0x15c>
  10d130:	e5993000 	ldr	r3, [r9]
  10d134:	e1a0c009 	mov	ip, r9
  10d138:	e1a0000b 	mov	r0, fp
  10d13c:	e3a04000 	mov	r4, #0
  10d140:	e1a02003 	mov	r2, r3
  10d144:	e1d010b0 	ldrh	r1, [r0]
  10d148:	e1a02822 	lsr	r2, r2, #16
  10d14c:	e6ff3073 	uxth	r3, r3
  10d150:	e022219e 	mla	r2, lr, r1, r2
  10d154:	e0824004 	add	r4, r2, r4
  10d158:	e1833804 	orr	r3, r3, r4, lsl #16
  10d15c:	e48c3004 	str	r3, [ip], #4
  10d160:	e4903004 	ldr	r3, [r0], #4
  10d164:	e59c2000 	ldr	r2, [ip]
  10d168:	e1560000 	cmp	r6, r0
  10d16c:	e1a03823 	lsr	r3, r3, #16
  10d170:	e6ff1072 	uxth	r1, r2
  10d174:	e023139e 	mla	r3, lr, r3, r1
  10d178:	e0833824 	add	r3, r3, r4, lsr #16
  10d17c:	e1a04823 	lsr	r4, r3, #16
  10d180:	8affffef 	bhi	10d144 <__multiply+0x118>
  10d184:	e58c3000 	str	r3, [ip]
  10d188:	e2888004 	add	r8, r8, #4
  10d18c:	e2899004 	add	r9, r9, #4
  10d190:	e15a0008 	cmp	sl, r8
  10d194:	8affffca 	bhi	10d0c4 <__multiply+0x98>
  10d198:	e59da004 	ldr	sl, [sp, #4]
  10d19c:	e3570000 	cmp	r7, #0
  10d1a0:	da000009 	ble	10d1cc <__multiply+0x1a0>
  10d1a4:	e51a3004 	ldr	r3, [sl, #-4]
  10d1a8:	e24aa004 	sub	sl, sl, #4
  10d1ac:	e3530000 	cmp	r3, #0
  10d1b0:	0a000003 	beq	10d1c4 <__multiply+0x198>
  10d1b4:	ea000004 	b	10d1cc <__multiply+0x1a0>
  10d1b8:	e53a3004 	ldr	r3, [sl, #-4]!
  10d1bc:	e3530000 	cmp	r3, #0
  10d1c0:	1a000001 	bne	10d1cc <__multiply+0x1a0>
  10d1c4:	e2577001 	subs	r7, r7, #1
  10d1c8:	1afffffa 	bne	10d1b8 <__multiply+0x18c>
  10d1cc:	e59d3000 	ldr	r3, [sp]
  10d1d0:	e1a00003 	mov	r0, r3
  10d1d4:	e5837010 	str	r7, [r3, #16]
  10d1d8:	e28dd00c 	add	sp, sp, #12
  10d1dc:	e8bd8ff0 	pop	{r4, r5, r6, r7, r8, r9, sl, fp, pc}

0010d1e0 <__pow5mult>:
  10d1e0:	e2123003 	ands	r3, r2, #3
  10d1e4:	e92d41f0 	push	{r4, r5, r6, r7, r8, lr}
  10d1e8:	e1a04002 	mov	r4, r2
  10d1ec:	e1a07000 	mov	r7, r0
  10d1f0:	01a05001 	moveq	r5, r1
  10d1f4:	1a000024 	bne	10d28c <__pow5mult+0xac>
  10d1f8:	e1b04144 	asrs	r4, r4, #2
  10d1fc:	0a000019 	beq	10d268 <__pow5mult+0x88>
  10d200:	e5976048 	ldr	r6, [r7, #72]	; 0x48
  10d204:	e3560000 	cmp	r6, #0
  10d208:	0a000027 	beq	10d2ac <__pow5mult+0xcc>
  10d20c:	e3a08000 	mov	r8, #0
  10d210:	ea000005 	b	10d22c <__pow5mult+0x4c>
  10d214:	e1b040c4 	asrs	r4, r4, #1
  10d218:	0a000012 	beq	10d268 <__pow5mult+0x88>
  10d21c:	e5960000 	ldr	r0, [r6]
  10d220:	e3500000 	cmp	r0, #0
  10d224:	0a000011 	beq	10d270 <__pow5mult+0x90>
  10d228:	e1a06000 	mov	r6, r0
  10d22c:	e3140001 	tst	r4, #1
  10d230:	0afffff7 	beq	10d214 <__pow5mult+0x34>
  10d234:	e1a02006 	mov	r2, r6
  10d238:	e1a01005 	mov	r1, r5
  10d23c:	e1a00007 	mov	r0, r7
  10d240:	ebffff79 	bl	10d02c <__multiply>
  10d244:	e3550000 	cmp	r5, #0
  10d248:	15952004 	ldrne	r2, [r5, #4]
  10d24c:	1597304c 	ldrne	r3, [r7, #76]	; 0x4c
  10d250:	17931102 	ldrne	r1, [r3, r2, lsl #2]
  10d254:	15851000 	strne	r1, [r5]
  10d258:	17835102 	strne	r5, [r3, r2, lsl #2]
  10d25c:	e1b040c4 	asrs	r4, r4, #1
  10d260:	e1a05000 	mov	r5, r0
  10d264:	1affffec 	bne	10d21c <__pow5mult+0x3c>
  10d268:	e1a00005 	mov	r0, r5
  10d26c:	e8bd81f0 	pop	{r4, r5, r6, r7, r8, pc}
  10d270:	e1a02006 	mov	r2, r6
  10d274:	e1a01006 	mov	r1, r6
  10d278:	e1a00007 	mov	r0, r7
  10d27c:	ebffff6a 	bl	10d02c <__multiply>
  10d280:	e5860000 	str	r0, [r6]
  10d284:	e5808000 	str	r8, [r0]
  10d288:	eaffffe6 	b	10d228 <__pow5mult+0x48>
  10d28c:	e305c7e0 	movw	ip, #22496	; 0x57e0
  10d290:	e2432001 	sub	r2, r3, #1
  10d294:	e340c012 	movt	ip, #18
  10d298:	e3a03000 	mov	r3, #0
  10d29c:	e79c2102 	ldr	r2, [ip, r2, lsl #2]
  10d2a0:	ebfffeaf 	bl	10cd64 <__multadd>
  10d2a4:	e1a05000 	mov	r5, r0
  10d2a8:	eaffffd2 	b	10d1f8 <__pow5mult+0x18>
  10d2ac:	e3a01001 	mov	r1, #1
  10d2b0:	e1a00007 	mov	r0, r7
  10d2b4:	ebfffe81 	bl	10ccc0 <_Balloc>
  10d2b8:	e3001271 	movw	r1, #625	; 0x271
  10d2bc:	e3a02001 	mov	r2, #1
  10d2c0:	e3a03000 	mov	r3, #0
  10d2c4:	e5801014 	str	r1, [r0, #20]
  10d2c8:	e5802010 	str	r2, [r0, #16]
  10d2cc:	e1a06000 	mov	r6, r0
  10d2d0:	e5870048 	str	r0, [r7, #72]	; 0x48
  10d2d4:	e5803000 	str	r3, [r0]
  10d2d8:	eaffffcb 	b	10d20c <__pow5mult+0x2c>

0010d2dc <__lshift>:
  10d2dc:	e92d47f0 	push	{r4, r5, r6, r7, r8, r9, sl, lr}
  10d2e0:	e1a092c2 	asr	r9, r2, #5
  10d2e4:	e5917010 	ldr	r7, [r1, #16]
  10d2e8:	e1a05001 	mov	r5, r1
  10d2ec:	e1a08002 	mov	r8, r2
  10d2f0:	e1a06000 	mov	r6, r0
  10d2f4:	e5913008 	ldr	r3, [r1, #8]
  10d2f8:	e0897007 	add	r7, r9, r7
  10d2fc:	e5911004 	ldr	r1, [r1, #4]
  10d300:	e2874001 	add	r4, r7, #1
  10d304:	e1540003 	cmp	r4, r3
  10d308:	da000003 	ble	10d31c <__lshift+0x40>
  10d30c:	e1a03083 	lsl	r3, r3, #1
  10d310:	e2811001 	add	r1, r1, #1
  10d314:	e1540003 	cmp	r4, r3
  10d318:	cafffffb 	bgt	10d30c <__lshift+0x30>
  10d31c:	e1a00006 	mov	r0, r6
  10d320:	ebfffe66 	bl	10ccc0 <_Balloc>
  10d324:	e3590000 	cmp	r9, #0
  10d328:	e1a0c000 	mov	ip, r0
  10d32c:	e2803014 	add	r3, r0, #20
  10d330:	da000004 	ble	10d348 <__lshift+0x6c>
  10d334:	e0831109 	add	r1, r3, r9, lsl #2
  10d338:	e3a02000 	mov	r2, #0
  10d33c:	e4832004 	str	r2, [r3], #4
  10d340:	e1510003 	cmp	r1, r3
  10d344:	1afffffc 	bne	10d33c <__lshift+0x60>
  10d348:	e595e010 	ldr	lr, [r5, #16]
  10d34c:	e218801f 	ands	r8, r8, #31
  10d350:	e2851014 	add	r1, r5, #20
  10d354:	e081e10e 	add	lr, r1, lr, lsl #2
  10d358:	0a000014 	beq	10d3b0 <__lshift+0xd4>
  10d35c:	e2682020 	rsb	r2, r8, #32
  10d360:	e3a00000 	mov	r0, #0
  10d364:	e5919000 	ldr	r9, [r1]
  10d368:	e1800819 	orr	r0, r0, r9, lsl r8
  10d36c:	e4830004 	str	r0, [r3], #4
  10d370:	e4910004 	ldr	r0, [r1], #4
  10d374:	e15e0001 	cmp	lr, r1
  10d378:	e1a00230 	lsr	r0, r0, r2
  10d37c:	8afffff8 	bhi	10d364 <__lshift+0x88>
  10d380:	e3500000 	cmp	r0, #0
  10d384:	e5830000 	str	r0, [r3]
  10d388:	12874002 	addne	r4, r7, #2
  10d38c:	e596304c 	ldr	r3, [r6, #76]	; 0x4c
  10d390:	e2444001 	sub	r4, r4, #1
  10d394:	e5952004 	ldr	r2, [r5, #4]
  10d398:	e1a0000c 	mov	r0, ip
  10d39c:	e58c4010 	str	r4, [ip, #16]
  10d3a0:	e7931102 	ldr	r1, [r3, r2, lsl #2]
  10d3a4:	e5851000 	str	r1, [r5]
  10d3a8:	e7835102 	str	r5, [r3, r2, lsl #2]
  10d3ac:	e8bd87f0 	pop	{r4, r5, r6, r7, r8, r9, sl, pc}
  10d3b0:	e2433004 	sub	r3, r3, #4
  10d3b4:	e4912004 	ldr	r2, [r1], #4
  10d3b8:	e15e0001 	cmp	lr, r1
  10d3bc:	e5a32004 	str	r2, [r3, #4]!
  10d3c0:	8afffffb 	bhi	10d3b4 <__lshift+0xd8>
  10d3c4:	eafffff0 	b	10d38c <__lshift+0xb0>

0010d3c8 <__mcmp>:
  10d3c8:	e52de004 	push	{lr}		; (str lr, [sp, #-4]!)
  10d3cc:	e1a0e000 	mov	lr, r0
  10d3d0:	e5913010 	ldr	r3, [r1, #16]
  10d3d4:	e5900010 	ldr	r0, [r0, #16]
  10d3d8:	e0500003 	subs	r0, r0, r3
  10d3dc:	149df004 	popne	{pc}		; (ldrne pc, [sp], #4)
  10d3e0:	e1a03103 	lsl	r3, r3, #2
  10d3e4:	e28ee014 	add	lr, lr, #20
  10d3e8:	e2811014 	add	r1, r1, #20
  10d3ec:	e0811003 	add	r1, r1, r3
  10d3f0:	e08e3003 	add	r3, lr, r3
  10d3f4:	ea000001 	b	10d400 <__mcmp+0x38>
  10d3f8:	e15e0003 	cmp	lr, r3
  10d3fc:	2a000006 	bcs	10d41c <__mcmp+0x54>
  10d400:	e533c004 	ldr	ip, [r3, #-4]!
  10d404:	e5312004 	ldr	r2, [r1, #-4]!
  10d408:	e15c0002 	cmp	ip, r2
  10d40c:	0afffff9 	beq	10d3f8 <__mcmp+0x30>
  10d410:	3a000002 	bcc	10d420 <__mcmp+0x58>
  10d414:	e3a00001 	mov	r0, #1
  10d418:	e49df004 	pop	{pc}		; (ldr pc, [sp], #4)
  10d41c:	e49df004 	pop	{pc}		; (ldr pc, [sp], #4)
  10d420:	e3e00000 	mvn	r0, #0
  10d424:	e49df004 	pop	{pc}		; (ldr pc, [sp], #4)

0010d428 <__mdiff>:
  10d428:	e92d47f0 	push	{r4, r5, r6, r7, r8, r9, sl, lr}
  10d42c:	e1a05001 	mov	r5, r1
  10d430:	e5917010 	ldr	r7, [r1, #16]
  10d434:	e1a08002 	mov	r8, r2
  10d438:	e5921010 	ldr	r1, [r2, #16]
  10d43c:	e0477001 	sub	r7, r7, r1
  10d440:	e3570000 	cmp	r7, #0
  10d444:	1a000044 	bne	10d55c <__mdiff+0x134>
  10d448:	e1a01101 	lsl	r1, r1, #2
  10d44c:	e2854014 	add	r4, r5, #20
  10d450:	e282e014 	add	lr, r2, #20
  10d454:	e0843001 	add	r3, r4, r1
  10d458:	e08e1001 	add	r1, lr, r1
  10d45c:	ea000001 	b	10d468 <__mdiff+0x40>
  10d460:	e1540003 	cmp	r4, r3
  10d464:	2a000047 	bcs	10d588 <__mdiff+0x160>
  10d468:	e533c004 	ldr	ip, [r3, #-4]!
  10d46c:	e5312004 	ldr	r2, [r1, #-4]!
  10d470:	e15c0002 	cmp	ip, r2
  10d474:	0afffff9 	beq	10d460 <__mdiff+0x38>
  10d478:	21a0600e 	movcs	r6, lr
  10d47c:	3a000048 	bcc	10d5a4 <__mdiff+0x17c>
  10d480:	e5951004 	ldr	r1, [r5, #4]
  10d484:	ebfffe0d 	bl	10ccc0 <_Balloc>
  10d488:	e5955010 	ldr	r5, [r5, #16]
  10d48c:	e1a0c006 	mov	ip, r6
  10d490:	e5983010 	ldr	r3, [r8, #16]
  10d494:	e1a0e004 	mov	lr, r4
  10d498:	e580700c 	str	r7, [r0, #12]
  10d49c:	e2801014 	add	r1, r0, #20
  10d4a0:	e3a07000 	mov	r7, #0
  10d4a4:	e0844105 	add	r4, r4, r5, lsl #2
  10d4a8:	e0866103 	add	r6, r6, r3, lsl #2
  10d4ac:	e49c8004 	ldr	r8, [ip], #4
  10d4b0:	e49e9004 	ldr	r9, [lr], #4
  10d4b4:	e156000c 	cmp	r6, ip
  10d4b8:	e1a02828 	lsr	r2, r8, #16
  10d4bc:	e6ff8078 	uxth	r8, r8
  10d4c0:	e6ff3079 	uxth	r3, r9
  10d4c4:	e0622829 	rsb	r2, r2, r9, lsr #16
  10d4c8:	e0833007 	add	r3, r3, r7
  10d4cc:	e0433008 	sub	r3, r3, r8
  10d4d0:	e0822843 	add	r2, r2, r3, asr #16
  10d4d4:	e6ff3073 	uxth	r3, r3
  10d4d8:	e1833802 	orr	r3, r3, r2, lsl #16
  10d4dc:	e1a07842 	asr	r7, r2, #16
  10d4e0:	e4813004 	str	r3, [r1], #4
  10d4e4:	8afffff0 	bhi	10d4ac <__mdiff+0x84>
  10d4e8:	e154000e 	cmp	r4, lr
  10d4ec:	9a000011 	bls	10d538 <__mdiff+0x110>
  10d4f0:	e1a06001 	mov	r6, r1
  10d4f4:	e1a0c00e 	mov	ip, lr
  10d4f8:	e49c8004 	ldr	r8, [ip], #4
  10d4fc:	e154000c 	cmp	r4, ip
  10d500:	e6ff3078 	uxth	r3, r8
  10d504:	e0833007 	add	r3, r3, r7
  10d508:	e1a02843 	asr	r2, r3, #16
  10d50c:	e6ff3073 	uxth	r3, r3
  10d510:	e0822828 	add	r2, r2, r8, lsr #16
  10d514:	e1833802 	orr	r3, r3, r2, lsl #16
  10d518:	e1a07842 	asr	r7, r2, #16
  10d51c:	e4863004 	str	r3, [r6], #4
  10d520:	8afffff4 	bhi	10d4f8 <__mdiff+0xd0>
  10d524:	e1e0e00e 	mvn	lr, lr
  10d528:	e08e4004 	add	r4, lr, r4
  10d52c:	e3c44003 	bic	r4, r4, #3
  10d530:	e2844004 	add	r4, r4, #4
  10d534:	e0811004 	add	r1, r1, r4
  10d538:	e3530000 	cmp	r3, #0
  10d53c:	e2411004 	sub	r1, r1, #4
  10d540:	1a000003 	bne	10d554 <__mdiff+0x12c>
  10d544:	e5313004 	ldr	r3, [r1, #-4]!
  10d548:	e2455001 	sub	r5, r5, #1
  10d54c:	e3530000 	cmp	r3, #0
  10d550:	0afffffb 	beq	10d544 <__mdiff+0x11c>
  10d554:	e5805010 	str	r5, [r0, #16]
  10d558:	e8bd87f0 	pop	{r4, r5, r6, r7, r8, r9, sl, pc}
  10d55c:	a2854014 	addge	r4, r5, #20
  10d560:	a2826014 	addge	r6, r2, #20
  10d564:	a3a07000 	movge	r7, #0
  10d568:	aaffffc4 	bge	10d480 <__mdiff+0x58>
  10d56c:	e1a03005 	mov	r3, r5
  10d570:	e2856014 	add	r6, r5, #20
  10d574:	e2824014 	add	r4, r2, #20
  10d578:	e1a05002 	mov	r5, r2
  10d57c:	e3a07001 	mov	r7, #1
  10d580:	e1a08003 	mov	r8, r3
  10d584:	eaffffbd 	b	10d480 <__mdiff+0x58>
  10d588:	e3a01000 	mov	r1, #0
  10d58c:	ebfffdcb 	bl	10ccc0 <_Balloc>
  10d590:	e3a02001 	mov	r2, #1
  10d594:	e3a03000 	mov	r3, #0
  10d598:	e5802010 	str	r2, [r0, #16]
  10d59c:	e5803014 	str	r3, [r0, #20]
  10d5a0:	e8bd87f0 	pop	{r4, r5, r6, r7, r8, r9, sl, pc}
  10d5a4:	e1a03005 	mov	r3, r5
  10d5a8:	e1a06004 	mov	r6, r4
  10d5ac:	e1a05008 	mov	r5, r8
  10d5b0:	e1a0400e 	mov	r4, lr
  10d5b4:	e1a08003 	mov	r8, r3
  10d5b8:	e3a07001 	mov	r7, #1
  10d5bc:	eaffffaf 	b	10d480 <__mdiff+0x58>

0010d5c0 <__ulp>:
  10d5c0:	e3a03000 	mov	r3, #0
  10d5c4:	e3473ff0 	movt	r3, #32752	; 0x7ff0
  10d5c8:	e0033001 	and	r3, r3, r1
  10d5cc:	e243350d 	sub	r3, r3, #54525952	; 0x3400000
  10d5d0:	e3530000 	cmp	r3, #0
  10d5d4:	da000002 	ble	10d5e4 <__ulp+0x24>
  10d5d8:	e3a00000 	mov	r0, #0
  10d5dc:	e1a01003 	mov	r1, r3
  10d5e0:	e12fff1e 	bx	lr
  10d5e4:	e2633000 	rsb	r3, r3, #0
  10d5e8:	e1a03a43 	asr	r3, r3, #20
  10d5ec:	e3530013 	cmp	r3, #19
  10d5f0:	da000008 	ble	10d618 <__ulp+0x58>
  10d5f4:	e2433014 	sub	r3, r3, #20
  10d5f8:	e3a01000 	mov	r1, #0
  10d5fc:	e353001e 	cmp	r3, #30
  10d600:	d263301f 	rsble	r3, r3, #31
  10d604:	d3a02001 	movle	r2, #1
  10d608:	d1a03312 	lslle	r3, r2, r3
  10d60c:	c3a03001 	movgt	r3, #1
  10d610:	e1a00003 	mov	r0, r3
  10d614:	e12fff1e 	bx	lr
  10d618:	e3a02702 	mov	r2, #524288	; 0x80000
  10d61c:	e3a00000 	mov	r0, #0
  10d620:	e1a01352 	asr	r1, r2, r3
  10d624:	e12fff1e 	bx	lr

0010d628 <__b2d>:
  10d628:	e92d47f0 	push	{r4, r5, r6, r7, r8, r9, sl, lr}
  10d62c:	e2806014 	add	r6, r0, #20
  10d630:	e5907010 	ldr	r7, [r0, #16]
  10d634:	e0867107 	add	r7, r6, r7, lsl #2
  10d638:	e5178004 	ldr	r8, [r7, #-4]
  10d63c:	e2479004 	sub	r9, r7, #4
  10d640:	e1a00008 	mov	r0, r8
  10d644:	ebfffe34 	bl	10cf1c <__hi0bits>
  10d648:	e350000a 	cmp	r0, #10
  10d64c:	e2603020 	rsb	r3, r0, #32
  10d650:	e5813000 	str	r3, [r1]
  10d654:	ca00000c 	bgt	10d68c <__b2d+0x64>
  10d658:	e1560009 	cmp	r6, r9
  10d65c:	e260100b 	rsb	r1, r0, #11
  10d660:	35172008 	ldrcc	r2, [r7, #-8]
  10d664:	e3a03000 	mov	r3, #0
  10d668:	e3433ff0 	movt	r3, #16368	; 0x3ff0
  10d66c:	23a02000 	movcs	r2, #0
  10d670:	e1835138 	orr	r5, r3, r8, lsr r1
  10d674:	e2803015 	add	r3, r0, #21
  10d678:	31a02132 	lsrcc	r2, r2, r1
  10d67c:	e1824318 	orr	r4, r2, r8, lsl r3
  10d680:	e1a00004 	mov	r0, r4
  10d684:	e1a01005 	mov	r1, r5
  10d688:	e8bd87f0 	pop	{r4, r5, r6, r7, r8, r9, sl, pc}
  10d68c:	e1560009 	cmp	r6, r9
  10d690:	2a00000f 	bcs	10d6d4 <__b2d+0xac>
  10d694:	e250100b 	subs	r1, r0, #11
  10d698:	e5173008 	ldr	r3, [r7, #-8]
  10d69c:	0a00000e 	beq	10d6dc <__b2d+0xb4>
  10d6a0:	e2470008 	sub	r0, r7, #8
  10d6a4:	e3a02000 	mov	r2, #0
  10d6a8:	e1560000 	cmp	r6, r0
  10d6ac:	e3432ff0 	movt	r2, #16368	; 0x3ff0
  10d6b0:	e1828118 	orr	r8, r2, r8, lsl r1
  10d6b4:	3517000c 	ldrcc	r0, [r7, #-12]
  10d6b8:	e2612020 	rsb	r2, r1, #32
  10d6bc:	21a00113 	lslcs	r0, r3, r1
  10d6c0:	e1885233 	orr	r5, r8, r3, lsr r2
  10d6c4:	31a03113 	lslcc	r3, r3, r1
  10d6c8:	31830230 	orrcc	r0, r3, r0, lsr r2
  10d6cc:	e1a04000 	mov	r4, r0
  10d6d0:	eaffffea 	b	10d680 <__b2d+0x58>
  10d6d4:	e250300b 	subs	r3, r0, #11
  10d6d8:	1a000003 	bne	10d6ec <__b2d+0xc4>
  10d6dc:	e38855ff 	orr	r5, r8, #1069547520	; 0x3fc00000
  10d6e0:	e1a04003 	mov	r4, r3
  10d6e4:	e3855603 	orr	r5, r5, #3145728	; 0x300000
  10d6e8:	eaffffe4 	b	10d680 <__b2d+0x58>
  10d6ec:	e3a02000 	mov	r2, #0
  10d6f0:	e3a00000 	mov	r0, #0
  10d6f4:	e3432ff0 	movt	r2, #16368	; 0x3ff0
  10d6f8:	e1825318 	orr	r5, r2, r8, lsl r3
  10d6fc:	eafffff2 	b	10d6cc <__b2d+0xa4>

0010d700 <__d2b>:
  10d700:	e92d43f0 	push	{r4, r5, r6, r7, r8, r9, lr}
  10d704:	e3a01001 	mov	r1, #1
  10d708:	e24dd00c 	sub	sp, sp, #12
  10d70c:	e1a04003 	mov	r4, r3
  10d710:	e7ea5a53 	ubfx	r5, r3, #20, #11
  10d714:	e1a08002 	mov	r8, r2
  10d718:	e7f34054 	ubfx	r4, r4, #0, #20
  10d71c:	e59d7028 	ldr	r7, [sp, #40]	; 0x28
  10d720:	e59d602c 	ldr	r6, [sp, #44]	; 0x2c
  10d724:	ebfffd65 	bl	10ccc0 <_Balloc>
  10d728:	e3550000 	cmp	r5, #0
  10d72c:	e1a09000 	mov	r9, r0
  10d730:	13844601 	orrne	r4, r4, #1048576	; 0x100000
  10d734:	e3580000 	cmp	r8, #0
  10d738:	e58d4004 	str	r4, [sp, #4]
  10d73c:	0a00001d 	beq	10d7b8 <__d2b+0xb8>
  10d740:	e28d0008 	add	r0, sp, #8
  10d744:	e5208008 	str	r8, [r0, #-8]!
  10d748:	ebfffe09 	bl	10cf74 <__lo0bits>
  10d74c:	e3500000 	cmp	r0, #0
  10d750:	159dc004 	ldrne	ip, [sp, #4]
  10d754:	12602020 	rsbne	r2, r0, #32
  10d758:	159d1000 	ldrne	r1, [sp]
  10d75c:	089d000c 	ldmeq	sp, {r2, r3}
  10d760:	11a0303c 	lsrne	r3, ip, r0
  10d764:	1181221c 	orrne	r2, r1, ip, lsl r2
  10d768:	158d3004 	strne	r3, [sp, #4]
  10d76c:	e3530000 	cmp	r3, #0
  10d770:	03a01001 	moveq	r1, #1
  10d774:	13a01002 	movne	r1, #2
  10d778:	e3550000 	cmp	r5, #0
  10d77c:	e5892014 	str	r2, [r9, #20]
  10d780:	e5893018 	str	r3, [r9, #24]
  10d784:	e5891010 	str	r1, [r9, #16]
  10d788:	1a000014 	bne	10d7e0 <__d2b+0xe0>
  10d78c:	e0893101 	add	r3, r9, r1, lsl #2
  10d790:	e2405e43 	sub	r5, r0, #1072	; 0x430
  10d794:	e2455002 	sub	r5, r5, #2
  10d798:	e5930010 	ldr	r0, [r3, #16]
  10d79c:	e5875000 	str	r5, [r7]
  10d7a0:	ebfffddd 	bl	10cf1c <__hi0bits>
  10d7a4:	e0600281 	rsb	r0, r0, r1, lsl #5
  10d7a8:	e5860000 	str	r0, [r6]
  10d7ac:	e1a00009 	mov	r0, r9
  10d7b0:	e28dd00c 	add	sp, sp, #12
  10d7b4:	e8bd83f0 	pop	{r4, r5, r6, r7, r8, r9, pc}
  10d7b8:	e28d0004 	add	r0, sp, #4
  10d7bc:	ebfffdec 	bl	10cf74 <__lo0bits>
  10d7c0:	e59d2004 	ldr	r2, [sp, #4]
  10d7c4:	e3550000 	cmp	r5, #0
  10d7c8:	e3a03001 	mov	r3, #1
  10d7cc:	e2800020 	add	r0, r0, #32
  10d7d0:	e1a01003 	mov	r1, r3
  10d7d4:	e5893010 	str	r3, [r9, #16]
  10d7d8:	e5892014 	str	r2, [r9, #20]
  10d7dc:	0affffea 	beq	10d78c <__d2b+0x8c>
  10d7e0:	e2455e43 	sub	r5, r5, #1072	; 0x430
  10d7e4:	e2603035 	rsb	r3, r0, #53	; 0x35
  10d7e8:	e2455003 	sub	r5, r5, #3
  10d7ec:	e0855000 	add	r5, r5, r0
  10d7f0:	e1a00009 	mov	r0, r9
  10d7f4:	e5875000 	str	r5, [r7]
  10d7f8:	e5863000 	str	r3, [r6]
  10d7fc:	e28dd00c 	add	sp, sp, #12
  10d800:	e8bd83f0 	pop	{r4, r5, r6, r7, r8, r9, pc}

0010d804 <__ratio>:
  10d804:	e92d40f0 	push	{r4, r5, r6, r7, lr}
  10d808:	e24dd00c 	sub	sp, sp, #12
  10d80c:	e1a06001 	mov	r6, r1
  10d810:	e1a0100d 	mov	r1, sp
  10d814:	e1a07000 	mov	r7, r0
  10d818:	ebffff82 	bl	10d628 <__b2d>
  10d81c:	ec410b30 	vmov	d16, r0, r1
  10d820:	e1a00006 	mov	r0, r6
  10d824:	e28d1004 	add	r1, sp, #4
  10d828:	ebffff7e 	bl	10d628 <__b2d>
  10d82c:	e5972010 	ldr	r2, [r7, #16]
  10d830:	e596e010 	ldr	lr, [r6, #16]
  10d834:	e89d1008 	ldm	sp, {r3, ip}
  10d838:	e042200e 	sub	r2, r2, lr
  10d83c:	e043300c 	sub	r3, r3, ip
  10d840:	e0833282 	add	r3, r3, r2, lsl #5
  10d844:	e3530000 	cmp	r3, #0
  10d848:	da000007 	ble	10d86c <__ratio+0x68>
  10d84c:	ec554b30 	vmov	r4, r5, d16
  10d850:	e0855a03 	add	r5, r5, r3, lsl #20
  10d854:	ec410b31 	vmov	d17, r0, r1
  10d858:	ec454b30 	vmov	d16, r4, r5
  10d85c:	eec02ba1 	vdiv.f64	d18, d16, d17
  10d860:	ec510b32 	vmov	r0, r1, d18
  10d864:	e28dd00c 	add	sp, sp, #12
  10d868:	e8bd80f0 	pop	{r4, r5, r6, r7, pc}
  10d86c:	e0411a03 	sub	r1, r1, r3, lsl #20
  10d870:	ec410b31 	vmov	d17, r0, r1
  10d874:	eec02ba1 	vdiv.f64	d18, d16, d17
  10d878:	ec510b32 	vmov	r0, r1, d18
  10d87c:	e28dd00c 	add	sp, sp, #12
  10d880:	e8bd80f0 	pop	{r4, r5, r6, r7, pc}

0010d884 <_mprec_log10>:
  10d884:	e3500017 	cmp	r0, #23
  10d888:	da000006 	ble	10d8a8 <_mprec_log10+0x24>
  10d88c:	eef70b00 	vmov.f64	d16, #112	; 0x3f800000  1.0
  10d890:	eef21b04 	vmov.f64	d17, #36	; 0x41200000  10.0
  10d894:	e2500001 	subs	r0, r0, #1
  10d898:	ee600ba1 	vmul.f64	d16, d16, d17
  10d89c:	1afffffc 	bne	10d894 <_mprec_log10+0x10>
  10d8a0:	ec510b30 	vmov	r0, r1, d16
  10d8a4:	e12fff1e 	bx	lr
  10d8a8:	e30537e0 	movw	r3, #22496	; 0x57e0
  10d8ac:	e3403012 	movt	r3, #18
  10d8b0:	e0830180 	add	r0, r3, r0, lsl #3
  10d8b4:	edd00b04 	vldr	d16, [r0, #16]
  10d8b8:	ec510b30 	vmov	r0, r1, d16
  10d8bc:	e12fff1e 	bx	lr

0010d8c0 <__copybits>:
  10d8c0:	e592c010 	ldr	ip, [r2, #16]
  10d8c4:	e2411001 	sub	r1, r1, #1
  10d8c8:	e1a012c1 	asr	r1, r1, #5
  10d8cc:	e2823014 	add	r3, r2, #20
  10d8d0:	e92d4010 	push	{r4, lr}
  10d8d4:	e2814001 	add	r4, r1, #1
  10d8d8:	e083110c 	add	r1, r3, ip, lsl #2
  10d8dc:	e0804104 	add	r4, r0, r4, lsl #2
  10d8e0:	e1530001 	cmp	r3, r1
  10d8e4:	2a000009 	bcs	10d910 <__copybits+0x50>
  10d8e8:	e240c004 	sub	ip, r0, #4
  10d8ec:	e493e004 	ldr	lr, [r3], #4
  10d8f0:	e1510003 	cmp	r1, r3
  10d8f4:	e5ace004 	str	lr, [ip, #4]!
  10d8f8:	8afffffb 	bhi	10d8ec <__copybits+0x2c>
  10d8fc:	e0413002 	sub	r3, r1, r2
  10d900:	e2433015 	sub	r3, r3, #21
  10d904:	e3c33003 	bic	r3, r3, #3
  10d908:	e2833004 	add	r3, r3, #4
  10d90c:	e0800003 	add	r0, r0, r3
  10d910:	e1540000 	cmp	r4, r0
  10d914:	98bd8010 	popls	{r4, pc}
  10d918:	e3a03000 	mov	r3, #0
  10d91c:	e4803004 	str	r3, [r0], #4
  10d920:	e1540000 	cmp	r4, r0
  10d924:	8afffffc 	bhi	10d91c <__copybits+0x5c>
  10d928:	e8bd8010 	pop	{r4, pc}

0010d92c <__any_on>:
  10d92c:	e5903010 	ldr	r3, [r0, #16]
  10d930:	e1a022c1 	asr	r2, r1, #5
  10d934:	e280c014 	add	ip, r0, #20
  10d938:	e1530002 	cmp	r3, r2
  10d93c:	b08c3103 	addlt	r3, ip, r3, lsl #2
  10d940:	ba00000a 	blt	10d970 <__any_on+0x44>
  10d944:	da000008 	ble	10d96c <__any_on+0x40>
  10d948:	e211101f 	ands	r1, r1, #31
  10d94c:	0a000006 	beq	10d96c <__any_on+0x40>
  10d950:	e79c0102 	ldr	r0, [ip, r2, lsl #2]
  10d954:	e08c3102 	add	r3, ip, r2, lsl #2
  10d958:	e1a02130 	lsr	r2, r0, r1
  10d95c:	e1500112 	cmp	r0, r2, lsl r1
  10d960:	0a000002 	beq	10d970 <__any_on+0x44>
  10d964:	e3a00001 	mov	r0, #1
  10d968:	e12fff1e 	bx	lr
  10d96c:	e08c3102 	add	r3, ip, r2, lsl #2
  10d970:	e15c0003 	cmp	ip, r3
  10d974:	2a00000a 	bcs	10d9a4 <__any_on+0x78>
  10d978:	e5130004 	ldr	r0, [r3, #-4]
  10d97c:	e2433004 	sub	r3, r3, #4
  10d980:	e3500000 	cmp	r0, #0
  10d984:	0a000003 	beq	10d998 <__any_on+0x6c>
  10d988:	eafffff5 	b	10d964 <__any_on+0x38>
  10d98c:	e5332004 	ldr	r2, [r3, #-4]!
  10d990:	e3520000 	cmp	r2, #0
  10d994:	1afffff2 	bne	10d964 <__any_on+0x38>
  10d998:	e15c0003 	cmp	ip, r3
  10d99c:	3afffffa 	bcc	10d98c <__any_on+0x60>
  10d9a0:	e12fff1e 	bx	lr
  10d9a4:	e3a00000 	mov	r0, #0
  10d9a8:	e12fff1e 	bx	lr

0010d9ac <_putc_r>:
  10d9ac:	e92d41f0 	push	{r4, r5, r6, r7, r8, lr}
  10d9b0:	e2507000 	subs	r7, r0, #0
  10d9b4:	e1a06001 	mov	r6, r1
  10d9b8:	e1a04002 	mov	r4, r2
  10d9bc:	0a000002 	beq	10d9cc <_putc_r+0x20>
  10d9c0:	e5973038 	ldr	r3, [r7, #56]	; 0x38
  10d9c4:	e3530000 	cmp	r3, #0
  10d9c8:	0a000027 	beq	10da6c <_putc_r+0xc0>
  10d9cc:	e5943064 	ldr	r3, [r4, #100]	; 0x64
  10d9d0:	e3130001 	tst	r3, #1
  10d9d4:	1a000002 	bne	10d9e4 <_putc_r+0x38>
  10d9d8:	e1d430bc 	ldrh	r3, [r4, #12]
  10d9dc:	e3130c02 	tst	r3, #512	; 0x200
  10d9e0:	0a000023 	beq	10da74 <_putc_r+0xc8>
  10d9e4:	e5943008 	ldr	r3, [r4, #8]
  10d9e8:	e2433001 	sub	r3, r3, #1
  10d9ec:	e3530000 	cmp	r3, #0
  10d9f0:	e5843008 	str	r3, [r4, #8]
  10d9f4:	ba000010 	blt	10da3c <_putc_r+0x90>
  10d9f8:	e6ef5076 	uxtb	r5, r6
  10d9fc:	e5943000 	ldr	r3, [r4]
  10da00:	e2832001 	add	r2, r3, #1
  10da04:	e5842000 	str	r2, [r4]
  10da08:	e5c36000 	strb	r6, [r3]
  10da0c:	e5943064 	ldr	r3, [r4, #100]	; 0x64
  10da10:	e3130001 	tst	r3, #1
  10da14:	1a000002 	bne	10da24 <_putc_r+0x78>
  10da18:	e1d430bc 	ldrh	r3, [r4, #12]
  10da1c:	e3130c02 	tst	r3, #512	; 0x200
  10da20:	0a000001 	beq	10da2c <_putc_r+0x80>
  10da24:	e1a00005 	mov	r0, r5
  10da28:	e8bd81f0 	pop	{r4, r5, r6, r7, r8, pc}
  10da2c:	e2840058 	add	r0, r4, #88	; 0x58
  10da30:	eb000cf9 	bl	110e1c <__generic_gxx_recursive_mutex_unlock>
  10da34:	e1a00005 	mov	r0, r5
  10da38:	e8bd81f0 	pop	{r4, r5, r6, r7, r8, pc}
  10da3c:	e5942018 	ldr	r2, [r4, #24]
  10da40:	e1530002 	cmp	r3, r2
  10da44:	ba000002 	blt	10da54 <_putc_r+0xa8>
  10da48:	e6ef5076 	uxtb	r5, r6
  10da4c:	e355000a 	cmp	r5, #10
  10da50:	1affffe9 	bne	10d9fc <_putc_r+0x50>
  10da54:	e1a01006 	mov	r1, r6
  10da58:	e1a00007 	mov	r0, r7
  10da5c:	e1a02004 	mov	r2, r4
  10da60:	eb000614 	bl	10f2b8 <__swbuf_r>
  10da64:	e1a05000 	mov	r5, r0
  10da68:	eaffffe7 	b	10da0c <_putc_r+0x60>
  10da6c:	ebfffa33 	bl	10c340 <__sinit>
  10da70:	eaffffd5 	b	10d9cc <_putc_r+0x20>
  10da74:	e2840058 	add	r0, r4, #88	; 0x58
  10da78:	eb000ce9 	bl	110e24 <__generic_gxx_recursive_mutex_lock>
  10da7c:	eaffffd8 	b	10d9e4 <_putc_r+0x38>

0010da80 <putc>:
  10da80:	e92d41f0 	push	{r4, r5, r6, r7, r8, lr}
  10da84:	e1a06000 	mov	r6, r0
  10da88:	e1a04001 	mov	r4, r1
  10da8c:	ebffe924 	bl	107f24 <__getreent>
  10da90:	e2507000 	subs	r7, r0, #0
  10da94:	0a000002 	beq	10daa4 <putc+0x24>
  10da98:	e5973038 	ldr	r3, [r7, #56]	; 0x38
  10da9c:	e3530000 	cmp	r3, #0
  10daa0:	0a000027 	beq	10db44 <putc+0xc4>
  10daa4:	e5943064 	ldr	r3, [r4, #100]	; 0x64
  10daa8:	e3130001 	tst	r3, #1
  10daac:	1a000002 	bne	10dabc <putc+0x3c>
  10dab0:	e1d430bc 	ldrh	r3, [r4, #12]
  10dab4:	e3130c02 	tst	r3, #512	; 0x200
  10dab8:	0a000023 	beq	10db4c <putc+0xcc>
  10dabc:	e5943008 	ldr	r3, [r4, #8]
  10dac0:	e2433001 	sub	r3, r3, #1
  10dac4:	e3530000 	cmp	r3, #0
  10dac8:	e5843008 	str	r3, [r4, #8]
  10dacc:	ba000010 	blt	10db14 <putc+0x94>
  10dad0:	e6ef5076 	uxtb	r5, r6
  10dad4:	e5943000 	ldr	r3, [r4]
  10dad8:	e2832001 	add	r2, r3, #1
  10dadc:	e5842000 	str	r2, [r4]
  10dae0:	e5c36000 	strb	r6, [r3]
  10dae4:	e5943064 	ldr	r3, [r4, #100]	; 0x64
  10dae8:	e3130001 	tst	r3, #1
  10daec:	1a000002 	bne	10dafc <putc+0x7c>
  10daf0:	e1d430bc 	ldrh	r3, [r4, #12]
  10daf4:	e3130c02 	tst	r3, #512	; 0x200
  10daf8:	0a000001 	beq	10db04 <putc+0x84>
  10dafc:	e1a00005 	mov	r0, r5
  10db00:	e8bd81f0 	pop	{r4, r5, r6, r7, r8, pc}
  10db04:	e2840058 	add	r0, r4, #88	; 0x58
  10db08:	eb000cc3 	bl	110e1c <__generic_gxx_recursive_mutex_unlock>
  10db0c:	e1a00005 	mov	r0, r5
  10db10:	e8bd81f0 	pop	{r4, r5, r6, r7, r8, pc}
  10db14:	e5942018 	ldr	r2, [r4, #24]
  10db18:	e1530002 	cmp	r3, r2
  10db1c:	ba000002 	blt	10db2c <putc+0xac>
  10db20:	e6ef5076 	uxtb	r5, r6
  10db24:	e355000a 	cmp	r5, #10
  10db28:	1affffe9 	bne	10dad4 <putc+0x54>
  10db2c:	e1a01006 	mov	r1, r6
  10db30:	e1a00007 	mov	r0, r7
  10db34:	e1a02004 	mov	r2, r4
  10db38:	eb0005de 	bl	10f2b8 <__swbuf_r>
  10db3c:	e1a05000 	mov	r5, r0
  10db40:	eaffffe7 	b	10dae4 <putc+0x64>
  10db44:	ebfff9fd 	bl	10c340 <__sinit>
  10db48:	eaffffd5 	b	10daa4 <putc+0x24>
  10db4c:	e2840058 	add	r0, r4, #88	; 0x58
  10db50:	eb000cb3 	bl	110e24 <__generic_gxx_recursive_mutex_lock>
  10db54:	eaffffd8 	b	10dabc <putc+0x3c>

0010db58 <cleanup_glue>:
  10db58:	e92d4070 	push	{r4, r5, r6, lr}
  10db5c:	e1a04001 	mov	r4, r1
  10db60:	e5911000 	ldr	r1, [r1]
  10db64:	e1a05000 	mov	r5, r0
  10db68:	e3510000 	cmp	r1, #0
  10db6c:	0a000000 	beq	10db74 <cleanup_glue+0x1c>
  10db70:	ebfffff8 	bl	10db58 <cleanup_glue>
  10db74:	e1a01004 	mov	r1, r4
  10db78:	e1a00005 	mov	r0, r5
  10db7c:	e8bd4070 	pop	{r4, r5, r6, lr}
  10db80:	eafffabb 	b	10c674 <_free_r>

0010db84 <_reclaim_reent>:
  10db84:	e3003008 	movw	r3, #8
  10db88:	e3403013 	movt	r3, #19
  10db8c:	e5933000 	ldr	r3, [r3]
  10db90:	e1530000 	cmp	r3, r0
  10db94:	012fff1e 	bxeq	lr
  10db98:	e590304c 	ldr	r3, [r0, #76]	; 0x4c
  10db9c:	e92d4070 	push	{r4, r5, r6, lr}
  10dba0:	e1a05000 	mov	r5, r0
  10dba4:	e3530000 	cmp	r3, #0
  10dba8:	0a00000f 	beq	10dbec <_reclaim_reent+0x68>
  10dbac:	e3a06000 	mov	r6, #0
  10dbb0:	e7931006 	ldr	r1, [r3, r6]
  10dbb4:	e3510000 	cmp	r1, #0
  10dbb8:	0a000005 	beq	10dbd4 <_reclaim_reent+0x50>
  10dbbc:	e5914000 	ldr	r4, [r1]
  10dbc0:	e1a00005 	mov	r0, r5
  10dbc4:	ebfffaaa 	bl	10c674 <_free_r>
  10dbc8:	e2541000 	subs	r1, r4, #0
  10dbcc:	1afffffa 	bne	10dbbc <_reclaim_reent+0x38>
  10dbd0:	e595304c 	ldr	r3, [r5, #76]	; 0x4c
  10dbd4:	e2866004 	add	r6, r6, #4
  10dbd8:	e3560080 	cmp	r6, #128	; 0x80
  10dbdc:	1afffff3 	bne	10dbb0 <_reclaim_reent+0x2c>
  10dbe0:	e1a01003 	mov	r1, r3
  10dbe4:	e1a00005 	mov	r0, r5
  10dbe8:	ebfffaa1 	bl	10c674 <_free_r>
  10dbec:	e5951040 	ldr	r1, [r5, #64]	; 0x40
  10dbf0:	e3510000 	cmp	r1, #0
  10dbf4:	0a000001 	beq	10dc00 <_reclaim_reent+0x7c>
  10dbf8:	e1a00005 	mov	r0, r5
  10dbfc:	ebfffa9c 	bl	10c674 <_free_r>
  10dc00:	e5951148 	ldr	r1, [r5, #328]	; 0x148
  10dc04:	e3510000 	cmp	r1, #0
  10dc08:	0a000008 	beq	10dc30 <_reclaim_reent+0xac>
  10dc0c:	e2856f53 	add	r6, r5, #332	; 0x14c
  10dc10:	e1510006 	cmp	r1, r6
  10dc14:	0a000005 	beq	10dc30 <_reclaim_reent+0xac>
  10dc18:	e5914000 	ldr	r4, [r1]
  10dc1c:	e1a00005 	mov	r0, r5
  10dc20:	ebfffa93 	bl	10c674 <_free_r>
  10dc24:	e1560004 	cmp	r6, r4
  10dc28:	e1a01004 	mov	r1, r4
  10dc2c:	1afffff9 	bne	10dc18 <_reclaim_reent+0x94>
  10dc30:	e5951054 	ldr	r1, [r5, #84]	; 0x54
  10dc34:	e3510000 	cmp	r1, #0
  10dc38:	0a000001 	beq	10dc44 <_reclaim_reent+0xc0>
  10dc3c:	e1a00005 	mov	r0, r5
  10dc40:	ebfffa8b 	bl	10c674 <_free_r>
  10dc44:	e5953038 	ldr	r3, [r5, #56]	; 0x38
  10dc48:	e3530000 	cmp	r3, #0
  10dc4c:	08bd8070 	popeq	{r4, r5, r6, pc}
  10dc50:	e595303c 	ldr	r3, [r5, #60]	; 0x3c
  10dc54:	e1a00005 	mov	r0, r5
  10dc58:	e12fff33 	blx	r3
  10dc5c:	e59512e0 	ldr	r1, [r5, #736]	; 0x2e0
  10dc60:	e3510000 	cmp	r1, #0
  10dc64:	08bd8070 	popeq	{r4, r5, r6, pc}
  10dc68:	e1a00005 	mov	r0, r5
  10dc6c:	e8bd4070 	pop	{r4, r5, r6, lr}
  10dc70:	eaffffb8 	b	10db58 <cleanup_glue>

0010dc74 <__sread>:
  10dc74:	e92d4010 	push	{r4, lr}
  10dc78:	e1a04001 	mov	r4, r1
  10dc7c:	e1d110fe 	ldrsh	r1, [r1, #14]
  10dc80:	eb0008e3 	bl	110014 <_read_r>
  10dc84:	e3500000 	cmp	r0, #0
  10dc88:	a5943050 	ldrge	r3, [r4, #80]	; 0x50
  10dc8c:	b1d430bc 	ldrhlt	r3, [r4, #12]
  10dc90:	a0833000 	addge	r3, r3, r0
  10dc94:	b3c33a01 	biclt	r3, r3, #4096	; 0x1000
  10dc98:	a5843050 	strge	r3, [r4, #80]	; 0x50
  10dc9c:	b1c430bc 	strhlt	r3, [r4, #12]
  10dca0:	e8bd8010 	pop	{r4, pc}

0010dca4 <__seofread>:
  10dca4:	e3a00000 	mov	r0, #0
  10dca8:	e12fff1e 	bx	lr

0010dcac <__swrite>:
  10dcac:	e92d41f0 	push	{r4, r5, r6, r7, r8, lr}
  10dcb0:	e1a06002 	mov	r6, r2
  10dcb4:	e1d120fc 	ldrsh	r2, [r1, #12]
  10dcb8:	e1a04001 	mov	r4, r1
  10dcbc:	e1a07003 	mov	r7, r3
  10dcc0:	e1a05000 	mov	r5, r0
  10dcc4:	e3120c01 	tst	r2, #256	; 0x100
  10dcc8:	0a000004 	beq	10dce0 <__swrite+0x34>
  10dccc:	e3a02000 	mov	r2, #0
  10dcd0:	e3a03002 	mov	r3, #2
  10dcd4:	e1d110fe 	ldrsh	r1, [r1, #14]
  10dcd8:	eb000842 	bl	10fde8 <_lseek_r>
  10dcdc:	e1d420fc 	ldrsh	r2, [r4, #12]
  10dce0:	e3c22a01 	bic	r2, r2, #4096	; 0x1000
  10dce4:	e1a03007 	mov	r3, r7
  10dce8:	e1c420bc 	strh	r2, [r4, #12]
  10dcec:	e1a00005 	mov	r0, r5
  10dcf0:	e1a02006 	mov	r2, r6
  10dcf4:	e1d410fe 	ldrsh	r1, [r4, #14]
  10dcf8:	e8bd41f0 	pop	{r4, r5, r6, r7, r8, lr}
  10dcfc:	ea0005bf 	b	10f400 <_write_r>

0010dd00 <__sseek>:
  10dd00:	e92d4010 	push	{r4, lr}
  10dd04:	e1a04001 	mov	r4, r1
  10dd08:	e1d110fe 	ldrsh	r1, [r1, #14]
  10dd0c:	eb000835 	bl	10fde8 <_lseek_r>
  10dd10:	e1d430bc 	ldrh	r3, [r4, #12]
  10dd14:	e3700001 	cmn	r0, #1
  10dd18:	15840050 	strne	r0, [r4, #80]	; 0x50
  10dd1c:	03c33a01 	biceq	r3, r3, #4096	; 0x1000
  10dd20:	13833a01 	orrne	r3, r3, #4096	; 0x1000
  10dd24:	e1c430bc 	strh	r3, [r4, #12]
  10dd28:	e8bd8010 	pop	{r4, pc}

0010dd2c <__sclose>:
  10dd2c:	e1d110fe 	ldrsh	r1, [r1, #14]
  10dd30:	ea0005c3 	b	10f444 <_close_r>
	...

0010dd40 <strlen>:
  10dd40:	f890 f000 	pld	[r0]
  10dd44:	e96d 4502 	strd	r4, r5, [sp, #-8]!
  10dd48:	f020 0107 	bic.w	r1, r0, #7
  10dd4c:	f06f 0c00 	mvn.w	ip, #0
  10dd50:	f010 0407 	ands.w	r4, r0, #7
  10dd54:	f891 f020 	pld	[r1, #32]
  10dd58:	f040 8049 	bne.w	10ddee <strlen+0xae>
  10dd5c:	f04f 0400 	mov.w	r4, #0
  10dd60:	f06f 0007 	mvn.w	r0, #7
  10dd64:	e9d1 2300 	ldrd	r2, r3, [r1]
  10dd68:	f891 f040 	pld	[r1, #64]	; 0x40
  10dd6c:	f100 0008 	add.w	r0, r0, #8
  10dd70:	fa82 f24c 	uadd8	r2, r2, ip
  10dd74:	faa4 f28c 	sel	r2, r4, ip
  10dd78:	fa83 f34c 	uadd8	r3, r3, ip
  10dd7c:	faa2 f38c 	sel	r3, r2, ip
  10dd80:	bb4b      	cbnz	r3, 10ddd6 <strlen+0x96>
  10dd82:	e9d1 2302 	ldrd	r2, r3, [r1, #8]
  10dd86:	fa82 f24c 	uadd8	r2, r2, ip
  10dd8a:	f100 0008 	add.w	r0, r0, #8
  10dd8e:	faa4 f28c 	sel	r2, r4, ip
  10dd92:	fa83 f34c 	uadd8	r3, r3, ip
  10dd96:	faa2 f38c 	sel	r3, r2, ip
  10dd9a:	b9e3      	cbnz	r3, 10ddd6 <strlen+0x96>
  10dd9c:	e9d1 2304 	ldrd	r2, r3, [r1, #16]
  10dda0:	fa82 f24c 	uadd8	r2, r2, ip
  10dda4:	f100 0008 	add.w	r0, r0, #8
  10dda8:	faa4 f28c 	sel	r2, r4, ip
  10ddac:	fa83 f34c 	uadd8	r3, r3, ip
  10ddb0:	faa2 f38c 	sel	r3, r2, ip
  10ddb4:	b97b      	cbnz	r3, 10ddd6 <strlen+0x96>
  10ddb6:	e9d1 2306 	ldrd	r2, r3, [r1, #24]
  10ddba:	f101 0120 	add.w	r1, r1, #32
  10ddbe:	fa82 f24c 	uadd8	r2, r2, ip
  10ddc2:	f100 0008 	add.w	r0, r0, #8
  10ddc6:	faa4 f28c 	sel	r2, r4, ip
  10ddca:	fa83 f34c 	uadd8	r3, r3, ip
  10ddce:	faa2 f38c 	sel	r3, r2, ip
  10ddd2:	2b00      	cmp	r3, #0
  10ddd4:	d0c6      	beq.n	10dd64 <strlen+0x24>
  10ddd6:	2a00      	cmp	r2, #0
  10ddd8:	bf04      	itt	eq
  10ddda:	3004      	addeq	r0, #4
  10dddc:	461a      	moveq	r2, r3
  10ddde:	ba12      	rev	r2, r2
  10dde0:	fab2 f282 	clz	r2, r2
  10dde4:	e8fd 4502 	ldrd	r4, r5, [sp], #8
  10dde8:	eb00 00d2 	add.w	r0, r0, r2, lsr #3
  10ddec:	4770      	bx	lr
  10ddee:	e9d1 2300 	ldrd	r2, r3, [r1]
  10ddf2:	f004 0503 	and.w	r5, r4, #3
  10ddf6:	f1c4 0000 	rsb	r0, r4, #0
  10ddfa:	ea4f 05c5 	mov.w	r5, r5, lsl #3
  10ddfe:	f014 0f04 	tst.w	r4, #4
  10de02:	f891 f040 	pld	[r1, #64]	; 0x40
  10de06:	fa0c f505 	lsl.w	r5, ip, r5
  10de0a:	ea62 0205 	orn	r2, r2, r5
  10de0e:	bf1c      	itt	ne
  10de10:	ea63 0305 	ornne	r3, r3, r5
  10de14:	4662      	movne	r2, ip
  10de16:	f04f 0400 	mov.w	r4, #0
  10de1a:	e7a9      	b.n	10dd70 <strlen+0x30>

0010de1c <__sprint_r.part.0>:
  10de1c:	e92d4ff8 	push	{r3, r4, r5, r6, r7, r8, r9, sl, fp, lr}
  10de20:	e1a0b002 	mov	fp, r2
  10de24:	e5913064 	ldr	r3, [r1, #100]	; 0x64
  10de28:	e3130a02 	tst	r3, #8192	; 0x2000
  10de2c:	0a000022 	beq	10debc <__sprint_r.part.0+0xa0>
  10de30:	e5923008 	ldr	r3, [r2, #8]
  10de34:	e5929000 	ldr	r9, [r2]
  10de38:	e3530000 	cmp	r3, #0
  10de3c:	11a06001 	movne	r6, r1
  10de40:	11a07000 	movne	r7, r0
  10de44:	12899008 	addne	r9, r9, #8
  10de48:	0a000019 	beq	10deb4 <__sprint_r.part.0+0x98>
  10de4c:	e9190420 	ldmdb	r9, {r5, sl}
  10de50:	e1b0812a 	lsrs	r8, sl, #2
  10de54:	12455004 	subne	r5, r5, #4
  10de58:	13a04000 	movne	r4, #0
  10de5c:	1a000002 	bne	10de6c <__sprint_r.part.0+0x50>
  10de60:	ea00000d 	b	10de9c <__sprint_r.part.0+0x80>
  10de64:	e1580004 	cmp	r8, r4
  10de68:	0a00000a 	beq	10de98 <__sprint_r.part.0+0x7c>
  10de6c:	e1a02006 	mov	r2, r6
  10de70:	e5b51004 	ldr	r1, [r5, #4]!
  10de74:	e1a00007 	mov	r0, r7
  10de78:	e2844001 	add	r4, r4, #1
  10de7c:	eb00061c 	bl	10f6f4 <_fputwc_r>
  10de80:	e3700001 	cmn	r0, #1
  10de84:	1afffff6 	bne	10de64 <__sprint_r.part.0+0x48>
  10de88:	e3a03000 	mov	r3, #0
  10de8c:	e58b3008 	str	r3, [fp, #8]
  10de90:	e58b3004 	str	r3, [fp, #4]
  10de94:	e8bd8ff8 	pop	{r3, r4, r5, r6, r7, r8, r9, sl, fp, pc}
  10de98:	e59b3008 	ldr	r3, [fp, #8]
  10de9c:	e3caa003 	bic	sl, sl, #3
  10dea0:	e2899008 	add	r9, r9, #8
  10dea4:	e043300a 	sub	r3, r3, sl
  10dea8:	e3530000 	cmp	r3, #0
  10deac:	e58b3008 	str	r3, [fp, #8]
  10deb0:	1affffe5 	bne	10de4c <__sprint_r.part.0+0x30>
  10deb4:	e3a00000 	mov	r0, #0
  10deb8:	eafffff2 	b	10de88 <__sprint_r.part.0+0x6c>
  10debc:	eb000655 	bl	10f818 <__sfvwrite_r>
  10dec0:	eafffff0 	b	10de88 <__sprint_r.part.0+0x6c>

0010dec4 <__sprint_r>:
  10dec4:	e5923008 	ldr	r3, [r2, #8]
  10dec8:	e3530000 	cmp	r3, #0
  10decc:	0a000000 	beq	10ded4 <__sprint_r+0x10>
  10ded0:	eaffffd1 	b	10de1c <__sprint_r.part.0>
  10ded4:	e5823004 	str	r3, [r2, #4]
  10ded8:	e1a00003 	mov	r0, r3
  10dedc:	e12fff1e 	bx	lr

0010dee0 <_vfiprintf_r>:
  10dee0:	e250c000 	subs	ip, r0, #0
  10dee4:	e92d4ff0 	push	{r4, r5, r6, r7, r8, r9, sl, fp, lr}
  10dee8:	e24dd0b4 	sub	sp, sp, #180	; 0xb4
  10deec:	e1a05003 	mov	r5, r3
  10def0:	e1a0a002 	mov	sl, r2
  10def4:	e58dc014 	str	ip, [sp, #20]
  10def8:	e58d1004 	str	r1, [sp, #4]
  10defc:	e58d301c 	str	r3, [sp, #28]
  10df00:	0a000002 	beq	10df10 <_vfiprintf_r+0x30>
  10df04:	e59c3038 	ldr	r3, [ip, #56]	; 0x38
  10df08:	e3530000 	cmp	r3, #0
  10df0c:	0a0001a8 	beq	10e5b4 <_vfiprintf_r+0x6d4>
  10df10:	e59d2004 	ldr	r2, [sp, #4]
  10df14:	e5923064 	ldr	r3, [r2, #100]	; 0x64
  10df18:	e3130001 	tst	r3, #1
  10df1c:	0a00009f 	beq	10e1a0 <_vfiprintf_r+0x2c0>
  10df20:	e1d200fc 	ldrsh	r0, [r2, #12]
  10df24:	e6ff1070 	uxth	r1, r0
  10df28:	e3110a02 	tst	r1, #8192	; 0x2000
  10df2c:	1a000006 	bne	10df4c <_vfiprintf_r+0x6c>
  10df30:	e59d2004 	ldr	r2, [sp, #4]
  10df34:	e3800a02 	orr	r0, r0, #8192	; 0x2000
  10df38:	e6ff1070 	uxth	r1, r0
  10df3c:	e5923064 	ldr	r3, [r2, #100]	; 0x64
  10df40:	e1c200bc 	strh	r0, [r2, #12]
  10df44:	e3c33a02 	bic	r3, r3, #8192	; 0x2000
  10df48:	e5823064 	str	r3, [r2, #100]	; 0x64
  10df4c:	e3110008 	tst	r1, #8
  10df50:	0a000179 	beq	10e53c <_vfiprintf_r+0x65c>
  10df54:	e59d3004 	ldr	r3, [sp, #4]
  10df58:	e5933010 	ldr	r3, [r3, #16]
  10df5c:	e3530000 	cmp	r3, #0
  10df60:	0a000175 	beq	10e53c <_vfiprintf_r+0x65c>
  10df64:	e201301a 	and	r3, r1, #26
  10df68:	e353000a 	cmp	r3, #10
  10df6c:	0a00017c 	beq	10e564 <_vfiprintf_r+0x684>
  10df70:	e28d9070 	add	r9, sp, #112	; 0x70
  10df74:	e3a03000 	mov	r3, #0
  10df78:	e1a08009 	mov	r8, r9
  10df7c:	e58d3028 	str	r3, [sp, #40]	; 0x28
  10df80:	e58d3010 	str	r3, [sp, #16]
  10df84:	e58d3044 	str	r3, [sp, #68]	; 0x44
  10df88:	e58d3040 	str	r3, [sp, #64]	; 0x40
  10df8c:	e58d903c 	str	r9, [sp, #60]	; 0x3c
  10df90:	e5da3000 	ldrb	r3, [sl]
  10df94:	e1a0600a 	mov	r6, sl
  10df98:	e3530000 	cmp	r3, #0
  10df9c:	13530025 	cmpne	r3, #37	; 0x25
  10dfa0:	0a000013 	beq	10dff4 <_vfiprintf_r+0x114>
  10dfa4:	e5f63001 	ldrb	r3, [r6, #1]!
  10dfa8:	e3530000 	cmp	r3, #0
  10dfac:	13530025 	cmpne	r3, #37	; 0x25
  10dfb0:	1afffffb 	bne	10dfa4 <_vfiprintf_r+0xc4>
  10dfb4:	e056400a 	subs	r4, r6, sl
  10dfb8:	0a00000d 	beq	10dff4 <_vfiprintf_r+0x114>
  10dfbc:	e59d3040 	ldr	r3, [sp, #64]	; 0x40
  10dfc0:	e59d2044 	ldr	r2, [sp, #68]	; 0x44
  10dfc4:	e588a000 	str	sl, [r8]
  10dfc8:	e2833001 	add	r3, r3, #1
  10dfcc:	e5884004 	str	r4, [r8, #4]
  10dfd0:	e3530007 	cmp	r3, #7
  10dfd4:	e0842002 	add	r2, r4, r2
  10dfd8:	e58d3040 	str	r3, [sp, #64]	; 0x40
  10dfdc:	d2888008 	addle	r8, r8, #8
  10dfe0:	e58d2044 	str	r2, [sp, #68]	; 0x44
  10dfe4:	ca000078 	bgt	10e1cc <_vfiprintf_r+0x2ec>
  10dfe8:	e59d3010 	ldr	r3, [sp, #16]
  10dfec:	e0833004 	add	r3, r3, r4
  10dff0:	e58d3010 	str	r3, [sp, #16]
  10dff4:	e5d63000 	ldrb	r3, [r6]
  10dff8:	e3530000 	cmp	r3, #0
  10dffc:	0a0002d7 	beq	10eb60 <_vfiprintf_r+0xc80>
  10e000:	e3a03000 	mov	r3, #0
  10e004:	e3a01000 	mov	r1, #0
  10e008:	e5cd3037 	strb	r3, [sp, #55]	; 0x37
  10e00c:	e3e04000 	mvn	r4, #0
  10e010:	e5d63001 	ldrb	r3, [r6, #1]
  10e014:	e1a00001 	mov	r0, r1
  10e018:	e1a0b001 	mov	fp, r1
  10e01c:	e1a05001 	mov	r5, r1
  10e020:	e1a0c004 	mov	ip, r4
  10e024:	e286a001 	add	sl, r6, #1
  10e028:	e28aa001 	add	sl, sl, #1
  10e02c:	e2432020 	sub	r2, r3, #32
  10e030:	e3520058 	cmp	r2, #88	; 0x58
  10e034:	979ff102 	ldrls	pc, [pc, r2, lsl #2]
  10e038:	ea000245 	b	10e954 <_vfiprintf_r+0xa74>
  10e03c:	0010e88c 	.word	0x0010e88c
  10e040:	0010e954 	.word	0x0010e954
  10e044:	0010e954 	.word	0x0010e954
  10e048:	0010e8a0 	.word	0x0010e8a0
  10e04c:	0010e954 	.word	0x0010e954
  10e050:	0010e954 	.word	0x0010e954
  10e054:	0010e954 	.word	0x0010e954
  10e058:	0010e954 	.word	0x0010e954
  10e05c:	0010e954 	.word	0x0010e954
  10e060:	0010e954 	.word	0x0010e954
  10e064:	0010e8ac 	.word	0x0010e8ac
  10e068:	0010e8cc 	.word	0x0010e8cc
  10e06c:	0010e954 	.word	0x0010e954
  10e070:	0010e5c4 	.word	0x0010e5c4
  10e074:	0010e5d0 	.word	0x0010e5d0
  10e078:	0010e954 	.word	0x0010e954
  10e07c:	0010e74c 	.word	0x0010e74c
  10e080:	0010e758 	.word	0x0010e758
  10e084:	0010e758 	.word	0x0010e758
  10e088:	0010e758 	.word	0x0010e758
  10e08c:	0010e758 	.word	0x0010e758
  10e090:	0010e758 	.word	0x0010e758
  10e094:	0010e758 	.word	0x0010e758
  10e098:	0010e758 	.word	0x0010e758
  10e09c:	0010e758 	.word	0x0010e758
  10e0a0:	0010e758 	.word	0x0010e758
  10e0a4:	0010e954 	.word	0x0010e954
  10e0a8:	0010e954 	.word	0x0010e954
  10e0ac:	0010e954 	.word	0x0010e954
  10e0b0:	0010e954 	.word	0x0010e954
  10e0b4:	0010e954 	.word	0x0010e954
  10e0b8:	0010e954 	.word	0x0010e954
  10e0bc:	0010e954 	.word	0x0010e954
  10e0c0:	0010e954 	.word	0x0010e954
  10e0c4:	0010e954 	.word	0x0010e954
  10e0c8:	0010e954 	.word	0x0010e954
  10e0cc:	0010e77c 	.word	0x0010e77c
  10e0d0:	0010e954 	.word	0x0010e954
  10e0d4:	0010e954 	.word	0x0010e954
  10e0d8:	0010e954 	.word	0x0010e954
  10e0dc:	0010e954 	.word	0x0010e954
  10e0e0:	0010e954 	.word	0x0010e954
  10e0e4:	0010e954 	.word	0x0010e954
  10e0e8:	0010e954 	.word	0x0010e954
  10e0ec:	0010e954 	.word	0x0010e954
  10e0f0:	0010e954 	.word	0x0010e954
  10e0f4:	0010e954 	.word	0x0010e954
  10e0f8:	0010e218 	.word	0x0010e218
  10e0fc:	0010e954 	.word	0x0010e954
  10e100:	0010e954 	.word	0x0010e954
  10e104:	0010e954 	.word	0x0010e954
  10e108:	0010e954 	.word	0x0010e954
  10e10c:	0010e954 	.word	0x0010e954
  10e110:	0010e1e0 	.word	0x0010e1e0
  10e114:	0010e954 	.word	0x0010e954
  10e118:	0010e954 	.word	0x0010e954
  10e11c:	0010e82c 	.word	0x0010e82c
  10e120:	0010e954 	.word	0x0010e954
  10e124:	0010e954 	.word	0x0010e954
  10e128:	0010e954 	.word	0x0010e954
  10e12c:	0010e954 	.word	0x0010e954
  10e130:	0010e954 	.word	0x0010e954
  10e134:	0010e954 	.word	0x0010e954
  10e138:	0010e954 	.word	0x0010e954
  10e13c:	0010e954 	.word	0x0010e954
  10e140:	0010e954 	.word	0x0010e954
  10e144:	0010e954 	.word	0x0010e954
  10e148:	0010e844 	.word	0x0010e844
  10e14c:	0010e880 	.word	0x0010e880
  10e150:	0010e954 	.word	0x0010e954
  10e154:	0010e954 	.word	0x0010e954
  10e158:	0010e954 	.word	0x0010e954
  10e15c:	0010e724 	.word	0x0010e724
  10e160:	0010e880 	.word	0x0010e880
  10e164:	0010e954 	.word	0x0010e954
  10e168:	0010e954 	.word	0x0010e954
  10e16c:	0010e730 	.word	0x0010e730
  10e170:	0010e954 	.word	0x0010e954
  10e174:	0010e610 	.word	0x0010e610
  10e178:	0010e21c 	.word	0x0010e21c
  10e17c:	0010e8dc 	.word	0x0010e8dc
  10e180:	0010e6b0 	.word	0x0010e6b0
  10e184:	0010e954 	.word	0x0010e954
  10e188:	0010e64c 	.word	0x0010e64c
  10e18c:	0010e954 	.word	0x0010e954
  10e190:	0010e1e4 	.word	0x0010e1e4
  10e194:	0010e954 	.word	0x0010e954
  10e198:	0010e954 	.word	0x0010e954
  10e19c:	0010e6bc 	.word	0x0010e6bc
  10e1a0:	e59d3004 	ldr	r3, [sp, #4]
  10e1a4:	e1d300fc 	ldrsh	r0, [r3, #12]
  10e1a8:	e6ff1070 	uxth	r1, r0
  10e1ac:	e3110c02 	tst	r1, #512	; 0x200
  10e1b0:	1affff5c 	bne	10df28 <_vfiprintf_r+0x48>
  10e1b4:	e1a04003 	mov	r4, r3
  10e1b8:	e2830058 	add	r0, r3, #88	; 0x58
  10e1bc:	eb000b18 	bl	110e24 <__generic_gxx_recursive_mutex_lock>
  10e1c0:	e1d400fc 	ldrsh	r0, [r4, #12]
  10e1c4:	e6ff1070 	uxth	r1, r0
  10e1c8:	eaffff56 	b	10df28 <_vfiprintf_r+0x48>
  10e1cc:	e3520000 	cmp	r2, #0
  10e1d0:	1a000319 	bne	10ee3c <_vfiprintf_r+0xf5c>
  10e1d4:	e58d2040 	str	r2, [sp, #64]	; 0x40
  10e1d8:	e1a08009 	mov	r8, r9
  10e1dc:	eaffff81 	b	10dfe8 <_vfiprintf_r+0x108>
  10e1e0:	e3855010 	orr	r5, r5, #16
  10e1e4:	e3150020 	tst	r5, #32
  10e1e8:	e59d301c 	ldr	r3, [sp, #28]
  10e1ec:	1a0001c9 	bne	10e918 <_vfiprintf_r+0xa38>
  10e1f0:	e3150010 	tst	r5, #16
  10e1f4:	1a00031d 	bne	10ee70 <_vfiprintf_r+0xf90>
  10e1f8:	e3150040 	tst	r5, #64	; 0x40
  10e1fc:	0a00031b 	beq	10ee70 <_vfiprintf_r+0xf90>
  10e200:	e1d360b0 	ldrh	r6, [r3]
  10e204:	e2833004 	add	r3, r3, #4
  10e208:	e3a07000 	mov	r7, #0
  10e20c:	e3a02001 	mov	r2, #1
  10e210:	e58d301c 	str	r3, [sp, #28]
  10e214:	ea00000c 	b	10e24c <_vfiprintf_r+0x36c>
  10e218:	e3855010 	orr	r5, r5, #16
  10e21c:	e2152020 	ands	r2, r5, #32
  10e220:	1a0001c3 	bne	10e934 <_vfiprintf_r+0xa54>
  10e224:	e2153010 	ands	r3, r5, #16
  10e228:	1a000316 	bne	10ee88 <_vfiprintf_r+0xfa8>
  10e22c:	e2152040 	ands	r2, r5, #64	; 0x40
  10e230:	0a000314 	beq	10ee88 <_vfiprintf_r+0xfa8>
  10e234:	e1a02003 	mov	r2, r3
  10e238:	e59d301c 	ldr	r3, [sp, #28]
  10e23c:	e3a07000 	mov	r7, #0
  10e240:	e1d360b0 	ldrh	r6, [r3]
  10e244:	e2833004 	add	r3, r3, #4
  10e248:	e58d301c 	str	r3, [sp, #28]
  10e24c:	e3a03000 	mov	r3, #0
  10e250:	e58d3020 	str	r3, [sp, #32]
  10e254:	e5cd3037 	strb	r3, [sp, #55]	; 0x37
  10e258:	e3740001 	cmn	r4, #1
  10e25c:	0a00015e 	beq	10e7dc <_vfiprintf_r+0x8fc>
  10e260:	e1863007 	orr	r3, r6, r7
  10e264:	e3c51080 	bic	r1, r5, #128	; 0x80
  10e268:	e3530000 	cmp	r3, #0
  10e26c:	03540000 	cmpeq	r4, #0
  10e270:	e58d100c 	str	r1, [sp, #12]
  10e274:	13a03001 	movne	r3, #1
  10e278:	03a03000 	moveq	r3, #0
  10e27c:	1a0002c3 	bne	10ed90 <_vfiprintf_r+0xeb0>
  10e280:	e3520000 	cmp	r2, #0
  10e284:	158d3018 	strne	r3, [sp, #24]
  10e288:	158d9024 	strne	r9, [sp, #36]	; 0x24
  10e28c:	1a000006 	bne	10e2ac <_vfiprintf_r+0x3cc>
  10e290:	e2153001 	ands	r3, r5, #1
  10e294:	128d20b0 	addne	r2, sp, #176	; 0xb0
  10e298:	e58d3018 	str	r3, [sp, #24]
  10e29c:	13a03030 	movne	r3, #48	; 0x30
  10e2a0:	058d9024 	streq	r9, [sp, #36]	; 0x24
  10e2a4:	15623041 	strbne	r3, [r2, #-65]!	; 0xffffffbf
  10e2a8:	158d2024 	strne	r2, [sp, #36]	; 0x24
  10e2ac:	e59d3018 	ldr	r3, [sp, #24]
  10e2b0:	e59d2020 	ldr	r2, [sp, #32]
  10e2b4:	e1540003 	cmp	r4, r3
  10e2b8:	a1a03004 	movge	r3, r4
  10e2bc:	e3520000 	cmp	r2, #0
  10e2c0:	e58d3008 	str	r3, [sp, #8]
  10e2c4:	12833001 	addne	r3, r3, #1
  10e2c8:	158d3008 	strne	r3, [sp, #8]
  10e2cc:	e59d300c 	ldr	r3, [sp, #12]
  10e2d0:	e2133002 	ands	r3, r3, #2
  10e2d4:	159d2008 	ldrne	r2, [sp, #8]
  10e2d8:	12822002 	addne	r2, r2, #2
  10e2dc:	158d2008 	strne	r2, [sp, #8]
  10e2e0:	e59d200c 	ldr	r2, [sp, #12]
  10e2e4:	e2122084 	ands	r2, r2, #132	; 0x84
  10e2e8:	e58d2020 	str	r2, [sp, #32]
  10e2ec:	1a0001ac 	bne	10e9a4 <_vfiprintf_r+0xac4>
  10e2f0:	e59d2008 	ldr	r2, [sp, #8]
  10e2f4:	e04b5002 	sub	r5, fp, r2
  10e2f8:	e3550000 	cmp	r5, #0
  10e2fc:	da0001a8 	ble	10e9a4 <_vfiprintf_r+0xac4>
  10e300:	e3550010 	cmp	r5, #16
  10e304:	da00037f 	ble	10f108 <_vfiprintf_r+0x1228>
  10e308:	e3056908 	movw	r6, #22792	; 0x5908
  10e30c:	e58d402c 	str	r4, [sp, #44]	; 0x2c
  10e310:	e3406012 	movt	r6, #18
  10e314:	e59d2044 	ldr	r2, [sp, #68]	; 0x44
  10e318:	e1a04006 	mov	r4, r6
  10e31c:	e59dc040 	ldr	ip, [sp, #64]	; 0x40
  10e320:	e3a07010 	mov	r7, #16
  10e324:	e1a06003 	mov	r6, r3
  10e328:	ea000002 	b	10e338 <_vfiprintf_r+0x458>
  10e32c:	e2455010 	sub	r5, r5, #16
  10e330:	e3550010 	cmp	r5, #16
  10e334:	da00001b 	ble	10e3a8 <_vfiprintf_r+0x4c8>
  10e338:	e28c0001 	add	r0, ip, #1
  10e33c:	e2822010 	add	r2, r2, #16
  10e340:	e3500007 	cmp	r0, #7
  10e344:	e5884000 	str	r4, [r8]
  10e348:	e28c1002 	add	r1, ip, #2
  10e34c:	e5887004 	str	r7, [r8, #4]
  10e350:	e58d2044 	str	r2, [sp, #68]	; 0x44
  10e354:	e1a0c000 	mov	ip, r0
  10e358:	e58d0040 	str	r0, [sp, #64]	; 0x40
  10e35c:	d2888008 	addle	r8, r8, #8
  10e360:	dafffff1 	ble	10e32c <_vfiprintf_r+0x44c>
  10e364:	e3520000 	cmp	r2, #0
  10e368:	e1a0c002 	mov	ip, r2
  10e36c:	e3a01001 	mov	r1, #1
  10e370:	e1a08009 	mov	r8, r9
  10e374:	0affffec 	beq	10e32c <_vfiprintf_r+0x44c>
  10e378:	e28d203c 	add	r2, sp, #60	; 0x3c
  10e37c:	e59d1004 	ldr	r1, [sp, #4]
  10e380:	e59d0014 	ldr	r0, [sp, #20]
  10e384:	ebfffea4 	bl	10de1c <__sprint_r.part.0>
  10e388:	e3500000 	cmp	r0, #0
  10e38c:	1a0001f8 	bne	10eb74 <_vfiprintf_r+0xc94>
  10e390:	e59dc040 	ldr	ip, [sp, #64]	; 0x40
  10e394:	e2455010 	sub	r5, r5, #16
  10e398:	e3550010 	cmp	r5, #16
  10e39c:	e59d2044 	ldr	r2, [sp, #68]	; 0x44
  10e3a0:	e28c1001 	add	r1, ip, #1
  10e3a4:	caffffe3 	bgt	10e338 <_vfiprintf_r+0x458>
  10e3a8:	e1a03006 	mov	r3, r6
  10e3ac:	e1a06004 	mov	r6, r4
  10e3b0:	e59d402c 	ldr	r4, [sp, #44]	; 0x2c
  10e3b4:	e3510007 	cmp	r1, #7
  10e3b8:	e0852002 	add	r2, r5, r2
  10e3bc:	e5886000 	str	r6, [r8]
  10e3c0:	d2810001 	addle	r0, r1, #1
  10e3c4:	e5885004 	str	r5, [r8, #4]
  10e3c8:	d2888008 	addle	r8, r8, #8
  10e3cc:	e58d2044 	str	r2, [sp, #68]	; 0x44
  10e3d0:	e58d1040 	str	r1, [sp, #64]	; 0x40
  10e3d4:	da000175 	ble	10e9b0 <_vfiprintf_r+0xad0>
  10e3d8:	e3520000 	cmp	r2, #0
  10e3dc:	1a00031a 	bne	10f04c <_vfiprintf_r+0x116c>
  10e3e0:	e5dd1037 	ldrb	r1, [sp, #55]	; 0x37
  10e3e4:	e3510000 	cmp	r1, #0
  10e3e8:	0a000301 	beq	10eff4 <_vfiprintf_r+0x1114>
  10e3ec:	e3a02001 	mov	r2, #1
  10e3f0:	e1a08009 	mov	r8, r9
  10e3f4:	e1a00002 	mov	r0, r2
  10e3f8:	e28d1037 	add	r1, sp, #55	; 0x37
  10e3fc:	e58d2074 	str	r2, [sp, #116]	; 0x74
  10e400:	e58d1070 	str	r1, [sp, #112]	; 0x70
  10e404:	e1a01000 	mov	r1, r0
  10e408:	e2888008 	add	r8, r8, #8
  10e40c:	e2800001 	add	r0, r0, #1
  10e410:	e3530000 	cmp	r3, #0
  10e414:	0a00017e 	beq	10ea14 <_vfiprintf_r+0xb34>
  10e418:	e3500007 	cmp	r0, #7
  10e41c:	e2822002 	add	r2, r2, #2
  10e420:	e28dc038 	add	ip, sp, #56	; 0x38
  10e424:	e3a01002 	mov	r1, #2
  10e428:	e58d2044 	str	r2, [sp, #68]	; 0x44
  10e42c:	e58d0040 	str	r0, [sp, #64]	; 0x40
  10e430:	e588c000 	str	ip, [r8]
  10e434:	e5881004 	str	r1, [r8, #4]
  10e438:	da000172 	ble	10ea08 <_vfiprintf_r+0xb28>
  10e43c:	e3520000 	cmp	r2, #0
  10e440:	1a0002aa 	bne	10eef0 <_vfiprintf_r+0x1010>
  10e444:	e59d3020 	ldr	r3, [sp, #32]
  10e448:	e3a00001 	mov	r0, #1
  10e44c:	e1a01002 	mov	r1, r2
  10e450:	e1a08009 	mov	r8, r9
  10e454:	e3530080 	cmp	r3, #128	; 0x80
  10e458:	1a000170 	bne	10ea20 <_vfiprintf_r+0xb40>
  10e45c:	e59d3008 	ldr	r3, [sp, #8]
  10e460:	e04b6003 	sub	r6, fp, r3
  10e464:	e3560000 	cmp	r6, #0
  10e468:	da00016c 	ble	10ea20 <_vfiprintf_r+0xb40>
  10e46c:	e3560010 	cmp	r6, #16
  10e470:	e59f5d48 	ldr	r5, [pc, #3400]	; 10f1c0 <_vfiprintf_r+0x12e0>
  10e474:	da000346 	ble	10f194 <_vfiprintf_r+0x12b4>
  10e478:	e1a03005 	mov	r3, r5
  10e47c:	e3a07010 	mov	r7, #16
  10e480:	e1a05004 	mov	r5, r4
  10e484:	e1a04003 	mov	r4, r3
  10e488:	ea000002 	b	10e498 <_vfiprintf_r+0x5b8>
  10e48c:	e2466010 	sub	r6, r6, #16
  10e490:	e3560010 	cmp	r6, #16
  10e494:	da00001b 	ble	10e508 <_vfiprintf_r+0x628>
  10e498:	e2810001 	add	r0, r1, #1
  10e49c:	e2822010 	add	r2, r2, #16
  10e4a0:	e3500007 	cmp	r0, #7
  10e4a4:	e5884000 	str	r4, [r8]
  10e4a8:	e281c002 	add	ip, r1, #2
  10e4ac:	e5887004 	str	r7, [r8, #4]
  10e4b0:	e58d2044 	str	r2, [sp, #68]	; 0x44
  10e4b4:	e1a01000 	mov	r1, r0
  10e4b8:	e58d0040 	str	r0, [sp, #64]	; 0x40
  10e4bc:	d2888008 	addle	r8, r8, #8
  10e4c0:	dafffff1 	ble	10e48c <_vfiprintf_r+0x5ac>
  10e4c4:	e3520000 	cmp	r2, #0
  10e4c8:	e3a0c001 	mov	ip, #1
  10e4cc:	e1a01002 	mov	r1, r2
  10e4d0:	e1a08009 	mov	r8, r9
  10e4d4:	0affffec 	beq	10e48c <_vfiprintf_r+0x5ac>
  10e4d8:	e28d203c 	add	r2, sp, #60	; 0x3c
  10e4dc:	e59d1004 	ldr	r1, [sp, #4]
  10e4e0:	e59d0014 	ldr	r0, [sp, #20]
  10e4e4:	ebfffe4c 	bl	10de1c <__sprint_r.part.0>
  10e4e8:	e3500000 	cmp	r0, #0
  10e4ec:	1a0001a0 	bne	10eb74 <_vfiprintf_r+0xc94>
  10e4f0:	e59d1040 	ldr	r1, [sp, #64]	; 0x40
  10e4f4:	e2466010 	sub	r6, r6, #16
  10e4f8:	e3560010 	cmp	r6, #16
  10e4fc:	e59d2044 	ldr	r2, [sp, #68]	; 0x44
  10e500:	e281c001 	add	ip, r1, #1
  10e504:	caffffe3 	bgt	10e498 <_vfiprintf_r+0x5b8>
  10e508:	e1a03004 	mov	r3, r4
  10e50c:	e1a04005 	mov	r4, r5
  10e510:	e1a05003 	mov	r5, r3
  10e514:	e35c0007 	cmp	ip, #7
  10e518:	e0822006 	add	r2, r2, r6
  10e51c:	e58d2044 	str	r2, [sp, #68]	; 0x44
  10e520:	e8880060 	stm	r8, {r5, r6}
  10e524:	e58dc040 	str	ip, [sp, #64]	; 0x40
  10e528:	ca00027b 	bgt	10ef1c <_vfiprintf_r+0x103c>
  10e52c:	e2888008 	add	r8, r8, #8
  10e530:	e28c0001 	add	r0, ip, #1
  10e534:	e1a0100c 	mov	r1, ip
  10e538:	ea000138 	b	10ea20 <_vfiprintf_r+0xb40>
  10e53c:	e59d4004 	ldr	r4, [sp, #4]
  10e540:	e59d0014 	ldr	r0, [sp, #20]
  10e544:	e1a01004 	mov	r1, r4
  10e548:	ebfff12d 	bl	10aa04 <__swsetup_r>
  10e54c:	e3500000 	cmp	r0, #0
  10e550:	1a000222 	bne	10ede0 <_vfiprintf_r+0xf00>
  10e554:	e1d410bc 	ldrh	r1, [r4, #12]
  10e558:	e201301a 	and	r3, r1, #26
  10e55c:	e353000a 	cmp	r3, #10
  10e560:	1afffe82 	bne	10df70 <_vfiprintf_r+0x90>
  10e564:	e59d2004 	ldr	r2, [sp, #4]
  10e568:	e1d230fe 	ldrsh	r3, [r2, #14]
  10e56c:	e3530000 	cmp	r3, #0
  10e570:	bafffe7e 	blt	10df70 <_vfiprintf_r+0x90>
  10e574:	e5923064 	ldr	r3, [r2, #100]	; 0x64
  10e578:	e3130001 	tst	r3, #1
  10e57c:	1a000003 	bne	10e590 <_vfiprintf_r+0x6b0>
  10e580:	e3110c02 	tst	r1, #512	; 0x200
  10e584:	1a000001 	bne	10e590 <_vfiprintf_r+0x6b0>
  10e588:	e2820058 	add	r0, r2, #88	; 0x58
  10e58c:	eb000a22 	bl	110e1c <__generic_gxx_recursive_mutex_unlock>
  10e590:	e1a03005 	mov	r3, r5
  10e594:	e1a0200a 	mov	r2, sl
  10e598:	e59d1004 	ldr	r1, [sp, #4]
  10e59c:	e59d0014 	ldr	r0, [sp, #20]
  10e5a0:	eb000311 	bl	10f1ec <__sbprintf>
  10e5a4:	e58d0010 	str	r0, [sp, #16]
  10e5a8:	e59d0010 	ldr	r0, [sp, #16]
  10e5ac:	e28dd0b4 	add	sp, sp, #180	; 0xb4
  10e5b0:	e8bd8ff0 	pop	{r4, r5, r6, r7, r8, r9, sl, fp, pc}
  10e5b4:	ebfff761 	bl	10c340 <__sinit>
  10e5b8:	eafffe54 	b	10df10 <_vfiprintf_r+0x30>
  10e5bc:	e26bb000 	rsb	fp, fp, #0
  10e5c0:	e58d301c 	str	r3, [sp, #28]
  10e5c4:	e3855004 	orr	r5, r5, #4
  10e5c8:	e5da3000 	ldrb	r3, [sl]
  10e5cc:	eafffe95 	b	10e028 <_vfiprintf_r+0x148>
  10e5d0:	e5da3000 	ldrb	r3, [sl]
  10e5d4:	e28ae001 	add	lr, sl, #1
  10e5d8:	e353002a 	cmp	r3, #42	; 0x2a
  10e5dc:	0a0002ee 	beq	10f19c <_vfiprintf_r+0x12bc>
  10e5e0:	e2432030 	sub	r2, r3, #48	; 0x30
  10e5e4:	e1a0a00e 	mov	sl, lr
  10e5e8:	e3520009 	cmp	r2, #9
  10e5ec:	e3a04000 	mov	r4, #0
  10e5f0:	8afffe8d 	bhi	10e02c <_vfiprintf_r+0x14c>
  10e5f4:	e4da3001 	ldrb	r3, [sl], #1
  10e5f8:	e0844104 	add	r4, r4, r4, lsl #2
  10e5fc:	e0824084 	add	r4, r2, r4, lsl #1
  10e600:	e2432030 	sub	r2, r3, #48	; 0x30
  10e604:	e3520009 	cmp	r2, #9
  10e608:	9afffff9 	bls	10e5f4 <_vfiprintf_r+0x714>
  10e60c:	eafffe86 	b	10e02c <_vfiprintf_r+0x14c>
  10e610:	e3510000 	cmp	r1, #0
  10e614:	15cd0037 	strbne	r0, [sp, #55]	; 0x37
  10e618:	e3150020 	tst	r5, #32
  10e61c:	1a00029c 	bne	10f094 <_vfiprintf_r+0x11b4>
  10e620:	e3150010 	tst	r5, #16
  10e624:	1a0000d7 	bne	10e988 <_vfiprintf_r+0xaa8>
  10e628:	e3150040 	tst	r5, #64	; 0x40
  10e62c:	0a0000d5 	beq	10e988 <_vfiprintf_r+0xaa8>
  10e630:	e59d201c 	ldr	r2, [sp, #28]
  10e634:	e5923000 	ldr	r3, [r2]
  10e638:	e2822004 	add	r2, r2, #4
  10e63c:	e58d201c 	str	r2, [sp, #28]
  10e640:	e1dd21b0 	ldrh	r2, [sp, #16]
  10e644:	e1c320b0 	strh	r2, [r3]
  10e648:	eafffe50 	b	10df90 <_vfiprintf_r+0xb0>
  10e64c:	e59d301c 	ldr	r3, [sp, #28]
  10e650:	e5932000 	ldr	r2, [r3]
  10e654:	e2836004 	add	r6, r3, #4
  10e658:	e3a03000 	mov	r3, #0
  10e65c:	e5cd3037 	strb	r3, [sp, #55]	; 0x37
  10e660:	e3520000 	cmp	r2, #0
  10e664:	e58d2024 	str	r2, [sp, #36]	; 0x24
  10e668:	0a0002ac 	beq	10f120 <_vfiprintf_r+0x1240>
  10e66c:	e3740001 	cmn	r4, #1
  10e670:	0a000290 	beq	10f0b8 <_vfiprintf_r+0x11d8>
  10e674:	e59d7024 	ldr	r7, [sp, #36]	; 0x24
  10e678:	e1a02004 	mov	r2, r4
  10e67c:	e3a01000 	mov	r1, #0
  10e680:	e1a00007 	mov	r0, r7
  10e684:	fafff965 	blx	10cc20 <memchr>
  10e688:	e3500000 	cmp	r0, #0
  10e68c:	0a0002b2 	beq	10f15c <_vfiprintf_r+0x127c>
  10e690:	e0403007 	sub	r3, r0, r7
  10e694:	e58d601c 	str	r6, [sp, #28]
  10e698:	e58d3018 	str	r3, [sp, #24]
  10e69c:	e3a04000 	mov	r4, #0
  10e6a0:	e5dd3037 	ldrb	r3, [sp, #55]	; 0x37
  10e6a4:	e58d500c 	str	r5, [sp, #12]
  10e6a8:	e58d3020 	str	r3, [sp, #32]
  10e6ac:	eafffefe 	b	10e2ac <_vfiprintf_r+0x3cc>
  10e6b0:	e3855020 	orr	r5, r5, #32
  10e6b4:	e5da3000 	ldrb	r3, [sl]
  10e6b8:	eafffe5a 	b	10e028 <_vfiprintf_r+0x148>
  10e6bc:	e30527b0 	movw	r2, #22448	; 0x57b0
  10e6c0:	e3510000 	cmp	r1, #0
  10e6c4:	e3402012 	movt	r2, #18
  10e6c8:	15cd0037 	strbne	r0, [sp, #55]	; 0x37
  10e6cc:	e58d2028 	str	r2, [sp, #40]	; 0x28
  10e6d0:	e3150020 	tst	r5, #32
  10e6d4:	e59d201c 	ldr	r2, [sp, #28]
  10e6d8:	1a00021d 	bne	10ef54 <_vfiprintf_r+0x1074>
  10e6dc:	e3150010 	tst	r5, #16
  10e6e0:	1a0001dd 	bne	10ee5c <_vfiprintf_r+0xf7c>
  10e6e4:	e3150040 	tst	r5, #64	; 0x40
  10e6e8:	0a0001db 	beq	10ee5c <_vfiprintf_r+0xf7c>
  10e6ec:	e3a07000 	mov	r7, #0
  10e6f0:	e1d260b0 	ldrh	r6, [r2]
  10e6f4:	e2822004 	add	r2, r2, #4
  10e6f8:	e58d201c 	str	r2, [sp, #28]
  10e6fc:	e3150001 	tst	r5, #1
  10e700:	0a0001c2 	beq	10ee10 <_vfiprintf_r+0xf30>
  10e704:	e1962007 	orrs	r2, r6, r7
  10e708:	0a0001c0 	beq	10ee10 <_vfiprintf_r+0xf30>
  10e70c:	e3a02030 	mov	r2, #48	; 0x30
  10e710:	e5cd3039 	strb	r3, [sp, #57]	; 0x39
  10e714:	e5cd2038 	strb	r2, [sp, #56]	; 0x38
  10e718:	e3855002 	orr	r5, r5, #2
  10e71c:	e3a02002 	mov	r2, #2
  10e720:	eafffec9 	b	10e24c <_vfiprintf_r+0x36c>
  10e724:	e3855040 	orr	r5, r5, #64	; 0x40
  10e728:	e5da3000 	ldrb	r3, [sl]
  10e72c:	eafffe3d 	b	10e028 <_vfiprintf_r+0x148>
  10e730:	e5da3000 	ldrb	r3, [sl]
  10e734:	e353006c 	cmp	r3, #108	; 0x6c
  10e738:	05da3001 	ldrbeq	r3, [sl, #1]
  10e73c:	03855020 	orreq	r5, r5, #32
  10e740:	028aa001 	addeq	sl, sl, #1
  10e744:	13855010 	orrne	r5, r5, #16
  10e748:	eafffe36 	b	10e028 <_vfiprintf_r+0x148>
  10e74c:	e3855080 	orr	r5, r5, #128	; 0x80
  10e750:	e5da3000 	ldrb	r3, [sl]
  10e754:	eafffe33 	b	10e028 <_vfiprintf_r+0x148>
  10e758:	e2432030 	sub	r2, r3, #48	; 0x30
  10e75c:	e3a0b000 	mov	fp, #0
  10e760:	e4da3001 	ldrb	r3, [sl], #1
  10e764:	e08bb10b 	add	fp, fp, fp, lsl #2
  10e768:	e082b08b 	add	fp, r2, fp, lsl #1
  10e76c:	e2432030 	sub	r2, r3, #48	; 0x30
  10e770:	e3520009 	cmp	r2, #9
  10e774:	9afffff9 	bls	10e760 <_vfiprintf_r+0x880>
  10e778:	eafffe2b 	b	10e02c <_vfiprintf_r+0x14c>
  10e77c:	e3855010 	orr	r5, r5, #16
  10e780:	e3510000 	cmp	r1, #0
  10e784:	15cd0037 	strbne	r0, [sp, #55]	; 0x37
  10e788:	e3150020 	tst	r5, #32
  10e78c:	e59d301c 	ldr	r3, [sp, #28]
  10e790:	1a0001e7 	bne	10ef34 <_vfiprintf_r+0x1054>
  10e794:	e3150010 	tst	r5, #16
  10e798:	1a0001c0 	bne	10eea0 <_vfiprintf_r+0xfc0>
  10e79c:	e3150040 	tst	r5, #64	; 0x40
  10e7a0:	0a0001be 	beq	10eea0 <_vfiprintf_r+0xfc0>
  10e7a4:	e1d360f0 	ldrsh	r6, [r3]
  10e7a8:	e2833004 	add	r3, r3, #4
  10e7ac:	e58d301c 	str	r3, [sp, #28]
  10e7b0:	e1a02006 	mov	r2, r6
  10e7b4:	e1a07fc6 	asr	r7, r6, #31
  10e7b8:	e1a03007 	mov	r3, r7
  10e7bc:	e3520000 	cmp	r2, #0
  10e7c0:	e2d33000 	sbcs	r3, r3, #0
  10e7c4:	ba000203 	blt	10efd8 <_vfiprintf_r+0x10f8>
  10e7c8:	e5dd3037 	ldrb	r3, [sp, #55]	; 0x37
  10e7cc:	e3740001 	cmn	r4, #1
  10e7d0:	e3a02001 	mov	r2, #1
  10e7d4:	e58d3020 	str	r3, [sp, #32]
  10e7d8:	1afffea0 	bne	10e260 <_vfiprintf_r+0x380>
  10e7dc:	e3520001 	cmp	r2, #1
  10e7e0:	0a00016d 	beq	10ed9c <_vfiprintf_r+0xebc>
  10e7e4:	e3520002 	cmp	r2, #2
  10e7e8:	11a02009 	movne	r2, r9
  10e7ec:	1a000147 	bne	10ed10 <_vfiprintf_r+0xe30>
  10e7f0:	e59d1028 	ldr	r1, [sp, #40]	; 0x28
  10e7f4:	e1a03009 	mov	r3, r9
  10e7f8:	e206200f 	and	r2, r6, #15
  10e7fc:	e1a06226 	lsr	r6, r6, #4
  10e800:	e7d12002 	ldrb	r2, [r1, r2]
  10e804:	e1866e07 	orr	r6, r6, r7, lsl #28
  10e808:	e1a07227 	lsr	r7, r7, #4
  10e80c:	e1960007 	orrs	r0, r6, r7
  10e810:	e5632001 	strb	r2, [r3, #-1]!
  10e814:	1afffff7 	bne	10e7f8 <_vfiprintf_r+0x918>
  10e818:	e58d3024 	str	r3, [sp, #36]	; 0x24
  10e81c:	e0493003 	sub	r3, r9, r3
  10e820:	e58d500c 	str	r5, [sp, #12]
  10e824:	e58d3018 	str	r3, [sp, #24]
  10e828:	eafffe9f 	b	10e2ac <_vfiprintf_r+0x3cc>
  10e82c:	e305279c 	movw	r2, #22428	; 0x579c
  10e830:	e3510000 	cmp	r1, #0
  10e834:	e3402012 	movt	r2, #18
  10e838:	15cd0037 	strbne	r0, [sp, #55]	; 0x37
  10e83c:	e58d2028 	str	r2, [sp, #40]	; 0x28
  10e840:	eaffffa2 	b	10e6d0 <_vfiprintf_r+0x7f0>
  10e844:	e59d201c 	ldr	r2, [sp, #28]
  10e848:	e3a01001 	mov	r1, #1
  10e84c:	e3a00000 	mov	r0, #0
  10e850:	e58d1008 	str	r1, [sp, #8]
  10e854:	e5cd0037 	strb	r0, [sp, #55]	; 0x37
  10e858:	e5923000 	ldr	r3, [r2]
  10e85c:	e2822004 	add	r2, r2, #4
  10e860:	e58d201c 	str	r2, [sp, #28]
  10e864:	e28d2048 	add	r2, sp, #72	; 0x48
  10e868:	e58d1018 	str	r1, [sp, #24]
  10e86c:	e58d2024 	str	r2, [sp, #36]	; 0x24
  10e870:	e5cd3048 	strb	r3, [sp, #72]	; 0x48
  10e874:	e58d500c 	str	r5, [sp, #12]
  10e878:	e3a04000 	mov	r4, #0
  10e87c:	eafffe92 	b	10e2cc <_vfiprintf_r+0x3ec>
  10e880:	e3510000 	cmp	r1, #0
  10e884:	15cd0037 	strbne	r0, [sp, #55]	; 0x37
  10e888:	eaffffbe 	b	10e788 <_vfiprintf_r+0x8a8>
  10e88c:	e3500000 	cmp	r0, #0
  10e890:	e5da3000 	ldrb	r3, [sl]
  10e894:	03a01001 	moveq	r1, #1
  10e898:	03a00020 	moveq	r0, #32
  10e89c:	eafffde1 	b	10e028 <_vfiprintf_r+0x148>
  10e8a0:	e3855001 	orr	r5, r5, #1
  10e8a4:	e5da3000 	ldrb	r3, [sl]
  10e8a8:	eafffdde 	b	10e028 <_vfiprintf_r+0x148>
  10e8ac:	e59d301c 	ldr	r3, [sp, #28]
  10e8b0:	e593b000 	ldr	fp, [r3]
  10e8b4:	e2833004 	add	r3, r3, #4
  10e8b8:	e35b0000 	cmp	fp, #0
  10e8bc:	baffff3e 	blt	10e5bc <_vfiprintf_r+0x6dc>
  10e8c0:	e58d301c 	str	r3, [sp, #28]
  10e8c4:	e5da3000 	ldrb	r3, [sl]
  10e8c8:	eafffdd6 	b	10e028 <_vfiprintf_r+0x148>
  10e8cc:	e5da3000 	ldrb	r3, [sl]
  10e8d0:	e3a01001 	mov	r1, #1
  10e8d4:	e3a0002b 	mov	r0, #43	; 0x2b
  10e8d8:	eafffdd2 	b	10e028 <_vfiprintf_r+0x148>
  10e8dc:	e59d101c 	ldr	r1, [sp, #28]
  10e8e0:	e30507b0 	movw	r0, #22448	; 0x57b0
  10e8e4:	e3a02030 	mov	r2, #48	; 0x30
  10e8e8:	e3a03078 	mov	r3, #120	; 0x78
  10e8ec:	e3400012 	movt	r0, #18
  10e8f0:	e5cd2038 	strb	r2, [sp, #56]	; 0x38
  10e8f4:	e5916000 	ldr	r6, [r1]
  10e8f8:	e2811004 	add	r1, r1, #4
  10e8fc:	e3855002 	orr	r5, r5, #2
  10e900:	e58d101c 	str	r1, [sp, #28]
  10e904:	e3a07000 	mov	r7, #0
  10e908:	e5cd3039 	strb	r3, [sp, #57]	; 0x39
  10e90c:	e58d0028 	str	r0, [sp, #40]	; 0x28
  10e910:	e3a02002 	mov	r2, #2
  10e914:	eafffe4c 	b	10e24c <_vfiprintf_r+0x36c>
  10e918:	e2833007 	add	r3, r3, #7
  10e91c:	e3a02001 	mov	r2, #1
  10e920:	e3c33007 	bic	r3, r3, #7
  10e924:	e2831008 	add	r1, r3, #8
  10e928:	e1c360d0 	ldrd	r6, [r3]
  10e92c:	e58d101c 	str	r1, [sp, #28]
  10e930:	eafffe45 	b	10e24c <_vfiprintf_r+0x36c>
  10e934:	e59d301c 	ldr	r3, [sp, #28]
  10e938:	e3a02000 	mov	r2, #0
  10e93c:	e2833007 	add	r3, r3, #7
  10e940:	e3c33007 	bic	r3, r3, #7
  10e944:	e2831008 	add	r1, r3, #8
  10e948:	e1c360d0 	ldrd	r6, [r3]
  10e94c:	e58d101c 	str	r1, [sp, #28]
  10e950:	eafffe3d 	b	10e24c <_vfiprintf_r+0x36c>
  10e954:	e3510000 	cmp	r1, #0
  10e958:	15cd0037 	strbne	r0, [sp, #55]	; 0x37
  10e95c:	e3530000 	cmp	r3, #0
  10e960:	0a00007e 	beq	10eb60 <_vfiprintf_r+0xc80>
  10e964:	e5cd3048 	strb	r3, [sp, #72]	; 0x48
  10e968:	e3a03000 	mov	r3, #0
  10e96c:	e3a02001 	mov	r2, #1
  10e970:	e5cd3037 	strb	r3, [sp, #55]	; 0x37
  10e974:	e28d3048 	add	r3, sp, #72	; 0x48
  10e978:	e58d2008 	str	r2, [sp, #8]
  10e97c:	e58d2018 	str	r2, [sp, #24]
  10e980:	e58d3024 	str	r3, [sp, #36]	; 0x24
  10e984:	eaffffba 	b	10e874 <_vfiprintf_r+0x994>
  10e988:	e59d201c 	ldr	r2, [sp, #28]
  10e98c:	e5923000 	ldr	r3, [r2]
  10e990:	e2822004 	add	r2, r2, #4
  10e994:	e58d201c 	str	r2, [sp, #28]
  10e998:	e59d2010 	ldr	r2, [sp, #16]
  10e99c:	e5832000 	str	r2, [r3]
  10e9a0:	eafffd7a 	b	10df90 <_vfiprintf_r+0xb0>
  10e9a4:	e59d1040 	ldr	r1, [sp, #64]	; 0x40
  10e9a8:	e59d2044 	ldr	r2, [sp, #68]	; 0x44
  10e9ac:	e2810001 	add	r0, r1, #1
  10e9b0:	e5ddc037 	ldrb	ip, [sp, #55]	; 0x37
  10e9b4:	e35c0000 	cmp	ip, #0
  10e9b8:	0afffe94 	beq	10e410 <_vfiprintf_r+0x530>
  10e9bc:	e3500007 	cmp	r0, #7
  10e9c0:	e2822001 	add	r2, r2, #1
  10e9c4:	e28dc037 	add	ip, sp, #55	; 0x37
  10e9c8:	e3a01001 	mov	r1, #1
  10e9cc:	e58d2044 	str	r2, [sp, #68]	; 0x44
  10e9d0:	e58d0040 	str	r0, [sp, #64]	; 0x40
  10e9d4:	e588c000 	str	ip, [r8]
  10e9d8:	e5881004 	str	r1, [r8, #4]
  10e9dc:	dafffe88 	ble	10e404 <_vfiprintf_r+0x524>
  10e9e0:	e3520000 	cmp	r2, #0
  10e9e4:	1a000134 	bne	10eebc <_vfiprintf_r+0xfdc>
  10e9e8:	e3530000 	cmp	r3, #0
  10e9ec:	0afffe94 	beq	10e444 <_vfiprintf_r+0x564>
  10e9f0:	e1a00001 	mov	r0, r1
  10e9f4:	e1a08009 	mov	r8, r9
  10e9f8:	e28dc038 	add	ip, sp, #56	; 0x38
  10e9fc:	e3a02002 	mov	r2, #2
  10ea00:	e58dc070 	str	ip, [sp, #112]	; 0x70
  10ea04:	e58d2074 	str	r2, [sp, #116]	; 0x74
  10ea08:	e1a01000 	mov	r1, r0
  10ea0c:	e2888008 	add	r8, r8, #8
  10ea10:	e2800001 	add	r0, r0, #1
  10ea14:	e59d3020 	ldr	r3, [sp, #32]
  10ea18:	e3530080 	cmp	r3, #128	; 0x80
  10ea1c:	0afffe8e 	beq	10e45c <_vfiprintf_r+0x57c>
  10ea20:	e59d3018 	ldr	r3, [sp, #24]
  10ea24:	e0444003 	sub	r4, r4, r3
  10ea28:	e3540000 	cmp	r4, #0
  10ea2c:	da000066 	ble	10ebcc <_vfiprintf_r+0xcec>
  10ea30:	e3540010 	cmp	r4, #16
  10ea34:	e59f5784 	ldr	r5, [pc, #1924]	; 10f1c0 <_vfiprintf_r+0x12e0>
  10ea38:	da000021 	ble	10eac4 <_vfiprintf_r+0xbe4>
  10ea3c:	e3a06010 	mov	r6, #16
  10ea40:	e59d7014 	ldr	r7, [sp, #20]
  10ea44:	ea000002 	b	10ea54 <_vfiprintf_r+0xb74>
  10ea48:	e2444010 	sub	r4, r4, #16
  10ea4c:	e3540010 	cmp	r4, #16
  10ea50:	da00001b 	ble	10eac4 <_vfiprintf_r+0xbe4>
  10ea54:	e281c001 	add	ip, r1, #1
  10ea58:	e2822010 	add	r2, r2, #16
  10ea5c:	e35c0007 	cmp	ip, #7
  10ea60:	e5885000 	str	r5, [r8]
  10ea64:	e2810002 	add	r0, r1, #2
  10ea68:	e5886004 	str	r6, [r8, #4]
  10ea6c:	e58d2044 	str	r2, [sp, #68]	; 0x44
  10ea70:	e1a0100c 	mov	r1, ip
  10ea74:	e58dc040 	str	ip, [sp, #64]	; 0x40
  10ea78:	d2888008 	addle	r8, r8, #8
  10ea7c:	dafffff1 	ble	10ea48 <_vfiprintf_r+0xb68>
  10ea80:	e3520000 	cmp	r2, #0
  10ea84:	e3a00001 	mov	r0, #1
  10ea88:	e1a01002 	mov	r1, r2
  10ea8c:	e1a08009 	mov	r8, r9
  10ea90:	0affffec 	beq	10ea48 <_vfiprintf_r+0xb68>
  10ea94:	e28d203c 	add	r2, sp, #60	; 0x3c
  10ea98:	e59d1004 	ldr	r1, [sp, #4]
  10ea9c:	e1a00007 	mov	r0, r7
  10eaa0:	ebfffcdd 	bl	10de1c <__sprint_r.part.0>
  10eaa4:	e3500000 	cmp	r0, #0
  10eaa8:	1a000031 	bne	10eb74 <_vfiprintf_r+0xc94>
  10eaac:	e59d1040 	ldr	r1, [sp, #64]	; 0x40
  10eab0:	e2444010 	sub	r4, r4, #16
  10eab4:	e3540010 	cmp	r4, #16
  10eab8:	e59d2044 	ldr	r2, [sp, #68]	; 0x44
  10eabc:	e2810001 	add	r0, r1, #1
  10eac0:	caffffe3 	bgt	10ea54 <_vfiprintf_r+0xb74>
  10eac4:	e3500007 	cmp	r0, #7
  10eac8:	e0822004 	add	r2, r2, r4
  10eacc:	e5885000 	str	r5, [r8]
  10ead0:	e5884004 	str	r4, [r8, #4]
  10ead4:	d2888008 	addle	r8, r8, #8
  10ead8:	e58d0040 	str	r0, [sp, #64]	; 0x40
  10eadc:	d2800001 	addle	r0, r0, #1
  10eae0:	e58d2044 	str	r2, [sp, #68]	; 0x44
  10eae4:	da000038 	ble	10ebcc <_vfiprintf_r+0xcec>
  10eae8:	e3520000 	cmp	r2, #0
  10eaec:	1a00002c 	bne	10eba4 <_vfiprintf_r+0xcc4>
  10eaf0:	e59d2018 	ldr	r2, [sp, #24]
  10eaf4:	e1a08009 	mov	r8, r9
  10eaf8:	e59d1024 	ldr	r1, [sp, #36]	; 0x24
  10eafc:	e3a03001 	mov	r3, #1
  10eb00:	e58d3040 	str	r3, [sp, #64]	; 0x40
  10eb04:	e58d2074 	str	r2, [sp, #116]	; 0x74
  10eb08:	e58d2044 	str	r2, [sp, #68]	; 0x44
  10eb0c:	e58d1070 	str	r1, [sp, #112]	; 0x70
  10eb10:	e2888008 	add	r8, r8, #8
  10eb14:	e59d300c 	ldr	r3, [sp, #12]
  10eb18:	e3130004 	tst	r3, #4
  10eb1c:	0a000003 	beq	10eb30 <_vfiprintf_r+0xc50>
  10eb20:	e59d3008 	ldr	r3, [sp, #8]
  10eb24:	e04b4003 	sub	r4, fp, r3
  10eb28:	e3540000 	cmp	r4, #0
  10eb2c:	ca000039 	bgt	10ec18 <_vfiprintf_r+0xd38>
  10eb30:	e59d3010 	ldr	r3, [sp, #16]
  10eb34:	e59d1008 	ldr	r1, [sp, #8]
  10eb38:	e15b0001 	cmp	fp, r1
  10eb3c:	a083300b 	addge	r3, r3, fp
  10eb40:	b0833001 	addlt	r3, r3, r1
  10eb44:	e3520000 	cmp	r2, #0
  10eb48:	e58d3010 	str	r3, [sp, #16]
  10eb4c:	1a00009c 	bne	10edc4 <_vfiprintf_r+0xee4>
  10eb50:	e3a03000 	mov	r3, #0
  10eb54:	e1a08009 	mov	r8, r9
  10eb58:	e58d3040 	str	r3, [sp, #64]	; 0x40
  10eb5c:	eafffd0b 	b	10df90 <_vfiprintf_r+0xb0>
  10eb60:	e59d3044 	ldr	r3, [sp, #68]	; 0x44
  10eb64:	e3530000 	cmp	r3, #0
  10eb68:	1a000182 	bne	10f178 <_vfiprintf_r+0x1298>
  10eb6c:	e3a03000 	mov	r3, #0
  10eb70:	e58d3040 	str	r3, [sp, #64]	; 0x40
  10eb74:	e59d2004 	ldr	r2, [sp, #4]
  10eb78:	e5923064 	ldr	r3, [r2, #100]	; 0x64
  10eb7c:	e3130001 	tst	r3, #1
  10eb80:	0a000079 	beq	10ed6c <_vfiprintf_r+0xe8c>
  10eb84:	e1d230bc 	ldrh	r3, [r2, #12]
  10eb88:	e3130040 	tst	r3, #64	; 0x40
  10eb8c:	0afffe85 	beq	10e5a8 <_vfiprintf_r+0x6c8>
  10eb90:	e3e03000 	mvn	r3, #0
  10eb94:	e58d3010 	str	r3, [sp, #16]
  10eb98:	e59d0010 	ldr	r0, [sp, #16]
  10eb9c:	e28dd0b4 	add	sp, sp, #180	; 0xb4
  10eba0:	e8bd8ff0 	pop	{r4, r5, r6, r7, r8, r9, sl, fp, pc}
  10eba4:	e28d203c 	add	r2, sp, #60	; 0x3c
  10eba8:	e59d1004 	ldr	r1, [sp, #4]
  10ebac:	e59d0014 	ldr	r0, [sp, #20]
  10ebb0:	ebfffc99 	bl	10de1c <__sprint_r.part.0>
  10ebb4:	e3500000 	cmp	r0, #0
  10ebb8:	1affffed 	bne	10eb74 <_vfiprintf_r+0xc94>
  10ebbc:	e59d0040 	ldr	r0, [sp, #64]	; 0x40
  10ebc0:	e1a08009 	mov	r8, r9
  10ebc4:	e59d2044 	ldr	r2, [sp, #68]	; 0x44
  10ebc8:	e2800001 	add	r0, r0, #1
  10ebcc:	e59d3018 	ldr	r3, [sp, #24]
  10ebd0:	e3500007 	cmp	r0, #7
  10ebd4:	e59d1024 	ldr	r1, [sp, #36]	; 0x24
  10ebd8:	e58d0040 	str	r0, [sp, #64]	; 0x40
  10ebdc:	e0832002 	add	r2, r3, r2
  10ebe0:	e58d2044 	str	r2, [sp, #68]	; 0x44
  10ebe4:	e888000a 	stm	r8, {r1, r3}
  10ebe8:	daffffc8 	ble	10eb10 <_vfiprintf_r+0xc30>
  10ebec:	e3520000 	cmp	r2, #0
  10ebf0:	1a000088 	bne	10ee18 <_vfiprintf_r+0xf38>
  10ebf4:	e59d300c 	ldr	r3, [sp, #12]
  10ebf8:	e58d2040 	str	r2, [sp, #64]	; 0x40
  10ebfc:	e3130004 	tst	r3, #4
  10ec00:	0a00003a 	beq	10ecf0 <_vfiprintf_r+0xe10>
  10ec04:	e59d3008 	ldr	r3, [sp, #8]
  10ec08:	e04b4003 	sub	r4, fp, r3
  10ec0c:	e3540000 	cmp	r4, #0
  10ec10:	c1a08009 	movgt	r8, r9
  10ec14:	da000035 	ble	10ecf0 <_vfiprintf_r+0xe10>
  10ec18:	e3540010 	cmp	r4, #16
  10ec1c:	da000149 	ble	10f148 <_vfiprintf_r+0x1268>
  10ec20:	e3056908 	movw	r6, #22792	; 0x5908
  10ec24:	e1a0c008 	mov	ip, r8
  10ec28:	e3406012 	movt	r6, #18
  10ec2c:	e59d1040 	ldr	r1, [sp, #64]	; 0x40
  10ec30:	e1a08006 	mov	r8, r6
  10ec34:	e3a05010 	mov	r5, #16
  10ec38:	e59d7014 	ldr	r7, [sp, #20]
  10ec3c:	e59d6004 	ldr	r6, [sp, #4]
  10ec40:	ea000002 	b	10ec50 <_vfiprintf_r+0xd70>
  10ec44:	e2444010 	sub	r4, r4, #16
  10ec48:	e3540010 	cmp	r4, #16
  10ec4c:	da00001c 	ble	10ecc4 <_vfiprintf_r+0xde4>
  10ec50:	e2813001 	add	r3, r1, #1
  10ec54:	e2822010 	add	r2, r2, #16
  10ec58:	e3530007 	cmp	r3, #7
  10ec5c:	e58c8000 	str	r8, [ip]
  10ec60:	e2810002 	add	r0, r1, #2
  10ec64:	e58c5004 	str	r5, [ip, #4]
  10ec68:	e58d2044 	str	r2, [sp, #68]	; 0x44
  10ec6c:	e1a01003 	mov	r1, r3
  10ec70:	e58d3040 	str	r3, [sp, #64]	; 0x40
  10ec74:	d28cc008 	addle	ip, ip, #8
  10ec78:	dafffff1 	ble	10ec44 <_vfiprintf_r+0xd64>
  10ec7c:	e3520000 	cmp	r2, #0
  10ec80:	e3a00001 	mov	r0, #1
  10ec84:	e1a01002 	mov	r1, r2
  10ec88:	e1a0c009 	mov	ip, r9
  10ec8c:	0affffec 	beq	10ec44 <_vfiprintf_r+0xd64>
  10ec90:	e28d203c 	add	r2, sp, #60	; 0x3c
  10ec94:	e1a01006 	mov	r1, r6
  10ec98:	e1a00007 	mov	r0, r7
  10ec9c:	ebfffc5e 	bl	10de1c <__sprint_r.part.0>
  10eca0:	e3500000 	cmp	r0, #0
  10eca4:	e1a0c009 	mov	ip, r9
  10eca8:	1affffb1 	bne	10eb74 <_vfiprintf_r+0xc94>
  10ecac:	e59d1040 	ldr	r1, [sp, #64]	; 0x40
  10ecb0:	e2444010 	sub	r4, r4, #16
  10ecb4:	e3540010 	cmp	r4, #16
  10ecb8:	e59d2044 	ldr	r2, [sp, #68]	; 0x44
  10ecbc:	e2810001 	add	r0, r1, #1
  10ecc0:	caffffe2 	bgt	10ec50 <_vfiprintf_r+0xd70>
  10ecc4:	e1a06008 	mov	r6, r8
  10ecc8:	e1a0800c 	mov	r8, ip
  10eccc:	e3500007 	cmp	r0, #7
  10ecd0:	e0822004 	add	r2, r2, r4
  10ecd4:	e58d2044 	str	r2, [sp, #68]	; 0x44
  10ecd8:	e5886000 	str	r6, [r8]
  10ecdc:	e5884004 	str	r4, [r8, #4]
  10ece0:	e58d0040 	str	r0, [sp, #64]	; 0x40
  10ece4:	daffff91 	ble	10eb30 <_vfiprintf_r+0xc50>
  10ece8:	e3520000 	cmp	r2, #0
  10ecec:	1a0000c6 	bne	10f00c <_vfiprintf_r+0x112c>
  10ecf0:	e59d3010 	ldr	r3, [sp, #16]
  10ecf4:	e59d2008 	ldr	r2, [sp, #8]
  10ecf8:	e15b0002 	cmp	fp, r2
  10ecfc:	a083300b 	addge	r3, r3, fp
  10ed00:	b0833002 	addlt	r3, r3, r2
  10ed04:	e58d3010 	str	r3, [sp, #16]
  10ed08:	eaffff90 	b	10eb50 <_vfiprintf_r+0xc70>
  10ed0c:	e1a02001 	mov	r2, r1
  10ed10:	e2063007 	and	r3, r6, #7
  10ed14:	e1a061a6 	lsr	r6, r6, #3
  10ed18:	e2833030 	add	r3, r3, #48	; 0x30
  10ed1c:	e1866e87 	orr	r6, r6, r7, lsl #29
  10ed20:	e1a071a7 	lsr	r7, r7, #3
  10ed24:	e5423001 	strb	r3, [r2, #-1]
  10ed28:	e1961007 	orrs	r1, r6, r7
  10ed2c:	e2421001 	sub	r1, r2, #1
  10ed30:	1afffff5 	bne	10ed0c <_vfiprintf_r+0xe2c>
  10ed34:	e3530030 	cmp	r3, #48	; 0x30
  10ed38:	03a03000 	moveq	r3, #0
  10ed3c:	12053001 	andne	r3, r5, #1
  10ed40:	e3530000 	cmp	r3, #0
  10ed44:	0a0000cd 	beq	10f080 <_vfiprintf_r+0x11a0>
  10ed48:	e2423002 	sub	r3, r2, #2
  10ed4c:	e58d500c 	str	r5, [sp, #12]
  10ed50:	e1a02003 	mov	r2, r3
  10ed54:	e58d3024 	str	r3, [sp, #36]	; 0x24
  10ed58:	e0492002 	sub	r2, r9, r2
  10ed5c:	e3a03030 	mov	r3, #48	; 0x30
  10ed60:	e58d2018 	str	r2, [sp, #24]
  10ed64:	e5413001 	strb	r3, [r1, #-1]
  10ed68:	eafffd4f 	b	10e2ac <_vfiprintf_r+0x3cc>
  10ed6c:	e59d3004 	ldr	r3, [sp, #4]
  10ed70:	e1d330bc 	ldrh	r3, [r3, #12]
  10ed74:	e3130c02 	tst	r3, #512	; 0x200
  10ed78:	1affff82 	bne	10eb88 <_vfiprintf_r+0xca8>
  10ed7c:	e59d4004 	ldr	r4, [sp, #4]
  10ed80:	e2840058 	add	r0, r4, #88	; 0x58
  10ed84:	eb000824 	bl	110e1c <__generic_gxx_recursive_mutex_unlock>
  10ed88:	e1d430bc 	ldrh	r3, [r4, #12]
  10ed8c:	eaffff7d 	b	10eb88 <_vfiprintf_r+0xca8>
  10ed90:	e3520001 	cmp	r2, #1
  10ed94:	e1a05001 	mov	r5, r1
  10ed98:	1afffe91 	bne	10e7e4 <_vfiprintf_r+0x904>
  10ed9c:	e3570000 	cmp	r7, #0
  10eda0:	03560009 	cmpeq	r6, #9
  10eda4:	8a000070 	bhi	10ef6c <_vfiprintf_r+0x108c>
  10eda8:	e28d30b0 	add	r3, sp, #176	; 0xb0
  10edac:	e2866030 	add	r6, r6, #48	; 0x30
  10edb0:	e5636041 	strb	r6, [r3, #-65]!	; 0xffffffbf
  10edb4:	e58d500c 	str	r5, [sp, #12]
  10edb8:	e58d2018 	str	r2, [sp, #24]
  10edbc:	e58d3024 	str	r3, [sp, #36]	; 0x24
  10edc0:	eafffd39 	b	10e2ac <_vfiprintf_r+0x3cc>
  10edc4:	e28d203c 	add	r2, sp, #60	; 0x3c
  10edc8:	e59d1004 	ldr	r1, [sp, #4]
  10edcc:	e59d0014 	ldr	r0, [sp, #20]
  10edd0:	ebfffc11 	bl	10de1c <__sprint_r.part.0>
  10edd4:	e3500000 	cmp	r0, #0
  10edd8:	0affff5c 	beq	10eb50 <_vfiprintf_r+0xc70>
  10eddc:	eaffff64 	b	10eb74 <_vfiprintf_r+0xc94>
  10ede0:	e59d2004 	ldr	r2, [sp, #4]
  10ede4:	e5923064 	ldr	r3, [r2, #100]	; 0x64
  10ede8:	e3130001 	tst	r3, #1
  10edec:	1affff67 	bne	10eb90 <_vfiprintf_r+0xcb0>
  10edf0:	e1d230bc 	ldrh	r3, [r2, #12]
  10edf4:	e3130c02 	tst	r3, #512	; 0x200
  10edf8:	1affff64 	bne	10eb90 <_vfiprintf_r+0xcb0>
  10edfc:	e3e03000 	mvn	r3, #0
  10ee00:	e2820058 	add	r0, r2, #88	; 0x58
  10ee04:	e58d3010 	str	r3, [sp, #16]
  10ee08:	eb000803 	bl	110e1c <__generic_gxx_recursive_mutex_unlock>
  10ee0c:	eafffde5 	b	10e5a8 <_vfiprintf_r+0x6c8>
  10ee10:	e3a02002 	mov	r2, #2
  10ee14:	eafffd0c 	b	10e24c <_vfiprintf_r+0x36c>
  10ee18:	e28d203c 	add	r2, sp, #60	; 0x3c
  10ee1c:	e59d1004 	ldr	r1, [sp, #4]
  10ee20:	e59d0014 	ldr	r0, [sp, #20]
  10ee24:	ebfffbfc 	bl	10de1c <__sprint_r.part.0>
  10ee28:	e3500000 	cmp	r0, #0
  10ee2c:	1affff50 	bne	10eb74 <_vfiprintf_r+0xc94>
  10ee30:	e59d2044 	ldr	r2, [sp, #68]	; 0x44
  10ee34:	e1a08009 	mov	r8, r9
  10ee38:	eaffff35 	b	10eb14 <_vfiprintf_r+0xc34>
  10ee3c:	e28d203c 	add	r2, sp, #60	; 0x3c
  10ee40:	e59d1004 	ldr	r1, [sp, #4]
  10ee44:	e59d0014 	ldr	r0, [sp, #20]
  10ee48:	ebfffbf3 	bl	10de1c <__sprint_r.part.0>
  10ee4c:	e3500000 	cmp	r0, #0
  10ee50:	1affff47 	bne	10eb74 <_vfiprintf_r+0xc94>
  10ee54:	e1a08009 	mov	r8, r9
  10ee58:	eafffc62 	b	10dfe8 <_vfiprintf_r+0x108>
  10ee5c:	e5926000 	ldr	r6, [r2]
  10ee60:	e2822004 	add	r2, r2, #4
  10ee64:	e58d201c 	str	r2, [sp, #28]
  10ee68:	e3a07000 	mov	r7, #0
  10ee6c:	eafffe22 	b	10e6fc <_vfiprintf_r+0x81c>
  10ee70:	e5936000 	ldr	r6, [r3]
  10ee74:	e2833004 	add	r3, r3, #4
  10ee78:	e3a02001 	mov	r2, #1
  10ee7c:	e58d301c 	str	r3, [sp, #28]
  10ee80:	e3a07000 	mov	r7, #0
  10ee84:	eafffcf0 	b	10e24c <_vfiprintf_r+0x36c>
  10ee88:	e59d301c 	ldr	r3, [sp, #28]
  10ee8c:	e3a07000 	mov	r7, #0
  10ee90:	e5936000 	ldr	r6, [r3]
  10ee94:	e2833004 	add	r3, r3, #4
  10ee98:	e58d301c 	str	r3, [sp, #28]
  10ee9c:	eafffcea 	b	10e24c <_vfiprintf_r+0x36c>
  10eea0:	e5936000 	ldr	r6, [r3]
  10eea4:	e2833004 	add	r3, r3, #4
  10eea8:	e58d301c 	str	r3, [sp, #28]
  10eeac:	e1a02006 	mov	r2, r6
  10eeb0:	e1a07fc6 	asr	r7, r6, #31
  10eeb4:	e1a03007 	mov	r3, r7
  10eeb8:	eafffe3f 	b	10e7bc <_vfiprintf_r+0x8dc>
  10eebc:	e28d203c 	add	r2, sp, #60	; 0x3c
  10eec0:	e59d1004 	ldr	r1, [sp, #4]
  10eec4:	e59d0014 	ldr	r0, [sp, #20]
  10eec8:	e58d302c 	str	r3, [sp, #44]	; 0x2c
  10eecc:	ebfffbd2 	bl	10de1c <__sprint_r.part.0>
  10eed0:	e3500000 	cmp	r0, #0
  10eed4:	1affff26 	bne	10eb74 <_vfiprintf_r+0xc94>
  10eed8:	e59d1040 	ldr	r1, [sp, #64]	; 0x40
  10eedc:	e1a08009 	mov	r8, r9
  10eee0:	e59d2044 	ldr	r2, [sp, #68]	; 0x44
  10eee4:	e59d302c 	ldr	r3, [sp, #44]	; 0x2c
  10eee8:	e2810001 	add	r0, r1, #1
  10eeec:	eafffd47 	b	10e410 <_vfiprintf_r+0x530>
  10eef0:	e28d203c 	add	r2, sp, #60	; 0x3c
  10eef4:	e59d1004 	ldr	r1, [sp, #4]
  10eef8:	e59d0014 	ldr	r0, [sp, #20]
  10eefc:	ebfffbc6 	bl	10de1c <__sprint_r.part.0>
  10ef00:	e3500000 	cmp	r0, #0
  10ef04:	1affff1a 	bne	10eb74 <_vfiprintf_r+0xc94>
  10ef08:	e59d1040 	ldr	r1, [sp, #64]	; 0x40
  10ef0c:	e1a08009 	mov	r8, r9
  10ef10:	e59d2044 	ldr	r2, [sp, #68]	; 0x44
  10ef14:	e2810001 	add	r0, r1, #1
  10ef18:	eafffebd 	b	10ea14 <_vfiprintf_r+0xb34>
  10ef1c:	e3520000 	cmp	r2, #0
  10ef20:	1a00006d 	bne	10f0dc <_vfiprintf_r+0x11fc>
  10ef24:	e3a00001 	mov	r0, #1
  10ef28:	e1a01002 	mov	r1, r2
  10ef2c:	e1a08009 	mov	r8, r9
  10ef30:	eafffeba 	b	10ea20 <_vfiprintf_r+0xb40>
  10ef34:	e2831007 	add	r1, r3, #7
  10ef38:	e3c11007 	bic	r1, r1, #7
  10ef3c:	e1c120d0 	ldrd	r2, [r1]
  10ef40:	e2811008 	add	r1, r1, #8
  10ef44:	e58d101c 	str	r1, [sp, #28]
  10ef48:	e1a06002 	mov	r6, r2
  10ef4c:	e1a07003 	mov	r7, r3
  10ef50:	eafffe19 	b	10e7bc <_vfiprintf_r+0x8dc>
  10ef54:	e2822007 	add	r2, r2, #7
  10ef58:	e3c22007 	bic	r2, r2, #7
  10ef5c:	e2821008 	add	r1, r2, #8
  10ef60:	e1c260d0 	ldrd	r6, [r2]
  10ef64:	e58d101c 	str	r1, [sp, #28]
  10ef68:	eafffde3 	b	10e6fc <_vfiprintf_r+0x81c>
  10ef6c:	e58d8008 	str	r8, [sp, #8]
  10ef70:	e1a08004 	mov	r8, r4
  10ef74:	e1a04009 	mov	r4, r9
  10ef78:	e1a00006 	mov	r0, r6
  10ef7c:	e1a01007 	mov	r1, r7
  10ef80:	e3a0200a 	mov	r2, #10
  10ef84:	e3a03000 	mov	r3, #0
  10ef88:	eb00073e 	bl	110c88 <__aeabi_uldivmod>
  10ef8c:	e2822030 	add	r2, r2, #48	; 0x30
  10ef90:	e1a00006 	mov	r0, r6
  10ef94:	e1a01007 	mov	r1, r7
  10ef98:	e5642001 	strb	r2, [r4, #-1]!
  10ef9c:	e3a03000 	mov	r3, #0
  10efa0:	e3a0200a 	mov	r2, #10
  10efa4:	eb000737 	bl	110c88 <__aeabi_uldivmod>
  10efa8:	e1a06000 	mov	r6, r0
  10efac:	e1a07001 	mov	r7, r1
  10efb0:	e1963007 	orrs	r3, r6, r7
  10efb4:	1affffef 	bne	10ef78 <_vfiprintf_r+0x1098>
  10efb8:	e1a03004 	mov	r3, r4
  10efbc:	e58d4024 	str	r4, [sp, #36]	; 0x24
  10efc0:	e0493003 	sub	r3, r9, r3
  10efc4:	e1a04008 	mov	r4, r8
  10efc8:	e58d500c 	str	r5, [sp, #12]
  10efcc:	e59d8008 	ldr	r8, [sp, #8]
  10efd0:	e58d3018 	str	r3, [sp, #24]
  10efd4:	eafffcb4 	b	10e2ac <_vfiprintf_r+0x3cc>
  10efd8:	e3a0302d 	mov	r3, #45	; 0x2d
  10efdc:	e2766000 	rsbs	r6, r6, #0
  10efe0:	e2e77000 	rsc	r7, r7, #0
  10efe4:	e5cd3037 	strb	r3, [sp, #55]	; 0x37
  10efe8:	e58d3020 	str	r3, [sp, #32]
  10efec:	e3a02001 	mov	r2, #1
  10eff0:	eafffc98 	b	10e258 <_vfiprintf_r+0x378>
  10eff4:	e3530000 	cmp	r3, #0
  10eff8:	1a00000b 	bne	10f02c <_vfiprintf_r+0x114c>
  10effc:	e1a01002 	mov	r1, r2
  10f000:	e3a00001 	mov	r0, #1
  10f004:	e1a08009 	mov	r8, r9
  10f008:	eafffe84 	b	10ea20 <_vfiprintf_r+0xb40>
  10f00c:	e28d203c 	add	r2, sp, #60	; 0x3c
  10f010:	e59d1004 	ldr	r1, [sp, #4]
  10f014:	e59d0014 	ldr	r0, [sp, #20]
  10f018:	ebfffb7f 	bl	10de1c <__sprint_r.part.0>
  10f01c:	e3500000 	cmp	r0, #0
  10f020:	1afffed3 	bne	10eb74 <_vfiprintf_r+0xc94>
  10f024:	e59d2044 	ldr	r2, [sp, #68]	; 0x44
  10f028:	eafffec0 	b	10eb30 <_vfiprintf_r+0xc50>
  10f02c:	e28d2038 	add	r2, sp, #56	; 0x38
  10f030:	e3a01002 	mov	r1, #2
  10f034:	e58d2070 	str	r2, [sp, #112]	; 0x70
  10f038:	e3a00001 	mov	r0, #1
  10f03c:	e1a02001 	mov	r2, r1
  10f040:	e58d1074 	str	r1, [sp, #116]	; 0x74
  10f044:	e1a08009 	mov	r8, r9
  10f048:	eafffe6e 	b	10ea08 <_vfiprintf_r+0xb28>
  10f04c:	e28d203c 	add	r2, sp, #60	; 0x3c
  10f050:	e59d1004 	ldr	r1, [sp, #4]
  10f054:	e59d0014 	ldr	r0, [sp, #20]
  10f058:	e58d302c 	str	r3, [sp, #44]	; 0x2c
  10f05c:	ebfffb6e 	bl	10de1c <__sprint_r.part.0>
  10f060:	e3500000 	cmp	r0, #0
  10f064:	1afffec2 	bne	10eb74 <_vfiprintf_r+0xc94>
  10f068:	e59d1040 	ldr	r1, [sp, #64]	; 0x40
  10f06c:	e1a08009 	mov	r8, r9
  10f070:	e59d2044 	ldr	r2, [sp, #68]	; 0x44
  10f074:	e59d302c 	ldr	r3, [sp, #44]	; 0x2c
  10f078:	e2810001 	add	r0, r1, #1
  10f07c:	eafffe4b 	b	10e9b0 <_vfiprintf_r+0xad0>
  10f080:	e0493001 	sub	r3, r9, r1
  10f084:	e58d500c 	str	r5, [sp, #12]
  10f088:	e58d3018 	str	r3, [sp, #24]
  10f08c:	e58d1024 	str	r1, [sp, #36]	; 0x24
  10f090:	eafffc85 	b	10e2ac <_vfiprintf_r+0x3cc>
  10f094:	e59d1010 	ldr	r1, [sp, #16]
  10f098:	e59d201c 	ldr	r2, [sp, #28]
  10f09c:	ee801b90 	vdup.32	d16, r1
  10f0a0:	e2822004 	add	r2, r2, #4
  10f0a4:	e5123004 	ldr	r3, [r2, #-4]
  10f0a8:	f2e000b0 	vshr.s64	d16, d16, #32
  10f0ac:	e58d201c 	str	r2, [sp, #28]
  10f0b0:	edc30b00 	vstr	d16, [r3]
  10f0b4:	eafffbb5 	b	10df90 <_vfiprintf_r+0xb0>
  10f0b8:	e59d0024 	ldr	r0, [sp, #36]	; 0x24
  10f0bc:	e3a04000 	mov	r4, #0
  10f0c0:	e58d601c 	str	r6, [sp, #28]
  10f0c4:	e58d500c 	str	r5, [sp, #12]
  10f0c8:	fafffb1c 	blx	10dd40 <strlen>
  10f0cc:	e5dd3037 	ldrb	r3, [sp, #55]	; 0x37
  10f0d0:	e58d0018 	str	r0, [sp, #24]
  10f0d4:	e58d3020 	str	r3, [sp, #32]
  10f0d8:	eafffc73 	b	10e2ac <_vfiprintf_r+0x3cc>
  10f0dc:	e28d203c 	add	r2, sp, #60	; 0x3c
  10f0e0:	e59d1004 	ldr	r1, [sp, #4]
  10f0e4:	e59d0014 	ldr	r0, [sp, #20]
  10f0e8:	ebfffb4b 	bl	10de1c <__sprint_r.part.0>
  10f0ec:	e3500000 	cmp	r0, #0
  10f0f0:	1afffe9f 	bne	10eb74 <_vfiprintf_r+0xc94>
  10f0f4:	e59d1040 	ldr	r1, [sp, #64]	; 0x40
  10f0f8:	e1a08009 	mov	r8, r9
  10f0fc:	e59d2044 	ldr	r2, [sp, #68]	; 0x44
  10f100:	e2810001 	add	r0, r1, #1
  10f104:	eafffe45 	b	10ea20 <_vfiprintf_r+0xb40>
  10f108:	e59d1040 	ldr	r1, [sp, #64]	; 0x40
  10f10c:	e3056908 	movw	r6, #22792	; 0x5908
  10f110:	e3406012 	movt	r6, #18
  10f114:	e59d2044 	ldr	r2, [sp, #68]	; 0x44
  10f118:	e2811001 	add	r1, r1, #1
  10f11c:	eafffca4 	b	10e3b4 <_vfiprintf_r+0x4d4>
  10f120:	e3540006 	cmp	r4, #6
  10f124:	e30537c4 	movw	r3, #22468	; 0x57c4
  10f128:	31a02004 	movcc	r2, r4
  10f12c:	23a02006 	movcs	r2, #6
  10f130:	e3403012 	movt	r3, #18
  10f134:	e58d2018 	str	r2, [sp, #24]
  10f138:	e58d601c 	str	r6, [sp, #28]
  10f13c:	e58d2008 	str	r2, [sp, #8]
  10f140:	e58d3024 	str	r3, [sp, #36]	; 0x24
  10f144:	eafffdca 	b	10e874 <_vfiprintf_r+0x994>
  10f148:	e59d0040 	ldr	r0, [sp, #64]	; 0x40
  10f14c:	e3056908 	movw	r6, #22792	; 0x5908
  10f150:	e3406012 	movt	r6, #18
  10f154:	e2800001 	add	r0, r0, #1
  10f158:	eafffedb 	b	10eccc <_vfiprintf_r+0xdec>
  10f15c:	e5dd3037 	ldrb	r3, [sp, #55]	; 0x37
  10f160:	e58d4018 	str	r4, [sp, #24]
  10f164:	e1a04000 	mov	r4, r0
  10f168:	e58d601c 	str	r6, [sp, #28]
  10f16c:	e58d3020 	str	r3, [sp, #32]
  10f170:	e58d500c 	str	r5, [sp, #12]
  10f174:	eafffc4c 	b	10e2ac <_vfiprintf_r+0x3cc>
  10f178:	e59d0014 	ldr	r0, [sp, #20]
  10f17c:	e28d203c 	add	r2, sp, #60	; 0x3c
  10f180:	e59d1004 	ldr	r1, [sp, #4]
  10f184:	ebfffb24 	bl	10de1c <__sprint_r.part.0>
  10f188:	e3500000 	cmp	r0, #0
  10f18c:	0afffe76 	beq	10eb6c <_vfiprintf_r+0xc8c>
  10f190:	eafffe77 	b	10eb74 <_vfiprintf_r+0xc94>
  10f194:	e1a0c000 	mov	ip, r0
  10f198:	eafffcdd 	b	10e514 <_vfiprintf_r+0x634>
  10f19c:	e59d301c 	ldr	r3, [sp, #28]
  10f1a0:	e5934000 	ldr	r4, [r3]
  10f1a4:	e2833004 	add	r3, r3, #4
  10f1a8:	e58d301c 	str	r3, [sp, #28]
  10f1ac:	e5da3001 	ldrb	r3, [sl, #1]
  10f1b0:	e1a0a00e 	mov	sl, lr
  10f1b4:	e154000c 	cmp	r4, ip
  10f1b8:	b1a0400c 	movlt	r4, ip
  10f1bc:	eafffb99 	b	10e028 <_vfiprintf_r+0x148>
  10f1c0:	00125918 	.word	0x00125918

0010f1c4 <vfiprintf>:
  10f1c4:	e92d4070 	push	{r4, r5, r6, lr}
  10f1c8:	e1a05001 	mov	r5, r1
  10f1cc:	e1a06002 	mov	r6, r2
  10f1d0:	e1a04000 	mov	r4, r0
  10f1d4:	ebffe352 	bl	107f24 <__getreent>
  10f1d8:	e1a03006 	mov	r3, r6
  10f1dc:	e1a02005 	mov	r2, r5
  10f1e0:	e1a01004 	mov	r1, r4
  10f1e4:	e8bd4070 	pop	{r4, r5, r6, lr}
  10f1e8:	eafffb3c 	b	10dee0 <_vfiprintf_r>

0010f1ec <__sbprintf>:
  10f1ec:	e92d41f0 	push	{r4, r5, r6, r7, r8, lr}
  10f1f0:	e1a04001 	mov	r4, r1
  10f1f4:	e1d110bc 	ldrh	r1, [r1, #12]
  10f1f8:	e1a07000 	mov	r7, r0
  10f1fc:	e1a08003 	mov	r8, r3
  10f200:	e1a06002 	mov	r6, r2
  10f204:	e1d4c0be 	ldrh	ip, [r4, #14]
  10f208:	e24dde46 	sub	sp, sp, #1120	; 0x460
  10f20c:	e5940064 	ldr	r0, [r4, #100]	; 0x64
  10f210:	e24dd008 	sub	sp, sp, #8
  10f214:	e594301c 	ldr	r3, [r4, #28]
  10f218:	e3c11002 	bic	r1, r1, #2
  10f21c:	e5942024 	ldr	r2, [r4, #36]	; 0x24
  10f220:	e1cd10bc 	strh	r1, [sp, #12]
  10f224:	e3a01b01 	mov	r1, #1024	; 0x400
  10f228:	e1cdc0be 	strh	ip, [sp, #14]
  10f22c:	e28dc068 	add	ip, sp, #104	; 0x68
  10f230:	e58d0064 	str	r0, [sp, #100]	; 0x64
  10f234:	e28d0058 	add	r0, sp, #88	; 0x58
  10f238:	e58d301c 	str	r3, [sp, #28]
  10f23c:	e3a03000 	mov	r3, #0
  10f240:	e58d2024 	str	r2, [sp, #36]	; 0x24
  10f244:	e58dc000 	str	ip, [sp]
  10f248:	e58dc010 	str	ip, [sp, #16]
  10f24c:	e58d1008 	str	r1, [sp, #8]
  10f250:	e58d1014 	str	r1, [sp, #20]
  10f254:	e58d3018 	str	r3, [sp, #24]
  10f258:	eb0006eb 	bl	110e0c <__generic_gxx_recursive_mutex_init_function>
  10f25c:	e1a02006 	mov	r2, r6
  10f260:	e1a03008 	mov	r3, r8
  10f264:	e1a0100d 	mov	r1, sp
  10f268:	e1a00007 	mov	r0, r7
  10f26c:	ebfffb1b 	bl	10dee0 <_vfiprintf_r>
  10f270:	e2506000 	subs	r6, r0, #0
  10f274:	ba000004 	blt	10f28c <__sbprintf+0xa0>
  10f278:	e1a0100d 	mov	r1, sp
  10f27c:	e1a00007 	mov	r0, r7
  10f280:	ebfff3a6 	bl	10c120 <_fflush_r>
  10f284:	e3500000 	cmp	r0, #0
  10f288:	13e06000 	mvnne	r6, #0
  10f28c:	e1dd30bc 	ldrh	r3, [sp, #12]
  10f290:	e28d0058 	add	r0, sp, #88	; 0x58
  10f294:	e3130040 	tst	r3, #64	; 0x40
  10f298:	11d430bc 	ldrhne	r3, [r4, #12]
  10f29c:	13833040 	orrne	r3, r3, #64	; 0x40
  10f2a0:	11c430bc 	strhne	r3, [r4, #12]
  10f2a4:	eb0006da 	bl	110e14 <__generic_gxx_recursive_mutex_destroy>
  10f2a8:	e1a00006 	mov	r0, r6
  10f2ac:	e28dde46 	add	sp, sp, #1120	; 0x460
  10f2b0:	e28dd008 	add	sp, sp, #8
  10f2b4:	e8bd81f0 	pop	{r4, r5, r6, r7, r8, pc}

0010f2b8 <__swbuf_r>:
  10f2b8:	e92d41f0 	push	{r4, r5, r6, r7, r8, lr}
  10f2bc:	e2506000 	subs	r6, r0, #0
  10f2c0:	e1a05001 	mov	r5, r1
  10f2c4:	e1a04002 	mov	r4, r2
  10f2c8:	0a000002 	beq	10f2d8 <__swbuf_r+0x20>
  10f2cc:	e5963038 	ldr	r3, [r6, #56]	; 0x38
  10f2d0:	e3530000 	cmp	r3, #0
  10f2d4:	0a00003f 	beq	10f3d8 <__swbuf_r+0x120>
  10f2d8:	e1d420fc 	ldrsh	r2, [r4, #12]
  10f2dc:	e5943018 	ldr	r3, [r4, #24]
  10f2e0:	e6ff1072 	uxth	r1, r2
  10f2e4:	e5843008 	str	r3, [r4, #8]
  10f2e8:	e3110008 	tst	r1, #8
  10f2ec:	0a000021 	beq	10f378 <__swbuf_r+0xc0>
  10f2f0:	e5943010 	ldr	r3, [r4, #16]
  10f2f4:	e3530000 	cmp	r3, #0
  10f2f8:	0a00001e 	beq	10f378 <__swbuf_r+0xc0>
  10f2fc:	e3110a02 	tst	r1, #8192	; 0x2000
  10f300:	e6ef5075 	uxtb	r5, r5
  10f304:	05941064 	ldreq	r1, [r4, #100]	; 0x64
  10f308:	03822a02 	orreq	r2, r2, #8192	; 0x2000
  10f30c:	01c420bc 	strheq	r2, [r4, #12]
  10f310:	e1a07005 	mov	r7, r5
  10f314:	03c12a02 	biceq	r2, r1, #8192	; 0x2000
  10f318:	e5941014 	ldr	r1, [r4, #20]
  10f31c:	05842064 	streq	r2, [r4, #100]	; 0x64
  10f320:	e5942000 	ldr	r2, [r4]
  10f324:	e0423003 	sub	r3, r2, r3
  10f328:	e1530001 	cmp	r3, r1
  10f32c:	b2833001 	addlt	r3, r3, #1
  10f330:	aa000020 	bge	10f3b8 <__swbuf_r+0x100>
  10f334:	e5941008 	ldr	r1, [r4, #8]
  10f338:	e2820001 	add	r0, r2, #1
  10f33c:	e5840000 	str	r0, [r4]
  10f340:	e2411001 	sub	r1, r1, #1
  10f344:	e5841008 	str	r1, [r4, #8]
  10f348:	e5c25000 	strb	r5, [r2]
  10f34c:	e5942014 	ldr	r2, [r4, #20]
  10f350:	e1520003 	cmp	r2, r3
  10f354:	0a000010 	beq	10f39c <__swbuf_r+0xe4>
  10f358:	e1d430bc 	ldrh	r3, [r4, #12]
  10f35c:	e355000a 	cmp	r5, #10
  10f360:	13a05000 	movne	r5, #0
  10f364:	02035001 	andeq	r5, r3, #1
  10f368:	e3550000 	cmp	r5, #0
  10f36c:	1a00000a 	bne	10f39c <__swbuf_r+0xe4>
  10f370:	e1a00007 	mov	r0, r7
  10f374:	e8bd81f0 	pop	{r4, r5, r6, r7, r8, pc}
  10f378:	e1a01004 	mov	r1, r4
  10f37c:	e1a00006 	mov	r0, r6
  10f380:	ebffed9f 	bl	10aa04 <__swsetup_r>
  10f384:	e3500000 	cmp	r0, #0
  10f388:	1a000008 	bne	10f3b0 <__swbuf_r+0xf8>
  10f38c:	e1d420fc 	ldrsh	r2, [r4, #12]
  10f390:	e5943010 	ldr	r3, [r4, #16]
  10f394:	e6ff1072 	uxth	r1, r2
  10f398:	eaffffd7 	b	10f2fc <__swbuf_r+0x44>
  10f39c:	e1a01004 	mov	r1, r4
  10f3a0:	e1a00006 	mov	r0, r6
  10f3a4:	ebfff35d 	bl	10c120 <_fflush_r>
  10f3a8:	e3500000 	cmp	r0, #0
  10f3ac:	0affffef 	beq	10f370 <__swbuf_r+0xb8>
  10f3b0:	e3e07000 	mvn	r7, #0
  10f3b4:	eaffffed 	b	10f370 <__swbuf_r+0xb8>
  10f3b8:	e1a01004 	mov	r1, r4
  10f3bc:	e1a00006 	mov	r0, r6
  10f3c0:	ebfff356 	bl	10c120 <_fflush_r>
  10f3c4:	e3500000 	cmp	r0, #0
  10f3c8:	1afffff8 	bne	10f3b0 <__swbuf_r+0xf8>
  10f3cc:	e5942000 	ldr	r2, [r4]
  10f3d0:	e3a03001 	mov	r3, #1
  10f3d4:	eaffffd6 	b	10f334 <__swbuf_r+0x7c>
  10f3d8:	ebfff3d8 	bl	10c340 <__sinit>
  10f3dc:	eaffffbd 	b	10f2d8 <__swbuf_r+0x20>

0010f3e0 <__swbuf>:
  10f3e0:	e92d4070 	push	{r4, r5, r6, lr}
  10f3e4:	e1a05001 	mov	r5, r1
  10f3e8:	e1a04000 	mov	r4, r0
  10f3ec:	ebffe2cc 	bl	107f24 <__getreent>
  10f3f0:	e1a02005 	mov	r2, r5
  10f3f4:	e1a01004 	mov	r1, r4
  10f3f8:	e8bd4070 	pop	{r4, r5, r6, lr}
  10f3fc:	eaffffad 	b	10f2b8 <__swbuf_r>

0010f400 <_write_r>:
  10f400:	e92d4070 	push	{r4, r5, r6, lr}
  10f404:	e1a0c001 	mov	ip, r1
  10f408:	e3014410 	movw	r4, #5136	; 0x1410
  10f40c:	e1a01002 	mov	r1, r2
  10f410:	e1a05000 	mov	r5, r0
  10f414:	e1a02003 	mov	r2, r3
  10f418:	e1a0000c 	mov	r0, ip
  10f41c:	e3a03000 	mov	r3, #0
  10f420:	e3404013 	movt	r4, #19
  10f424:	e5843000 	str	r3, [r4]
  10f428:	ebffc544 	bl	100940 <_write>
  10f42c:	e3700001 	cmn	r0, #1
  10f430:	18bd8070 	popne	{r4, r5, r6, pc}
  10f434:	e5943000 	ldr	r3, [r4]
  10f438:	e3530000 	cmp	r3, #0
  10f43c:	15853000 	strne	r3, [r5]
  10f440:	e8bd8070 	pop	{r4, r5, r6, pc}

0010f444 <_close_r>:
  10f444:	e92d4070 	push	{r4, r5, r6, lr}
  10f448:	e3014410 	movw	r4, #5136	; 0x1410
  10f44c:	e3a03000 	mov	r3, #0
  10f450:	e1a05000 	mov	r5, r0
  10f454:	e3404013 	movt	r4, #19
  10f458:	e1a00001 	mov	r0, r1
  10f45c:	e5843000 	str	r3, [r4]
  10f460:	ebffc4f0 	bl	100828 <_close>
  10f464:	e3700001 	cmn	r0, #1
  10f468:	18bd8070 	popne	{r4, r5, r6, pc}
  10f46c:	e5943000 	ldr	r3, [r4]
  10f470:	e3530000 	cmp	r3, #0
  10f474:	15853000 	strne	r3, [r5]
  10f478:	e8bd8070 	pop	{r4, r5, r6, pc}

0010f47c <_fclose_r>:
  10f47c:	e92d41f0 	push	{r4, r5, r6, r7, r8, lr}
  10f480:	e2514000 	subs	r4, r1, #0
  10f484:	0a00003a 	beq	10f574 <_fclose_r+0xf8>
  10f488:	e3500000 	cmp	r0, #0
  10f48c:	e1a06000 	mov	r6, r0
  10f490:	0a000002 	beq	10f4a0 <_fclose_r+0x24>
  10f494:	e5903038 	ldr	r3, [r0, #56]	; 0x38
  10f498:	e3530000 	cmp	r3, #0
  10f49c:	0a000037 	beq	10f580 <_fclose_r+0x104>
  10f4a0:	e5943064 	ldr	r3, [r4, #100]	; 0x64
  10f4a4:	e3130001 	tst	r3, #1
  10f4a8:	1a00002e 	bne	10f568 <_fclose_r+0xec>
  10f4ac:	e1d430bc 	ldrh	r3, [r4, #12]
  10f4b0:	e3130c02 	tst	r3, #512	; 0x200
  10f4b4:	0a00003a 	beq	10f5a4 <_fclose_r+0x128>
  10f4b8:	e2847058 	add	r7, r4, #88	; 0x58
  10f4bc:	e1a01004 	mov	r1, r4
  10f4c0:	e1a00006 	mov	r0, r6
  10f4c4:	ebfff28b 	bl	10bef8 <__sflush_r>
  10f4c8:	e594302c 	ldr	r3, [r4, #44]	; 0x2c
  10f4cc:	e1a05000 	mov	r5, r0
  10f4d0:	e3530000 	cmp	r3, #0
  10f4d4:	0a000004 	beq	10f4ec <_fclose_r+0x70>
  10f4d8:	e594101c 	ldr	r1, [r4, #28]
  10f4dc:	e1a00006 	mov	r0, r6
  10f4e0:	e12fff33 	blx	r3
  10f4e4:	e3500000 	cmp	r0, #0
  10f4e8:	b3e05000 	mvnlt	r5, #0
  10f4ec:	e1d430bc 	ldrh	r3, [r4, #12]
  10f4f0:	e3130080 	tst	r3, #128	; 0x80
  10f4f4:	1a000023 	bne	10f588 <_fclose_r+0x10c>
  10f4f8:	e5941030 	ldr	r1, [r4, #48]	; 0x30
  10f4fc:	e3510000 	cmp	r1, #0
  10f500:	0a000006 	beq	10f520 <_fclose_r+0xa4>
  10f504:	e2843040 	add	r3, r4, #64	; 0x40
  10f508:	e1510003 	cmp	r1, r3
  10f50c:	0a000001 	beq	10f518 <_fclose_r+0x9c>
  10f510:	e1a00006 	mov	r0, r6
  10f514:	ebfff456 	bl	10c674 <_free_r>
  10f518:	e3a03000 	mov	r3, #0
  10f51c:	e5843030 	str	r3, [r4, #48]	; 0x30
  10f520:	e5941044 	ldr	r1, [r4, #68]	; 0x44
  10f524:	e3510000 	cmp	r1, #0
  10f528:	0a000003 	beq	10f53c <_fclose_r+0xc0>
  10f52c:	e1a00006 	mov	r0, r6
  10f530:	ebfff44f 	bl	10c674 <_free_r>
  10f534:	e3a03000 	mov	r3, #0
  10f538:	e5843044 	str	r3, [r4, #68]	; 0x44
  10f53c:	ebfff3e9 	bl	10c4e8 <__sfp_lock_acquire>
  10f540:	e5943064 	ldr	r3, [r4, #100]	; 0x64
  10f544:	e3a02000 	mov	r2, #0
  10f548:	e1c420bc 	strh	r2, [r4, #12]
  10f54c:	e3130001 	tst	r3, #1
  10f550:	0a000010 	beq	10f598 <_fclose_r+0x11c>
  10f554:	e1a00007 	mov	r0, r7
  10f558:	eb00062d 	bl	110e14 <__generic_gxx_recursive_mutex_destroy>
  10f55c:	ebfff3e4 	bl	10c4f4 <__sfp_lock_release>
  10f560:	e1a00005 	mov	r0, r5
  10f564:	e8bd81f0 	pop	{r4, r5, r6, r7, r8, pc}
  10f568:	e1d430fc 	ldrsh	r3, [r4, #12]
  10f56c:	e3530000 	cmp	r3, #0
  10f570:	1affffd0 	bne	10f4b8 <_fclose_r+0x3c>
  10f574:	e3a05000 	mov	r5, #0
  10f578:	e1a00005 	mov	r0, r5
  10f57c:	e8bd81f0 	pop	{r4, r5, r6, r7, r8, pc}
  10f580:	ebfff36e 	bl	10c340 <__sinit>
  10f584:	eaffffc5 	b	10f4a0 <_fclose_r+0x24>
  10f588:	e5941010 	ldr	r1, [r4, #16]
  10f58c:	e1a00006 	mov	r0, r6
  10f590:	ebfff437 	bl	10c674 <_free_r>
  10f594:	eaffffd7 	b	10f4f8 <_fclose_r+0x7c>
  10f598:	e1a00007 	mov	r0, r7
  10f59c:	eb00061e 	bl	110e1c <__generic_gxx_recursive_mutex_unlock>
  10f5a0:	eaffffeb 	b	10f554 <_fclose_r+0xd8>
  10f5a4:	e2847058 	add	r7, r4, #88	; 0x58
  10f5a8:	e1a00007 	mov	r0, r7
  10f5ac:	eb00061c 	bl	110e24 <__generic_gxx_recursive_mutex_lock>
  10f5b0:	e1d430fc 	ldrsh	r3, [r4, #12]
  10f5b4:	e3530000 	cmp	r3, #0
  10f5b8:	1affffbf 	bne	10f4bc <_fclose_r+0x40>
  10f5bc:	e5945064 	ldr	r5, [r4, #100]	; 0x64
  10f5c0:	e2155001 	ands	r5, r5, #1
  10f5c4:	1affffea 	bne	10f574 <_fclose_r+0xf8>
  10f5c8:	e1a00007 	mov	r0, r7
  10f5cc:	eb000612 	bl	110e1c <__generic_gxx_recursive_mutex_unlock>
  10f5d0:	e1a00005 	mov	r0, r5
  10f5d4:	e8bd81f0 	pop	{r4, r5, r6, r7, r8, pc}

0010f5d8 <fclose>:
  10f5d8:	e92d4010 	push	{r4, lr}
  10f5dc:	e1a04000 	mov	r4, r0
  10f5e0:	ebffe24f 	bl	107f24 <__getreent>
  10f5e4:	e1a01004 	mov	r1, r4
  10f5e8:	e8bd4010 	pop	{r4, lr}
  10f5ec:	eaffffa2 	b	10f47c <_fclose_r>

0010f5f0 <__fputwc>:
  10f5f0:	e92d43f0 	push	{r4, r5, r6, r7, r8, r9, lr}
  10f5f4:	e24dd00c 	sub	sp, sp, #12
  10f5f8:	e1a08000 	mov	r8, r0
  10f5fc:	e1a07001 	mov	r7, r1
  10f600:	e1a04002 	mov	r4, r2
  10f604:	eb0001df 	bl	10fd88 <__locale_mb_cur_max>
  10f608:	e3500001 	cmp	r0, #1
  10f60c:	0a00002e 	beq	10f6cc <__fputwc+0xdc>
  10f610:	e284305c 	add	r3, r4, #92	; 0x5c
  10f614:	e1a02007 	mov	r2, r7
  10f618:	e28d1004 	add	r1, sp, #4
  10f61c:	e1a00008 	mov	r0, r8
  10f620:	eb0004a5 	bl	1108bc <_wcrtomb_r>
  10f624:	e3700001 	cmn	r0, #1
  10f628:	e1a06000 	mov	r6, r0
  10f62c:	0a000021 	beq	10f6b8 <__fputwc+0xc8>
  10f630:	e3500000 	cmp	r0, #0
  10f634:	15dd1004 	ldrbne	r1, [sp, #4]
  10f638:	0a00002a 	beq	10f6e8 <__fputwc+0xf8>
  10f63c:	e3a05000 	mov	r5, #0
  10f640:	e28d9004 	add	r9, sp, #4
  10f644:	ea000007 	b	10f668 <__fputwc+0x78>
  10f648:	e5943000 	ldr	r3, [r4]
  10f64c:	e2832001 	add	r2, r3, #1
  10f650:	e5842000 	str	r2, [r4]
  10f654:	e5c31000 	strb	r1, [r3]
  10f658:	e2855001 	add	r5, r5, #1
  10f65c:	e1560005 	cmp	r6, r5
  10f660:	9a000020 	bls	10f6e8 <__fputwc+0xf8>
  10f664:	e7d51009 	ldrb	r1, [r5, r9]
  10f668:	e5943008 	ldr	r3, [r4, #8]
  10f66c:	e2433001 	sub	r3, r3, #1
  10f670:	e3530000 	cmp	r3, #0
  10f674:	e5843008 	str	r3, [r4, #8]
  10f678:	aafffff2 	bge	10f648 <__fputwc+0x58>
  10f67c:	e5942018 	ldr	r2, [r4, #24]
  10f680:	e1530002 	cmp	r3, r2
  10f684:	b3a03000 	movlt	r3, #0
  10f688:	a3a03001 	movge	r3, #1
  10f68c:	e351000a 	cmp	r1, #10
  10f690:	03a03000 	moveq	r3, #0
  10f694:	e3530000 	cmp	r3, #0
  10f698:	1affffea 	bne	10f648 <__fputwc+0x58>
  10f69c:	e1a02004 	mov	r2, r4
  10f6a0:	e1a00008 	mov	r0, r8
  10f6a4:	ebffff03 	bl	10f2b8 <__swbuf_r>
  10f6a8:	e3700001 	cmn	r0, #1
  10f6ac:	1affffe9 	bne	10f658 <__fputwc+0x68>
  10f6b0:	e28dd00c 	add	sp, sp, #12
  10f6b4:	e8bd83f0 	pop	{r4, r5, r6, r7, r8, r9, pc}
  10f6b8:	e1d430bc 	ldrh	r3, [r4, #12]
  10f6bc:	e3833040 	orr	r3, r3, #64	; 0x40
  10f6c0:	e1c430bc 	strh	r3, [r4, #12]
  10f6c4:	e28dd00c 	add	sp, sp, #12
  10f6c8:	e8bd83f0 	pop	{r4, r5, r6, r7, r8, r9, pc}
  10f6cc:	e2473001 	sub	r3, r7, #1
  10f6d0:	e35300fe 	cmp	r3, #254	; 0xfe
  10f6d4:	8affffcd 	bhi	10f610 <__fputwc+0x20>
  10f6d8:	e6ef1077 	uxtb	r1, r7
  10f6dc:	e1a06000 	mov	r6, r0
  10f6e0:	e5cd1004 	strb	r1, [sp, #4]
  10f6e4:	eaffffd4 	b	10f63c <__fputwc+0x4c>
  10f6e8:	e1a00007 	mov	r0, r7
  10f6ec:	e28dd00c 	add	sp, sp, #12
  10f6f0:	e8bd83f0 	pop	{r4, r5, r6, r7, r8, r9, pc}

0010f6f4 <_fputwc_r>:
  10f6f4:	e5923064 	ldr	r3, [r2, #100]	; 0x64
  10f6f8:	e92d4030 	push	{r4, r5, lr}
  10f6fc:	e1a04002 	mov	r4, r2
  10f700:	e24dd00c 	sub	sp, sp, #12
  10f704:	e1a05000 	mov	r5, r0
  10f708:	e3130001 	tst	r3, #1
  10f70c:	e1d230fc 	ldrsh	r3, [r2, #12]
  10f710:	e6ff2073 	uxth	r2, r3
  10f714:	1a000001 	bne	10f720 <_fputwc_r+0x2c>
  10f718:	e3120c02 	tst	r2, #512	; 0x200
  10f71c:	0a000017 	beq	10f780 <_fputwc_r+0x8c>
  10f720:	e3120a02 	tst	r2, #8192	; 0x2000
  10f724:	e1a00005 	mov	r0, r5
  10f728:	05942064 	ldreq	r2, [r4, #100]	; 0x64
  10f72c:	03833a02 	orreq	r3, r3, #8192	; 0x2000
  10f730:	01c430bc 	strheq	r3, [r4, #12]
  10f734:	03823a02 	orreq	r3, r2, #8192	; 0x2000
  10f738:	e1a02004 	mov	r2, r4
  10f73c:	05843064 	streq	r3, [r4, #100]	; 0x64
  10f740:	ebffffaa 	bl	10f5f0 <__fputwc>
  10f744:	e5943064 	ldr	r3, [r4, #100]	; 0x64
  10f748:	e1a05000 	mov	r5, r0
  10f74c:	e3130001 	tst	r3, #1
  10f750:	1a000002 	bne	10f760 <_fputwc_r+0x6c>
  10f754:	e1d430bc 	ldrh	r3, [r4, #12]
  10f758:	e3130c02 	tst	r3, #512	; 0x200
  10f75c:	0a000002 	beq	10f76c <_fputwc_r+0x78>
  10f760:	e1a00005 	mov	r0, r5
  10f764:	e28dd00c 	add	sp, sp, #12
  10f768:	e8bd8030 	pop	{r4, r5, pc}
  10f76c:	e2840058 	add	r0, r4, #88	; 0x58
  10f770:	eb0005a9 	bl	110e1c <__generic_gxx_recursive_mutex_unlock>
  10f774:	e1a00005 	mov	r0, r5
  10f778:	e28dd00c 	add	sp, sp, #12
  10f77c:	e8bd8030 	pop	{r4, r5, pc}
  10f780:	e2840058 	add	r0, r4, #88	; 0x58
  10f784:	e58d1004 	str	r1, [sp, #4]
  10f788:	eb0005a5 	bl	110e24 <__generic_gxx_recursive_mutex_lock>
  10f78c:	e1d430fc 	ldrsh	r3, [r4, #12]
  10f790:	e59d1004 	ldr	r1, [sp, #4]
  10f794:	e6ff2073 	uxth	r2, r3
  10f798:	eaffffe0 	b	10f720 <_fputwc_r+0x2c>

0010f79c <fputwc>:
  10f79c:	e92d4070 	push	{r4, r5, r6, lr}
  10f7a0:	e1a05000 	mov	r5, r0
  10f7a4:	e1a06001 	mov	r6, r1
  10f7a8:	ebffe1dd 	bl	107f24 <__getreent>
  10f7ac:	e2504000 	subs	r4, r0, #0
  10f7b0:	0a000003 	beq	10f7c4 <fputwc+0x28>
  10f7b4:	e5943038 	ldr	r3, [r4, #56]	; 0x38
  10f7b8:	e3530000 	cmp	r3, #0
  10f7bc:	1a000000 	bne	10f7c4 <fputwc+0x28>
  10f7c0:	ebfff2de 	bl	10c340 <__sinit>
  10f7c4:	e1a02006 	mov	r2, r6
  10f7c8:	e1a01005 	mov	r1, r5
  10f7cc:	e1a00004 	mov	r0, r4
  10f7d0:	e8bd4070 	pop	{r4, r5, r6, lr}
  10f7d4:	eaffffc6 	b	10f6f4 <_fputwc_r>

0010f7d8 <_fstat_r>:
  10f7d8:	e92d4070 	push	{r4, r5, r6, lr}
  10f7dc:	e1a03001 	mov	r3, r1
  10f7e0:	e3014410 	movw	r4, #5136	; 0x1410
  10f7e4:	e1a05000 	mov	r5, r0
  10f7e8:	e1a01002 	mov	r1, r2
  10f7ec:	e1a00003 	mov	r0, r3
  10f7f0:	e3404013 	movt	r4, #19
  10f7f4:	e3a03000 	mov	r3, #0
  10f7f8:	e5843000 	str	r3, [r4]
  10f7fc:	ebffc417 	bl	100860 <_fstat>
  10f800:	e3700001 	cmn	r0, #1
  10f804:	18bd8070 	popne	{r4, r5, r6, pc}
  10f808:	e5943000 	ldr	r3, [r4]
  10f80c:	e3530000 	cmp	r3, #0
  10f810:	15853000 	strne	r3, [r5]
  10f814:	e8bd8070 	pop	{r4, r5, r6, pc}

0010f818 <__sfvwrite_r>:
  10f818:	e5923008 	ldr	r3, [r2, #8]
  10f81c:	e3530000 	cmp	r3, #0
  10f820:	0a0000c2 	beq	10fb30 <__sfvwrite_r+0x318>
  10f824:	e1d1c0bc 	ldrh	ip, [r1, #12]
  10f828:	e92d4ff0 	push	{r4, r5, r6, r7, r8, r9, sl, fp, lr}
  10f82c:	e1a06001 	mov	r6, r1
  10f830:	e24dd00c 	sub	sp, sp, #12
  10f834:	e1a0b000 	mov	fp, r0
  10f838:	e31c0008 	tst	ip, #8
  10f83c:	e1a09002 	mov	r9, r2
  10f840:	0a00001f 	beq	10f8c4 <__sfvwrite_r+0xac>
  10f844:	e5913010 	ldr	r3, [r1, #16]
  10f848:	e3530000 	cmp	r3, #0
  10f84c:	0a00001c 	beq	10f8c4 <__sfvwrite_r+0xac>
  10f850:	e21c8002 	ands	r8, ip, #2
  10f854:	e5997000 	ldr	r7, [r9]
  10f858:	0a000022 	beq	10f8e8 <__sfvwrite_r+0xd0>
  10f85c:	e3a05000 	mov	r5, #0
  10f860:	e3a08b3f 	mov	r8, #64512	; 0xfc00
  10f864:	e1a04005 	mov	r4, r5
  10f868:	e3478fff 	movt	r8, #32767	; 0x7fff
  10f86c:	e3540000 	cmp	r4, #0
  10f870:	e1a02005 	mov	r2, r5
  10f874:	e1a0000b 	mov	r0, fp
  10f878:	0a000042 	beq	10f988 <__sfvwrite_r+0x170>
  10f87c:	e1540008 	cmp	r4, r8
  10f880:	e596a024 	ldr	sl, [r6, #36]	; 0x24
  10f884:	31a03004 	movcc	r3, r4
  10f888:	21a03008 	movcs	r3, r8
  10f88c:	e596101c 	ldr	r1, [r6, #28]
  10f890:	e12fff3a 	blx	sl
  10f894:	e3500000 	cmp	r0, #0
  10f898:	e0855000 	add	r5, r5, r0
  10f89c:	e0444000 	sub	r4, r4, r0
  10f8a0:	da000056 	ble	10fa00 <__sfvwrite_r+0x1e8>
  10f8a4:	e5993008 	ldr	r3, [r9, #8]
  10f8a8:	e0430000 	sub	r0, r3, r0
  10f8ac:	e3500000 	cmp	r0, #0
  10f8b0:	e5890008 	str	r0, [r9, #8]
  10f8b4:	1affffec 	bne	10f86c <__sfvwrite_r+0x54>
  10f8b8:	e3a00000 	mov	r0, #0
  10f8bc:	e28dd00c 	add	sp, sp, #12
  10f8c0:	e8bd8ff0 	pop	{r4, r5, r6, r7, r8, r9, sl, fp, pc}
  10f8c4:	e1a01006 	mov	r1, r6
  10f8c8:	e1a0000b 	mov	r0, fp
  10f8cc:	ebffec4c 	bl	10aa04 <__swsetup_r>
  10f8d0:	e3500000 	cmp	r0, #0
  10f8d4:	1a0000f5 	bne	10fcb0 <__sfvwrite_r+0x498>
  10f8d8:	e1d6c0bc 	ldrh	ip, [r6, #12]
  10f8dc:	e5997000 	ldr	r7, [r9]
  10f8e0:	e21c8002 	ands	r8, ip, #2
  10f8e4:	1affffdc 	bne	10f85c <__sfvwrite_r+0x44>
  10f8e8:	e21ca001 	ands	sl, ip, #1
  10f8ec:	01a0800a 	moveq	r8, sl
  10f8f0:	1a000090 	bne	10fb38 <__sfvwrite_r+0x320>
  10f8f4:	e3580000 	cmp	r8, #0
  10f8f8:	0a00001e 	beq	10f978 <__sfvwrite_r+0x160>
  10f8fc:	e31c0c02 	tst	ip, #512	; 0x200
  10f900:	e5965008 	ldr	r5, [r6, #8]
  10f904:	0a000023 	beq	10f998 <__sfvwrite_r+0x180>
  10f908:	e1580005 	cmp	r8, r5
  10f90c:	e1a03005 	mov	r3, r5
  10f910:	3a000040 	bcc	10fa18 <__sfvwrite_r+0x200>
  10f914:	e31c0d12 	tst	ip, #1152	; 0x480
  10f918:	1a000043 	bne	10fa2c <__sfvwrite_r+0x214>
  10f91c:	e5960000 	ldr	r0, [r6]
  10f920:	e1a04008 	mov	r4, r8
  10f924:	e1a02003 	mov	r2, r3
  10f928:	e1a0100a 	mov	r1, sl
  10f92c:	e58d3004 	str	r3, [sp, #4]
  10f930:	eb000165 	bl	10fecc <memmove>
  10f934:	e5961008 	ldr	r1, [r6, #8]
  10f938:	e5962000 	ldr	r2, [r6]
  10f93c:	e59d3004 	ldr	r3, [sp, #4]
  10f940:	e0415005 	sub	r5, r1, r5
  10f944:	e5865008 	str	r5, [r6, #8]
  10f948:	e0823003 	add	r3, r2, r3
  10f94c:	e5863000 	str	r3, [r6]
  10f950:	e5990008 	ldr	r0, [r9, #8]
  10f954:	e08aa004 	add	sl, sl, r4
  10f958:	e0488004 	sub	r8, r8, r4
  10f95c:	e0404004 	sub	r4, r0, r4
  10f960:	e3540000 	cmp	r4, #0
  10f964:	e5894008 	str	r4, [r9, #8]
  10f968:	0affffd2 	beq	10f8b8 <__sfvwrite_r+0xa0>
  10f96c:	e3580000 	cmp	r8, #0
  10f970:	e1d6c0bc 	ldrh	ip, [r6, #12]
  10f974:	1affffe0 	bne	10f8fc <__sfvwrite_r+0xe4>
  10f978:	e597a000 	ldr	sl, [r7]
  10f97c:	e2877008 	add	r7, r7, #8
  10f980:	e5178004 	ldr	r8, [r7, #-4]
  10f984:	eaffffda 	b	10f8f4 <__sfvwrite_r+0xdc>
  10f988:	e5975000 	ldr	r5, [r7]
  10f98c:	e2877008 	add	r7, r7, #8
  10f990:	e5174004 	ldr	r4, [r7, #-4]
  10f994:	eaffffb4 	b	10f86c <__sfvwrite_r+0x54>
  10f998:	e5960000 	ldr	r0, [r6]
  10f99c:	e5963010 	ldr	r3, [r6, #16]
  10f9a0:	e1500003 	cmp	r0, r3
  10f9a4:	8a000002 	bhi	10f9b4 <__sfvwrite_r+0x19c>
  10f9a8:	e5964014 	ldr	r4, [r6, #20]
  10f9ac:	e1580004 	cmp	r8, r4
  10f9b0:	2a000043 	bcs	10fac4 <__sfvwrite_r+0x2ac>
  10f9b4:	e1550008 	cmp	r5, r8
  10f9b8:	e1a0100a 	mov	r1, sl
  10f9bc:	31a04005 	movcc	r4, r5
  10f9c0:	21a04008 	movcs	r4, r8
  10f9c4:	e1a02004 	mov	r2, r4
  10f9c8:	eb00013f 	bl	10fecc <memmove>
  10f9cc:	e5963008 	ldr	r3, [r6, #8]
  10f9d0:	e5962000 	ldr	r2, [r6]
  10f9d4:	e0433004 	sub	r3, r3, r4
  10f9d8:	e3530000 	cmp	r3, #0
  10f9dc:	e0822004 	add	r2, r2, r4
  10f9e0:	e5863008 	str	r3, [r6, #8]
  10f9e4:	e5862000 	str	r2, [r6]
  10f9e8:	1affffd8 	bne	10f950 <__sfvwrite_r+0x138>
  10f9ec:	e1a01006 	mov	r1, r6
  10f9f0:	e1a0000b 	mov	r0, fp
  10f9f4:	ebfff1c9 	bl	10c120 <_fflush_r>
  10f9f8:	e3500000 	cmp	r0, #0
  10f9fc:	0affffd3 	beq	10f950 <__sfvwrite_r+0x138>
  10fa00:	e1d630fc 	ldrsh	r3, [r6, #12]
  10fa04:	e3833040 	orr	r3, r3, #64	; 0x40
  10fa08:	e3e00000 	mvn	r0, #0
  10fa0c:	e1c630bc 	strh	r3, [r6, #12]
  10fa10:	e28dd00c 	add	sp, sp, #12
  10fa14:	e8bd8ff0 	pop	{r4, r5, r6, r7, r8, r9, sl, fp, pc}
  10fa18:	e5960000 	ldr	r0, [r6]
  10fa1c:	e1a05008 	mov	r5, r8
  10fa20:	e1a04008 	mov	r4, r8
  10fa24:	e1a03008 	mov	r3, r8
  10fa28:	eaffffbd 	b	10f924 <__sfvwrite_r+0x10c>
  10fa2c:	e5962014 	ldr	r2, [r6, #20]
  10fa30:	e5963010 	ldr	r3, [r6, #16]
  10fa34:	e5964000 	ldr	r4, [r6]
  10fa38:	e0822082 	add	r2, r2, r2, lsl #1
  10fa3c:	e0444003 	sub	r4, r4, r3
  10fa40:	e0822fa2 	add	r2, r2, r2, lsr #31
  10fa44:	e2841001 	add	r1, r4, #1
  10fa48:	e0811008 	add	r1, r1, r8
  10fa4c:	e1a020c2 	asr	r2, r2, #1
  10fa50:	e1510002 	cmp	r1, r2
  10fa54:	91a01002 	movls	r1, r2
  10fa58:	81a02001 	movhi	r2, r1
  10fa5c:	e31c0b01 	tst	ip, #1024	; 0x400
  10fa60:	e58d1004 	str	r1, [sp, #4]
  10fa64:	0a000024 	beq	10fafc <__sfvwrite_r+0x2e4>
  10fa68:	e1a01002 	mov	r1, r2
  10fa6c:	e1a0000b 	mov	r0, fp
  10fa70:	ebffe13b 	bl	107f64 <_malloc_r>
  10fa74:	e2505000 	subs	r5, r0, #0
  10fa78:	0a00008e 	beq	10fcb8 <__sfvwrite_r+0x4a0>
  10fa7c:	e1a02004 	mov	r2, r4
  10fa80:	e5961010 	ldr	r1, [r6, #16]
  10fa84:	ebffe311 	bl	1086d0 <memcpy>
  10fa88:	e1d630bc 	ldrh	r3, [r6, #12]
  10fa8c:	e3c33d12 	bic	r3, r3, #1152	; 0x480
  10fa90:	e3833080 	orr	r3, r3, #128	; 0x80
  10fa94:	e1c630bc 	strh	r3, [r6, #12]
  10fa98:	e59d2004 	ldr	r2, [sp, #4]
  10fa9c:	e0850004 	add	r0, r5, r4
  10faa0:	e5865010 	str	r5, [r6, #16]
  10faa4:	e1a05008 	mov	r5, r8
  10faa8:	e5860000 	str	r0, [r6]
  10faac:	e0423004 	sub	r3, r2, r4
  10fab0:	e5862014 	str	r2, [r6, #20]
  10fab4:	e5863008 	str	r3, [r6, #8]
  10fab8:	e1a04008 	mov	r4, r8
  10fabc:	e1a03008 	mov	r3, r8
  10fac0:	eaffff97 	b	10f924 <__sfvwrite_r+0x10c>
  10fac4:	e3780106 	cmn	r8, #-2147483647	; 0x80000001
  10fac8:	e1a01004 	mov	r1, r4
  10facc:	31a00008 	movcc	r0, r8
  10fad0:	23e00102 	mvncs	r0, #-2147483648	; 0x80000000
  10fad4:	eb0003db 	bl	110a48 <__aeabi_idiv>
  10fad8:	e5965024 	ldr	r5, [r6, #36]	; 0x24
  10fadc:	e0030094 	mul	r3, r4, r0
  10fae0:	e1a0200a 	mov	r2, sl
  10fae4:	e596101c 	ldr	r1, [r6, #28]
  10fae8:	e1a0000b 	mov	r0, fp
  10faec:	e12fff35 	blx	r5
  10faf0:	e2504000 	subs	r4, r0, #0
  10faf4:	caffff95 	bgt	10f950 <__sfvwrite_r+0x138>
  10faf8:	eaffffc0 	b	10fa00 <__sfvwrite_r+0x1e8>
  10fafc:	e1a01003 	mov	r1, r3
  10fb00:	e1a0000b 	mov	r0, fp
  10fb04:	eb000153 	bl	110058 <_realloc_r>
  10fb08:	e2505000 	subs	r5, r0, #0
  10fb0c:	1affffe1 	bne	10fa98 <__sfvwrite_r+0x280>
  10fb10:	e5961010 	ldr	r1, [r6, #16]
  10fb14:	e1a0000b 	mov	r0, fp
  10fb18:	ebfff2d5 	bl	10c674 <_free_r>
  10fb1c:	e1d630fc 	ldrsh	r3, [r6, #12]
  10fb20:	e3a0200c 	mov	r2, #12
  10fb24:	e58b2000 	str	r2, [fp]
  10fb28:	e3c33080 	bic	r3, r3, #128	; 0x80
  10fb2c:	eaffffb4 	b	10fa04 <__sfvwrite_r+0x1ec>
  10fb30:	e3a00000 	mov	r0, #0
  10fb34:	e12fff1e 	bx	lr
  10fb38:	e1a00008 	mov	r0, r8
  10fb3c:	e1a0a008 	mov	sl, r8
  10fb40:	e1a05008 	mov	r5, r8
  10fb44:	ea000025 	b	10fbe0 <__sfvwrite_r+0x3c8>
  10fb48:	e3500000 	cmp	r0, #0
  10fb4c:	0a00002c 	beq	10fc04 <__sfvwrite_r+0x3ec>
  10fb50:	e5962010 	ldr	r2, [r6, #16]
  10fb54:	e1580005 	cmp	r8, r5
  10fb58:	e596c014 	ldr	ip, [r6, #20]
  10fb5c:	31a01008 	movcc	r1, r8
  10fb60:	e5963008 	ldr	r3, [r6, #8]
  10fb64:	21a01005 	movcs	r1, r5
  10fb68:	e5960000 	ldr	r0, [r6]
  10fb6c:	e1a04001 	mov	r4, r1
  10fb70:	e08c3003 	add	r3, ip, r3
  10fb74:	e1500002 	cmp	r0, r2
  10fb78:	93a02000 	movls	r2, #0
  10fb7c:	83a02001 	movhi	r2, #1
  10fb80:	e1510003 	cmp	r1, r3
  10fb84:	d3a02000 	movle	r2, #0
  10fb88:	e3520000 	cmp	r2, #0
  10fb8c:	1a000037 	bne	10fc70 <__sfvwrite_r+0x458>
  10fb90:	e151000c 	cmp	r1, ip
  10fb94:	ba000023 	blt	10fc28 <__sfvwrite_r+0x410>
  10fb98:	e5964024 	ldr	r4, [r6, #36]	; 0x24
  10fb9c:	e1a0300c 	mov	r3, ip
  10fba0:	e1a0200a 	mov	r2, sl
  10fba4:	e596101c 	ldr	r1, [r6, #28]
  10fba8:	e1a0000b 	mov	r0, fp
  10fbac:	e12fff34 	blx	r4
  10fbb0:	e2504000 	subs	r4, r0, #0
  10fbb4:	daffff91 	ble	10fa00 <__sfvwrite_r+0x1e8>
  10fbb8:	e0588004 	subs	r8, r8, r4
  10fbbc:	13a00001 	movne	r0, #1
  10fbc0:	0a000024 	beq	10fc58 <__sfvwrite_r+0x440>
  10fbc4:	e5993008 	ldr	r3, [r9, #8]
  10fbc8:	e08aa004 	add	sl, sl, r4
  10fbcc:	e0455004 	sub	r5, r5, r4
  10fbd0:	e0434004 	sub	r4, r3, r4
  10fbd4:	e3540000 	cmp	r4, #0
  10fbd8:	e5894008 	str	r4, [r9, #8]
  10fbdc:	0affff35 	beq	10f8b8 <__sfvwrite_r+0xa0>
  10fbe0:	e3550000 	cmp	r5, #0
  10fbe4:	1affffd7 	bne	10fb48 <__sfvwrite_r+0x330>
  10fbe8:	e2873008 	add	r3, r7, #8
  10fbec:	e5135004 	ldr	r5, [r3, #-4]
  10fbf0:	e1a07003 	mov	r7, r3
  10fbf4:	e513a008 	ldr	sl, [r3, #-8]
  10fbf8:	e2833008 	add	r3, r3, #8
  10fbfc:	e3550000 	cmp	r5, #0
  10fc00:	0afffff9 	beq	10fbec <__sfvwrite_r+0x3d4>
  10fc04:	e1a02005 	mov	r2, r5
  10fc08:	e3a0100a 	mov	r1, #10
  10fc0c:	e1a0000a 	mov	r0, sl
  10fc10:	fafff402 	blx	10cc20 <memchr>
  10fc14:	e3500000 	cmp	r0, #0
  10fc18:	12800001 	addne	r0, r0, #1
  10fc1c:	02858001 	addeq	r8, r5, #1
  10fc20:	1040800a 	subne	r8, r0, sl
  10fc24:	eaffffc9 	b	10fb50 <__sfvwrite_r+0x338>
  10fc28:	e1a02001 	mov	r2, r1
  10fc2c:	e1a0100a 	mov	r1, sl
  10fc30:	eb0000a5 	bl	10fecc <memmove>
  10fc34:	e5962008 	ldr	r2, [r6, #8]
  10fc38:	e0588004 	subs	r8, r8, r4
  10fc3c:	e5963000 	ldr	r3, [r6]
  10fc40:	13a00001 	movne	r0, #1
  10fc44:	e0422004 	sub	r2, r2, r4
  10fc48:	e0833004 	add	r3, r3, r4
  10fc4c:	e5862008 	str	r2, [r6, #8]
  10fc50:	e5863000 	str	r3, [r6]
  10fc54:	1affffda 	bne	10fbc4 <__sfvwrite_r+0x3ac>
  10fc58:	e1a01006 	mov	r1, r6
  10fc5c:	e1a0000b 	mov	r0, fp
  10fc60:	ebfff12e 	bl	10c120 <_fflush_r>
  10fc64:	e3500000 	cmp	r0, #0
  10fc68:	0affffd5 	beq	10fbc4 <__sfvwrite_r+0x3ac>
  10fc6c:	eaffff63 	b	10fa00 <__sfvwrite_r+0x1e8>
  10fc70:	e1a02003 	mov	r2, r3
  10fc74:	e1a0100a 	mov	r1, sl
  10fc78:	e58d3004 	str	r3, [sp, #4]
  10fc7c:	eb000092 	bl	10fecc <memmove>
  10fc80:	e5962000 	ldr	r2, [r6]
  10fc84:	e1a01006 	mov	r1, r6
  10fc88:	e59d3004 	ldr	r3, [sp, #4]
  10fc8c:	e1a0000b 	mov	r0, fp
  10fc90:	e0822003 	add	r2, r2, r3
  10fc94:	e5862000 	str	r2, [r6]
  10fc98:	ebfff120 	bl	10c120 <_fflush_r>
  10fc9c:	e3500000 	cmp	r0, #0
  10fca0:	e59d3004 	ldr	r3, [sp, #4]
  10fca4:	1affff55 	bne	10fa00 <__sfvwrite_r+0x1e8>
  10fca8:	e1a04003 	mov	r4, r3
  10fcac:	eaffffc1 	b	10fbb8 <__sfvwrite_r+0x3a0>
  10fcb0:	e3e00000 	mvn	r0, #0
  10fcb4:	eaffff00 	b	10f8bc <__sfvwrite_r+0xa4>
  10fcb8:	e3a0200c 	mov	r2, #12
  10fcbc:	e1d630fc 	ldrsh	r3, [r6, #12]
  10fcc0:	e58b2000 	str	r2, [fp]
  10fcc4:	eaffff4e 	b	10fa04 <__sfvwrite_r+0x1ec>

0010fcc8 <_isatty_r>:
  10fcc8:	e92d4070 	push	{r4, r5, r6, lr}
  10fccc:	e3014410 	movw	r4, #5136	; 0x1410
  10fcd0:	e3a03000 	mov	r3, #0
  10fcd4:	e1a05000 	mov	r5, r0
  10fcd8:	e3404013 	movt	r4, #19
  10fcdc:	e1a00001 	mov	r0, r1
  10fce0:	e5843000 	str	r3, [r4]
  10fce4:	ebffc2ec 	bl	10089c <_isatty>
  10fce8:	e3700001 	cmn	r0, #1
  10fcec:	18bd8070 	popne	{r4, r5, r6, pc}
  10fcf0:	e5943000 	ldr	r3, [r4]
  10fcf4:	e3530000 	cmp	r3, #0
  10fcf8:	15853000 	strne	r3, [r5]
  10fcfc:	e8bd8070 	pop	{r4, r5, r6, pc}

0010fd00 <__get_current_locale>:
  10fd00:	e92d4010 	push	{r4, lr}
  10fd04:	ebffe086 	bl	107f24 <__getreent>
  10fd08:	e3003848 	movw	r3, #2120	; 0x848
  10fd0c:	e5900034 	ldr	r0, [r0, #52]	; 0x34
  10fd10:	e3403013 	movt	r3, #19
  10fd14:	e3500000 	cmp	r0, #0
  10fd18:	01a00003 	moveq	r0, r3
  10fd1c:	e8bd8010 	pop	{r4, pc}

0010fd20 <_setlocale_r>:
  10fd20:	e92d4010 	push	{r4, lr}
  10fd24:	e2524000 	subs	r4, r2, #0
  10fd28:	0a000005 	beq	10fd44 <_setlocale_r+0x24>
  10fd2c:	e305192c 	movw	r1, #22828	; 0x592c
  10fd30:	e1a00004 	mov	r0, r4
  10fd34:	e3401012 	movt	r1, #18
  10fd38:	fa00022a 	blx	1105e8 <strcmp>
  10fd3c:	e3500000 	cmp	r0, #0
  10fd40:	1a000002 	bne	10fd50 <_setlocale_r+0x30>
  10fd44:	e3050928 	movw	r0, #22824	; 0x5928
  10fd48:	e3400012 	movt	r0, #18
  10fd4c:	e8bd8010 	pop	{r4, pc}
  10fd50:	e3051928 	movw	r1, #22824	; 0x5928
  10fd54:	e1a00004 	mov	r0, r4
  10fd58:	e3401012 	movt	r1, #18
  10fd5c:	fa000221 	blx	1105e8 <strcmp>
  10fd60:	e3500000 	cmp	r0, #0
  10fd64:	0afffff6 	beq	10fd44 <_setlocale_r+0x24>
  10fd68:	e30517ac 	movw	r1, #22444	; 0x57ac
  10fd6c:	e1a00004 	mov	r0, r4
  10fd70:	e3401012 	movt	r1, #18
  10fd74:	fa00021b 	blx	1105e8 <strcmp>
  10fd78:	e3500000 	cmp	r0, #0
  10fd7c:	0afffff0 	beq	10fd44 <_setlocale_r+0x24>
  10fd80:	e3a00000 	mov	r0, #0
  10fd84:	e8bd8010 	pop	{r4, pc}

0010fd88 <__locale_mb_cur_max>:
  10fd88:	e92d4010 	push	{r4, lr}
  10fd8c:	ebffe064 	bl	107f24 <__getreent>
  10fd90:	e3002848 	movw	r2, #2120	; 0x848
  10fd94:	e5903034 	ldr	r3, [r0, #52]	; 0x34
  10fd98:	e3402013 	movt	r2, #19
  10fd9c:	e3530000 	cmp	r3, #0
  10fda0:	01a03002 	moveq	r3, r2
  10fda4:	e5d30128 	ldrb	r0, [r3, #296]	; 0x128
  10fda8:	e8bd8010 	pop	{r4, pc}

0010fdac <__locale_ctype_ptr_l>:
  10fdac:	e59000ec 	ldr	r0, [r0, #236]	; 0xec
  10fdb0:	e12fff1e 	bx	lr

0010fdb4 <__locale_ctype_ptr>:
  10fdb4:	e92d4010 	push	{r4, lr}
  10fdb8:	ebffe059 	bl	107f24 <__getreent>
  10fdbc:	ebffffcf 	bl	10fd00 <__get_current_locale>
  10fdc0:	e59000ec 	ldr	r0, [r0, #236]	; 0xec
  10fdc4:	e8bd8010 	pop	{r4, pc}

0010fdc8 <setlocale>:
  10fdc8:	e92d4070 	push	{r4, r5, r6, lr}
  10fdcc:	e1a05001 	mov	r5, r1
  10fdd0:	e1a04000 	mov	r4, r0
  10fdd4:	ebffe052 	bl	107f24 <__getreent>
  10fdd8:	e1a02005 	mov	r2, r5
  10fddc:	e1a01004 	mov	r1, r4
  10fde0:	e8bd4070 	pop	{r4, r5, r6, lr}
  10fde4:	eaffffcd 	b	10fd20 <_setlocale_r>

0010fde8 <_lseek_r>:
  10fde8:	e92d4070 	push	{r4, r5, r6, lr}
  10fdec:	e1a0c001 	mov	ip, r1
  10fdf0:	e3014410 	movw	r4, #5136	; 0x1410
  10fdf4:	e1a01002 	mov	r1, r2
  10fdf8:	e1a05000 	mov	r5, r0
  10fdfc:	e1a02003 	mov	r2, r3
  10fe00:	e1a0000c 	mov	r0, ip
  10fe04:	e3a03000 	mov	r3, #0
  10fe08:	e3404013 	movt	r4, #19
  10fe0c:	e5843000 	str	r3, [r4]
  10fe10:	ebffc2af 	bl	1008d4 <_lseek>
  10fe14:	e3700001 	cmn	r0, #1
  10fe18:	18bd8070 	popne	{r4, r5, r6, pc}
  10fe1c:	e5943000 	ldr	r3, [r4]
  10fe20:	e3530000 	cmp	r3, #0
  10fe24:	15853000 	strne	r3, [r5]
  10fe28:	e8bd8070 	pop	{r4, r5, r6, pc}

0010fe2c <_mbtowc_r>:
  10fe2c:	e92d41f0 	push	{r4, r5, r6, r7, r8, lr}
  10fe30:	e1a04000 	mov	r4, r0
  10fe34:	e1a05001 	mov	r5, r1
  10fe38:	e1a06002 	mov	r6, r2
  10fe3c:	e1a07003 	mov	r7, r3
  10fe40:	e59d8018 	ldr	r8, [sp, #24]
  10fe44:	ebffe036 	bl	107f24 <__getreent>
  10fe48:	e590c034 	ldr	ip, [r0, #52]	; 0x34
  10fe4c:	e3000848 	movw	r0, #2120	; 0x848
  10fe50:	e3400013 	movt	r0, #19
  10fe54:	e58d8018 	str	r8, [sp, #24]
  10fe58:	e1a03007 	mov	r3, r7
  10fe5c:	e1a02006 	mov	r2, r6
  10fe60:	e35c0000 	cmp	ip, #0
  10fe64:	e1a01005 	mov	r1, r5
  10fe68:	01a0c000 	moveq	ip, r0
  10fe6c:	e1a00004 	mov	r0, r4
  10fe70:	e59ce0e4 	ldr	lr, [ip, #228]	; 0xe4
  10fe74:	e1a0c00e 	mov	ip, lr
  10fe78:	e8bd41f0 	pop	{r4, r5, r6, r7, r8, lr}
  10fe7c:	e12fff1c 	bx	ip

0010fe80 <__ascii_mbtowc>:
  10fe80:	e3510000 	cmp	r1, #0
  10fe84:	e24dd008 	sub	sp, sp, #8
  10fe88:	028d1004 	addeq	r1, sp, #4
  10fe8c:	e3520000 	cmp	r2, #0
  10fe90:	0a000008 	beq	10feb8 <__ascii_mbtowc+0x38>
  10fe94:	e3530000 	cmp	r3, #0
  10fe98:	0a000009 	beq	10fec4 <__ascii_mbtowc+0x44>
  10fe9c:	e5d23000 	ldrb	r3, [r2]
  10fea0:	e5813000 	str	r3, [r1]
  10fea4:	e5d22000 	ldrb	r2, [r2]
  10fea8:	e2920000 	adds	r0, r2, #0
  10feac:	13a00001 	movne	r0, #1
  10feb0:	e28dd008 	add	sp, sp, #8
  10feb4:	e12fff1e 	bx	lr
  10feb8:	e1a00002 	mov	r0, r2
  10febc:	e28dd008 	add	sp, sp, #8
  10fec0:	e12fff1e 	bx	lr
  10fec4:	e3e00001 	mvn	r0, #1
  10fec8:	eafffff8 	b	10feb0 <__ascii_mbtowc+0x30>

0010fecc <memmove>:
  10fecc:	e1500001 	cmp	r0, r1
  10fed0:	9a00000a 	bls	10ff00 <memmove+0x34>
  10fed4:	e0813002 	add	r3, r1, r2
  10fed8:	e1500003 	cmp	r0, r3
  10fedc:	2a000007 	bcs	10ff00 <memmove+0x34>
  10fee0:	e3520000 	cmp	r2, #0
  10fee4:	e0802002 	add	r2, r0, r2
  10fee8:	012fff1e 	bxeq	lr
  10feec:	e573c001 	ldrb	ip, [r3, #-1]!
  10fef0:	e1510003 	cmp	r1, r3
  10fef4:	e562c001 	strb	ip, [r2, #-1]!
  10fef8:	1afffffb 	bne	10feec <memmove+0x20>
  10fefc:	e12fff1e 	bx	lr
  10ff00:	e352000f 	cmp	r2, #15
  10ff04:	8a000009 	bhi	10ff30 <memmove+0x64>
  10ff08:	e3520000 	cmp	r2, #0
  10ff0c:	e1a03000 	mov	r3, r0
  10ff10:	0a00003c 	beq	110008 <memmove+0x13c>
  10ff14:	e2433001 	sub	r3, r3, #1
  10ff18:	e0812002 	add	r2, r1, r2
  10ff1c:	e4d1c001 	ldrb	ip, [r1], #1
  10ff20:	e1520001 	cmp	r2, r1
  10ff24:	e5e3c001 	strb	ip, [r3, #1]!
  10ff28:	1afffffb 	bne	10ff1c <memmove+0x50>
  10ff2c:	e12fff1e 	bx	lr
  10ff30:	e1813000 	orr	r3, r1, r0
  10ff34:	e3130003 	tst	r3, #3
  10ff38:	1a00002f 	bne	10fffc <memmove+0x130>
  10ff3c:	e92d4070 	push	{r4, r5, r6, lr}
  10ff40:	e280c010 	add	ip, r0, #16
  10ff44:	e2813010 	add	r3, r1, #16
  10ff48:	e1a0e002 	mov	lr, r2
  10ff4c:	e24ee010 	sub	lr, lr, #16
  10ff50:	e2833010 	add	r3, r3, #16
  10ff54:	e5134020 	ldr	r4, [r3, #-32]	; 0xffffffe0
  10ff58:	e35e000f 	cmp	lr, #15
  10ff5c:	e28cc010 	add	ip, ip, #16
  10ff60:	e50c4020 	str	r4, [ip, #-32]	; 0xffffffe0
  10ff64:	e513401c 	ldr	r4, [r3, #-28]	; 0xffffffe4
  10ff68:	e50c401c 	str	r4, [ip, #-28]	; 0xffffffe4
  10ff6c:	e5134018 	ldr	r4, [r3, #-24]	; 0xffffffe8
  10ff70:	e50c4018 	str	r4, [ip, #-24]	; 0xffffffe8
  10ff74:	e5134014 	ldr	r4, [r3, #-20]	; 0xffffffec
  10ff78:	e50c4014 	str	r4, [ip, #-20]	; 0xffffffec
  10ff7c:	8afffff2 	bhi	10ff4c <memmove+0x80>
  10ff80:	e2423010 	sub	r3, r2, #16
  10ff84:	e202400f 	and	r4, r2, #15
  10ff88:	e3c3300f 	bic	r3, r3, #15
  10ff8c:	e3540003 	cmp	r4, #3
  10ff90:	e2833010 	add	r3, r3, #16
  10ff94:	e0811003 	add	r1, r1, r3
  10ff98:	e0803003 	add	r3, r0, r3
  10ff9c:	9a00001a 	bls	11000c <memmove+0x140>
  10ffa0:	e2435004 	sub	r5, r3, #4
  10ffa4:	e1a0e001 	mov	lr, r1
  10ffa8:	e1a0c004 	mov	ip, r4
  10ffac:	e24cc004 	sub	ip, ip, #4
  10ffb0:	e49e6004 	ldr	r6, [lr], #4
  10ffb4:	e35c0003 	cmp	ip, #3
  10ffb8:	e5a56004 	str	r6, [r5, #4]!
  10ffbc:	8afffffa 	bhi	10ffac <memmove+0xe0>
  10ffc0:	e244c004 	sub	ip, r4, #4
  10ffc4:	e2022003 	and	r2, r2, #3
  10ffc8:	e3ccc003 	bic	ip, ip, #3
  10ffcc:	e28cc004 	add	ip, ip, #4
  10ffd0:	e081100c 	add	r1, r1, ip
  10ffd4:	e083300c 	add	r3, r3, ip
  10ffd8:	e3520000 	cmp	r2, #0
  10ffdc:	12433001 	subne	r3, r3, #1
  10ffe0:	10812002 	addne	r2, r1, r2
  10ffe4:	0a000006 	beq	110004 <memmove+0x138>
  10ffe8:	e4d1c001 	ldrb	ip, [r1], #1
  10ffec:	e1520001 	cmp	r2, r1
  10fff0:	e5e3c001 	strb	ip, [r3, #1]!
  10fff4:	1afffffb 	bne	10ffe8 <memmove+0x11c>
  10fff8:	e8bd8070 	pop	{r4, r5, r6, pc}
  10fffc:	e1a03000 	mov	r3, r0
  110000:	eaffffc3 	b	10ff14 <memmove+0x48>
  110004:	e8bd8070 	pop	{r4, r5, r6, pc}
  110008:	e12fff1e 	bx	lr
  11000c:	e1a02004 	mov	r2, r4
  110010:	eafffff0 	b	10ffd8 <memmove+0x10c>

00110014 <_read_r>:
  110014:	e92d4070 	push	{r4, r5, r6, lr}
  110018:	e1a0c001 	mov	ip, r1
  11001c:	e3014410 	movw	r4, #5136	; 0x1410
  110020:	e1a01002 	mov	r1, r2
  110024:	e1a05000 	mov	r5, r0
  110028:	e1a02003 	mov	r2, r3
  11002c:	e1a0000c 	mov	r0, ip
  110030:	e3a03000 	mov	r3, #0
  110034:	e3404013 	movt	r4, #19
  110038:	e5843000 	str	r3, [r4]
  11003c:	ebffc234 	bl	100914 <_read>
  110040:	e3700001 	cmn	r0, #1
  110044:	18bd8070 	popne	{r4, r5, r6, pc}
  110048:	e5943000 	ldr	r3, [r4]
  11004c:	e3530000 	cmp	r3, #0
  110050:	15853000 	strne	r3, [r5]
  110054:	e8bd8070 	pop	{r4, r5, r6, pc}

00110058 <_realloc_r>:
  110058:	e92d4ff0 	push	{r4, r5, r6, r7, r8, r9, sl, fp, lr}
  11005c:	e2515000 	subs	r5, r1, #0
  110060:	e24dd00c 	sub	sp, sp, #12
  110064:	0a000080 	beq	11026c <_realloc_r+0x214>
  110068:	e1a07002 	mov	r7, r2
  11006c:	e1a08000 	mov	r8, r0
  110070:	e287600b 	add	r6, r7, #11
  110074:	e2459008 	sub	r9, r5, #8
  110078:	ebffe21d 	bl	1088f4 <__malloc_lock>
  11007c:	e3560016 	cmp	r6, #22
  110080:	e5151004 	ldr	r1, [r5, #-4]
  110084:	83c66007 	bichi	r6, r6, #7
  110088:	93a02010 	movls	r2, #16
  11008c:	81a03fa6 	lsrhi	r3, r6, #31
  110090:	93a03000 	movls	r3, #0
  110094:	91a06002 	movls	r6, r2
  110098:	81a02006 	movhi	r2, r6
  11009c:	e1560007 	cmp	r6, r7
  1100a0:	33833001 	orrcc	r3, r3, #1
  1100a4:	e3530000 	cmp	r3, #0
  1100a8:	e3c14003 	bic	r4, r1, #3
  1100ac:	13a0300c 	movne	r3, #12
  1100b0:	13a07000 	movne	r7, #0
  1100b4:	15883000 	strne	r3, [r8]
  1100b8:	1a00000f 	bne	1100fc <_realloc_r+0xa4>
  1100bc:	e1540002 	cmp	r4, r2
  1100c0:	ba000010 	blt	110108 <_realloc_r+0xb0>
  1100c4:	e1a07005 	mov	r7, r5
  1100c8:	e0443006 	sub	r3, r4, r6
  1100cc:	e353000f 	cmp	r3, #15
  1100d0:	8a000056 	bhi	110230 <_realloc_r+0x1d8>
  1100d4:	e5992004 	ldr	r2, [r9, #4]
  1100d8:	e0891004 	add	r1, r9, r4
  1100dc:	e2022001 	and	r2, r2, #1
  1100e0:	e1824004 	orr	r4, r2, r4
  1100e4:	e5894004 	str	r4, [r9, #4]
  1100e8:	e5913004 	ldr	r3, [r1, #4]
  1100ec:	e3833001 	orr	r3, r3, #1
  1100f0:	e5813004 	str	r3, [r1, #4]
  1100f4:	e1a00008 	mov	r0, r8
  1100f8:	ebffe200 	bl	108900 <__malloc_unlock>
  1100fc:	e1a00007 	mov	r0, r7
  110100:	e28dd00c 	add	sp, sp, #12
  110104:	e8bd8ff0 	pop	{r4, r5, r6, r7, r8, r9, sl, fp, pc}
  110108:	e300a438 	movw	sl, #1080	; 0x438
  11010c:	e0893004 	add	r3, r9, r4
  110110:	e340a013 	movt	sl, #19
  110114:	e59a0008 	ldr	r0, [sl, #8]
  110118:	e1530000 	cmp	r3, r0
  11011c:	0a0000bf 	beq	110420 <_realloc_r+0x3c8>
  110120:	e593c004 	ldr	ip, [r3, #4]
  110124:	e3cc0001 	bic	r0, ip, #1
  110128:	e0830000 	add	r0, r3, r0
  11012c:	e5900004 	ldr	r0, [r0, #4]
  110130:	e3100001 	tst	r0, #1
  110134:	0a000032 	beq	110204 <_realloc_r+0x1ac>
  110138:	e3110001 	tst	r1, #1
  11013c:	0a000086 	beq	11035c <_realloc_r+0x304>
  110140:	e1a01007 	mov	r1, r7
  110144:	e1a00008 	mov	r0, r8
  110148:	ebffdf85 	bl	107f64 <_malloc_r>
  11014c:	e2507000 	subs	r7, r0, #0
  110150:	0affffe7 	beq	1100f4 <_realloc_r+0x9c>
  110154:	e5153004 	ldr	r3, [r5, #-4]
  110158:	e2472008 	sub	r2, r7, #8
  11015c:	e3c33001 	bic	r3, r3, #1
  110160:	e0893003 	add	r3, r9, r3
  110164:	e1520003 	cmp	r2, r3
  110168:	0a000104 	beq	110580 <_realloc_r+0x528>
  11016c:	e2442004 	sub	r2, r4, #4
  110170:	e3520024 	cmp	r2, #36	; 0x24
  110174:	8a0000fe 	bhi	110574 <_realloc_r+0x51c>
  110178:	e3520013 	cmp	r2, #19
  11017c:	91a03007 	movls	r3, r7
  110180:	91a02005 	movls	r2, r5
  110184:	9a000014 	bls	1101dc <_realloc_r+0x184>
  110188:	e5953000 	ldr	r3, [r5]
  11018c:	e352001b 	cmp	r2, #27
  110190:	92852008 	addls	r2, r5, #8
  110194:	e5873000 	str	r3, [r7]
  110198:	e5953004 	ldr	r3, [r5, #4]
  11019c:	e5873004 	str	r3, [r7, #4]
  1101a0:	92873008 	addls	r3, r7, #8
  1101a4:	9a00000c 	bls	1101dc <_realloc_r+0x184>
  1101a8:	e5953008 	ldr	r3, [r5, #8]
  1101ac:	e3520024 	cmp	r2, #36	; 0x24
  1101b0:	12852010 	addne	r2, r5, #16
  1101b4:	02852018 	addeq	r2, r5, #24
  1101b8:	e5873008 	str	r3, [r7, #8]
  1101bc:	e595300c 	ldr	r3, [r5, #12]
  1101c0:	e587300c 	str	r3, [r7, #12]
  1101c4:	12873010 	addne	r3, r7, #16
  1101c8:	05951010 	ldreq	r1, [r5, #16]
  1101cc:	02873018 	addeq	r3, r7, #24
  1101d0:	05871010 	streq	r1, [r7, #16]
  1101d4:	05951014 	ldreq	r1, [r5, #20]
  1101d8:	05871014 	streq	r1, [r7, #20]
  1101dc:	e5921000 	ldr	r1, [r2]
  1101e0:	e5831000 	str	r1, [r3]
  1101e4:	e5921004 	ldr	r1, [r2, #4]
  1101e8:	e5831004 	str	r1, [r3, #4]
  1101ec:	e5922008 	ldr	r2, [r2, #8]
  1101f0:	e5832008 	str	r2, [r3, #8]
  1101f4:	e1a01005 	mov	r1, r5
  1101f8:	e1a00008 	mov	r0, r8
  1101fc:	ebfff11c 	bl	10c674 <_free_r>
  110200:	eaffffbb 	b	1100f4 <_realloc_r+0x9c>
  110204:	e3ccc003 	bic	ip, ip, #3
  110208:	e084000c 	add	r0, r4, ip
  11020c:	e1500002 	cmp	r0, r2
  110210:	ba000019 	blt	11027c <_realloc_r+0x224>
  110214:	e593200c 	ldr	r2, [r3, #12]
  110218:	e1a07005 	mov	r7, r5
  11021c:	e5933008 	ldr	r3, [r3, #8]
  110220:	e1a04000 	mov	r4, r0
  110224:	e583200c 	str	r2, [r3, #12]
  110228:	e5823008 	str	r3, [r2, #8]
  11022c:	eaffffa5 	b	1100c8 <_realloc_r+0x70>
  110230:	e5991004 	ldr	r1, [r9, #4]
  110234:	e0892006 	add	r2, r9, r6
  110238:	e0894004 	add	r4, r9, r4
  11023c:	e3833001 	orr	r3, r3, #1
  110240:	e1a00008 	mov	r0, r8
  110244:	e2011001 	and	r1, r1, #1
  110248:	e1816006 	orr	r6, r1, r6
  11024c:	e2821008 	add	r1, r2, #8
  110250:	e5896004 	str	r6, [r9, #4]
  110254:	e5823004 	str	r3, [r2, #4]
  110258:	e5943004 	ldr	r3, [r4, #4]
  11025c:	e3833001 	orr	r3, r3, #1
  110260:	e5843004 	str	r3, [r4, #4]
  110264:	ebfff102 	bl	10c674 <_free_r>
  110268:	eaffffa1 	b	1100f4 <_realloc_r+0x9c>
  11026c:	e1a01002 	mov	r1, r2
  110270:	e28dd00c 	add	sp, sp, #12
  110274:	e8bd4ff0 	pop	{r4, r5, r6, r7, r8, r9, sl, fp, lr}
  110278:	eaffdf39 	b	107f64 <_malloc_r>
  11027c:	e3110001 	tst	r1, #1
  110280:	1affffae 	bne	110140 <_realloc_r+0xe8>
  110284:	e515b008 	ldr	fp, [r5, #-8]
  110288:	e049b00b 	sub	fp, r9, fp
  11028c:	e59b1004 	ldr	r1, [fp, #4]
  110290:	e3c11003 	bic	r1, r1, #3
  110294:	e081c00c 	add	ip, r1, ip
  110298:	e08cc004 	add	ip, ip, r4
  11029c:	e15c0002 	cmp	ip, r2
  1102a0:	ba000031 	blt	11036c <_realloc_r+0x314>
  1102a4:	e593100c 	ldr	r1, [r3, #12]
  1102a8:	e1a0700b 	mov	r7, fp
  1102ac:	e5933008 	ldr	r3, [r3, #8]
  1102b0:	e2442004 	sub	r2, r4, #4
  1102b4:	e3520024 	cmp	r2, #36	; 0x24
  1102b8:	e583100c 	str	r1, [r3, #12]
  1102bc:	e5813008 	str	r3, [r1, #8]
  1102c0:	e59b300c 	ldr	r3, [fp, #12]
  1102c4:	e5b71008 	ldr	r1, [r7, #8]!
  1102c8:	e581300c 	str	r3, [r1, #12]
  1102cc:	e5831008 	str	r1, [r3, #8]
  1102d0:	8a0000af 	bhi	110594 <_realloc_r+0x53c>
  1102d4:	e3520013 	cmp	r2, #19
  1102d8:	91a02005 	movls	r2, r5
  1102dc:	91a03007 	movls	r3, r7
  1102e0:	9a000014 	bls	110338 <_realloc_r+0x2e0>
  1102e4:	e5953000 	ldr	r3, [r5]
  1102e8:	e352001b 	cmp	r2, #27
  1102ec:	92852008 	addls	r2, r5, #8
  1102f0:	e58b3008 	str	r3, [fp, #8]
  1102f4:	e5953004 	ldr	r3, [r5, #4]
  1102f8:	e58b300c 	str	r3, [fp, #12]
  1102fc:	928b3010 	addls	r3, fp, #16
  110300:	9a00000c 	bls	110338 <_realloc_r+0x2e0>
  110304:	e5953008 	ldr	r3, [r5, #8]
  110308:	e3520024 	cmp	r2, #36	; 0x24
  11030c:	12852010 	addne	r2, r5, #16
  110310:	02852018 	addeq	r2, r5, #24
  110314:	e58b3010 	str	r3, [fp, #16]
  110318:	e595300c 	ldr	r3, [r5, #12]
  11031c:	e58b3014 	str	r3, [fp, #20]
  110320:	128b3018 	addne	r3, fp, #24
  110324:	05951010 	ldreq	r1, [r5, #16]
  110328:	028b3020 	addeq	r3, fp, #32
  11032c:	058b1018 	streq	r1, [fp, #24]
  110330:	05951014 	ldreq	r1, [r5, #20]
  110334:	058b101c 	streq	r1, [fp, #28]
  110338:	e5921000 	ldr	r1, [r2]
  11033c:	e1a0400c 	mov	r4, ip
  110340:	e1a0900b 	mov	r9, fp
  110344:	e5831000 	str	r1, [r3]
  110348:	e5921004 	ldr	r1, [r2, #4]
  11034c:	e5831004 	str	r1, [r3, #4]
  110350:	e5922008 	ldr	r2, [r2, #8]
  110354:	e5832008 	str	r2, [r3, #8]
  110358:	eaffff5a 	b	1100c8 <_realloc_r+0x70>
  11035c:	e515b008 	ldr	fp, [r5, #-8]
  110360:	e049b00b 	sub	fp, r9, fp
  110364:	e59b1004 	ldr	r1, [fp, #4]
  110368:	e3c11003 	bic	r1, r1, #3
  11036c:	e0843001 	add	r3, r4, r1
  110370:	e1530002 	cmp	r3, r2
  110374:	baffff71 	blt	110140 <_realloc_r+0xe8>
  110378:	e1a0700b 	mov	r7, fp
  11037c:	e59b100c 	ldr	r1, [fp, #12]
  110380:	e5b7c008 	ldr	ip, [r7, #8]!
  110384:	e2442004 	sub	r2, r4, #4
  110388:	e3520024 	cmp	r2, #36	; 0x24
  11038c:	e58c100c 	str	r1, [ip, #12]
  110390:	e581c008 	str	ip, [r1, #8]
  110394:	8a000063 	bhi	110528 <_realloc_r+0x4d0>
  110398:	e3520013 	cmp	r2, #19
  11039c:	91a01005 	movls	r1, r5
  1103a0:	91a02007 	movls	r2, r7
  1103a4:	9a000014 	bls	1103fc <_realloc_r+0x3a4>
  1103a8:	e5951000 	ldr	r1, [r5]
  1103ac:	e352001b 	cmp	r2, #27
  1103b0:	928b2010 	addls	r2, fp, #16
  1103b4:	e58b1008 	str	r1, [fp, #8]
  1103b8:	e5951004 	ldr	r1, [r5, #4]
  1103bc:	e58b100c 	str	r1, [fp, #12]
  1103c0:	92851008 	addls	r1, r5, #8
  1103c4:	9a00000c 	bls	1103fc <_realloc_r+0x3a4>
  1103c8:	e5951008 	ldr	r1, [r5, #8]
  1103cc:	e3520024 	cmp	r2, #36	; 0x24
  1103d0:	e58b1010 	str	r1, [fp, #16]
  1103d4:	12851010 	addne	r1, r5, #16
  1103d8:	e595200c 	ldr	r2, [r5, #12]
  1103dc:	02851018 	addeq	r1, r5, #24
  1103e0:	e58b2014 	str	r2, [fp, #20]
  1103e4:	128b2018 	addne	r2, fp, #24
  1103e8:	0595c010 	ldreq	ip, [r5, #16]
  1103ec:	028b2020 	addeq	r2, fp, #32
  1103f0:	058bc018 	streq	ip, [fp, #24]
  1103f4:	0595c014 	ldreq	ip, [r5, #20]
  1103f8:	058bc01c 	streq	ip, [fp, #28]
  1103fc:	e591c000 	ldr	ip, [r1]
  110400:	e1a04003 	mov	r4, r3
  110404:	e1a0900b 	mov	r9, fp
  110408:	e582c000 	str	ip, [r2]
  11040c:	e5913004 	ldr	r3, [r1, #4]
  110410:	e5823004 	str	r3, [r2, #4]
  110414:	e5913008 	ldr	r3, [r1, #8]
  110418:	e5823008 	str	r3, [r2, #8]
  11041c:	eaffff29 	b	1100c8 <_realloc_r+0x70>
  110420:	e5933004 	ldr	r3, [r3, #4]
  110424:	e2860010 	add	r0, r6, #16
  110428:	e3c33003 	bic	r3, r3, #3
  11042c:	e0833004 	add	r3, r3, r4
  110430:	e1530000 	cmp	r3, r0
  110434:	aa000041 	bge	110540 <_realloc_r+0x4e8>
  110438:	e3110001 	tst	r1, #1
  11043c:	1affff3f 	bne	110140 <_realloc_r+0xe8>
  110440:	e515b008 	ldr	fp, [r5, #-8]
  110444:	e049b00b 	sub	fp, r9, fp
  110448:	e59b1004 	ldr	r1, [fp, #4]
  11044c:	e3c11003 	bic	r1, r1, #3
  110450:	e0813003 	add	r3, r1, r3
  110454:	e1500003 	cmp	r0, r3
  110458:	caffffc3 	bgt	11036c <_realloc_r+0x314>
  11045c:	e1a0700b 	mov	r7, fp
  110460:	e59b100c 	ldr	r1, [fp, #12]
  110464:	e5b70008 	ldr	r0, [r7, #8]!
  110468:	e2442004 	sub	r2, r4, #4
  11046c:	e3520024 	cmp	r2, #36	; 0x24
  110470:	e580100c 	str	r1, [r0, #12]
  110474:	e5810008 	str	r0, [r1, #8]
  110478:	8a00004b 	bhi	1105ac <_realloc_r+0x554>
  11047c:	e3520013 	cmp	r2, #19
  110480:	91a01005 	movls	r1, r5
  110484:	91a02007 	movls	r2, r7
  110488:	9a000014 	bls	1104e0 <_realloc_r+0x488>
  11048c:	e5951000 	ldr	r1, [r5]
  110490:	e352001b 	cmp	r2, #27
  110494:	928b2010 	addls	r2, fp, #16
  110498:	e58b1008 	str	r1, [fp, #8]
  11049c:	e5951004 	ldr	r1, [r5, #4]
  1104a0:	e58b100c 	str	r1, [fp, #12]
  1104a4:	92851008 	addls	r1, r5, #8
  1104a8:	9a00000c 	bls	1104e0 <_realloc_r+0x488>
  1104ac:	e5951008 	ldr	r1, [r5, #8]
  1104b0:	e3520024 	cmp	r2, #36	; 0x24
  1104b4:	e58b1010 	str	r1, [fp, #16]
  1104b8:	12851010 	addne	r1, r5, #16
  1104bc:	e595200c 	ldr	r2, [r5, #12]
  1104c0:	02851018 	addeq	r1, r5, #24
  1104c4:	e58b2014 	str	r2, [fp, #20]
  1104c8:	128b2018 	addne	r2, fp, #24
  1104cc:	05950010 	ldreq	r0, [r5, #16]
  1104d0:	028b2020 	addeq	r2, fp, #32
  1104d4:	058b0018 	streq	r0, [fp, #24]
  1104d8:	05950014 	ldreq	r0, [r5, #20]
  1104dc:	058b001c 	streq	r0, [fp, #28]
  1104e0:	e5910000 	ldr	r0, [r1]
  1104e4:	e5820000 	str	r0, [r2]
  1104e8:	e5910004 	ldr	r0, [r1, #4]
  1104ec:	e5820004 	str	r0, [r2, #4]
  1104f0:	e5911008 	ldr	r1, [r1, #8]
  1104f4:	e5821008 	str	r1, [r2, #8]
  1104f8:	e0433006 	sub	r3, r3, r6
  1104fc:	e08b2006 	add	r2, fp, r6
  110500:	e3833001 	orr	r3, r3, #1
  110504:	e58a2008 	str	r2, [sl, #8]
  110508:	e5823004 	str	r3, [r2, #4]
  11050c:	e1a00008 	mov	r0, r8
  110510:	e59b3004 	ldr	r3, [fp, #4]
  110514:	e2033001 	and	r3, r3, #1
  110518:	e1836006 	orr	r6, r3, r6
  11051c:	e58b6004 	str	r6, [fp, #4]
  110520:	ebffe0f6 	bl	108900 <__malloc_unlock>
  110524:	eafffef4 	b	1100fc <_realloc_r+0xa4>
  110528:	e1a01005 	mov	r1, r5
  11052c:	e1a00007 	mov	r0, r7
  110530:	e1a04003 	mov	r4, r3
  110534:	e1a0900b 	mov	r9, fp
  110538:	ebfffe63 	bl	10fecc <memmove>
  11053c:	eafffee1 	b	1100c8 <_realloc_r+0x70>
  110540:	e0433006 	sub	r3, r3, r6
  110544:	e0899006 	add	r9, r9, r6
  110548:	e3833001 	orr	r3, r3, #1
  11054c:	e58a9008 	str	r9, [sl, #8]
  110550:	e5893004 	str	r3, [r9, #4]
  110554:	e1a00008 	mov	r0, r8
  110558:	e5153004 	ldr	r3, [r5, #-4]
  11055c:	e1a07005 	mov	r7, r5
  110560:	e2033001 	and	r3, r3, #1
  110564:	e1836006 	orr	r6, r3, r6
  110568:	e5056004 	str	r6, [r5, #-4]
  11056c:	ebffe0e3 	bl	108900 <__malloc_unlock>
  110570:	eafffee1 	b	1100fc <_realloc_r+0xa4>
  110574:	e1a01005 	mov	r1, r5
  110578:	ebfffe53 	bl	10fecc <memmove>
  11057c:	eaffff1c 	b	1101f4 <_realloc_r+0x19c>
  110580:	e5173004 	ldr	r3, [r7, #-4]
  110584:	e1a07005 	mov	r7, r5
  110588:	e3c33003 	bic	r3, r3, #3
  11058c:	e0844003 	add	r4, r4, r3
  110590:	eafffecc 	b	1100c8 <_realloc_r+0x70>
  110594:	e1a01005 	mov	r1, r5
  110598:	e1a00007 	mov	r0, r7
  11059c:	e1a0400c 	mov	r4, ip
  1105a0:	e1a0900b 	mov	r9, fp
  1105a4:	ebfffe48 	bl	10fecc <memmove>
  1105a8:	eafffec6 	b	1100c8 <_realloc_r+0x70>
  1105ac:	e1a01005 	mov	r1, r5
  1105b0:	e1a00007 	mov	r0, r7
  1105b4:	e58d3004 	str	r3, [sp, #4]
  1105b8:	ebfffe43 	bl	10fecc <memmove>
  1105bc:	e59d3004 	ldr	r3, [sp, #4]
  1105c0:	eaffffcc 	b	1104f8 <_realloc_r+0x4a0>
	...
  1105e0:	eba2 0003 	sub.w	r0, r2, r3
  1105e4:	4770      	bx	lr
  1105e6:	bf00      	nop

001105e8 <strcmp>:
  1105e8:	7802      	ldrb	r2, [r0, #0]
  1105ea:	780b      	ldrb	r3, [r1, #0]
  1105ec:	2a01      	cmp	r2, #1
  1105ee:	bf28      	it	cs
  1105f0:	429a      	cmpcs	r2, r3
  1105f2:	d1f5      	bne.n	1105e0 <_realloc_r+0x588>
  1105f4:	e96d 4504 	strd	r4, r5, [sp, #-16]!
  1105f8:	ea40 0401 	orr.w	r4, r0, r1
  1105fc:	e9cd 6702 	strd	r6, r7, [sp, #8]
  110600:	f06f 0c00 	mvn.w	ip, #0
  110604:	ea4f 7244 	mov.w	r2, r4, lsl #29
  110608:	b312      	cbz	r2, 110650 <strcmp+0x68>
  11060a:	ea80 0401 	eor.w	r4, r0, r1
  11060e:	f014 0f07 	tst.w	r4, #7
  110612:	d16a      	bne.n	1106ea <strcmp+0x102>
  110614:	f000 0407 	and.w	r4, r0, #7
  110618:	f020 0007 	bic.w	r0, r0, #7
  11061c:	f004 0503 	and.w	r5, r4, #3
  110620:	f021 0107 	bic.w	r1, r1, #7
  110624:	ea4f 05c5 	mov.w	r5, r5, lsl #3
  110628:	e8f0 2304 	ldrd	r2, r3, [r0], #16
  11062c:	f014 0f04 	tst.w	r4, #4
  110630:	e8f1 6704 	ldrd	r6, r7, [r1], #16
  110634:	fa0c f405 	lsl.w	r4, ip, r5
  110638:	ea62 0204 	orn	r2, r2, r4
  11063c:	ea66 0604 	orn	r6, r6, r4
  110640:	d00a      	beq.n	110658 <strcmp+0x70>
  110642:	ea63 0304 	orn	r3, r3, r4
  110646:	4662      	mov	r2, ip
  110648:	ea67 0704 	orn	r7, r7, r4
  11064c:	4666      	mov	r6, ip
  11064e:	e003      	b.n	110658 <strcmp+0x70>
  110650:	e8f0 2304 	ldrd	r2, r3, [r0], #16
  110654:	e8f1 6704 	ldrd	r6, r7, [r1], #16
  110658:	fa82 f54c 	uadd8	r5, r2, ip
  11065c:	ea82 0406 	eor.w	r4, r2, r6
  110660:	faa4 f48c 	sel	r4, r4, ip
  110664:	bb6c      	cbnz	r4, 1106c2 <strcmp+0xda>
  110666:	fa83 f54c 	uadd8	r5, r3, ip
  11066a:	ea83 0507 	eor.w	r5, r3, r7
  11066e:	faa5 f58c 	sel	r5, r5, ip
  110672:	b995      	cbnz	r5, 11069a <strcmp+0xb2>
  110674:	e950 2302 	ldrd	r2, r3, [r0, #-8]
  110678:	e951 6702 	ldrd	r6, r7, [r1, #-8]
  11067c:	fa82 f54c 	uadd8	r5, r2, ip
  110680:	ea82 0406 	eor.w	r4, r2, r6
  110684:	faa4 f48c 	sel	r4, r4, ip
  110688:	fa83 f54c 	uadd8	r5, r3, ip
  11068c:	ea83 0507 	eor.w	r5, r3, r7
  110690:	faa5 f58c 	sel	r5, r5, ip
  110694:	4325      	orrs	r5, r4
  110696:	d0db      	beq.n	110650 <strcmp+0x68>
  110698:	b99c      	cbnz	r4, 1106c2 <strcmp+0xda>
  11069a:	ba2d      	rev	r5, r5
  11069c:	fab5 f485 	clz	r4, r5
  1106a0:	f024 0407 	bic.w	r4, r4, #7
  1106a4:	fa27 f104 	lsr.w	r1, r7, r4
  1106a8:	e9dd 6702 	ldrd	r6, r7, [sp, #8]
  1106ac:	fa23 f304 	lsr.w	r3, r3, r4
  1106b0:	f003 00ff 	and.w	r0, r3, #255	; 0xff
  1106b4:	f001 01ff 	and.w	r1, r1, #255	; 0xff
  1106b8:	e8fd 4504 	ldrd	r4, r5, [sp], #16
  1106bc:	eba0 0001 	sub.w	r0, r0, r1
  1106c0:	4770      	bx	lr
  1106c2:	ba24      	rev	r4, r4
  1106c4:	fab4 f484 	clz	r4, r4
  1106c8:	f024 0407 	bic.w	r4, r4, #7
  1106cc:	fa26 f104 	lsr.w	r1, r6, r4
  1106d0:	e9dd 6702 	ldrd	r6, r7, [sp, #8]
  1106d4:	fa22 f204 	lsr.w	r2, r2, r4
  1106d8:	f002 00ff 	and.w	r0, r2, #255	; 0xff
  1106dc:	f001 01ff 	and.w	r1, r1, #255	; 0xff
  1106e0:	e8fd 4504 	ldrd	r4, r5, [sp], #16
  1106e4:	eba0 0001 	sub.w	r0, r0, r1
  1106e8:	4770      	bx	lr
  1106ea:	f014 0f03 	tst.w	r4, #3
  1106ee:	d13c      	bne.n	11076a <strcmp+0x182>
  1106f0:	f010 0403 	ands.w	r4, r0, #3
  1106f4:	d128      	bne.n	110748 <strcmp+0x160>
  1106f6:	f850 2b08 	ldr.w	r2, [r0], #8
  1106fa:	f851 3b08 	ldr.w	r3, [r1], #8
  1106fe:	fa82 f54c 	uadd8	r5, r2, ip
  110702:	ea82 0503 	eor.w	r5, r2, r3
  110706:	faa5 f58c 	sel	r5, r5, ip
  11070a:	b95d      	cbnz	r5, 110724 <strcmp+0x13c>
  11070c:	f850 2c04 	ldr.w	r2, [r0, #-4]
  110710:	f851 3c04 	ldr.w	r3, [r1, #-4]
  110714:	fa82 f54c 	uadd8	r5, r2, ip
  110718:	ea82 0503 	eor.w	r5, r2, r3
  11071c:	faa5 f58c 	sel	r5, r5, ip
  110720:	2d00      	cmp	r5, #0
  110722:	d0e8      	beq.n	1106f6 <strcmp+0x10e>
  110724:	ba2d      	rev	r5, r5
  110726:	fab5 f485 	clz	r4, r5
  11072a:	f024 0407 	bic.w	r4, r4, #7
  11072e:	fa23 f104 	lsr.w	r1, r3, r4
  110732:	fa22 f204 	lsr.w	r2, r2, r4
  110736:	f002 00ff 	and.w	r0, r2, #255	; 0xff
  11073a:	f001 01ff 	and.w	r1, r1, #255	; 0xff
  11073e:	e8fd 4504 	ldrd	r4, r5, [sp], #16
  110742:	eba0 0001 	sub.w	r0, r0, r1
  110746:	4770      	bx	lr
  110748:	ea4f 04c4 	mov.w	r4, r4, lsl #3
  11074c:	f020 0003 	bic.w	r0, r0, #3
  110750:	f850 2b08 	ldr.w	r2, [r0], #8
  110754:	f021 0103 	bic.w	r1, r1, #3
  110758:	f851 3b08 	ldr.w	r3, [r1], #8
  11075c:	fa0c f404 	lsl.w	r4, ip, r4
  110760:	ea62 0204 	orn	r2, r2, r4
  110764:	ea63 0304 	orn	r3, r3, r4
  110768:	e7c9      	b.n	1106fe <strcmp+0x116>
  11076a:	f010 0403 	ands.w	r4, r0, #3
  11076e:	d01a      	beq.n	1107a6 <strcmp+0x1be>
  110770:	eba1 0104 	sub.w	r1, r1, r4
  110774:	f020 0003 	bic.w	r0, r0, #3
  110778:	07e4      	lsls	r4, r4, #31
  11077a:	f850 2b04 	ldr.w	r2, [r0], #4
  11077e:	d006      	beq.n	11078e <strcmp+0x1a6>
  110780:	d20f      	bcs.n	1107a2 <strcmp+0x1ba>
  110782:	788b      	ldrb	r3, [r1, #2]
  110784:	fa5f f4a2 	uxtb.w	r4, r2, ror #16
  110788:	1ae4      	subs	r4, r4, r3
  11078a:	d106      	bne.n	11079a <strcmp+0x1b2>
  11078c:	b12b      	cbz	r3, 11079a <strcmp+0x1b2>
  11078e:	78cb      	ldrb	r3, [r1, #3]
  110790:	fa5f f4b2 	uxtb.w	r4, r2, ror #24
  110794:	1ae4      	subs	r4, r4, r3
  110796:	d100      	bne.n	11079a <strcmp+0x1b2>
  110798:	b91b      	cbnz	r3, 1107a2 <strcmp+0x1ba>
  11079a:	4620      	mov	r0, r4
  11079c:	f85d 4b10 	ldr.w	r4, [sp], #16
  1107a0:	4770      	bx	lr
  1107a2:	f101 0104 	add.w	r1, r1, #4
  1107a6:	f850 2b04 	ldr.w	r2, [r0], #4
  1107aa:	07cc      	lsls	r4, r1, #31
  1107ac:	f021 0103 	bic.w	r1, r1, #3
  1107b0:	f851 3b04 	ldr.w	r3, [r1], #4
  1107b4:	d848      	bhi.n	110848 <strcmp+0x260>
  1107b6:	d224      	bcs.n	110802 <strcmp+0x21a>
  1107b8:	f022 447f 	bic.w	r4, r2, #4278190080	; 0xff000000
  1107bc:	fa82 f54c 	uadd8	r5, r2, ip
  1107c0:	ea94 2513 	eors.w	r5, r4, r3, lsr #8
  1107c4:	faa5 f58c 	sel	r5, r5, ip
  1107c8:	d10a      	bne.n	1107e0 <strcmp+0x1f8>
  1107ca:	b965      	cbnz	r5, 1107e6 <strcmp+0x1fe>
  1107cc:	f851 3b04 	ldr.w	r3, [r1], #4
  1107d0:	ea84 0402 	eor.w	r4, r4, r2
  1107d4:	ebb4 6f03 	cmp.w	r4, r3, lsl #24
  1107d8:	d10e      	bne.n	1107f8 <strcmp+0x210>
  1107da:	f850 2b04 	ldr.w	r2, [r0], #4
  1107de:	e7eb      	b.n	1107b8 <strcmp+0x1d0>
  1107e0:	ea4f 2313 	mov.w	r3, r3, lsr #8
  1107e4:	e055      	b.n	110892 <strcmp+0x2aa>
  1107e6:	f035 457f 	bics.w	r5, r5, #4278190080	; 0xff000000
  1107ea:	d14d      	bne.n	110888 <strcmp+0x2a0>
  1107ec:	7808      	ldrb	r0, [r1, #0]
  1107ee:	e8fd 4504 	ldrd	r4, r5, [sp], #16
  1107f2:	f1c0 0000 	rsb	r0, r0, #0
  1107f6:	4770      	bx	lr
  1107f8:	ea4f 6212 	mov.w	r2, r2, lsr #24
  1107fc:	f003 03ff 	and.w	r3, r3, #255	; 0xff
  110800:	e047      	b.n	110892 <strcmp+0x2aa>
  110802:	ea02 441c 	and.w	r4, r2, ip, lsr #16
  110806:	fa82 f54c 	uadd8	r5, r2, ip
  11080a:	ea94 4513 	eors.w	r5, r4, r3, lsr #16
  11080e:	faa5 f58c 	sel	r5, r5, ip
  110812:	d10a      	bne.n	11082a <strcmp+0x242>
  110814:	b965      	cbnz	r5, 110830 <strcmp+0x248>
  110816:	f851 3b04 	ldr.w	r3, [r1], #4
  11081a:	ea84 0402 	eor.w	r4, r4, r2
  11081e:	ebb4 4f03 	cmp.w	r4, r3, lsl #16
  110822:	d10c      	bne.n	11083e <strcmp+0x256>
  110824:	f850 2b04 	ldr.w	r2, [r0], #4
  110828:	e7eb      	b.n	110802 <strcmp+0x21a>
  11082a:	ea4f 4313 	mov.w	r3, r3, lsr #16
  11082e:	e030      	b.n	110892 <strcmp+0x2aa>
  110830:	ea15 451c 	ands.w	r5, r5, ip, lsr #16
  110834:	d128      	bne.n	110888 <strcmp+0x2a0>
  110836:	880b      	ldrh	r3, [r1, #0]
  110838:	ea4f 4212 	mov.w	r2, r2, lsr #16
  11083c:	e029      	b.n	110892 <strcmp+0x2aa>
  11083e:	ea4f 4212 	mov.w	r2, r2, lsr #16
  110842:	ea03 431c 	and.w	r3, r3, ip, lsr #16
  110846:	e024      	b.n	110892 <strcmp+0x2aa>
  110848:	f002 04ff 	and.w	r4, r2, #255	; 0xff
  11084c:	fa82 f54c 	uadd8	r5, r2, ip
  110850:	ea94 6513 	eors.w	r5, r4, r3, lsr #24
  110854:	faa5 f58c 	sel	r5, r5, ip
  110858:	d10a      	bne.n	110870 <strcmp+0x288>
  11085a:	b965      	cbnz	r5, 110876 <strcmp+0x28e>
  11085c:	f851 3b04 	ldr.w	r3, [r1], #4
  110860:	ea84 0402 	eor.w	r4, r4, r2
  110864:	ebb4 2f03 	cmp.w	r4, r3, lsl #8
  110868:	d109      	bne.n	11087e <strcmp+0x296>
  11086a:	f850 2b04 	ldr.w	r2, [r0], #4
  11086e:	e7eb      	b.n	110848 <strcmp+0x260>
  110870:	ea4f 6313 	mov.w	r3, r3, lsr #24
  110874:	e00d      	b.n	110892 <strcmp+0x2aa>
  110876:	f015 0fff 	tst.w	r5, #255	; 0xff
  11087a:	d105      	bne.n	110888 <strcmp+0x2a0>
  11087c:	680b      	ldr	r3, [r1, #0]
  11087e:	ea4f 2212 	mov.w	r2, r2, lsr #8
  110882:	f023 437f 	bic.w	r3, r3, #4278190080	; 0xff000000
  110886:	e004      	b.n	110892 <strcmp+0x2aa>
  110888:	f04f 0000 	mov.w	r0, #0
  11088c:	e8fd 4504 	ldrd	r4, r5, [sp], #16
  110890:	4770      	bx	lr
  110892:	ba12      	rev	r2, r2
  110894:	ba1b      	rev	r3, r3
  110896:	fa82 f44c 	uadd8	r4, r2, ip
  11089a:	ea82 0403 	eor.w	r4, r2, r3
  11089e:	faa4 f58c 	sel	r5, r4, ip
  1108a2:	fab5 f485 	clz	r4, r5
  1108a6:	fa02 f204 	lsl.w	r2, r2, r4
  1108aa:	fa03 f304 	lsl.w	r3, r3, r4
  1108ae:	ea4f 6012 	mov.w	r0, r2, lsr #24
  1108b2:	e8fd 4504 	ldrd	r4, r5, [sp], #16
  1108b6:	eba0 6013 	sub.w	r0, r0, r3, lsr #24
  1108ba:	4770      	bx	lr

001108bc <_wcrtomb_r>:
  1108bc:	e92d40f0 	push	{r4, r5, r6, r7, lr}
  1108c0:	e2516000 	subs	r6, r1, #0
  1108c4:	e24dd014 	sub	sp, sp, #20
  1108c8:	e1a04000 	mov	r4, r0
  1108cc:	e1a05003 	mov	r5, r3
  1108d0:	0a000013 	beq	110924 <_wcrtomb_r+0x68>
  1108d4:	e1a07002 	mov	r7, r2
  1108d8:	ebffdd91 	bl	107f24 <__getreent>
  1108dc:	e590c034 	ldr	ip, [r0, #52]	; 0x34
  1108e0:	e3000848 	movw	r0, #2120	; 0x848
  1108e4:	e3400013 	movt	r0, #19
  1108e8:	e1a02007 	mov	r2, r7
  1108ec:	e1a01006 	mov	r1, r6
  1108f0:	e1a03005 	mov	r3, r5
  1108f4:	e35c0000 	cmp	ip, #0
  1108f8:	01a0c000 	moveq	ip, r0
  1108fc:	e1a00004 	mov	r0, r4
  110900:	e59c60e0 	ldr	r6, [ip, #224]	; 0xe0
  110904:	e12fff36 	blx	r6
  110908:	e3700001 	cmn	r0, #1
  11090c:	03a02000 	moveq	r2, #0
  110910:	03a0308a 	moveq	r3, #138	; 0x8a
  110914:	05852000 	streq	r2, [r5]
  110918:	05843000 	streq	r3, [r4]
  11091c:	e28dd014 	add	sp, sp, #20
  110920:	e8bd80f0 	pop	{r4, r5, r6, r7, pc}
  110924:	ebffdd7e 	bl	107f24 <__getreent>
  110928:	e590c034 	ldr	ip, [r0, #52]	; 0x34
  11092c:	e3000848 	movw	r0, #2120	; 0x848
  110930:	e3400013 	movt	r0, #19
  110934:	e1a02006 	mov	r2, r6
  110938:	e1a03005 	mov	r3, r5
  11093c:	e28d1004 	add	r1, sp, #4
  110940:	eaffffeb 	b	1108f4 <_wcrtomb_r+0x38>

00110944 <wcrtomb>:
  110944:	e92d40f0 	push	{r4, r5, r6, r7, lr}
  110948:	e1a04000 	mov	r4, r0
  11094c:	e24dd014 	sub	sp, sp, #20
  110950:	e1a07001 	mov	r7, r1
  110954:	e1a06002 	mov	r6, r2
  110958:	ebffdd71 	bl	107f24 <__getreent>
  11095c:	e3540000 	cmp	r4, #0
  110960:	e1a05000 	mov	r5, r0
  110964:	0a000012 	beq	1109b4 <wcrtomb+0x70>
  110968:	ebffdd6d 	bl	107f24 <__getreent>
  11096c:	e590c034 	ldr	ip, [r0, #52]	; 0x34
  110970:	e3000848 	movw	r0, #2120	; 0x848
  110974:	e3400013 	movt	r0, #19
  110978:	e1a02007 	mov	r2, r7
  11097c:	e1a01004 	mov	r1, r4
  110980:	e1a03006 	mov	r3, r6
  110984:	e35c0000 	cmp	ip, #0
  110988:	01a0c000 	moveq	ip, r0
  11098c:	e1a00005 	mov	r0, r5
  110990:	e59c40e0 	ldr	r4, [ip, #224]	; 0xe0
  110994:	e12fff34 	blx	r4
  110998:	e3700001 	cmn	r0, #1
  11099c:	03a02000 	moveq	r2, #0
  1109a0:	03a0308a 	moveq	r3, #138	; 0x8a
  1109a4:	05862000 	streq	r2, [r6]
  1109a8:	05853000 	streq	r3, [r5]
  1109ac:	e28dd014 	add	sp, sp, #20
  1109b0:	e8bd80f0 	pop	{r4, r5, r6, r7, pc}
  1109b4:	ebffdd5a 	bl	107f24 <__getreent>
  1109b8:	e590c034 	ldr	ip, [r0, #52]	; 0x34
  1109bc:	e3000848 	movw	r0, #2120	; 0x848
  1109c0:	e3400013 	movt	r0, #19
  1109c4:	e1a02004 	mov	r2, r4
  1109c8:	e1a03006 	mov	r3, r6
  1109cc:	e28d1004 	add	r1, sp, #4
  1109d0:	eaffffeb 	b	110984 <wcrtomb+0x40>

001109d4 <_wctomb_r>:
  1109d4:	e92d41f0 	push	{r4, r5, r6, r7, r8, lr}
  1109d8:	e1a04000 	mov	r4, r0
  1109dc:	e1a05001 	mov	r5, r1
  1109e0:	e1a06002 	mov	r6, r2
  1109e4:	e1a07003 	mov	r7, r3
  1109e8:	ebffdd4d 	bl	107f24 <__getreent>
  1109ec:	e590c034 	ldr	ip, [r0, #52]	; 0x34
  1109f0:	e3000848 	movw	r0, #2120	; 0x848
  1109f4:	e3400013 	movt	r0, #19
  1109f8:	e1a03007 	mov	r3, r7
  1109fc:	e1a02006 	mov	r2, r6
  110a00:	e1a01005 	mov	r1, r5
  110a04:	e35c0000 	cmp	ip, #0
  110a08:	01a0c000 	moveq	ip, r0
  110a0c:	e1a00004 	mov	r0, r4
  110a10:	e59ce0e0 	ldr	lr, [ip, #224]	; 0xe0
  110a14:	e1a0c00e 	mov	ip, lr
  110a18:	e8bd41f0 	pop	{r4, r5, r6, r7, r8, lr}
  110a1c:	e12fff1c 	bx	ip

00110a20 <__ascii_wctomb>:
  110a20:	e3510000 	cmp	r1, #0
  110a24:	0a000005 	beq	110a40 <__ascii_wctomb+0x20>
  110a28:	e35200ff 	cmp	r2, #255	; 0xff
  110a2c:	95c12000 	strbls	r2, [r1]
  110a30:	83e01000 	mvnhi	r1, #0
  110a34:	93a01001 	movls	r1, #1
  110a38:	83a0308a 	movhi	r3, #138	; 0x8a
  110a3c:	85803000 	strhi	r3, [r0]
  110a40:	e1a00001 	mov	r0, r1
  110a44:	e12fff1e 	bx	lr

00110a48 <__aeabi_idiv>:
  110a48:	e3510000 	cmp	r1, #0
  110a4c:	0a000081 	beq	110c58 <.divsi3_skip_div0_test+0x208>

00110a50 <.divsi3_skip_div0_test>:
  110a50:	e020c001 	eor	ip, r0, r1
  110a54:	42611000 	rsbmi	r1, r1, #0
  110a58:	e2512001 	subs	r2, r1, #1
  110a5c:	0a000070 	beq	110c24 <.divsi3_skip_div0_test+0x1d4>
  110a60:	e1b03000 	movs	r3, r0
  110a64:	42603000 	rsbmi	r3, r0, #0
  110a68:	e1530001 	cmp	r3, r1
  110a6c:	9a00006f 	bls	110c30 <.divsi3_skip_div0_test+0x1e0>
  110a70:	e1110002 	tst	r1, r2
  110a74:	0a000071 	beq	110c40 <.divsi3_skip_div0_test+0x1f0>
  110a78:	e16f2f13 	clz	r2, r3
  110a7c:	e16f0f11 	clz	r0, r1
  110a80:	e0402002 	sub	r2, r0, r2
  110a84:	e272201f 	rsbs	r2, r2, #31
  110a88:	10822082 	addne	r2, r2, r2, lsl #1
  110a8c:	e3a00000 	mov	r0, #0
  110a90:	108ff102 	addne	pc, pc, r2, lsl #2
  110a94:	e320f000 	nop	{0}
  110a98:	e1530f81 	cmp	r3, r1, lsl #31
  110a9c:	e0a00000 	adc	r0, r0, r0
  110aa0:	20433f81 	subcs	r3, r3, r1, lsl #31
  110aa4:	e1530f01 	cmp	r3, r1, lsl #30
  110aa8:	e0a00000 	adc	r0, r0, r0
  110aac:	20433f01 	subcs	r3, r3, r1, lsl #30
  110ab0:	e1530e81 	cmp	r3, r1, lsl #29
  110ab4:	e0a00000 	adc	r0, r0, r0
  110ab8:	20433e81 	subcs	r3, r3, r1, lsl #29
  110abc:	e1530e01 	cmp	r3, r1, lsl #28
  110ac0:	e0a00000 	adc	r0, r0, r0
  110ac4:	20433e01 	subcs	r3, r3, r1, lsl #28
  110ac8:	e1530d81 	cmp	r3, r1, lsl #27
  110acc:	e0a00000 	adc	r0, r0, r0
  110ad0:	20433d81 	subcs	r3, r3, r1, lsl #27
  110ad4:	e1530d01 	cmp	r3, r1, lsl #26
  110ad8:	e0a00000 	adc	r0, r0, r0
  110adc:	20433d01 	subcs	r3, r3, r1, lsl #26
  110ae0:	e1530c81 	cmp	r3, r1, lsl #25
  110ae4:	e0a00000 	adc	r0, r0, r0
  110ae8:	20433c81 	subcs	r3, r3, r1, lsl #25
  110aec:	e1530c01 	cmp	r3, r1, lsl #24
  110af0:	e0a00000 	adc	r0, r0, r0
  110af4:	20433c01 	subcs	r3, r3, r1, lsl #24
  110af8:	e1530b81 	cmp	r3, r1, lsl #23
  110afc:	e0a00000 	adc	r0, r0, r0
  110b00:	20433b81 	subcs	r3, r3, r1, lsl #23
  110b04:	e1530b01 	cmp	r3, r1, lsl #22
  110b08:	e0a00000 	adc	r0, r0, r0
  110b0c:	20433b01 	subcs	r3, r3, r1, lsl #22
  110b10:	e1530a81 	cmp	r3, r1, lsl #21
  110b14:	e0a00000 	adc	r0, r0, r0
  110b18:	20433a81 	subcs	r3, r3, r1, lsl #21
  110b1c:	e1530a01 	cmp	r3, r1, lsl #20
  110b20:	e0a00000 	adc	r0, r0, r0
  110b24:	20433a01 	subcs	r3, r3, r1, lsl #20
  110b28:	e1530981 	cmp	r3, r1, lsl #19
  110b2c:	e0a00000 	adc	r0, r0, r0
  110b30:	20433981 	subcs	r3, r3, r1, lsl #19
  110b34:	e1530901 	cmp	r3, r1, lsl #18
  110b38:	e0a00000 	adc	r0, r0, r0
  110b3c:	20433901 	subcs	r3, r3, r1, lsl #18
  110b40:	e1530881 	cmp	r3, r1, lsl #17
  110b44:	e0a00000 	adc	r0, r0, r0
  110b48:	20433881 	subcs	r3, r3, r1, lsl #17
  110b4c:	e1530801 	cmp	r3, r1, lsl #16
  110b50:	e0a00000 	adc	r0, r0, r0
  110b54:	20433801 	subcs	r3, r3, r1, lsl #16
  110b58:	e1530781 	cmp	r3, r1, lsl #15
  110b5c:	e0a00000 	adc	r0, r0, r0
  110b60:	20433781 	subcs	r3, r3, r1, lsl #15
  110b64:	e1530701 	cmp	r3, r1, lsl #14
  110b68:	e0a00000 	adc	r0, r0, r0
  110b6c:	20433701 	subcs	r3, r3, r1, lsl #14
  110b70:	e1530681 	cmp	r3, r1, lsl #13
  110b74:	e0a00000 	adc	r0, r0, r0
  110b78:	20433681 	subcs	r3, r3, r1, lsl #13
  110b7c:	e1530601 	cmp	r3, r1, lsl #12
  110b80:	e0a00000 	adc	r0, r0, r0
  110b84:	20433601 	subcs	r3, r3, r1, lsl #12
  110b88:	e1530581 	cmp	r3, r1, lsl #11
  110b8c:	e0a00000 	adc	r0, r0, r0
  110b90:	20433581 	subcs	r3, r3, r1, lsl #11
  110b94:	e1530501 	cmp	r3, r1, lsl #10
  110b98:	e0a00000 	adc	r0, r0, r0
  110b9c:	20433501 	subcs	r3, r3, r1, lsl #10
  110ba0:	e1530481 	cmp	r3, r1, lsl #9
  110ba4:	e0a00000 	adc	r0, r0, r0
  110ba8:	20433481 	subcs	r3, r3, r1, lsl #9
  110bac:	e1530401 	cmp	r3, r1, lsl #8
  110bb0:	e0a00000 	adc	r0, r0, r0
  110bb4:	20433401 	subcs	r3, r3, r1, lsl #8
  110bb8:	e1530381 	cmp	r3, r1, lsl #7
  110bbc:	e0a00000 	adc	r0, r0, r0
  110bc0:	20433381 	subcs	r3, r3, r1, lsl #7
  110bc4:	e1530301 	cmp	r3, r1, lsl #6
  110bc8:	e0a00000 	adc	r0, r0, r0
  110bcc:	20433301 	subcs	r3, r3, r1, lsl #6
  110bd0:	e1530281 	cmp	r3, r1, lsl #5
  110bd4:	e0a00000 	adc	r0, r0, r0
  110bd8:	20433281 	subcs	r3, r3, r1, lsl #5
  110bdc:	e1530201 	cmp	r3, r1, lsl #4
  110be0:	e0a00000 	adc	r0, r0, r0
  110be4:	20433201 	subcs	r3, r3, r1, lsl #4
  110be8:	e1530181 	cmp	r3, r1, lsl #3
  110bec:	e0a00000 	adc	r0, r0, r0
  110bf0:	20433181 	subcs	r3, r3, r1, lsl #3
  110bf4:	e1530101 	cmp	r3, r1, lsl #2
  110bf8:	e0a00000 	adc	r0, r0, r0
  110bfc:	20433101 	subcs	r3, r3, r1, lsl #2
  110c00:	e1530081 	cmp	r3, r1, lsl #1
  110c04:	e0a00000 	adc	r0, r0, r0
  110c08:	20433081 	subcs	r3, r3, r1, lsl #1
  110c0c:	e1530001 	cmp	r3, r1
  110c10:	e0a00000 	adc	r0, r0, r0
  110c14:	20433001 	subcs	r3, r3, r1
  110c18:	e35c0000 	cmp	ip, #0
  110c1c:	42600000 	rsbmi	r0, r0, #0
  110c20:	e12fff1e 	bx	lr
  110c24:	e13c0000 	teq	ip, r0
  110c28:	42600000 	rsbmi	r0, r0, #0
  110c2c:	e12fff1e 	bx	lr
  110c30:	33a00000 	movcc	r0, #0
  110c34:	01a00fcc 	asreq	r0, ip, #31
  110c38:	03800001 	orreq	r0, r0, #1
  110c3c:	e12fff1e 	bx	lr
  110c40:	e16f2f11 	clz	r2, r1
  110c44:	e262201f 	rsb	r2, r2, #31
  110c48:	e35c0000 	cmp	ip, #0
  110c4c:	e1a00233 	lsr	r0, r3, r2
  110c50:	42600000 	rsbmi	r0, r0, #0
  110c54:	e12fff1e 	bx	lr
  110c58:	e3500000 	cmp	r0, #0
  110c5c:	c3e00102 	mvngt	r0, #-2147483648	; 0x80000000
  110c60:	b3a00102 	movlt	r0, #-2147483648	; 0x80000000
  110c64:	eaffdc68 	b	107e0c <__aeabi_idiv0>

00110c68 <__aeabi_idivmod>:
  110c68:	e3510000 	cmp	r1, #0
  110c6c:	0afffff9 	beq	110c58 <.divsi3_skip_div0_test+0x208>
  110c70:	e92d4003 	push	{r0, r1, lr}
  110c74:	ebffff75 	bl	110a50 <.divsi3_skip_div0_test>
  110c78:	e8bd4006 	pop	{r1, r2, lr}
  110c7c:	e0030092 	mul	r3, r2, r0
  110c80:	e0411003 	sub	r1, r1, r3
  110c84:	e12fff1e 	bx	lr

00110c88 <__aeabi_uldivmod>:
  110c88:	e3530000 	cmp	r3, #0
  110c8c:	03520000 	cmpeq	r2, #0
  110c90:	1a000004 	bne	110ca8 <__aeabi_uldivmod+0x20>
  110c94:	e3510000 	cmp	r1, #0
  110c98:	03500000 	cmpeq	r0, #0
  110c9c:	13e01000 	mvnne	r1, #0
  110ca0:	13e00000 	mvnne	r0, #0
  110ca4:	eaffdc58 	b	107e0c <__aeabi_idiv0>
  110ca8:	e24dd008 	sub	sp, sp, #8
  110cac:	e92d6000 	push	{sp, lr}
  110cb0:	eb000004 	bl	110cc8 <__udivmoddi4>
  110cb4:	e59de004 	ldr	lr, [sp, #4]
  110cb8:	e28dd008 	add	sp, sp, #8
  110cbc:	e8bd000c 	pop	{r2, r3}
  110cc0:	e12fff1e 	bx	lr
  110cc4:	00000000 	andeq	r0, r0, r0

00110cc8 <__udivmoddi4>:
  110cc8:	e1510003 	cmp	r1, r3
  110ccc:	e92d4030 	push	{r4, r5, lr}
  110cd0:	01500002 	cmpeq	r0, r2
  110cd4:	e59de00c 	ldr	lr, [sp, #12]
  110cd8:	3a000032 	bcc	110da8 <__udivmoddi4+0xe0>
  110cdc:	e3530000 	cmp	r3, #0
  110ce0:	ec432b30 	vmov	d16, r2, r3
  110ce4:	016fcf12 	clzeq	ip, r2
  110ce8:	116f4f13 	clzne	r4, r3
  110cec:	028c4020 	addeq	r4, ip, #32
  110cf0:	e3510000 	cmp	r1, #0
  110cf4:	016fcf10 	clzeq	ip, r0
  110cf8:	116fcf11 	clzne	ip, r1
  110cfc:	028cc020 	addeq	ip, ip, #32
  110d00:	e044c00c 	sub	ip, r4, ip
  110d04:	ee01cb90 	vmov.32	d17[0], ip
  110d08:	f37104a0 	vshl.u64	d16, d16, d17
  110d0c:	ec532b30 	vmov	r2, r3, d16
  110d10:	e1510003 	cmp	r1, r3
  110d14:	01500002 	cmpeq	r0, r2
  110d18:	2a000027 	bcs	110dbc <__udivmoddi4+0xf4>
  110d1c:	f2c00010 	vmov.i32	d16, #0	; 0x00000000
  110d20:	e35c0000 	cmp	ip, #0
  110d24:	0a000020 	beq	110dac <__udivmoddi4+0xe4>
  110d28:	e1b050a3 	lsrs	r5, r3, #1
  110d2c:	e1a04062 	rrx	r4, r2
  110d30:	e1a0300c 	mov	r3, ip
  110d34:	ea000007 	b	110d58 <__udivmoddi4+0x90>
  110d38:	e0500004 	subs	r0, r0, r4
  110d3c:	e0c11005 	sbc	r1, r1, r5
  110d40:	e0900000 	adds	r0, r0, r0
  110d44:	e0a11001 	adc	r1, r1, r1
  110d48:	e2900001 	adds	r0, r0, #1
  110d4c:	e2a11000 	adc	r1, r1, #0
  110d50:	e2533001 	subs	r3, r3, #1
  110d54:	0a000006 	beq	110d74 <__udivmoddi4+0xac>
  110d58:	e1510005 	cmp	r1, r5
  110d5c:	01500004 	cmpeq	r0, r4
  110d60:	2afffff4 	bcs	110d38 <__udivmoddi4+0x70>
  110d64:	e0900000 	adds	r0, r0, r0
  110d68:	e0a11001 	adc	r1, r1, r1
  110d6c:	e2533001 	subs	r3, r3, #1
  110d70:	1afffff8 	bne	110d58 <__udivmoddi4+0x90>
  110d74:	ec410b31 	vmov	d17, r0, r1
  110d78:	e1a00c30 	lsr	r0, r0, ip
  110d7c:	e26c3020 	rsb	r3, ip, #32
  110d80:	ee02cb90 	vmov.32	d18[0], ip
  110d84:	e1800311 	orr	r0, r0, r1, lsl r3
  110d88:	e24c2020 	sub	r2, ip, #32
  110d8c:	f27008a1 	vadd.i64	d16, d16, d17
  110d90:	e1800231 	orr	r0, r0, r1, lsr r2
  110d94:	e1a01c31 	lsr	r1, r1, ip
  110d98:	ec410b31 	vmov	d17, r0, r1
  110d9c:	f37214a1 	vshl.u64	d17, d17, d18
  110da0:	f37008a1 	vsub.i64	d16, d16, d17
  110da4:	ea000000 	b	110dac <__udivmoddi4+0xe4>
  110da8:	f2c00010 	vmov.i32	d16, #0	; 0x00000000
  110dac:	e35e0000 	cmp	lr, #0
  110db0:	11ce00f0 	strdne	r0, [lr]
  110db4:	ec510b30 	vmov	r0, r1, d16
  110db8:	e8bd8030 	pop	{r4, r5, pc}
  110dbc:	eddf0b05 	vldr	d16, [pc, #20]	; 110dd8 <__udivmoddi4+0x110>
  110dc0:	e0500002 	subs	r0, r0, r2
  110dc4:	e0c11003 	sbc	r1, r1, r3
  110dc8:	ee01cb90 	vmov.32	d17[0], ip
  110dcc:	f37104a0 	vshl.u64	d16, d16, d17
  110dd0:	eaffffd2 	b	110d20 <__udivmoddi4+0x58>
  110dd4:	e320f000 	nop	{0}
  110dd8:	00000001 	.word	0x00000001
  110ddc:	00000000 	.word	0x00000000

00110de0 <__generic_gxx_active_p>:
  110de0:	e3a00000 	mov	r0, #0
  110de4:	e12fff1e 	bx	lr

00110de8 <__generic_gxx_key_create>:
  110de8:	e3e00000 	mvn	r0, #0
  110dec:	e12fff1e 	bx	lr

00110df0 <__generic_gxx_once>:
  110df0:	eafffffc 	b	110de8 <__generic_gxx_key_create>

00110df4 <__generic_gxx_key_delete>:
  110df4:	e3e00000 	mvn	r0, #0
  110df8:	e12fff1e 	bx	lr

00110dfc <__generic_gxx_getspecific>:
  110dfc:	e3a00000 	mov	r0, #0
  110e00:	e12fff1e 	bx	lr

00110e04 <__generic_gxx_setspecific>:
  110e04:	e3e00000 	mvn	r0, #0
  110e08:	e12fff1e 	bx	lr

00110e0c <__generic_gxx_recursive_mutex_init_function>:
  110e0c:	e12fff1e 	bx	lr

00110e10 <__generic_gxx_mutex_init_function>:
  110e10:	eafffffd 	b	110e0c <__generic_gxx_recursive_mutex_init_function>

00110e14 <__generic_gxx_recursive_mutex_destroy>:
  110e14:	e3a00000 	mov	r0, #0
  110e18:	e12fff1e 	bx	lr

00110e1c <__generic_gxx_recursive_mutex_unlock>:
  110e1c:	eafffffc 	b	110e14 <__generic_gxx_recursive_mutex_destroy>

00110e20 <__generic_gxx_recursive_mutex_trylock>:
  110e20:	eafffffb 	b	110e14 <__generic_gxx_recursive_mutex_destroy>

00110e24 <__generic_gxx_recursive_mutex_lock>:
  110e24:	eafffffa 	b	110e14 <__generic_gxx_recursive_mutex_destroy>

00110e28 <__generic_gxx_mutex_unlock>:
  110e28:	eafffff9 	b	110e14 <__generic_gxx_recursive_mutex_destroy>

00110e2c <__generic_gxx_mutex_trylock>:
  110e2c:	eafffff8 	b	110e14 <__generic_gxx_recursive_mutex_destroy>

00110e30 <__generic_gxx_mutex_lock>:
  110e30:	eafffff7 	b	110e14 <__generic_gxx_recursive_mutex_destroy>

00110e34 <__generic_gxx_mutex_destroy>:
  110e34:	eafffff6 	b	110e14 <__generic_gxx_recursive_mutex_destroy>

00110e38 <__cs3_premain>:
  110e38:	e92d4010 	push	{r4, lr}
  110e3c:	eb000051 	bl	110f88 <__libc_init_array>
  110e40:	e3003000 	movw	r3, #0
  110e44:	e3a02000 	mov	r2, #0
  110e48:	e3403000 	movt	r3, #0
  110e4c:	e3530000 	cmp	r3, #0
  110e50:	15930000 	ldrne	r0, [r3]
  110e54:	01a00003 	moveq	r0, r3
  110e58:	e3003000 	movw	r3, #0
  110e5c:	e3403000 	movt	r3, #0
  110e60:	e3530000 	cmp	r3, #0
  110e64:	15931000 	ldrne	r1, [r3]
  110e68:	01a01003 	moveq	r1, r3
  110e6c:	ebffbcec 	bl	100224 <main>
  110e70:	e3003000 	movw	r3, #0
  110e74:	e3403000 	movt	r3, #0
  110e78:	e3530000 	cmp	r3, #0
  110e7c:	0a000000 	beq	110e84 <__cs3_premain+0x4c>
  110e80:	e320f000 	nop	{0}
  110e84:	eafffffe 	b	110e84 <__cs3_premain+0x4c>

00110e88 <__vfp_init>:
  110e88:	ee100f10 	mrc	15, 0, r0, cr0, cr0, {0}
  110e8c:	e3100702 	tst	r0, #524288	; 0x80000
  110e90:	1a000006 	bne	110eb0 <__vfp_init+0x28>
  110e94:	e2101a0f 	ands	r1, r0, #61440	; 0xf000
  110e98:	0a000009 	beq	110ec4 <__vfp_init+0x3c>
  110e9c:	e3510a07 	cmp	r1, #28672	; 0x7000
  110ea0:	0a000007 	beq	110ec4 <__vfp_init+0x3c>
  110ea4:	e200180f 	and	r1, r0, #983040	; 0xf0000
  110ea8:	e3510807 	cmp	r1, #458752	; 0x70000
  110eac:	ba000004 	blt	110ec4 <__vfp_init+0x3c>
  110eb0:	ee110f50 	mrc	15, 0, r0, cr1, cr0, {2}
  110eb4:	e380060f 	orr	r0, r0, #15728640	; 0xf00000
  110eb8:	ee010f50 	mcr	15, 0, r0, cr1, cr0, {2}
  110ebc:	e3a00000 	mov	r0, #0
  110ec0:	ee071f95 	mcr	15, 0, r1, cr7, cr5, {4}
  110ec4:	e3a00101 	mov	r0, #1073741824	; 0x40000000
  110ec8:	eee80a10 	vmsr	fpexc, r0
  110ecc:	eef00a10 	vmrs	r0, fpsid
  110ed0:	e20014ff 	and	r1, r0, #-16777216	; 0xff000000
  110ed4:	e3510441 	cmp	r1, #1090519040	; 0x41000000
  110ed8:	1a000007 	bne	110efc <__vfp_init+0x74>
  110edc:	e200187f 	and	r1, r0, #8323072	; 0x7f0000
  110ee0:	e3510801 	cmp	r1, #65536	; 0x10000
  110ee4:	da000002 	ble	110ef4 <__vfp_init+0x6c>
  110ee8:	eef60a10 	vmrs	r0, mvfr1
  110eec:	e31000f0 	tst	r0, #240	; 0xf0
  110ef0:	1a000001 	bne	110efc <__vfp_init+0x74>
  110ef4:	e3a00403 	mov	r0, #50331648	; 0x3000000
  110ef8:	eee10a10 	vmsr	fpscr, r0
  110efc:	e12fff1e 	bx	lr

00110f00 <_sbrk>:
  110f00:	e30029b4 	movw	r2, #2484	; 0x9b4
  110f04:	e30019b8 	movw	r1, #2488	; 0x9b8
  110f08:	e3402013 	movt	r2, #19
  110f0c:	e3401013 	movt	r1, #19
  110f10:	e5923000 	ldr	r3, [r2]
  110f14:	e5911000 	ldr	r1, [r1]
  110f18:	e92d4010 	push	{r4, lr}
  110f1c:	e0830000 	add	r0, r3, r0
  110f20:	e3510000 	cmp	r1, #0
  110f24:	11510000 	cmpne	r1, r0
  110f28:	3a000009 	bcc	110f54 <_sbrk+0x54>
  110f2c:	e1a0100d 	mov	r1, sp
  110f30:	e1530001 	cmp	r3, r1
  110f34:	9a000002 	bls	110f44 <_sbrk+0x44>
  110f38:	e5820000 	str	r0, [r2]
  110f3c:	e1a00003 	mov	r0, r3
  110f40:	e8bd8010 	pop	{r4, pc}
  110f44:	e2801c01 	add	r1, r0, #256	; 0x100
  110f48:	e1a0c00d 	mov	ip, sp
  110f4c:	e15c0001 	cmp	ip, r1
  110f50:	2afffff8 	bcs	110f38 <_sbrk+0x38>
  110f54:	ebffdbef 	bl	107f18 <__errno>
  110f58:	e3a0200c 	mov	r2, #12
  110f5c:	e3e03000 	mvn	r3, #0
  110f60:	e5802000 	str	r2, [r0]
  110f64:	e1a00003 	mov	r0, r3
  110f68:	e8bd8010 	pop	{r4, pc}

00110f6c <__cs3_isr_interrupt>:
  110f6c:	eafffffe 	b	110f6c <__cs3_isr_interrupt>

00110f70 <__cs3_isr_undef>:
  110f70:	eafffffe 	b	110f70 <__cs3_isr_undef>

00110f74 <__cs3_isr_swi>:
  110f74:	eafffffe 	b	110f74 <__cs3_isr_swi>

00110f78 <__cs3_isr_pabort>:
  110f78:	eafffffe 	b	110f78 <__cs3_isr_pabort>

00110f7c <__cs3_isr_dabort>:
  110f7c:	eafffffe 	b	110f7c <__cs3_isr_dabort>

00110f80 <__cs3_isr_irq>:
  110f80:	eafffffe 	b	110f80 <__cs3_isr_irq>

00110f84 <__cs3_isr_fiq>:
  110f84:	eafffffe 	b	110f84 <__cs3_isr_fiq>

00110f88 <__libc_init_array>:
  110f88:	e92d4070 	push	{r4, r5, r6, lr}
  110f8c:	e3056a58 	movw	r6, #23128	; 0x5a58
  110f90:	e3055a54 	movw	r5, #23124	; 0x5a54
  110f94:	e3406012 	movt	r6, #18
  110f98:	e3405012 	movt	r5, #18
  110f9c:	e0466005 	sub	r6, r6, r5
  110fa0:	e1b06146 	asrs	r6, r6, #2
  110fa4:	13a04000 	movne	r4, #0
  110fa8:	0a000004 	beq	110fc0 <__libc_init_array+0x38>
  110fac:	e2844001 	add	r4, r4, #1
  110fb0:	e4953004 	ldr	r3, [r5], #4
  110fb4:	e12fff33 	blx	r3
  110fb8:	e1560004 	cmp	r6, r4
  110fbc:	1afffffa 	bne	110fac <__libc_init_array+0x24>
  110fc0:	e3056a68 	movw	r6, #23144	; 0x5a68
  110fc4:	e3055a58 	movw	r5, #23128	; 0x5a58
  110fc8:	e3406012 	movt	r6, #18
  110fcc:	e3405012 	movt	r5, #18
  110fd0:	e0466005 	sub	r6, r6, r5
  110fd4:	eb005298 	bl	125a3c <_init>
  110fd8:	e1b06146 	asrs	r6, r6, #2
  110fdc:	13a04000 	movne	r4, #0
  110fe0:	0a000005 	beq	110ffc <__libc_init_array+0x74>
  110fe4:	e2844001 	add	r4, r4, #1
  110fe8:	e4953004 	ldr	r3, [r5], #4
  110fec:	e12fff33 	blx	r3
  110ff0:	e1560004 	cmp	r6, r4
  110ff4:	1afffffa 	bne	110fe4 <__libc_init_array+0x5c>
  110ff8:	e8bd8070 	pop	{r4, r5, r6, pc}
  110ffc:	e8bd8070 	pop	{r4, r5, r6, pc}

Disassembly of section .rodata:

00111010 <dv9.6970-0x6b8>:
  111010:	2f2f2f2f 	.word	0x2f2f2f2f
  111014:	2f2f2f2f 	.word	0x2f2f2f2f
  111018:	2f2f2f2f 	.word	0x2f2f2f2f
  11101c:	2f2f2f2f 	.word	0x2f2f2f2f
  111020:	2f2f2f2f 	.word	0x2f2f2f2f
  111024:	2f2f2f2f 	.word	0x2f2f2f2f
  111028:	2f2f2f2f 	.word	0x2f2f2f2f
  11102c:	2f2f2f2f 	.word	0x2f2f2f2f
  111030:	2f2f2f2f 	.word	0x2f2f2f2f
  111034:	2f2f2f2f 	.word	0x2f2f2f2f
  111038:	2f2f2f2f 	.word	0x2f2f2f2f
  11103c:	2f2f2f2f 	.word	0x2f2f2f2f
  111040:	2f2f2f2f 	.word	0x2f2f2f2f
  111044:	0d0a2f2f 	.word	0x0d0a2f2f
  111048:	00000000 	.word	0x00000000
  11104c:	2f2f2f2f 	.word	0x2f2f2f2f
  111050:	2f2f2f2f 	.word	0x2f2f2f2f
  111054:	2f2f2f2f 	.word	0x2f2f2f2f
  111058:	2f2f2f2f 	.word	0x2f2f2f2f
  11105c:	202f2f2f 	.word	0x202f2f2f
  111060:	20202020 	.word	0x20202020
  111064:	4a4f5250 	.word	0x4a4f5250
  111068:	204f5445 	.word	0x204f5445
  11106c:	20434354 	.word	0x20434354
  111070:	2f202020 	.word	0x2f202020
  111074:	2f2f2f2f 	.word	0x2f2f2f2f
  111078:	2f2f2f2f 	.word	0x2f2f2f2f
  11107c:	2f2f2f2f 	.word	0x2f2f2f2f
  111080:	0d0a2f2f 	.word	0x0d0a2f2f
  111084:	00000000 	.word	0x00000000
  111088:	2f2f2f2f 	.word	0x2f2f2f2f
  11108c:	2f2f2f2f 	.word	0x2f2f2f2f
  111090:	2f2f2f2f 	.word	0x2f2f2f2f
  111094:	202f2f2f 	.word	0x202f2f2f
  111098:	65646e41 	.word	0x65646e41
  11109c:	6e6f7372 	.word	0x6e6f7372
  1110a0:	696f4320 	.word	0x696f4320
  1110a4:	6172626d 	.word	0x6172626d
  1110a8:	6e654d20 	.word	0x6e654d20
  1110ac:	20736564 	.word	0x20736564
  1110b0:	2f2f2f2f 	.word	0x2f2f2f2f
  1110b4:	2f2f2f2f 	.word	0x2f2f2f2f
  1110b8:	2f2f2f2f 	.word	0x2f2f2f2f
  1110bc:	0d0a2f2f 	.word	0x0d0a2f2f
  1110c0:	00000000 	.word	0x00000000
  1110c4:	2f2f2f2f 	.word	0x2f2f2f2f
  1110c8:	2f2f2f2f 	.word	0x2f2f2f2f
  1110cc:	2f2f2f2f 	.word	0x2f2f2f2f
  1110d0:	2f2f2f2f 	.word	0x2f2f2f2f
  1110d4:	2f2f2f2f 	.word	0x2f2f2f2f
  1110d8:	2f2f2f2f 	.word	0x2f2f2f2f
  1110dc:	2f2f2f2f 	.word	0x2f2f2f2f
  1110e0:	2f2f2f2f 	.word	0x2f2f2f2f
  1110e4:	2f2f2f2f 	.word	0x2f2f2f2f
  1110e8:	2f2f2f2f 	.word	0x2f2f2f2f
  1110ec:	2f2f2f2f 	.word	0x2f2f2f2f
  1110f0:	2f2f2f2f 	.word	0x2f2f2f2f
  1110f4:	2f2f2f2f 	.word	0x2f2f2f2f
  1110f8:	0a0a2f2f 	.word	0x0a0a2f2f
  1110fc:	00000d0a 	.word	0x00000d0a
  111100:	74736554 	.word	0x74736554
  111104:	6f642065 	.word	0x6f642065
  111108:	73756320 	.word	0x73756320
  11110c:	63206f74 	.word	0x63206f74
  111110:	75706d6f 	.word	0x75706d6f
  111114:	69636174 	.word	0x69636174
  111118:	6c616e6f 	.word	0x6c616e6f
  11111c:	206f6420 	.word	0x206f6420
  111120:	20464b55 	.word	0x20464b55
  111124:	00000d0a 	.word	0x00000d0a
  111128:	63696e49 	.word	0x63696e49
  11112c:	696c6169 	.word	0x696c6169
  111130:	a7c3617a 	.word	0xa7c3617a
  111134:	206fa3c3 	.word	0x206fa3c3
  111138:	43206f64 	.word	0x43206f64
  11113c:	20706968 	.word	0x20706968
  111140:	00000d0a 	.word	0x00000d0a
  111144:	20504341 	.word	0x20504341
  111148:	4d204449 	.word	0x4d204449
  11114c:	65707061 	.word	0x65707061
  111150:	202d2072 	.word	0x202d2072
  111154:	2d204b4f 	.word	0x2d204b4f
  111158:	73655420 	.word	0x73655420
  11115c:	0a206574 	.word	0x0a206574
  111160:	0000000d 	.word	0x0000000d
  111164:	20504341 	.word	0x20504341
  111168:	4d204449 	.word	0x4d204449
  11116c:	65707061 	.word	0x65707061
  111170:	61662072 	.word	0x61662072
  111174:	0d0a6c69 	.word	0x0d0a6c69
  111178:	00000000 	.word	0x00000000
  11117c:	414d4420 	.word	0x414d4420
  111180:	6e692043 	.word	0x6e692043
  111184:	2e2e7469 	.word	0x2e2e7469
  111188:	2e2e2e2e 	.word	0x2e2e2e2e
  11118c:	00002e2e 	.word	0x00002e2e
  111190:	414d4420 	.word	0x414d4420
  111194:	6e492043 	.word	0x6e492043
  111198:	65207469 	.word	0x65207469
  11119c:	6564646e 	.word	0x6564646e
  1111a0:	0d0a2064 	.word	0x0d0a2064
  1111a4:	00000000 	.word	0x00000000
  1111a8:	72655020 	.word	0x72655020
  1111ac:	6d726f66 	.word	0x6d726f66
  1111b0:	65636e61 	.word	0x65636e61
  1111b4:	6e6f4d20 	.word	0x6e6f4d20
  1111b8:	726f7469 	.word	0x726f7469
  1111bc:	696e4920 	.word	0x696e4920
  1111c0:	0d0a2074 	.word	0x0d0a2074
  1111c4:	00000000 	.word	0x00000000
  1111c8:	66726550 	.word	0x66726550
  1111cc:	616d726f 	.word	0x616d726f
  1111d0:	2065636e 	.word	0x2065636e
  1111d4:	696e6f4d 	.word	0x696e6f4d
  1111d8:	20726f74 	.word	0x20726f74
  1111dc:	74696e55 	.word	0x74696e55
  1111e0:	61686320 	.word	0x61686320
  1111e4:	74636172 	.word	0x74636172
  1111e8:	73697265 	.word	0x73697265
  1111ec:	73636974 	.word	0x73636974
  1111f0:	00000d0a 	.word	0x00000d0a
  1111f4:	66726550 	.word	0x66726550
  1111f8:	616d726f 	.word	0x616d726f
  1111fc:	2065636e 	.word	0x2065636e
  111200:	696e6f4d 	.word	0x696e6f4d
  111204:	20726f74 	.word	0x20726f74
  111208:	74696e55 	.word	0x74696e55
  11120c:	63796320 	.word	0x63796320
  111210:	6320656c 	.word	0x6320656c
  111214:	746e756f 	.word	0x746e756f
  111218:	72207265 	.word	0x72207265
  11121c:	6c6f7365 	.word	0x6c6f7365
  111220:	6f697475 	.word	0x6f697475
  111224:	7369206e 	.word	0x7369206e
  111228:	20662520 	.word	0x20662520
  11122c:	0d0a736e 	.word	0x0d0a736e
  111230:	00000000 	.word	0x00000000
  111234:	54534554 	.word	0x54534554
  111238:	20322045 	.word	0x20322045
  11123c:	20464b55 	.word	0x20464b55
  111240:	206d6f63 	.word	0x206d6f63
  111244:	65203233 	.word	0x65203233
  111248:	64617473 	.word	0x64617473
  11124c:	0d0a736f 	.word	0x0d0a736f
  111250:	00000000 	.word	0x00000000
  111254:	63696e49 	.word	0x63696e49
  111258:	696c6169 	.word	0x696c6169
  11125c:	a7c3617a 	.word	0xa7c3617a
  111260:	206fa3c3 	.word	0x206fa3c3
  111264:	6f676c61 	.word	0x6f676c61
  111268:	6d746972 	.word	0x6d746972
  11126c:	000d0a6f 	.word	0x000d0a6f
  111270:	63657845 	.word	0x63657845
  111274:	6e617475 	.word	0x6e617475
  111278:	6d206f64 	.word	0x6d206f64
  11127c:	5f6e6961 	.word	0x5f6e6961
  111280:	6d617865 	.word	0x6d617865
  111284:	0a656c70 	.word	0x0a656c70
  111288:	0000000d 	.word	0x0000000d
  11128c:	41430d0a 	.word	0x41430d0a
  111290:	20454843 	.word	0x20454843
  111294:	464e4f43 	.word	0x464e4f43
  111298:	303a4749 	.word	0x303a4749
  11129c:	206f4e20 	.word	0x206f4e20
  1112a0:	68636163 	.word	0x68636163
  1112a4:	000d0a65 	.word	0x000d0a65
  1112a8:	41430d0a 	.word	0x41430d0a
  1112ac:	20454843 	.word	0x20454843
  1112b0:	464e4f43 	.word	0x464e4f43
  1112b4:	313a4749 	.word	0x313a4749
  1112b8:	616e4520 	.word	0x616e4520
  1112bc:	20656c62 	.word	0x20656c62
  1112c0:	0a554d4d 	.word	0x0a554d4d
  1112c4:	0000000d 	.word	0x0000000d
  1112c8:	41430d0a 	.word	0x41430d0a
  1112cc:	20454843 	.word	0x20454843
  1112d0:	464e4f43 	.word	0x464e4f43
  1112d4:	323a4749 	.word	0x323a4749
  1112d8:	616e4520 	.word	0x616e4520
  1112dc:	20656c62 	.word	0x20656c62
  1112e0:	20554d4d 	.word	0x20554d4d
  1112e4:	20646e61 	.word	0x20646e61
  1112e8:	74696e69 	.word	0x74696e69
  1112ec:	43324c20 	.word	0x43324c20
  1112f0:	00000d0a 	.word	0x00000d0a
  1112f4:	41430d0a 	.word	0x41430d0a
  1112f8:	20454843 	.word	0x20454843
  1112fc:	464e4f43 	.word	0x464e4f43
  111300:	333a4749 	.word	0x333a4749
  111304:	616e4520 	.word	0x616e4520
  111308:	20656c62 	.word	0x20656c62
  11130c:	20554d4d 	.word	0x20554d4d
  111310:	20646e61 	.word	0x20646e61
  111314:	20554353 	.word	0x20554353
  111318:	20646e61 	.word	0x20646e61
  11131c:	74696e69 	.word	0x74696e69
  111320:	43324c20 	.word	0x43324c20
  111324:	00000d0a 	.word	0x00000d0a
  111328:	41430d0a 	.word	0x41430d0a
  11132c:	20454843 	.word	0x20454843
  111330:	464e4f43 	.word	0x464e4f43
  111334:	343a4749 	.word	0x343a4749
  111338:	5f314c20 	.word	0x5f314c20
  11133c:	000d0a49 	.word	0x000d0a49
  111340:	41430d0a 	.word	0x41430d0a
  111344:	20454843 	.word	0x20454843
  111348:	464e4f43 	.word	0x464e4f43
  11134c:	353a4749 	.word	0x353a4749
  111350:	5f314c20 	.word	0x5f314c20
  111354:	6e612049 	.word	0x6e612049
  111358:	72622064 	.word	0x72622064
  11135c:	68636e61 	.word	0x68636e61
  111360:	65727020 	.word	0x65727020
  111364:	74636964 	.word	0x74636964
  111368:	0a6e6f69 	.word	0x0a6e6f69
  11136c:	0000000d 	.word	0x0000000d
  111370:	41430d0a 	.word	0x41430d0a
  111374:	20454843 	.word	0x20454843
  111378:	464e4f43 	.word	0x464e4f43
  11137c:	363a4749 	.word	0x363a4749
  111380:	5f314c20 	.word	0x5f314c20
  111384:	4c202c44 	.word	0x4c202c44
  111388:	20495f31 	.word	0x20495f31
  11138c:	20646e61 	.word	0x20646e61
  111390:	6e617262 	.word	0x6e617262
  111394:	70206863 	.word	0x70206863
  111398:	69646572 	.word	0x69646572
  11139c:	6f697463 	.word	0x6f697463
  1113a0:	000d0a6e 	.word	0x000d0a6e
  1113a4:	41430d0a 	.word	0x41430d0a
  1113a8:	20454843 	.word	0x20454843
  1113ac:	464e4f43 	.word	0x464e4f43
  1113b0:	373a4749 	.word	0x373a4749
  1113b4:	5f314c20 	.word	0x5f314c20
  1113b8:	69772044 	.word	0x69772044
  1113bc:	73206874 	.word	0x73206874
  1113c0:	20656469 	.word	0x20656469
  1113c4:	66657270 	.word	0x66657270
  1113c8:	68637465 	.word	0x68637465
  1113cc:	4c202c29 	.word	0x4c202c29
  1113d0:	20495f31 	.word	0x20495f31
  1113d4:	68746977 	.word	0x68746977
  1113d8:	61726220 	.word	0x61726220
  1113dc:	2068636e 	.word	0x2068636e
  1113e0:	64657270 	.word	0x64657270
  1113e4:	69746369 	.word	0x69746369
  1113e8:	0d0a6e6f 	.word	0x0d0a6e6f
  1113ec:	00000000 	.word	0x00000000
  1113f0:	41430d0a 	.word	0x41430d0a
  1113f4:	20454843 	.word	0x20454843
  1113f8:	464e4f43 	.word	0x464e4f43
  1113fc:	383a4749 	.word	0x383a4749
  111400:	5f314c20 	.word	0x5f314c20
  111404:	69732044 	.word	0x69732044
  111408:	70206564 	.word	0x70206564
  11140c:	65666572 	.word	0x65666572
  111410:	2c686374 	.word	0x2c686374
  111414:	5f314c20 	.word	0x5f314c20
  111418:	69772049 	.word	0x69772049
  11141c:	62206874 	.word	0x62206874
  111420:	636e6172 	.word	0x636e6172
  111424:	72702068 	.word	0x72702068
  111428:	61202e65 	.word	0x61202e65
  11142c:	6520646e 	.word	0x6520646e
  111430:	6c62616e 	.word	0x6c62616e
  111434:	324c2065 	.word	0x324c2065
  111438:	00000d0a 	.word	0x00000d0a
  11143c:	41430d0a 	.word	0x41430d0a
  111440:	20454843 	.word	0x20454843
  111444:	464e4f43 	.word	0x464e4f43
  111448:	393a4749 	.word	0x393a4749
  11144c:	73616220 	.word	0x73616220
  111450:	63206369 	.word	0x63206369
  111454:	69666e6f 	.word	0x69666e6f
  111458:	2b202e67 	.word	0x2b202e67
  11145c:	20324c20 	.word	0x20324c20
  111460:	66657270 	.word	0x66657270
  111464:	68637465 	.word	0x68637465
  111468:	6e696820 	.word	0x6e696820
  11146c:	000d0a74 	.word	0x000d0a74
  111470:	41430d0a 	.word	0x41430d0a
  111474:	20454843 	.word	0x20454843
  111478:	464e4f43 	.word	0x464e4f43
  11147c:	313a4749 	.word	0x313a4749
  111480:	61622030 	.word	0x61622030
  111484:	20636973 	.word	0x20636973
  111488:	666e6f63 	.word	0x666e6f63
  11148c:	202e6769 	.word	0x202e6769
  111490:	324c202b 	.word	0x324c202b
  111494:	2b206870 	.word	0x2b206870
  111498:	20727720 	.word	0x20727720
  11149c:	6c6c7566 	.word	0x6c6c7566
  1114a0:	6e696c20 	.word	0x6e696c20
  1114a4:	73302065 	.word	0x73302065
  1114a8:	00000d0a 	.word	0x00000d0a
  1114ac:	41430d0a 	.word	0x41430d0a
  1114b0:	20454843 	.word	0x20454843
  1114b4:	464e4f43 	.word	0x464e4f43
  1114b8:	313a4749 	.word	0x313a4749
  1114bc:	61622031 	.word	0x61622031
  1114c0:	20636973 	.word	0x20636973
  1114c4:	666e6f63 	.word	0x666e6f63
  1114c8:	202e6769 	.word	0x202e6769
  1114cc:	324c202b 	.word	0x324c202b
  1114d0:	2b206870 	.word	0x2b206870
  1114d4:	66727720 	.word	0x66727720
  1114d8:	2073306c 	.word	0x2073306c
  1114dc:	7073202b 	.word	0x7073202b
  1114e0:	6c756365 	.word	0x6c756365
  1114e4:	76697461 	.word	0x76697461
  1114e8:	696c2065 	.word	0x696c2065
  1114ec:	6966656e 	.word	0x6966656e
  1114f0:	0a736c6c 	.word	0x0a736c6c
  1114f4:	0000000d 	.word	0x0000000d
  1114f8:	41430d0a 	.word	0x41430d0a
  1114fc:	20454843 	.word	0x20454843
  111500:	464e4f43 	.word	0x464e4f43
  111504:	313a4749 	.word	0x313a4749
  111508:	61622032 	.word	0x61622032
  11150c:	20636973 	.word	0x20636973
  111510:	666e6f63 	.word	0x666e6f63
  111514:	202e6769 	.word	0x202e6769
  111518:	324c202b 	.word	0x324c202b
  11151c:	2b206870 	.word	0x2b206870
  111520:	66727720 	.word	0x66727720
  111524:	2073306c 	.word	0x2073306c
  111528:	6c73202b 	.word	0x6c73202b
  11152c:	65202b20 	.word	0x65202b20
  111530:	53455242 	.word	0x53455242
  111534:	000d0a50 	.word	0x000d0a50
  111538:	41430d0a 	.word	0x41430d0a
  11153c:	20454843 	.word	0x20454843
  111540:	464e4f43 	.word	0x464e4f43
  111544:	313a4749 	.word	0x313a4749
  111548:	61622033 	.word	0x61622033
  11154c:	20636973 	.word	0x20636973
  111550:	666e6f63 	.word	0x666e6f63
  111554:	202e6769 	.word	0x202e6769
  111558:	324c202b 	.word	0x324c202b
  11155c:	2b206870 	.word	0x2b206870
  111560:	66727720 	.word	0x66727720
  111564:	2073306c 	.word	0x2073306c
  111568:	6c73202b 	.word	0x6c73202b
  11156c:	65202b20 	.word	0x65202b20
  111570:	53455242 	.word	0x53455242
  111574:	202b2050 	.word	0x202b2050
  111578:	66667562 	.word	0x66667562
  11157c:	73207265 	.word	0x73207265
  111580:	65726f74 	.word	0x65726f74
  111584:	6d696c20 	.word	0x6d696c20
  111588:	74617469 	.word	0x74617469
  11158c:	0a6e6f69 	.word	0x0a6e6f69
  111590:	0000000d 	.word	0x0000000d
  111594:	72756f53 	.word	0x72756f53
  111598:	5b3d6563 	.word	0x5b3d6563
  11159c:	00000000 	.word	0x00000000
  1115a0:	00006425 	.word	0x00006425
  1115a4:	000d0a5d 	.word	0x000d0a5d
  1115a8:	74736544 	.word	0x74736544
  1115ac:	3d796e69 	.word	0x3d796e69
  1115b0:	0000005b 	.word	0x0000005b
  1115b4:	00000000 	.word	0x00000000
  1115b8:	706d6554 	.word	0x706d6554
  1115bc:	6564206f 	.word	0x6564206f
  1115c0:	65786520 	.word	0x65786520
  1115c4:	a7c37563 	.word	0xa7c37563
  1115c8:	73206f61 	.word	0x73206f61
  1115cc:	616d6769 	.word	0x616d6769
  1115d0:	6c252073 	.word	0x6c252073
  1115d4:	2820756c 	.word	0x2820756c
  1115d8:	6f6e616e 	.word	0x6f6e616e
  1115dc:	75676573 	.word	0x75676573
  1115e0:	296f646e 	.word	0x296f646e
  1115e4:	0d0a2020 	.word	0x0d0a2020
  1115e8:	00000000 	.word	0x00000000
  1115ec:	706d6554 	.word	0x706d6554
  1115f0:	6564206f 	.word	0x6564206f
  1115f4:	65786520 	.word	0x65786520
  1115f8:	a7c37563 	.word	0xa7c37563
  1115fc:	63206f61 	.word	0x63206f61
  111600:	656c6f68 	.word	0x656c6f68
  111604:	20796b73 	.word	0x20796b73
  111608:	756c6c25 	.word	0x756c6c25
  11160c:	616e2820 	.word	0x616e2820
  111610:	65736f6e 	.word	0x65736f6e
  111614:	646e7567 	.word	0x646e7567
  111618:	2020296f 	.word	0x2020296f
  11161c:	00000d0a 	.word	0x00000d0a
  111620:	706d6554 	.word	0x706d6554
  111624:	6564206f 	.word	0x6564206f
  111628:	65786520 	.word	0x65786520
  11162c:	a7c37563 	.word	0xa7c37563
  111630:	62206f61 	.word	0x62206f61
  111634:	2074755f 	.word	0x2074755f
  111638:	756c6c25 	.word	0x756c6c25
  11163c:	616e2820 	.word	0x616e2820
  111640:	65736f6e 	.word	0x65736f6e
  111644:	646e7567 	.word	0x646e7567
  111648:	2020296f 	.word	0x2020296f
  11164c:	00000d0a 	.word	0x00000d0a
  111650:	706d6554 	.word	0x706d6554
  111654:	6564206f 	.word	0x6564206f
  111658:	65786520 	.word	0x65786520
  11165c:	a7c37563 	.word	0xa7c37563
  111660:	63206f61 	.word	0x63206f61
  111664:	2074755f 	.word	0x2074755f
  111668:	756c6c25 	.word	0x756c6c25
  11166c:	616e2820 	.word	0x616e2820
  111670:	65736f6e 	.word	0x65736f6e
  111674:	646e7567 	.word	0x646e7567
  111678:	2020296f 	.word	0x2020296f
  11167c:	00000d0a 	.word	0x00000d0a
  111680:	706d6554 	.word	0x706d6554
  111684:	6564206f 	.word	0x6564206f
  111688:	65786520 	.word	0x65786520
  11168c:	a7c37563 	.word	0xa7c37563
  111690:	70206f61 	.word	0x70206f61
  111694:	20617261 	.word	0x20617261
  111698:	6d726574 	.word	0x6d726574
  11169c:	206f6e69 	.word	0x206f6e69
  1116a0:	66206164 	.word	0x66206164
  1116a4:	20636e75 	.word	0x20636e75
  1116a8:	20666b75 	.word	0x20666b75
  1116ac:	756c6c25 	.word	0x756c6c25
  1116b0:	616e2820 	.word	0x616e2820
  1116b4:	65736f6e 	.word	0x65736f6e
  1116b8:	646e7567 	.word	0x646e7567
  1116bc:	2020296f 	.word	0x2020296f
  1116c0:	00000d0a 	.word	0x00000d0a
  1116c4:	00000000 	.word	0x00000000

001116c8 <dv9.6970>:
  1116c8:	fffc3b1f c12e847d fffc3b1f 40ce847f     .;..}....;.....@
  1116d8:	fffc3b1f 40ce847f fffc3b1f 40ce847f     .;.....@.;.....@
  1116e8:	fffc3b1f 40ce847f fffc3b1f 40ce847f     .;.....@.;.....@
  1116f8:	fffc3b1f 40ce847f fffc3b1f 40ce847f     .;.....@.;.....@
  111708:	fffc3b1f 40ce847f fffc3b1f 40ce847f     .;.....@.;.....@
  111718:	fffc3b1f 40ce847f fffc3b1f 40ce847f     .;.....@.;.....@
  111728:	fffc3b1f 40ce847f fffc3b1f 40ce847f     .;.....@.;.....@
  111738:	fffc3b1f 40ce847f fffc3b1f 40ce847f     .;.....@.;.....@
  111748:	fffc3b1f 40ce847f fffc3b1f 40ce847f     .;.....@.;.....@
  111758:	fffc3b1f 40ce847f fffc3b1f 40ce847f     .;.....@.;.....@
  111768:	fffc3b1f 40ce847f fffc3b1f 40ce847f     .;.....@.;.....@
  111778:	fffc3b1f 40ce847f fffc3b1f 40ce847f     .;.....@.;.....@
  111788:	fffc3b1f 40ce847f fffc3b1f 40ce847f     .;.....@.;.....@
  111798:	fffc3b1f 40ce847f fffc3b1f 40ce847f     .;.....@.;.....@
  1117a8:	fffc3b1f 40ce847f fffc3b1f 40ce847f     .;.....@.;.....@
  1117b8:	fffc3b1f 40ce847f fffc3b1f 40ce847f     .;.....@.;.....@
  1117c8:	fffc3b1f 40ce847f fffc3b1f 40ce847f     .;.....@.;.....@
  1117d8:	fffc3b1f 40ce847f fffc3b1f 40ce847f     .;.....@.;.....@
  1117e8:	fffc3b1f 40ce847f fffc3b1f 40ce847f     .;.....@.;.....@
  1117f8:	fffc3b1f 40ce847f fffc3b1f 40ce847f     .;.....@.;.....@
  111808:	fffc3b1f 40ce847f fffc3b1f 40ce847f     .;.....@.;.....@
  111818:	fffc3b1f 40ce847f fffc3b1f 40ce847f     .;.....@.;.....@
  111828:	fffc3b1f 40ce847f fffc3b1f 40ce847f     .;.....@.;.....@
  111838:	fffc3b1f 40ce847f fffc3b1f 40ce847f     .;.....@.;.....@
  111848:	fffc3b1f 40ce847f fffc3b1f 40ce847f     .;.....@.;.....@
  111858:	fffc3b1f 40ce847f fffc3b1f 40ce847f     .;.....@.;.....@
  111868:	fffc3b1f 40ce847f fffc3b1f 40ce847f     .;.....@.;.....@
  111878:	fffc3b1f 40ce847f fffc3b1f 40ce847f     .;.....@.;.....@
  111888:	fffc3b1f 40ce847f fffc3b1f 40ce847f     .;.....@.;.....@
  111898:	fffc3b1f 40ce847f fffc3b1f 40ce847f     .;.....@.;.....@
  1118a8:	fffc3b1f 40ce847f fffc3b1f 40ce847f     .;.....@.;.....@
  1118b8:	fffc3b1f 40ce847f fffc3b1f 40ce847f     .;.....@.;.....@
  1118c8:	fffc3b1f 40ce847f                       .;.....@

001118d0 <dv10.6971>:
  1118d0:	fffc5cad c12e8477 fffc3b1f 40ce847f     .\..w....;.....@
  1118e0:	fffc3b1f 40ce847f fffc3b1f 40ce847f     .;.....@.;.....@
  1118f0:	fffc3b1f 40ce847f fffc3b1f 40ce847f     .;.....@.;.....@
  111900:	fffc3b1f 40ce847f fffc3b1f 40ce847f     .;.....@.;.....@
  111910:	fffc3b1f 40ce847f fffc3b1f 40ce847f     .;.....@.;.....@
  111920:	fffc3b1f 40ce847f fffc3b1f 40ce847f     .;.....@.;.....@
  111930:	fffc3b1f 40ce847f fffc3b1f 40ce847f     .;.....@.;.....@
  111940:	fffc3b1f 40ce847f fffc3b1f 40ce847f     .;.....@.;.....@
  111950:	fffc3b1f 40ce847f fffc3b1f 40ce847f     .;.....@.;.....@
  111960:	fffc3b1f 40ce847f fffc3b1f 40ce847f     .;.....@.;.....@
  111970:	fffc3b1f 40ce847f fffc3b1f 40ce847f     .;.....@.;.....@
  111980:	fffc3b1f 40ce847f fffc3b1f 40ce847f     .;.....@.;.....@
  111990:	fffc3b1f 40ce847f fffc3b1f 40ce847f     .;.....@.;.....@
  1119a0:	fffc3b1f 40ce847f fffc3b1f 40ce847f     .;.....@.;.....@
  1119b0:	fffc3b1f 40ce847f fffc3b1f 40ce847f     .;.....@.;.....@
  1119c0:	fffc3b1f 40ce847f fffc3b1f 40ce847f     .;.....@.;.....@
  1119d0:	fffc3b1f 40ce847f fffc3b1f 40ce847f     .;.....@.;.....@
  1119e0:	fffc3b1f 40ce847f fffc3b1f 40ce847f     .;.....@.;.....@
  1119f0:	fffc3b1f 40ce847f fffc3b1f 40ce847f     .;.....@.;.....@
  111a00:	fffc3b1f 40ce847f fffc3b1f 40ce847f     .;.....@.;.....@
  111a10:	fffc3b1f 40ce847f fffc3b1f 40ce847f     .;.....@.;.....@
  111a20:	fffc3b1f 40ce847f fffc3b1f 40ce847f     .;.....@.;.....@
  111a30:	fffc3b1f 40ce847f fffc3b1f 40ce847f     .;.....@.;.....@
  111a40:	fffc3b1f 40ce847f fffc3b1f 40ce847f     .;.....@.;.....@
  111a50:	fffc3b1f 40ce847f fffc3b1f 40ce847f     .;.....@.;.....@
  111a60:	fffc3b1f 40ce847f fffc3b1f 40ce847f     .;.....@.;.....@
  111a70:	fffc3b1f 40ce847f fffc3b1f 40ce847f     .;.....@.;.....@
  111a80:	fffc3b1f 40ce847f fffc3b1f 40ce847f     .;.....@.;.....@
  111a90:	fffc3b1f 40ce847f fffc3b1f 40ce847f     .;.....@.;.....@
  111aa0:	fffc3b1f 40ce847f fffc3b1f 40ce847f     .;.....@.;.....@
  111ab0:	fffc3b1f 40ce847f fffc3b1f 40ce847f     .;.....@.;.....@
  111ac0:	fffc3b1f 40ce847f fffc3b1f 40ce847f     .;.....@.;.....@
  111ad0:	fffc3b1f 40ce847f                       .;.....@

00111ad8 <dv11.6972>:
  111ad8:	00000000 3ff00000 00000000 00000000     .......?........
	...
  111be4:	3ff00000 00000000 00000000 00000000     ...?............
	...
  111cec:	3ff00000 00000000 00000000 00000000     ...?............
	...
  111df4:	3ff00000 00000000 00000000 00000000     ...?............
	...
  111efc:	3ff00000 00000000 00000000 00000000     ...?............
	...
  112004:	3ff00000 00000000 00000000 00000000     ...?............
	...
  11210c:	3ff00000 00000000 00000000 00000000     ...?............
	...
  112214:	3ff00000 00000000 00000000 00000000     ...?............
	...
  11231c:	3ff00000 00000000 00000000 00000000     ...?............
	...
  112424:	3ff00000 00000000 00000000 00000000     ...?............
	...
  11252c:	3ff00000 00000000 00000000 00000000     ...?............
	...
  112634:	3ff00000 00000000 00000000 00000000     ...?............
	...
  11273c:	3ff00000 00000000 00000000 00000000     ...?............
	...
  112844:	3ff00000 00000000 00000000 00000000     ...?............
	...
  11294c:	3ff00000 00000000 00000000 00000000     ...?............
	...
  112a54:	3ff00000 00000000 00000000 00000000     ...?............
	...
  112b5c:	3ff00000 00000000 00000000 00000000     ...?............
	...
  112c64:	3ff00000 00000000 00000000 00000000     ...?............
	...
  112d6c:	3ff00000 00000000 00000000 00000000     ...?............
	...
  112e74:	3ff00000 00000000 00000000 00000000     ...?............
	...
  112f7c:	3ff00000 00000000 00000000 00000000     ...?............
	...
  113084:	3ff00000 00000000 00000000 00000000     ...?............
	...
  11318c:	3ff00000 00000000 00000000 00000000     ...?............
	...
  113294:	3ff00000 00000000 00000000 00000000     ...?............
	...
  11339c:	3ff00000 00000000 00000000 00000000     ...?............
	...
  1134a4:	3ff00000 00000000 00000000 00000000     ...?............
	...
  1135ac:	3ff00000 00000000 00000000 00000000     ...?............
	...
  1136b4:	3ff00000 00000000 00000000 00000000     ...?............
	...
  1137bc:	3ff00000 00000000 00000000 00000000     ...?............
	...
  1138c4:	3ff00000 00000000 00000000 00000000     ...?............
	...
  1139cc:	3ff00000 00000000 00000000 00000000     ...?............
	...
  113ad4:	3ff00000                                ...?

00113ad8 <c_b.6988>:
  113ad8:	fffc5cad c12e8477 00000000 00000000     .\..w...........
	...
  113ce8:	fffc3b1f 40ce847f 00000000 00000000     .;.....@........
	...
  113ef8:	fffc3b1f 40ce847f 00000000 00000000     .;.....@........
	...
  114108:	fffc3b1f 40ce847f 00000000 00000000     .;.....@........
	...
  114318:	fffc3b1f 40ce847f 00000000 00000000     .;.....@........
	...
  114528:	fffc3b1f 40ce847f 00000000 00000000     .;.....@........
	...
  114738:	fffc3b1f 40ce847f 00000000 00000000     .;.....@........
	...
  114948:	fffc3b1f 40ce847f 00000000 00000000     .;.....@........
	...
  114b58:	fffc3b1f 40ce847f 00000000 00000000     .;.....@........
	...
  114d68:	fffc3b1f 40ce847f 00000000 00000000     .;.....@........
	...
  114f78:	fffc3b1f 40ce847f 00000000 00000000     .;.....@........
	...
  115188:	fffc3b1f 40ce847f 00000000 00000000     .;.....@........
	...
  115398:	fffc3b1f 40ce847f 00000000 00000000     .;.....@........
	...
  1155a8:	fffc3b1f 40ce847f 00000000 00000000     .;.....@........
	...
  1157b8:	fffc3b1f 40ce847f 00000000 00000000     .;.....@........
	...
  1159c8:	fffc3b1f 40ce847f 00000000 00000000     .;.....@........
	...
  115bd8:	fffc3b1f 40ce847f 00000000 00000000     .;.....@........
	...
  115de8:	fffc3b1f 40ce847f 00000000 00000000     .;.....@........
	...
  115ff8:	fffc3b1f 40ce847f 00000000 00000000     .;.....@........
	...
  116208:	fffc3b1f 40ce847f 00000000 00000000     .;.....@........
	...
  116418:	fffc3b1f 40ce847f 00000000 00000000     .;.....@........
	...
  116628:	fffc3b1f 40ce847f 00000000 00000000     .;.....@........
	...
  116838:	fffc3b1f 40ce847f 00000000 00000000     .;.....@........
	...
  116a48:	fffc3b1f 40ce847f 00000000 00000000     .;.....@........
	...
  116c58:	fffc3b1f 40ce847f 00000000 00000000     .;.....@........
	...
  116e68:	fffc3b1f 40ce847f 00000000 00000000     .;.....@........
	...
  117078:	fffc3b1f 40ce847f 00000000 00000000     .;.....@........
	...
  117288:	fffc3b1f 40ce847f 00000000 00000000     .;.....@........
	...
  117498:	fffc3b1f 40ce847f 00000000 00000000     .;.....@........
	...
  1176a8:	fffc3b1f 40ce847f 00000000 00000000     .;.....@........
	...
  1178b8:	fffc3b1f 40ce847f 00000000 00000000     .;.....@........
	...
  117ac8:	fffc3b1f 40ce847f 00000000 00000000     .;.....@........
	...
  117cd8:	fffc3b1f 40ce847f 00000000 00000000     .;.....@........
	...
  117ee8:	fffc3b1f 40ce847f 00000000 00000000     .;.....@........
	...
  1180f8:	fffc3b1f 40ce847f 00000000 00000000     .;.....@........
	...
  118308:	fffc3b1f 40ce847f 00000000 00000000     .;.....@........
	...
  118518:	fffc3b1f 40ce847f 00000000 00000000     .;.....@........
	...
  118728:	fffc3b1f 40ce847f 00000000 00000000     .;.....@........
	...
  118938:	fffc3b1f 40ce847f 00000000 00000000     .;.....@........
	...
  118b48:	fffc3b1f 40ce847f 00000000 00000000     .;.....@........
	...
  118d58:	fffc3b1f 40ce847f 00000000 00000000     .;.....@........
	...
  118f68:	fffc3b1f 40ce847f 00000000 00000000     .;.....@........
	...
  119178:	fffc3b1f 40ce847f 00000000 00000000     .;.....@........
	...
  119388:	fffc3b1f 40ce847f 00000000 00000000     .;.....@........
	...
  119598:	fffc3b1f 40ce847f 00000000 00000000     .;.....@........
	...
  1197a8:	fffc3b1f 40ce847f 00000000 00000000     .;.....@........
	...
  1199b8:	fffc3b1f 40ce847f 00000000 00000000     .;.....@........
	...
  119bc8:	fffc3b1f 40ce847f 00000000 00000000     .;.....@........
	...
  119dd8:	fffc3b1f 40ce847f 00000000 00000000     .;.....@........
	...
  119fe8:	fffc3b1f 40ce847f 00000000 00000000     .;.....@........
	...
  11a1f8:	fffc3b1f 40ce847f 00000000 00000000     .;.....@........
	...
  11a408:	fffc3b1f 40ce847f 00000000 00000000     .;.....@........
	...
  11a618:	fffc3b1f 40ce847f 00000000 00000000     .;.....@........
	...
  11a828:	fffc3b1f 40ce847f 00000000 00000000     .;.....@........
	...
  11aa38:	fffc3b1f 40ce847f 00000000 00000000     .;.....@........
	...
  11ac48:	fffc3b1f 40ce847f 00000000 00000000     .;.....@........
	...
  11ae58:	fffc3b1f 40ce847f 00000000 00000000     .;.....@........
	...
  11b068:	fffc3b1f 40ce847f 00000000 00000000     .;.....@........
	...
  11b278:	fffc3b1f 40ce847f 00000000 00000000     .;.....@........
	...
  11b488:	fffc3b1f 40ce847f 00000000 00000000     .;.....@........
	...
  11b698:	fffc3b1f 40ce847f 00000000 00000000     .;.....@........
	...
  11b8a8:	fffc3b1f 40ce847f 00000000 00000000     .;.....@........
	...
  11bab8:	fffc3b1f 40ce847f 00000000 00000000     .;.....@........
	...
  11bcc8:	fffc3b1f 40ce847f 00000000 00000000     .;.....@........
	...
  11bed8:	fffc3b1f 40ce847f                       .;.....@

0011bee0 <dv12.7014>:
  11bee0:	fffc3b1f c12e847d fffc3b1f 40ce847f     .;..}....;.....@
  11bef0:	fffc3b1f 40ce847f fffc3b1f 40ce847f     .;.....@.;.....@
  11bf00:	fffc3b1f 40ce847f fffc3b1f 40ce847f     .;.....@.;.....@
  11bf10:	fffc3b1f 40ce847f fffc3b1f 40ce847f     .;.....@.;.....@
  11bf20:	fffc3b1f 40ce847f fffc3b1f 40ce847f     .;.....@.;.....@
  11bf30:	fffc3b1f 40ce847f fffc3b1f 40ce847f     .;.....@.;.....@
  11bf40:	fffc3b1f 40ce847f fffc3b1f 40ce847f     .;.....@.;.....@
  11bf50:	fffc3b1f 40ce847f fffc3b1f 40ce847f     .;.....@.;.....@
  11bf60:	fffc3b1f 40ce847f fffc3b1f 40ce847f     .;.....@.;.....@
  11bf70:	fffc3b1f 40ce847f fffc3b1f 40ce847f     .;.....@.;.....@
  11bf80:	fffc3b1f 40ce847f fffc3b1f 40ce847f     .;.....@.;.....@
  11bf90:	fffc3b1f 40ce847f fffc3b1f 40ce847f     .;.....@.;.....@
  11bfa0:	fffc3b1f 40ce847f fffc3b1f 40ce847f     .;.....@.;.....@
  11bfb0:	fffc3b1f 40ce847f fffc3b1f 40ce847f     .;.....@.;.....@
  11bfc0:	fffc3b1f 40ce847f fffc3b1f 40ce847f     .;.....@.;.....@
  11bfd0:	fffc3b1f 40ce847f fffc3b1f 40ce847f     .;.....@.;.....@
  11bfe0:	fffc3b1f 40ce847f fffc3b1f 40ce847f     .;.....@.;.....@
  11bff0:	fffc3b1f 40ce847f fffc3b1f 40ce847f     .;.....@.;.....@
  11c000:	fffc3b1f 40ce847f fffc3b1f 40ce847f     .;.....@.;.....@
  11c010:	fffc3b1f 40ce847f fffc3b1f 40ce847f     .;.....@.;.....@
  11c020:	fffc3b1f 40ce847f fffc3b1f 40ce847f     .;.....@.;.....@
  11c030:	fffc3b1f 40ce847f fffc3b1f 40ce847f     .;.....@.;.....@
  11c040:	fffc3b1f 40ce847f fffc3b1f 40ce847f     .;.....@.;.....@
  11c050:	fffc3b1f 40ce847f fffc3b1f 40ce847f     .;.....@.;.....@
  11c060:	fffc3b1f 40ce847f fffc3b1f 40ce847f     .;.....@.;.....@
  11c070:	fffc3b1f 40ce847f fffc3b1f 40ce847f     .;.....@.;.....@
  11c080:	fffc3b1f 40ce847f fffc3b1f 40ce847f     .;.....@.;.....@
  11c090:	fffc3b1f 40ce847f fffc3b1f 40ce847f     .;.....@.;.....@
  11c0a0:	fffc3b1f 40ce847f fffc3b1f 40ce847f     .;.....@.;.....@
  11c0b0:	fffc3b1f 40ce847f fffc3b1f 40ce847f     .;.....@.;.....@
  11c0c0:	fffc3b1f 40ce847f fffc3b1f 40ce847f     .;.....@.;.....@
  11c0d0:	fffc3b1f 40ce847f fffc3b1f 40ce847f     .;.....@.;.....@
  11c0e0:	fffc3b1f 40ce847f                       .;.....@

0011c0e8 <dv13.7015>:
  11c0e8:	fffc5cad c12e8477 fffc3b1f 40ce847f     .\..w....;.....@
  11c0f8:	fffc3b1f 40ce847f fffc3b1f 40ce847f     .;.....@.;.....@
  11c108:	fffc3b1f 40ce847f fffc3b1f 40ce847f     .;.....@.;.....@
  11c118:	fffc3b1f 40ce847f fffc3b1f 40ce847f     .;.....@.;.....@
  11c128:	fffc3b1f 40ce847f fffc3b1f 40ce847f     .;.....@.;.....@
  11c138:	fffc3b1f 40ce847f fffc3b1f 40ce847f     .;.....@.;.....@
  11c148:	fffc3b1f 40ce847f fffc3b1f 40ce847f     .;.....@.;.....@
  11c158:	fffc3b1f 40ce847f fffc3b1f 40ce847f     .;.....@.;.....@
  11c168:	fffc3b1f 40ce847f fffc3b1f 40ce847f     .;.....@.;.....@
  11c178:	fffc3b1f 40ce847f fffc3b1f 40ce847f     .;.....@.;.....@
  11c188:	fffc3b1f 40ce847f fffc3b1f 40ce847f     .;.....@.;.....@
  11c198:	fffc3b1f 40ce847f fffc3b1f 40ce847f     .;.....@.;.....@
  11c1a8:	fffc3b1f 40ce847f fffc3b1f 40ce847f     .;.....@.;.....@
  11c1b8:	fffc3b1f 40ce847f fffc3b1f 40ce847f     .;.....@.;.....@
  11c1c8:	fffc3b1f 40ce847f fffc3b1f 40ce847f     .;.....@.;.....@
  11c1d8:	fffc3b1f 40ce847f fffc3b1f 40ce847f     .;.....@.;.....@
  11c1e8:	fffc3b1f 40ce847f fffc3b1f 40ce847f     .;.....@.;.....@
  11c1f8:	fffc3b1f 40ce847f fffc3b1f 40ce847f     .;.....@.;.....@
  11c208:	fffc3b1f 40ce847f fffc3b1f 40ce847f     .;.....@.;.....@
  11c218:	fffc3b1f 40ce847f fffc3b1f 40ce847f     .;.....@.;.....@
  11c228:	fffc3b1f 40ce847f fffc3b1f 40ce847f     .;.....@.;.....@
  11c238:	fffc3b1f 40ce847f fffc3b1f 40ce847f     .;.....@.;.....@
  11c248:	fffc3b1f 40ce847f fffc3b1f 40ce847f     .;.....@.;.....@
  11c258:	fffc3b1f 40ce847f fffc3b1f 40ce847f     .;.....@.;.....@
  11c268:	fffc3b1f 40ce847f fffc3b1f 40ce847f     .;.....@.;.....@
  11c278:	fffc3b1f 40ce847f fffc3b1f 40ce847f     .;.....@.;.....@
  11c288:	fffc3b1f 40ce847f fffc3b1f 40ce847f     .;.....@.;.....@
  11c298:	fffc3b1f 40ce847f fffc3b1f 40ce847f     .;.....@.;.....@
  11c2a8:	fffc3b1f 40ce847f fffc3b1f 40ce847f     .;.....@.;.....@
  11c2b8:	fffc3b1f 40ce847f fffc3b1f 40ce847f     .;.....@.;.....@
  11c2c8:	fffc3b1f 40ce847f fffc3b1f 40ce847f     .;.....@.;.....@
  11c2d8:	fffc3b1f 40ce847f fffc3b1f 40ce847f     .;.....@.;.....@
  11c2e8:	fffc3b1f 40ce847f                       .;.....@

0011c2f0 <c_b.7031>:
  11c2f0:	fffc5cad c12e8477 00000000 00000000     .\..w...........
	...
  11c500:	fffc3b1f 40ce847f 00000000 00000000     .;.....@........
	...
  11c710:	fffc3b1f 40ce847f 00000000 00000000     .;.....@........
	...
  11c920:	fffc3b1f 40ce847f 00000000 00000000     .;.....@........
	...
  11cb30:	fffc3b1f 40ce847f 00000000 00000000     .;.....@........
	...
  11cd40:	fffc3b1f 40ce847f 00000000 00000000     .;.....@........
	...
  11cf50:	fffc3b1f 40ce847f 00000000 00000000     .;.....@........
	...
  11d160:	fffc3b1f 40ce847f 00000000 00000000     .;.....@........
	...
  11d370:	fffc3b1f 40ce847f 00000000 00000000     .;.....@........
	...
  11d580:	fffc3b1f 40ce847f 00000000 00000000     .;.....@........
	...
  11d790:	fffc3b1f 40ce847f 00000000 00000000     .;.....@........
	...
  11d9a0:	fffc3b1f 40ce847f 00000000 00000000     .;.....@........
	...
  11dbb0:	fffc3b1f 40ce847f 00000000 00000000     .;.....@........
	...
  11ddc0:	fffc3b1f 40ce847f 00000000 00000000     .;.....@........
	...
  11dfd0:	fffc3b1f 40ce847f 00000000 00000000     .;.....@........
	...
  11e1e0:	fffc3b1f 40ce847f 00000000 00000000     .;.....@........
	...
  11e3f0:	fffc3b1f 40ce847f 00000000 00000000     .;.....@........
	...
  11e600:	fffc3b1f 40ce847f 00000000 00000000     .;.....@........
	...
  11e810:	fffc3b1f 40ce847f 00000000 00000000     .;.....@........
	...
  11ea20:	fffc3b1f 40ce847f 00000000 00000000     .;.....@........
	...
  11ec30:	fffc3b1f 40ce847f 00000000 00000000     .;.....@........
	...
  11ee40:	fffc3b1f 40ce847f 00000000 00000000     .;.....@........
	...
  11f050:	fffc3b1f 40ce847f 00000000 00000000     .;.....@........
	...
  11f260:	fffc3b1f 40ce847f 00000000 00000000     .;.....@........
	...
  11f470:	fffc3b1f 40ce847f 00000000 00000000     .;.....@........
	...
  11f680:	fffc3b1f 40ce847f 00000000 00000000     .;.....@........
	...
  11f890:	fffc3b1f 40ce847f 00000000 00000000     .;.....@........
	...
  11faa0:	fffc3b1f 40ce847f 00000000 00000000     .;.....@........
	...
  11fcb0:	fffc3b1f 40ce847f 00000000 00000000     .;.....@........
	...
  11fec0:	fffc3b1f 40ce847f 00000000 00000000     .;.....@........
	...
  1200d0:	fffc3b1f 40ce847f 00000000 00000000     .;.....@........
	...
  1202e0:	fffc3b1f 40ce847f 00000000 00000000     .;.....@........
	...
  1204f0:	fffc3b1f 40ce847f 00000000 00000000     .;.....@........
	...
  120700:	fffc3b1f 40ce847f 00000000 00000000     .;.....@........
	...
  120910:	fffc3b1f 40ce847f 00000000 00000000     .;.....@........
	...
  120b20:	fffc3b1f 40ce847f 00000000 00000000     .;.....@........
	...
  120d30:	fffc3b1f 40ce847f 00000000 00000000     .;.....@........
	...
  120f40:	fffc3b1f 40ce847f 00000000 00000000     .;.....@........
	...
  121150:	fffc3b1f 40ce847f 00000000 00000000     .;.....@........
	...
  121360:	fffc3b1f 40ce847f 00000000 00000000     .;.....@........
	...
  121570:	fffc3b1f 40ce847f 00000000 00000000     .;.....@........
	...
  121780:	fffc3b1f 40ce847f 00000000 00000000     .;.....@........
	...
  121990:	fffc3b1f 40ce847f 00000000 00000000     .;.....@........
	...
  121ba0:	fffc3b1f 40ce847f 00000000 00000000     .;.....@........
	...
  121db0:	fffc3b1f 40ce847f 00000000 00000000     .;.....@........
	...
  121fc0:	fffc3b1f 40ce847f 00000000 00000000     .;.....@........
	...
  1221d0:	fffc3b1f 40ce847f 00000000 00000000     .;.....@........
	...
  1223e0:	fffc3b1f 40ce847f 00000000 00000000     .;.....@........
	...
  1225f0:	fffc3b1f 40ce847f 00000000 00000000     .;.....@........
	...
  122800:	fffc3b1f 40ce847f 00000000 00000000     .;.....@........
	...
  122a10:	fffc3b1f 40ce847f 00000000 00000000     .;.....@........
	...
  122c20:	fffc3b1f 40ce847f 00000000 00000000     .;.....@........
	...
  122e30:	fffc3b1f 40ce847f 00000000 00000000     .;.....@........
	...
  123040:	fffc3b1f 40ce847f 00000000 00000000     .;.....@........
	...
  123250:	fffc3b1f 40ce847f 00000000 00000000     .;.....@........
	...
  123460:	fffc3b1f 40ce847f 00000000 00000000     .;.....@........
	...
  123670:	fffc3b1f 40ce847f 00000000 00000000     .;.....@........
	...
  123880:	fffc3b1f 40ce847f 00000000 00000000     .;.....@........
	...
  123a90:	fffc3b1f 40ce847f 00000000 00000000     .;.....@........
	...
  123ca0:	fffc3b1f 40ce847f 00000000 00000000     .;.....@........
	...
  123eb0:	fffc3b1f 40ce847f 00000000 00000000     .;.....@........
	...
  1240c0:	fffc3b1f 40ce847f 00000000 00000000     .;.....@........
	...
  1242d0:	fffc3b1f 40ce847f 00000000 00000000     .;.....@........
	...
  1244e0:	fffc3b1f 40ce847f 00000000 00000000     .;.....@........
	...
  1246f0:	fffc3b1f 40ce847f                       .;.....@

001246f8 <b_s.6973>:
  1246f8:	01010102 02010102 01010101 01010203     ................
  124708:	04050101 01000101 01010101 02010103     ................

00124718 <dv7.6373>:
	...
  124720:	e3fdf611 3fcb8d0b 3c2c5b75 3fd250af     .......?u[,<.P.?
  124730:	38443b37 3fd57cb9 e82fa6ec 3fd801fc     7;D8.|.?../....?
  124740:	2e4cd0a4 3fda230c 2f3861e9 3fdc004d     ..L..#.?.a8/M..?
  124750:	5a747259 3fddac2f 2d4cd5be 3fdf3248     YrtZ/..?..L-H2.?
  124760:	278ebba4 3fe04d32 3b025d3f 3fe0f505     ...'2M.??].;...?
  124770:	97413673 3fe192a6 8f7a1aea 3fe227a2     s6A....?..z..'.?
  124780:	3863d879 3fe2b52e c05791eb 3fe33c3f     y.c8...?..W.?<.?
  124790:	c1a2b127 3fe3bd9e 8dff9b50 3fe439ef     '......?P....9.?
  1247a0:	363dfea6 3fe4b1bb 621ad373 3fe52575     ..=6...?s..bu%.?
  1247b0:	a707ce95 3fe59580 cfd97eec 3fe60231     .......?.~..1..?
  1247c0:	61a37c3a 3fe66bd2 9200056e 3fe6d2a2     :|.a.k.?n......?
  1247d0:	d346f8a8 3fe736da 10b32a78 3fe798ad     ..F..6.?x*.....?
  1247e0:	ad46f546 3fe7f845 53430a73 3fe855cc     F.F.E..?s.CS.U.?
  1247f0:	9e7b769e 3fe8b164 a94ecf94 3fe90b2e     .v{.d..?..N....?
  124800:	822c1eee 3fe96347 8e38c542 3fe9b9c9     ..,.Gc.?B.8....?
  124810:	dca4a72f 3fea0ecc 6d77cd55 3fea6267     /......?U.wmgb.?
  124820:	6e10162c 3feab4ad 6d136c99 3feb05b1     ,..n...?.l.m...?
  124830:	87427a28 3feb5584 8e529f38 3feba436     (zB..U.?8.R.6..?
  124840:	2abf8232 3febf1d6 f9594ef3 3fec3e70     2..*...?.NY.p>.?
  124850:	a5323b61 3fec8a13 fe722688 3fecd4c9     a;2....?.&r....?
  124860:	0e80b747 3fed1e9f 29e41f0e 3fed679d     G......?...).g.?
  124870:	0023b8be 3fedafce a9f17655 3fedf73a     ..#....?Uv..:..?
  124880:	b5d2edfe 3fee3deb 337a6f04 3fee83e9     .....=.?.oz3...?
  124890:	bdf982cd 3feec93a 84f06226 3fef0de7     ....:..?&b.....?
  1248a0:	54d8f686 3fef51f6 9e87d7ae 3fef956d     ...T.Q.?....m..?
  1248b0:	7dfa2ea8 3fefd853 e04234e1 3ff00d56     ...}S..?.4B.V..?
  1248c0:	f5398fb0 3ff02e40 9e16a5ec 3ff04eea     ..9.@..?.....N.?
  1248d0:	5b729ffa 3ff06f56 9071f40b 3ff08f86     ..r[Vo.?..q....?
  1248e0:	84bc611b 3ff0af7d 664bcc83 3ff0cf3d     .a..}..?..Kf=..?
  1248f0:	4b160858 3ff0eec8 329515e6 3ff10e20     X..K...?...2 ..?
  124900:	07310fd2 3ff12d47 9f8e9132 3ff14c3e     ..1.G-.?2...>L.?
  124910:	bfc42021 3ff16b08 1a78da30 3ff189a7     ! ...k.?0.x....?
  124920:	51ee6d8c 3ff1a81b f8f82ab5 3ff1c666     .m.Q...?.*..f..?
  124930:	93e0d41a 3ff1e48b 9940a093 3ff2028a     .......?..@....?
  124940:	72c4c6db 3ff22065 7de9c31c 3ff23e1d     ...re .?...}.>.?
  124950:	0ca96c02 3ff25bb4 661dd38c 3ff2792a     .l...[.?...f*y.?
  124960:	c719d716 3ff29681 62b82ecd 3ff2b3bb     .......?...b...?
  124970:	62e1b84c 3ff2d0d8 e8cba99f 3ff2edd9     L..b...?.......?
  124980:	0d6e48d1 3ff30ac1 e1f4b92c 3ff3278e     .Hn....?,....'.?
  124990:	70265e9d 3ff34444 baca52db 3ff360e2     .^&pDD.?.R...`.?
  1249a0:	be055865 3ff37d6a 6fb2b263 3ff399dd     eX..j}.?c..o...?
  1249b0:	bfb83d17 3ff3b63b 98561def 3ff3d286     .=..;..?..V....?
  1249c0:	de725a92 3ff3eebe 71e09e82 3ff40ae5     .Zr....?...q...?
  1249d0:	2da6744c 3ff426fb e83c30a8 3ff44300     Lt.-.&.?.0<..C.?
  1249e0:	73cac76f 3ff45ef7 9e66c341 3ff47adf     o..s.^.?A.f..z.?
  1249f0:	32488f20 3ff496ba f6024168 3ff4b287      .H2...?hA.....?
  124a00:	acb311e9 3ff4ce49 1638a601 3ff4ea00     ....I..?..8....?
  124a10:	ef5e5561 3ff505ab f20a8b6d 3ff5214d     aU^....?m...M!.?
  124a20:	d56a6663 3ff53ce6 4e1bb2c9 3ff55877     cfj..<.?...NwX.?
  124a30:	0e555f67 3ff57400 c60e8522 3ff58f81     g_U..t.?"......?
  124a40:	23241b44 3ff5aafd d17d7331 3ff5c672     D.$#...?1s}.r..?
  124a50:	7b2f8ce6 3ff5e1e3 c89f5e4a 3ff5fd4f     ../{...?J^..O..?
  124a60:	60a31fd9 3ff618b8 e8a2b0b5 3ff6341d     ...`...?.....4.?
  124a70:	04b72608 3ff64f81 57c9966f 3ff66ae2     .&...O.?o..W.j.?
  124a80:	83b1313e 3ff68642 2950b2ae 3ff6a1a2     >1..B..?..P)...?
  124a90:	e8b343c2 3ff6bd01 6128d366 3ff6d862     .C.....?f.(ab..?
  124aa0:	3161f84c 3ff6f3c4 f78b68da 3ff70f27     L.a1...?.h..'..?
  124ab0:	516914d9 3ff72a8e dc70eedc 3ff745f7     ..iQ.*.?..p..E.?
  124ac0:	35e57334 3ff76165 faeff44c 3ff77cd6     4s.5ea.?L....|.?
  124ad0:	c8babda8 3ff7984d 3c8b1416 3ff7b3ca     ....M..?...<...?
  124ae0:	f3db2307 3ff7cf4c 8c73ded7 3ff7ead6     .#..L..?..s....?
  124af0:	a486ea0e 3ff80667 dac88670 3ff82200     ....g..?p....".?
  124b00:	ce899f01 3ff83da2 1fd1f5c7 3ff8594e     .....=.?....NY.?
  124b10:	6f7a7ebc 3ff87503 5f47f71c 3ff890c3     .~zo.u.?..G_...?
  124b20:	9205c03c 3ff8ac8e aba10c8e 3ff8c865     <......?....e..?
  124b30:	51446a38 3ff8e449 2973b57b 3ff9003a     8jDQI..?{.s):..?
  124b40:	dc288338 3ff91c38 12ef0b0e 3ff93846     8.(.8..?....F8.?
  124b50:	7903a28f 3ff95462 bb70d5ec 3ff9708e     ...ybT.?..p..p.?
  124b60:	892e2a3b 3ff98ccb 933f99ac 3ff9a919     ;*.....?..?....?
  124b70:	8cd5d92d 3ff9c579 2b6f73fb 3ff9e1ec     -...y..?.so+...?
  124b80:	26fad238 3ff9fe72 39f93686 3ffa1b0c     8..&r..?.6.9...?
  124b90:	21a2c869 3ffa37bb 9e0bbb80 3ffa547f     i..!.7.?.....T.?
  124ba0:	724aa9b9 3ffa715a 64a03134 3ffa8e4c     ..JrZq.?41.dL..?
  124bb0:	3e9ff0f1 3ffaab56 cd5af5b9 3ffac878     ...>V..?..Z.x..?
  124bc0:	e18bb326 3ffae5b4 4fc3a103 3ffb030b     &......?...O...?
  124bd0:	f09a9855 3ffb207c a0e00bf3 3ffb3e0a     U...| .?.....>.?
  124be0:	41ce3cfc 3ffb5bb5 b93f891a 3ffb797d     .<.A.[.?..?.}y.?
  124bf0:	f1e5f726 3ffb9764 db852560 3ffbb56b     &...d..?`%..k..?
  124c00:	6b2ec09b 3ffbd393 9b81ae78 3ffbf1dc     ...k...?x......?
  124c10:	6cec1699 3ffc1048 e5f07a2c 3ffc2ed7     ...lH..?,z.....?
  124c20:	136e0d23 3ffc4d8c 08ec86f8 3ffc6c66     #.n..M.?....fl.?
  124c30:	e0eba610 3ffc8b66 bd36a2a0 3ffcaa8f     ....f..?..6....?
  124c40:	c73bd68f 3ffcc9e1 3068e033 3ffce95e     ..;....?3.h0^..?
  124c50:	328b8f62 3ffd0906 1037ef06 3ffd28db     b..2...?..7..(.?
  124c60:	1533c655 3ffd48de 96e7f132 3ffd6910     U.3..H.?2....i.?
  124c70:	f4d7fb8c 3ffd8973 99206e66 3ffdaa09     ....s..?fn ....?
  124c80:	f8fc48f9 3ffdcad2 95522e43 3ffdebd1     .H.....?C.R....?
  124c90:	fb49d22c 3ffe0d06 c4ea46e6 3ffe2e74     ,.I....?.F..t..?
  124ca0:	99c1d171 3ffe501c 2f97fe26 3ffe7200     q....P.?&../.r.?
  124cb0:	4b2abefa 3ffe9421 c0f76f10 3ffeb681     ..*K!..?.o.....?
  124cc0:	7610a720 3ffed923 6101ec94 3ffefc08      ..v#..?...a...?
  124cd0:	8ac25328 3fff1f32 0fb74d7c 3fff42a4     (S..2..?|M...B.?
  124ce0:	20c9015a 3fff665f 04899785 3fff8a66     Z.. _f.?....f..?
  124cf0:	187122ce 3fffaebb d22fe78e 3fffd360     ."q....?../.`..?
  124d00:	c118f60d 3ffff859 47d3a078 40000ed4     ....Y..?x..G...@
  124d10:	028fc93e 400021a8 83a902a2 400034a9     >....!.@.....4.@
  124d20:	4e3ef5ca 400047da f6adb37b 40005b3b     ..>N.G.@{...;[.@
  124d30:	23a72664 40006ed0 8f632e13 40008298     d&.#.n.@..c....@
  124d40:	08e8a24e 40009697 7571c0bb 4000aacd     N......@..qu...@
  124d50:	d1eed445 4000bf3d 34aa3d38 4000d3ea     E...=..@8=.4...@
  124d60:	cf11658d 4000e8d4 efa69fb0 4000fdff     .e.....@.......@
  124d70:	0420704a 4001136e 9bbb5d39 40012921     Jp .n..@9]..!).@
  124d80:	69c40975 40013f1d 48602e40 40015564     u..i.?.@@.`HdU.@
  124d90:	3b9deeee 40016bf9 74d21260 400182df     ...;.k.@`..t...@
  124da0:	564eebb5 40019a1a 777f2f8d 4001b1ad     ..NV...@./.w...@
  124db0:	a971a694 4001c99c fbe4ae37 4001e1eb     ..q....@7......@
  124dc0:	c2e2d903 4001fa9f 9d04cc87 400213bc     .......@.......@
  124dd0:	7a6fd3eb 40022d47 a4ac9c20 40024745     ..ozG-.@ ...EG.@
  124de0:	c77658d8 400261bc faa8592a 40027cb2     .Xv..a.@*Y...|.@
  124df0:	cd770e72 4002982e 532a0a56 4002b437     r.w....@V.*S7..@
  124e00:	3196db8d 4002d0d4 b1a978f3 4002ee0d     ...1...@.x.....@
  124e10:	d256aee1 40030bec 5e68a4a9 40032a7b     ..V....@..h^{*.@
  124e20:	05ae12a4 400349c4 7a33a848 400369d2     .....I.@H.3z.i.@
  124e30:	92564101 40038ab3 70ae88ef 4003ac75     .AV....@...pu..@
  124e40:	b317049f 4003cf27 aa60f47c 4003f2db     ....'..@|.`....@
  124e50:	9cb9e5d1 400417a4 15545e8b 40043d98     .......@.^T..=.@
  124e60:	44a73a0f 400464ce 759c43b4 40048d62     .:.D.d.@.C.ub..@
  124e70:	9d6b5a30 4004b773 0dcd88fb 4004e325     0Zk.s..@....%..@
  124e80:	53e9ac3c 4005109f 523a7e3c 40054011     <..S...@<~:R.@.@
  124e90:	a94ae410 400571b1 8b718dd4 4005a5c0     ..J..q.@..q....@
  124ea0:	243ad0fb 4005dc8a cf861e54 40061669     ..:$...@T...i..@
  124eb0:	7b006af0 400653ce be9fe5bb 40069540     .j.{.S.@....@..@
  124ec0:	8d09e227 4006db6b f05f7a2e 40072728     '...k..@.z_.('.@
  124ed0:	56090677 40077995 f4d6ce84 4007d42d     w..V.y.@....-..@
  124ee0:	0529f22b 40083903 bfaa7c0c 4008ab0f     +.)..9.@.|.....@
  124ef0:	946f4494 40092ee0 014057a7 4009cbee     .Do....@.W@....@
  124f00:	78947763 400a8fdc 3878fdad 400b981f     cw.x...@..x8...@
  124f10:	8209ad36 400d3bb4 7815d98b 400f493b     6....;.@...x;I.@

00124f20 <dv8.6375>:
  124f20:	00000000 3ff00000 c979f094 3fef446a     .......?..y.jD.?
  124f30:	5b6ca921 3feeb754 e027f07a 3fee3f11     !.l[T..?z.'..?.?
  124f40:	a704de9a 3fedd36f 0657bcfb 3fed7092     ....o..?..W..p.?
  124f50:	78a119dd 3fed1449 a8a72df0 3fecbd33     ...xI..?.-..3..?
  124f60:	cea97885 3fec6a5e d9eebaef 3fec1b1c     .x..^j.?.......?
  124f70:	4ee1dc82 3febceeb 3a8ff556 3feb8565     ...N...?V..:e..?
  124f80:	8234dd10 3feb3e3a 3f6ce8a9 3feaf92a     ..4.:>.?..l?*..?
  124f90:	f17a2509 3feab5fe d550c9e7 3fea748b     .%z....?..P..t.?
  124fa0:	fdf5af15 3fea34aa ee651fd6 3fe9f63b     .....4.?..e.;..?
  124fb0:	8d24067f 3fe9b922 57617ac1 3fe97d46     ..$."..?.zaWF}.?
  124fc0:	c21b7a4b 3fe94291 bd317153 3fe908f1     Kz...B.?Sq1....?
  124fd0:	4fe60aa6 3fe8d055 48badf00 3fe898ad     ...OU..?...H...?
  124fe0:	fc37bca9 3fe861eb 0f56cf6d 3fe82c05     ..7..a.?m.V..,.?
  124ff0:	4b20e2cd 3fe7f6ed 779c6858 3fe7c29a     .. K...?Xh.w...?
  125000:	3ca0b0d8 3fe78f03 0770d854 3fe75c1f     ...<...?T.p..\.?
  125010:	f43f6d10 3fe729e5 baea7aee 3fe6f850     .m?..).?.z..P..?
  125020:	9e635a85 3fe6c758 5e513b27 3fe696f7     .Zc.X..?';Q^...?
  125030:	2a92e326 3fe66727 98550c1b 3fe637e2     &..*'g.?..U..7.?
  125040:	98802667 3fe60924 6f4aff6b 3fe5dae8     g&..$..?k.Jo...?
  125050:	acc85c8d 3fe5ad29 264c8d8e 3fe57fe4     .\..)..?..L&...?
  125060:	f08d9e45 3fe55313 5a656cd4 3fe526b5     E....S.?.leZ.&.?
  125070:	e820b665 3fe4fac4 4f494ec3 3fe4cf3f     e. ....?.NIO?..?
  125080:	72dc5275 3fe4a421 5fdf5016 3fe47968     uR.r!..?.P._hy.?
  125090:	4a49367d 3fe44f11 8a355fe6 3fe42519     }6IJ.O.?._5..%.?
  1250a0:	99585b86 3fe3fb7e 10af31a0 3fe3d23e     .[X.~..?.1..>..?
  1250b0:	a662cd0f 3fe3a955 2bda00d1 3fe380c3     ..b.U..?...+...?
  1250c0:	8bf550eb 3fe35884 c9703a33 3fe33097     .P...X.?3:p..0.?
  1250d0:	fd6438eb 3fe308fa 55ea3bee 3fe2e1ac     .8d....?.;.U...?
  1250e0:	14d79546 3fe2baaa 8e93cd16 3fe293f2     F......?.......?
  1250f0:	290504f0 3fe26d84 5a90db82 3fe2475d     ...).m.?...Z]G.?
  125100:	a92ff7f7 3fe2217c a9929626 3fe1fbe0     ../.|!.?&......?
  125110:	fe549969 3fe1d687 573fd117 3fe1b171     i.T....?..?Wq..?
  125120:	709b3c52 3fe18c9b 128639d8 3fe16805     R<.p...?.9...h.?
  125130:	105ea99b 3fe143ad 48311f3b 3fe11f92     ..^..C.?;.1H...?
  125140:	a2325912 3fe0fbb3 1041429c 3fe0d810     .Y2....?.BA....?
  125150:	8d70d9af 3fe0b4a6 1d995d7e 3fe09176     ..p....?~]..v..?
  125160:	ccf03c36 3fe06e7d afa63f2f 3fe04bbc     6<..}n.?/?...K.?
  125170:	e18b8229 3fe02931 85b8cac7 3fe006dc     )...1).?.......?
  125180:	8c7bbda6 3fdfc977 a7a900d2 3fdf859d     ..{.w..?.......?
  125190:	cb2f7af2 3fdf4229 717e8f8f 3fdeff1a     .z/.)B.?..~q...?
  1251a0:	20bd1f58 3fdebc6e 6a4ec3c7 3fde7a23     X.. n..?..Nj#z.?
  1251b0:	ea5f9b81 3fde3838 47763a10 3fddf6ad     .._.88.?.:vG...?
  1251c0:	320b56ab 3fddb57f 6426de35 3fdd74ad     .V.2...?5.&d.t.?
  1251d0:	a1021078 3fdd3436 b4ae5b76 3fdcf419     x...64.?v[.....?
  1251e0:	73c0a847 3fdcb455 bb00d7c0 3fdc74e8     G..sU..?.....t.?
  1251f0:	6f1d2cb8 3fdc35d2 7c616a0d 3fdbf711     .,.o.5.?.ja|...?
  125200:	d6716d8c 3fdbb8a4 78071325 3fdb7a8b     .mq....?%..x.z.?
  125210:	62b331cb 3fdb3cc4 9ea18554 3fdaff4e     .1.b.<.?T...N..?
  125220:	3a5f5a9a 3fdac229 4aa4d87e 3fda8553     .Z_:)..?~..JS..?
  125230:	ea20c04a 3fda48cb 39468437 3fda0c92     J. ..H.?7.F9...?
  125240:	5e1e93d6 3fd9d0a5 8418c0c2 3fd99504     ...^...?.......?
  125250:	dbe09f8b 3fd959ae 9b33cb0c 3fd91ea3     .....Y.?..3....?
  125260:	fcb9f11a 3fd8e3e1 3fde9183 3fd8a969     .......?...?i..?
  125270:	a8ac5aaa 3fd86f38 7faa0dd6 3fd8354f     .Z..8o.?....O5.?
  125280:	11b8d90f 3fd7fbad aff414a7 3fd7c250     .......?....P..?
  125290:	af9252e0 3fd78939 69c7b1ec 3fd75067     .R..9..?...igP.?
  1252a0:	3ba9614b 3fd717d9 86124cb3 3fd6df8e     Ka.;...?.L.....?
  1252b0:	ad88de25 3fd6a786 1a25cbe0 3fd66fc1     %......?..%..o.?
  1252c0:	377be51b 3fd6383d 7480d2cd 3fd600fa     ..{7=8.?...t...?
  1252d0:	4376c246 3fd5c9f8 19d6eebd 3fd59336     F.vC...?....6..?
  1252e0:	703d00f8 3fd55cb3 c2533be2 3fd5266f     ..=p.\.?.;S.o&.?
  1252f0:	8ebf6d8b 3fd4f06a 57109ca0 3fd4baa3     .m..j..?...W...?
  125300:	9fad6ace 3fd48519 efc32505 3fd44fcc     .j.....?.%...O.?
  125310:	d1357a16 3fd41abc d08ed2d2 3fd3e5e8     .z5....?.......?
  125320:	7cf143ad 3fd3b150 68081379 3fd37cf3     .C.|P..?y..h.|.?
  125330:	25f9d19d 3fd348d1 4d5af626 3fd314e9     ...%.H.?&.ZM...?
  125340:	77210769 3fd2e13b 3e963fd9 3fd2adc7     i.!w;..?.?.>...?
  125350:	414db11f 3fd27a8c 1f17de8d 3fd2478a     ..MA.z.?.....G.?
  125360:	79f7cca6 3fd214c0 f6188117 3fd1e22e     ...y...?.......?
  125370:	39c2f04a 3fd1afd5 ed5454e7 3fd17db2     J..9...?.TT..}.?
  125380:	bb34ee5f 3fd14bc7 4fcf241b 3fd11a13     _.4..K.?.$.O...?
  125390:	598709c1 3fd0e895 88b242d6 3fd0b74d     ...Y...?.B..M..?
  1253a0:	8f904332 3fd0863b 2242e9da 3fd0555f     2C..;..?..B"_U.?
  1253b0:	f6c7747b 3fd024b7 89df93d6 3fcfe88b     {t...$.?.......?
  1253c0:	8cb8323b 3fcf8810 6ce998c7 3fcf27fe     ;2.....?...l.'.?
  1253d0:	a4c99c53 3fcec854 b2283cda 3fce6912     S...T..?.<(..i.?
  1253e0:	16457184 3fce0a38 55c79014 3fcdabc4     .qE.8..?...U...?
  1253f0:	f8b25167 3fcd4db6 8a5e6fe6 3fccf00f     gQ...M.?.o^....?
  125400:	9971df66 3fcc92cd b7d89d47 3fcc35f0     f.q....?G....5.?
  125410:	7abe189c 3fcbd978 7a8731b9 3fcb7d64     ...zx..?.1.zd}.?
  125420:	52ccd157 3fcb21b4 a2571804 3fcac667     W..R.!.?..W.g..?
  125430:	0b192685 3fca6b7e 322d7e40 3fca10f7     .&..~k.?@~-2...?
  125440:	bfd2fe69 3fc9b6d2 5f6a7c46 3fc95d10     i......?F|j_.].?
  125450:	bf74fa82 3fc903af 91928155 3fc8aab0     ..t....?U......?
  125460:	8a819a39 3fc85212 621f718e 3fc7f9d5     9....R.?.q.b...?
  125470:	d368a33d 3fc7a1f8 9c7ab5b8 3fc74a7c     =.h....?..z.|J.?
  125480:	7e964725 3fc6f360 3e21f261 3fc69ca4     %G.~`..?a.!>...?
  125490:	a2adf1ac 3fc64647 76f88402 3fc5f04a     ....GF.?...vJ..?
  1254a0:	88f31d86 3fc59aac a9c86838 3fc5456d     .......?8h..mE.?
  1254b0:	ade31fd0 3fc4f08d 6cf5ce2d 3fc49c0c     .......?-..l...?
  1254c0:	c20375ef 3fc447e9 8b6931cb 3fc3f425     .u...G.?.1i.%..?
  1254d0:	aae8d7f3 3fc3a0bf 05b4ab94 3fc34db8     .......?.....M.?
  1254e0:	847c2a75 3fc2fb0e 137a0719 3fc2a8c3     u*|....?..z....?
  1254f0:	a2835eca 3fc256d5 25183c3f 3fc20546     .^...V.??<.%F..?
  125500:	92757d4c 3fc1b414 e5a82d6c 3fc16340     L}u....?l-..@c.?
  125510:	1da26eb3 3fc112cb 3d5209ad 3fc0c2b3     .n.....?..R=...?
  125520:	4bb8bf94 3fc072f9 54067d2e 3fc0239d     ...K.r.?.}.T.#.?
  125530:	cb6b224b 3fbfa93e 29520e06 3fbf0bff     K"k.>..?..R)...?
  125540:	f29aa547 3fbe6f7b 6176e898 3fbdd3b5     G...{o.?..va...?
  125550:	b9bd920a 3fbd38ab 493b7404 3fbc9e5f     .....8.?.t;I_..?
  125560:	680b1024 3fbc04d0 78f2e241 3fbb6bff     $..h...?A..x.k.?
  125570:	e9caf62e 3fbad3ec 33ea6274 3fba3c99     .......?tb.3.<.?
  125580:	dc9d5b18 3fb9a604 75a4a0ae 3fb91030     .[.....?...u0..?
  125590:	9dbf2852 3fb87b1c 013eefd5 3fb7e6ca     R(...{.?..>....?
  1255a0:	5aaa1179 3fb75339 73694a4d 3fb6c06b     y..Z9S.?MJisk..?
  1255b0:	24854d1a 3fb62e61 577466a6 3fb59d1b     .M.$a..?.ftW...?
  1255c0:	06fa2bb5 3fb50c9b 401b2215 3fb47ce1     .+.....?.".@.|.?
  1255d0:	23269a84 3fb3edef e4d93e72 3fb35fc5     ..&#...?r>..._.?
  1255e0:	cf9b3116 3fb2d266 44dd0d98 3fb245d3     .1..f..?...D.E.?
  1255f0:	be978980 3fb1ba0c d0f217a4 3fb12f14     .......?...../.?
  125600:	2c15962c 3fb0a4ed 9e30e49b 3fb01b97     ,..,...?..0....?
  125610:	2b6c6e47 3faf262c 47b25198 3fae16d5     Gnl+,&.?.Q.G...?
  125620:	feadf17f 3fad092e 0f282a46 3fabfd3e     .......?F*(.>..?
  125630:	90385f8e 3faaf307 f9295574 3fa9ea90     ._8....?tU)....?
  125640:	2a68b5c2 3fa8e3e0 77af272f 3fa7defb     ..h*...?/'.w...?
  125650:	b398d078 3fa6dbe9 3cf2ade8 3fa5dab2     x......?...<...?
  125660:	0e112774 3fa4db5d ce98eed3 3fa3ddf2     t'..]..?.......?
  125670:	e83df4a5 3fa2e27c 9f1f6ac7 3fa1e905     ..=.|..?.j.....?
  125680:	2e968014 3fa0f198 d718a5c4 3f9ff881     .......?.......?
  125690:	db828c81 3f9e121a 83cd0916 3f9c3019     .......?.....0.?
  1256a0:	4e22ebf5 3f9a529f b600c110 3f9879d1     .."N.R.?.....y.?
  1256b0:	f40bbf90 3f96a5da f2fbb061 3f94d6ea     .......?a......?
  1256c0:	8dab5e29 3f930d38 34603023 3f914903     )^..8..?#0`4.I.?
  1256d0:	4f72dd44 3f8f152a 274f8fbf 3f8ba48d     D.rO*..?..O'...?
  1256e0:	0d8da484 3f884104 421acff8 3f84eb96     .....A.?...B...?
  1256f0:	29952fa0 3f81a592 f8ec684b 3f7ce160     ./.)...?Kh..`.|?
  125700:	d90cb872 3f769ea8 03b0b210 3f708a1f     r.....v?......p?
  125710:	43c1b069 3f655f9f b6b9f718 3f54a605     i..C._e?......T?
  125720:	6f138412 3f3f4a94 00707865 00676f6c     ...o.J??exp.log.
  125730:	74727173 00000000                       sqrt....

00125738 <ln2HI>:
  125738:	fee00000 3fe62e42 fee00000 bfe62e42     ....B..?....B...

00125748 <ln2LO>:
  125748:	35793c76 3dea39ef 35793c76 bdea39ef     v<y5.9.=v<y5.9..

00125758 <halF>:
  125758:	00000000 3fe00000 00000000 bfe00000     .......?........

00125768 <_global_impure_ptr>:
  125768:	00130010                                ....

0012576c <blanks.8421>:
  12576c:	20202020 20202020 20202020 20202020                     

0012577c <zeroes.8422>:
  12577c:	30303030 30303030 30303030 30303030     0000000000000000
  12578c:	00464e49 00666e69 004e414e 006e616e     INF.inf.NAN.nan.
  12579c:	33323130 37363534 42413938 46454443     0123456789ABCDEF
  1257ac:	00000000 33323130 37363534 62613938     ....0123456789ab
  1257bc:	66656463 00000000 6c756e28 0000296c     cdef....(null)..
  1257cc:	00000030 69666e49 7974696e 00000000     0...Infinity....
  1257dc:	004e614e                                NaN.

001257e0 <p05.7236>:
  1257e0:	00000005 00000019 0000007d 00000000     ........}.......

001257f0 <__mprec_tens>:
  1257f0:	00000000 3ff00000 00000000 40240000     .......?......$@
  125800:	00000000 40590000 00000000 408f4000     ......Y@.....@.@
  125810:	00000000 40c38800 00000000 40f86a00     .......@.....j.@
  125820:	00000000 412e8480 00000000 416312d0     .......A......cA
  125830:	00000000 4197d784 00000000 41cdcd65     .......A....e..A
  125840:	20000000 4202a05f e8000000 42374876     ... _..B....vH7B
  125850:	a2000000 426d1a94 e5400000 42a2309c     ......mB..@..0.B
  125860:	1e900000 42d6bcc4 26340000 430c6bf5     .......B..4&.k.C
  125870:	37e08000 4341c379 85d8a000 43763457     ...7y.AC....W4vC
  125880:	674ec800 43abc16d 60913d00 43e158e4     ..Ngm..C.=.`.X.C
  125890:	78b58c40 4415af1d d6e2ef50 444b1ae4     @..x...DP.....KD
  1258a0:	064dd592 4480f0cf c7e14af6 44b52d02     ..M....D.J...-.D
  1258b0:	79d99db4 44ea7843                       ...yCx.D

001258b8 <__mprec_tinytens>:
  1258b8:	97d889bc 3c9cd2b2 d5a8a733 3949f623     .......<3...#.I9
  1258c8:	44f4a73d 32a50ffd cf8c979d 255bba08     =..D...2......[%
  1258d8:	64ac6f43 0ac80628                       Co.d(...

001258e0 <__mprec_bigtens>:
  1258e0:	37e08000 4341c379 b5056e17 4693b8b5     ...7y.AC.n.....F
  1258f0:	e93ff9f5 4d384f03 f9301d32 5a827748     ..?..O8M2.0.Hw.Z
  125900:	7f73bf3c 75154fdd                       <.s..O.u

00125908 <blanks.8400>:
  125908:	20202020 20202020 20202020 20202020                     

00125918 <zeroes.8401>:
  125918:	30303030 30303030 30303030 30303030     0000000000000000
  125928:	00000043 49534f50 00000058 0000002e     C...POSIX.......

00125938 <_ctype_>:
  125938:	20202000 20202020 28282020 20282828     .         ((((( 
  125948:	20202020 20202020 20202020 20202020                     
  125958:	10108820 10101010 10101010 10101010      ...............
  125968:	04040410 04040404 10040404 10101010     ................
  125978:	41411010 41414141 01010101 01010101     ..AAAAAA........
  125988:	01010101 01010101 01010101 10101010     ................
  125998:	42421010 42424242 02020202 02020202     ..BBBBBB........
  1259a8:	02020202 02020202 02020202 10101010     ................
  1259b8:	00000020 00000000 00000000 00000000      ...............
	...

00125a3c <_init>:
  125a3c:	e1a0c00d 	mov	ip, sp
  125a40:	e92ddff8 	push	{r3, r4, r5, r6, r7, r8, r9, sl, fp, ip, lr, pc}
  125a44:	e24cb004 	sub	fp, ip, #4
  125a48:	e24bd028 	sub	sp, fp, #40	; 0x28
  125a4c:	e89d6ff0 	ldm	sp, {r4, r5, r6, r7, r8, r9, sl, fp, sp, lr}
  125a50:	e12fff1e 	bx	lr

00125a54 <__preinit_array_start>:
  125a54:	00110e88 	.word	0x00110e88

00125a58 <__init_array_start>:
  125a58:	0010890c 	.word	0x0010890c
  125a5c:	0010c560 	.word	0x0010c560
  125a60:	0010c56c 	.word	0x0010c56c

00125a64 <__frame_dummy_init_array_entry>:
  125a64:	001001c8                                ....

00125a68 <_fini>:
  125a68:	e1a0c00d 	mov	ip, sp
  125a6c:	e92ddff8 	push	{r3, r4, r5, r6, r7, r8, r9, sl, fp, ip, lr, pc}
  125a70:	e24cb004 	sub	fp, ip, #4
  125a74:	e24bd028 	sub	sp, fp, #40	; 0x28
  125a78:	e89d6ff0 	ldm	sp, {r4, r5, r6, r7, r8, r9, sl, fp, sp, lr}
  125a7c:	e12fff1e 	bx	lr

00125a80 <__fini_array_start>:
  125a80:	00100184 	.word	0x00100184

00125a84 <__cs3_regions>:
  125a84:	00000000 	.word	0x00000000
  125a88:	ffff0000 	.word	0xffff0000
  125a8c:	ffff0000 	.word	0xffff0000
	...
  125a9c:	00100040 	.word	0x00100040
  125aa0:	00100040 	.word	0x00100040
  125aa4:	00030980 	.word	0x00030980
  125aa8:	00000a58 	.word	0x00000a58

00125aac <__cs3_regions_end>:
  125aac:	00000000 	.word	0x00000000
